ARM GAS  C:\Users\claym\AppData\Local\Temp\ccGY57bu.s 			page 1


   1              		.cpu cortex-m0
   2              		.eabi_attribute 20, 1	@ Tag_ABI_FP_denormal
   3              		.eabi_attribute 21, 1	@ Tag_ABI_FP_exceptions
   4              		.eabi_attribute 23, 3	@ Tag_ABI_FP_number_model
   5              		.eabi_attribute 24, 1	@ Tag_ABI_align8_needed
   6              		.eabi_attribute 25, 1	@ Tag_ABI_align8_preserved
   7              		.eabi_attribute 26, 1	@ Tag_ABI_enum_size
   8              		.eabi_attribute 30, 4	@ Tag_ABI_optimization_goals
   9              		.eabi_attribute 34, 0	@ Tag_CPU_unaligned_access
  10              		.eabi_attribute 18, 4	@ Tag_ABI_PCS_wchar_t
  11              		.file	"circular_buffer.c"
  12              	@ GNU C11 (GNU Tools for Arm Embedded Processors 7-2017-q4-major) version 7.2.1 20170904 (release) 
  13              	@	compiled by GNU C version 5.3.1 20160211, GMP version 6.1.0, MPFR version 3.1.4, MPC version 1.0.
  14              	
  15              	@ GGC heuristics: --param ggc-min-expand=100 --param ggc-min-heapsize=131072
  16              	@ options passed:  -I . -I .\common\hdr -I .\driver\hdr -I .\utilities\hdr
  17              	@ -I .\inc -I .\driver\hdr -I .\hdr -imultilib thumb/v6-m
  18              	@ -iprefix c:\program files (x86)\gnu tools arm embedded\7 2017-q4-major\bin\../lib/gcc/arm-none-ea
  19              	@ -isysroot c:\program files (x86)\gnu tools arm embedded\7 2017-q4-major\bin\../arm-none-eabi
  20              	@ -D__USES_INITFINI__ -D RUN_FROM_FLASH=1 .\utilities\src\circular_buffer.c
  21              	@ -mcpu=cortex-m0 -mthumb -auxbase-strip .\utilities\src\circular_buffer.o
  22              	@ -gdwarf-2 -Os -Wall -Wstrict-prototypes -fomit-frame-pointer
  23              	@ -fverbose-asm
  24              	@ options enabled:  -faggressive-loop-optimizations -falign-jumps
  25              	@ -falign-labels -falign-loops -fauto-inc-dec -fbranch-count-reg
  26              	@ -fcaller-saves -fchkp-check-incomplete-type -fchkp-check-read
  27              	@ -fchkp-check-write -fchkp-instrument-calls -fchkp-narrow-bounds
  28              	@ -fchkp-optimize -fchkp-store-bounds -fchkp-use-static-bounds
  29              	@ -fchkp-use-static-const-bounds -fchkp-use-wrappers -fcode-hoisting
  30              	@ -fcombine-stack-adjustments -fcommon -fcompare-elim -fcprop-registers
  31              	@ -fcrossjumping -fcse-follow-jumps -fdefer-pop
  32              	@ -fdelete-null-pointer-checks -fdevirtualize -fdevirtualize-speculatively
  33              	@ -fdwarf2-cfi-asm -fearly-inlining -feliminate-unused-debug-types
  34              	@ -fexpensive-optimizations -fforward-propagate -ffp-int-builtin-inexact
  35              	@ -ffunction-cse -fgcse -fgcse-lm -fgnu-runtime -fgnu-unique
  36              	@ -fguess-branch-probability -fhoist-adjacent-loads -fident -fif-conversion
  37              	@ -fif-conversion2 -findirect-inlining -finline -finline-atomics
  38              	@ -finline-functions -finline-functions-called-once
  39              	@ -finline-small-functions -fipa-bit-cp -fipa-cp -fipa-icf
  40              	@ -fipa-icf-functions -fipa-icf-variables -fipa-profile -fipa-pure-const
  41              	@ -fipa-reference -fipa-sra -fipa-vrp -fira-hoist-pressure
  42              	@ -fira-share-save-slots -fira-share-spill-slots
  43              	@ -fisolate-erroneous-paths-dereference -fivopts -fkeep-static-consts
  44              	@ -fleading-underscore -flifetime-dse -flra-remat -flto-odr-type-merging
  45              	@ -fmath-errno -fmerge-constants -fmerge-debug-strings
  46              	@ -fmove-loop-invariants -fomit-frame-pointer -foptimize-sibling-calls
  47              	@ -fpartial-inlining -fpeephole -fpeephole2 -fplt -fprefetch-loop-arrays
  48              	@ -freg-struct-return -freorder-blocks -freorder-functions
  49              	@ -frerun-cse-after-loop -fsched-critical-path-heuristic
  50              	@ -fsched-dep-count-heuristic -fsched-group-heuristic -fsched-interblock
  51              	@ -fsched-last-insn-heuristic -fsched-pressure -fsched-rank-heuristic
  52              	@ -fsched-spec -fsched-spec-insn-heuristic -fsched-stalled-insns-dep
  53              	@ -fschedule-insns2 -fsection-anchors -fsemantic-interposition
  54              	@ -fshow-column -fshrink-wrap -fshrink-wrap-separate -fsigned-zeros
  55              	@ -fsplit-ivs-in-unroller -fsplit-wide-types -fssa-backprop -fssa-phiopt
  56              	@ -fstdarg-opt -fstore-merging -fstrict-aliasing -fstrict-overflow
  57              	@ -fstrict-volatile-bitfields -fsync-libcalls -fthread-jumps
ARM GAS  C:\Users\claym\AppData\Local\Temp\ccGY57bu.s 			page 2


  58              	@ -ftoplevel-reorder -ftrapping-math -ftree-bit-ccp -ftree-builtin-call-dce
  59              	@ -ftree-ccp -ftree-ch -ftree-coalesce-vars -ftree-copy-prop -ftree-cselim
  60              	@ -ftree-dce -ftree-dominator-opts -ftree-dse -ftree-forwprop -ftree-fre
  61              	@ -ftree-loop-if-convert -ftree-loop-im -ftree-loop-ivcanon
  62              	@ -ftree-loop-optimize -ftree-parallelize-loops= -ftree-phiprop -ftree-pre
  63              	@ -ftree-pta -ftree-reassoc -ftree-scev-cprop -ftree-sink -ftree-slsr
  64              	@ -ftree-sra -ftree-switch-conversion -ftree-tail-merge -ftree-ter
  65              	@ -ftree-vrp -funit-at-a-time -fvar-tracking -fvar-tracking-assignments
  66              	@ -fverbose-asm -fzero-initialized-in-bss -mlittle-endian
  67              	@ -mpic-data-is-text-relative -msched-prolog -mthumb
  68              	@ -mvectorize-with-neon-quad
  69              	
  70              		.text
  71              	.Ltext0:
  72              		.cfi_sections	.debug_frame
  73              		.align	1
  74              		.global	VOR_CircularBuffer_Initialize
  75              		.syntax unified
  76              		.code	16
  77              		.thumb_func
  78              		.fpu softvfp
  79              		.type	VOR_CircularBuffer_Initialize, %function
  80              	VOR_CircularBuffer_Initialize:
  81              	.LFB0:
  82              		.file 1 ".\\utilities\\src\\circular_buffer.c"
   1:.\utilities\src/circular_buffer.c **** /***************************************************************************************
   2:.\utilities\src/circular_buffer.c ****  * @file     circular_buffer.c
   3:.\utilities\src/circular_buffer.c ****  * @version  V1.0
   4:.\utilities\src/circular_buffer.c ****  * @date     31. March 2016
   5:.\utilities\src/circular_buffer.c ****  *
   6:.\utilities\src/circular_buffer.c ****  * @note
   7:.\utilities\src/circular_buffer.c ****  * VORAGO Technologies 
   8:.\utilities\src/circular_buffer.c ****  *
   9:.\utilities\src/circular_buffer.c ****  * @note
  10:.\utilities\src/circular_buffer.c ****  * Copyright (c) 2013-2016 VORAGO Technologies. 
  11:.\utilities\src/circular_buffer.c ****  *
  12:.\utilities\src/circular_buffer.c ****  * @par
  13:.\utilities\src/circular_buffer.c ****  * BY DOWNLOADING, INSTALLING OR USING THIS SOFTWARE, YOU AGREE TO BE BOUND BY 
  14:.\utilities\src/circular_buffer.c ****  * ALL THE TERMS AND CONDITIONS OF THE VORAGO TECHNOLOGIES END USER LICENSE AGREEMENT. 
  15:.\utilities\src/circular_buffer.c ****  * THIS SOFTWARE IS PROVIDED "AS IS". NO WARRANTIES, WHETHER EXPRESS, IMPLIED
  16:.\utilities\src/circular_buffer.c ****  * OR STATUTORY, INCLUDING, BUT NOT LIMITED TO, IMPLIED WARRANTIES OF MERCHANTABILITY 
  17:.\utilities\src/circular_buffer.c ****  * AND FITNESS FOR A PARTICULAR PURPOSE APPLY TO THIS SOFTWARE. VORAGO TECHNOLOGIES 
  18:.\utilities\src/circular_buffer.c ****  * SHALL NOT, IN ANY CIRCUMSTANCES, BE LIABLE FOR SPECIAL, INCIDENTAL, OR CONSEQUENTIAL 
  19:.\utilities\src/circular_buffer.c ****  * DAMAGES, FOR ANY REASON WHATSOEVER.
  20:.\utilities\src/circular_buffer.c ****  *
  21:.\utilities\src/circular_buffer.c ****  ****************************************************************************************/
  22:.\utilities\src/circular_buffer.c **** #include <string.h>
  23:.\utilities\src/circular_buffer.c **** #include "circular_buffer.h"
  24:.\utilities\src/circular_buffer.c **** #include "reb_log.h"
  25:.\utilities\src/circular_buffer.c **** 
  26:.\utilities\src/circular_buffer.c **** void VOR_CircularBuffer_Initialize(VOR_CIRCULAR_BUFFER *pBuffer, void *pData, uint16_t item_size, u
  83              		.loc 1 26 0
  84              		.cfi_startproc
  85              		@ args = 0, pretend = 0, frame = 0
  86              		@ frame_needed = 0, uses_anonymous_args = 0
  87              		@ link register save eliminated.
  88              	.LVL0:
ARM GAS  C:\Users\claym\AppData\Local\Temp\ccGY57bu.s 			page 3


  89              	@ .\utilities\src\circular_buffer.c:27: 	pBuffer->max_items = max_items; 
  27:.\utilities\src/circular_buffer.c **** 	pBuffer->max_items = max_items; 
  90              		.loc 1 27 0
  91 0000 8381     		strh	r3, [r0, #12]	@ max_items, pBuffer_2(D)->max_items
  92              	@ .\utilities\src\circular_buffer.c:32: 	pBuffer->write_index = 0; 
  28:.\utilities\src/circular_buffer.c **** 	pBuffer->valid_items = 0; 
  29:.\utilities\src/circular_buffer.c **** 	pBuffer->data = pData; 
  30:.\utilities\src/circular_buffer.c **** 	pBuffer->item_size = item_size; 
  31:.\utilities\src/circular_buffer.c **** 	pBuffer->read_index = 0; 
  32:.\utilities\src/circular_buffer.c **** 	pBuffer->write_index = 0; 
  93              		.loc 1 32 0
  94 0002 0023     		movs	r3, #0	@ tmp116,
  95              	.LVL1:
  96              	@ .\utilities\src\circular_buffer.c:29: 	pBuffer->data = pData; 
  29:.\utilities\src/circular_buffer.c **** 	pBuffer->item_size = item_size; 
  97              		.loc 1 29 0
  98 0004 8160     		str	r1, [r0, #8]	@ pData, pBuffer_2(D)->data
  99              	@ .\utilities\src\circular_buffer.c:30: 	pBuffer->item_size = item_size; 
  30:.\utilities\src/circular_buffer.c **** 	pBuffer->read_index = 0; 
 100              		.loc 1 30 0
 101 0006 C281     		strh	r2, [r0, #14]	@ item_size, pBuffer_2(D)->item_size
 102              	@ .\utilities\src\circular_buffer.c:32: 	pBuffer->write_index = 0; 
 103              		.loc 1 32 0
 104 0008 0360     		str	r3, [r0]	@ tmp116, MEM[(short unsigned int *)pBuffer_2(D)]
 105              	@ .\utilities\src\circular_buffer.c:31: 	pBuffer->read_index = 0; 
  31:.\utilities\src/circular_buffer.c **** 	pBuffer->write_index = 0; 
 106              		.loc 1 31 0
 107 000a 8380     		strh	r3, [r0, #4]	@ tmp116, MEM[(short unsigned int *)pBuffer_2(D) + 4B]
 108              	@ .\utilities\src\circular_buffer.c:33: }
  33:.\utilities\src/circular_buffer.c **** }
 109              		.loc 1 33 0
 110              		@ sp needed	@
 111 000c 7047     		bx	lr
 112              		.cfi_endproc
 113              	.LFE0:
 114              		.size	VOR_CircularBuffer_Initialize, .-VOR_CircularBuffer_Initialize
 115              		.align	1
 116              		.global	VOR_CircularBuffer_IsEmpty
 117              		.syntax unified
 118              		.code	16
 119              		.thumb_func
 120              		.fpu softvfp
 121              		.type	VOR_CircularBuffer_IsEmpty, %function
 122              	VOR_CircularBuffer_IsEmpty:
 123              	.LFB1:
  34:.\utilities\src/circular_buffer.c **** 
  35:.\utilities\src/circular_buffer.c **** bool VOR_CircularBuffer_IsEmpty(VOR_CIRCULAR_BUFFER *pBuffer) {
 124              		.loc 1 35 0
 125              		.cfi_startproc
 126              		@ args = 0, pretend = 0, frame = 0
 127              		@ frame_needed = 0, uses_anonymous_args = 0
 128              	.LVL2:
 129 000e 10B5     		push	{r4, lr}	@
 130              	.LCFI0:
 131              		.cfi_def_cfa_offset 8
 132              		.cfi_offset 4, -8
 133              		.cfi_offset 14, -4
ARM GAS  C:\Users\claym\AppData\Local\Temp\ccGY57bu.s 			page 4


 134              	@ .\utilities\src\circular_buffer.c:36: 	if( pBuffer->valid_items == 0 ) {
  36:.\utilities\src/circular_buffer.c **** 	if( pBuffer->valid_items == 0 ) {
 135              		.loc 1 36 0
 136 0010 8388     		ldrh	r3, [r0, #4]	@ tmp113,
 137              	@ .\utilities\src\circular_buffer.c:40: 		return false; 
  37:.\utilities\src/circular_buffer.c **** 		VOR_Log(LOG_DBG, "The Buffer is Empty! \n");
  38:.\utilities\src/circular_buffer.c **** 		return true; 
  39:.\utilities\src/circular_buffer.c **** 	} else {
  40:.\utilities\src/circular_buffer.c **** 		return false; 
 138              		.loc 1 40 0
 139 0012 0020     		movs	r0, #0	@ <retval>,
 140              	.LVL3:
 141              	@ .\utilities\src\circular_buffer.c:36: 	if( pBuffer->valid_items == 0 ) {
  36:.\utilities\src/circular_buffer.c **** 	if( pBuffer->valid_items == 0 ) {
 142              		.loc 1 36 0
 143 0014 8342     		cmp	r3, r0	@ tmp113,
 144 0016 04D1     		bne	.L3	@,
 145              	.LVL4:
 146              	.LBB4:
 147              	.LBB5:
 148              	@ .\utilities\src\circular_buffer.c:37: 		VOR_Log(LOG_DBG, "The Buffer is Empty! \n");
  37:.\utilities\src/circular_buffer.c **** 		VOR_Log(LOG_DBG, "The Buffer is Empty! \n");
 149              		.loc 1 37 0
 150 0018 0530     		adds	r0, r0, #5	@,
 151 001a 0249     		ldr	r1, .L5	@,
 152 001c FFF7FEFF 		bl	VOR_Log	@
 153              	.LVL5:
 154 0020 0120     		movs	r0, #1	@ <retval>,
 155              	.L3:
 156              	.LBE5:
 157              	.LBE4:
 158              	@ .\utilities\src\circular_buffer.c:42: }
  41:.\utilities\src/circular_buffer.c **** 	}
  42:.\utilities\src/circular_buffer.c **** }
 159              		.loc 1 42 0
 160              		@ sp needed	@
 161 0022 10BD     		pop	{r4, pc}
 162              	.L6:
 163              		.align	2
 164              	.L5:
 165 0024 00000000 		.word	.LC0
 166              		.cfi_endproc
 167              	.LFE1:
 168              		.size	VOR_CircularBuffer_IsEmpty, .-VOR_CircularBuffer_IsEmpty
 169              		.align	1
 170              		.global	VOR_CircularBuffer_IsFull
 171              		.syntax unified
 172              		.code	16
 173              		.thumb_func
 174              		.fpu softvfp
 175              		.type	VOR_CircularBuffer_IsFull, %function
 176              	VOR_CircularBuffer_IsFull:
 177              	.LFB2:
  43:.\utilities\src/circular_buffer.c **** 
  44:.\utilities\src/circular_buffer.c **** bool VOR_CircularBuffer_IsFull(VOR_CIRCULAR_BUFFER *pBuffer) {
 178              		.loc 1 44 0
 179              		.cfi_startproc
ARM GAS  C:\Users\claym\AppData\Local\Temp\ccGY57bu.s 			page 5


 180              		@ args = 0, pretend = 0, frame = 0
 181              		@ frame_needed = 0, uses_anonymous_args = 0
 182              	.LVL6:
 183 0028 10B5     		push	{r4, lr}	@
 184              	.LCFI1:
 185              		.cfi_def_cfa_offset 8
 186              		.cfi_offset 4, -8
 187              		.cfi_offset 14, -4
 188              	@ .\utilities\src\circular_buffer.c:45: 	if( pBuffer->valid_items == pBuffer->max_items ) {
  45:.\utilities\src/circular_buffer.c **** 	if( pBuffer->valid_items == pBuffer->max_items ) {
 189              		.loc 1 45 0
 190 002a 8288     		ldrh	r2, [r0, #4]	@ tmp114,
 191 002c 8389     		ldrh	r3, [r0, #12]	@ tmp115,
 192              	@ .\utilities\src\circular_buffer.c:49: 		return false; 
  46:.\utilities\src/circular_buffer.c **** 		VOR_Log(LOG_DBG, "The Buffer is Full! \n");
  47:.\utilities\src/circular_buffer.c **** 		return true; 
  48:.\utilities\src/circular_buffer.c **** 	} else {
  49:.\utilities\src/circular_buffer.c **** 		return false; 
 193              		.loc 1 49 0
 194 002e 0020     		movs	r0, #0	@ <retval>,
 195              	.LVL7:
 196              	@ .\utilities\src\circular_buffer.c:45: 	if( pBuffer->valid_items == pBuffer->max_items ) {
  45:.\utilities\src/circular_buffer.c **** 	if( pBuffer->valid_items == pBuffer->max_items ) {
 197              		.loc 1 45 0
 198 0030 9A42     		cmp	r2, r3	@ tmp114, tmp115
 199 0032 04D1     		bne	.L8	@,
 200              	.LVL8:
 201              	.LBB8:
 202              	.LBB9:
 203              	@ .\utilities\src\circular_buffer.c:46: 		VOR_Log(LOG_DBG, "The Buffer is Full! \n");
  46:.\utilities\src/circular_buffer.c **** 		VOR_Log(LOG_DBG, "The Buffer is Full! \n");
 204              		.loc 1 46 0
 205 0034 0530     		adds	r0, r0, #5	@,
 206 0036 0249     		ldr	r1, .L10	@,
 207 0038 FFF7FEFF 		bl	VOR_Log	@
 208              	.LVL9:
 209 003c 0120     		movs	r0, #1	@ <retval>,
 210              	.L8:
 211              	.LBE9:
 212              	.LBE8:
 213              	@ .\utilities\src\circular_buffer.c:51: }
  50:.\utilities\src/circular_buffer.c **** 	}
  51:.\utilities\src/circular_buffer.c **** }
 214              		.loc 1 51 0
 215              		@ sp needed	@
 216 003e 10BD     		pop	{r4, pc}
 217              	.L11:
 218              		.align	2
 219              	.L10:
 220 0040 17000000 		.word	.LC2
 221              		.cfi_endproc
 222              	.LFE2:
 223              		.size	VOR_CircularBuffer_IsFull, .-VOR_CircularBuffer_IsFull
 224              		.align	1
 225              		.global	VOR_CircularBuffer_Write
 226              		.syntax unified
 227              		.code	16
ARM GAS  C:\Users\claym\AppData\Local\Temp\ccGY57bu.s 			page 6


 228              		.thumb_func
 229              		.fpu softvfp
 230              		.type	VOR_CircularBuffer_Write, %function
 231              	VOR_CircularBuffer_Write:
 232              	.LFB3:
  52:.\utilities\src/circular_buffer.c **** 
  53:.\utilities\src/circular_buffer.c **** int32_t VOR_CircularBuffer_Write(VOR_CIRCULAR_BUFFER *pBuffer, const void *pItem) {
 233              		.loc 1 53 0
 234              		.cfi_startproc
 235              		@ args = 0, pretend = 0, frame = 0
 236              		@ frame_needed = 0, uses_anonymous_args = 0
 237              	.LVL10:
 238 0044 70B5     		push	{r4, r5, r6, lr}	@
 239              	.LCFI2:
 240              		.cfi_def_cfa_offset 16
 241              		.cfi_offset 4, -16
 242              		.cfi_offset 5, -12
 243              		.cfi_offset 6, -8
 244              		.cfi_offset 14, -4
 245              	@ .\utilities\src\circular_buffer.c:53: int32_t VOR_CircularBuffer_Write(VOR_CIRCULAR_BUFFER *pBuff
 246              		.loc 1 53 0
 247 0046 0400     		movs	r4, r0	@ pBuffer, pBuffer
 248 0048 0E00     		movs	r6, r1	@ pItem, pItem
 249              	@ .\utilities\src\circular_buffer.c:54: 	if( VOR_CircularBuffer_IsFull(pBuffer) ) {
  54:.\utilities\src/circular_buffer.c **** 	if( VOR_CircularBuffer_IsFull(pBuffer) ) {
 250              		.loc 1 54 0
 251 004a FFF7FEFF 		bl	VOR_CircularBuffer_IsFull	@
 252              	.LVL11:
 253 004e 051E     		subs	r5, r0, #0	@ tmp126,,
 254 0050 06D0     		beq	.L13	@,
 255              	@ .\utilities\src\circular_buffer.c:55: 		VOR_Log(LOG_DBG, "The Buffer is Full! \n");
  55:.\utilities\src/circular_buffer.c **** 		VOR_Log(LOG_DBG, "The Buffer is Full! \n");
 256              		.loc 1 55 0
 257 0052 0520     		movs	r0, #5	@,
 258 0054 0C49     		ldr	r1, .L16	@,
 259 0056 FFF7FEFF 		bl	VOR_Log	@
 260              	.LVL12:
 261              	@ .\utilities\src\circular_buffer.c:56: 		return -1; 
  56:.\utilities\src/circular_buffer.c **** 		return -1; 
 262              		.loc 1 56 0
 263 005a 0120     		movs	r0, #1	@ <retval>,
 264 005c 4042     		rsbs	r0, r0, #0	@ <retval>, <retval>
 265              	.L12:
 266              	@ .\utilities\src\circular_buffer.c:65: }
  57:.\utilities\src/circular_buffer.c **** 	} else {
  58:.\utilities\src/circular_buffer.c **** 		uint16_t *wPtr = (uint16_t *)pBuffer->data + pBuffer->write_index++; 
  59:.\utilities\src/circular_buffer.c **** 		pBuffer->valid_items++; 
  60:.\utilities\src/circular_buffer.c **** 		memcpy(wPtr, pItem, pBuffer->item_size); 
  61:.\utilities\src/circular_buffer.c **** 		if( pBuffer->write_index == pBuffer->max_items )
  62:.\utilities\src/circular_buffer.c **** 			pBuffer->write_index = 0; 
  63:.\utilities\src/circular_buffer.c **** 	}
  64:.\utilities\src/circular_buffer.c **** 	return 0; 
  65:.\utilities\src/circular_buffer.c **** }
 267              		.loc 1 65 0
 268              		@ sp needed	@
 269              	.LVL13:
 270              	.LVL14:
ARM GAS  C:\Users\claym\AppData\Local\Temp\ccGY57bu.s 			page 7


 271 005e 70BD     		pop	{r4, r5, r6, pc}
 272              	.LVL15:
 273              	.L13:
 274              	.LBB10:
 275              	@ .\utilities\src\circular_buffer.c:58: 		uint16_t *wPtr = (uint16_t *)pBuffer->data + pBuffer->wri
  58:.\utilities\src/circular_buffer.c **** 		pBuffer->valid_items++; 
 276              		.loc 1 58 0
 277 0060 2088     		ldrh	r0, [r4]	@ _3, *pBuffer_16(D)
 278              	@ .\utilities\src\circular_buffer.c:60: 		memcpy(wPtr, pItem, pBuffer->item_size); 
  60:.\utilities\src/circular_buffer.c **** 		if( pBuffer->write_index == pBuffer->max_items )
 279              		.loc 1 60 0
 280 0062 E289     		ldrh	r2, [r4, #14]	@ tmp137,
 281              	@ .\utilities\src\circular_buffer.c:58: 		uint16_t *wPtr = (uint16_t *)pBuffer->data + pBuffer->wri
  58:.\utilities\src/circular_buffer.c **** 		pBuffer->valid_items++; 
 282              		.loc 1 58 0
 283 0064 431C     		adds	r3, r0, #1	@ tmp129, _3,
 284 0066 2380     		strh	r3, [r4]	@ tmp129, pBuffer_16(D)->write_index
 285              	.LVL16:
 286              	@ .\utilities\src\circular_buffer.c:59: 		pBuffer->valid_items++; 
  59:.\utilities\src/circular_buffer.c **** 		memcpy(wPtr, pItem, pBuffer->item_size); 
 287              		.loc 1 59 0
 288 0068 A388     		ldrh	r3, [r4, #4]	@ tmp132,
 289              	@ .\utilities\src\circular_buffer.c:58: 		uint16_t *wPtr = (uint16_t *)pBuffer->data + pBuffer->wri
  58:.\utilities\src/circular_buffer.c **** 		pBuffer->valid_items++; 
 290              		.loc 1 58 0
 291 006a 4000     		lsls	r0, r0, #1	@ tmp135, _3,
 292              	.LVL17:
 293              	@ .\utilities\src\circular_buffer.c:59: 		pBuffer->valid_items++; 
  59:.\utilities\src/circular_buffer.c **** 		memcpy(wPtr, pItem, pBuffer->item_size); 
 294              		.loc 1 59 0
 295 006c 0133     		adds	r3, r3, #1	@ tmp133,
 296 006e A380     		strh	r3, [r4, #4]	@ tmp133, pBuffer_16(D)->valid_items
 297              	@ .\utilities\src\circular_buffer.c:58: 		uint16_t *wPtr = (uint16_t *)pBuffer->data + pBuffer->wri
  58:.\utilities\src/circular_buffer.c **** 		pBuffer->valid_items++; 
 298              		.loc 1 58 0
 299 0070 A368     		ldr	r3, [r4, #8]	@ tmp151, pBuffer_16(D)->data
 300              	@ .\utilities\src\circular_buffer.c:60: 		memcpy(wPtr, pItem, pBuffer->item_size); 
  60:.\utilities\src/circular_buffer.c **** 		if( pBuffer->write_index == pBuffer->max_items )
 301              		.loc 1 60 0
 302 0072 3100     		movs	r1, r6	@, pItem
 303              	@ .\utilities\src\circular_buffer.c:58: 		uint16_t *wPtr = (uint16_t *)pBuffer->data + pBuffer->wri
  58:.\utilities\src/circular_buffer.c **** 		pBuffer->valid_items++; 
 304              		.loc 1 58 0
 305 0074 1818     		adds	r0, r3, r0	@ wPtr, tmp151, tmp135
 306              	@ .\utilities\src\circular_buffer.c:60: 		memcpy(wPtr, pItem, pBuffer->item_size); 
  60:.\utilities\src/circular_buffer.c **** 		if( pBuffer->write_index == pBuffer->max_items )
 307              		.loc 1 60 0
 308 0076 FFF7FEFF 		bl	memcpy	@
 309              	.LVL18:
 310              	@ .\utilities\src\circular_buffer.c:61: 		if( pBuffer->write_index == pBuffer->max_items )
  61:.\utilities\src/circular_buffer.c **** 			pBuffer->write_index = 0; 
 311              		.loc 1 61 0
 312 007a 2288     		ldrh	r2, [r4]	@ *pBuffer_16(D), *pBuffer_16(D)
 313 007c A389     		ldrh	r3, [r4, #12]	@ tmp144,
 314              	.LBE10:
 315              	@ .\utilities\src\circular_buffer.c:64: 	return 0; 
  64:.\utilities\src/circular_buffer.c **** }
ARM GAS  C:\Users\claym\AppData\Local\Temp\ccGY57bu.s 			page 8


 316              		.loc 1 64 0
 317 007e 2800     		movs	r0, r5	@ <retval>, tmp126
 318              	.LBB11:
 319              	@ .\utilities\src\circular_buffer.c:61: 		if( pBuffer->write_index == pBuffer->max_items )
  61:.\utilities\src/circular_buffer.c **** 			pBuffer->write_index = 0; 
 320              		.loc 1 61 0
 321 0080 9A42     		cmp	r2, r3	@ *pBuffer_16(D), tmp144
 322 0082 ECD1     		bne	.L12	@,
 323              	@ .\utilities\src\circular_buffer.c:62: 			pBuffer->write_index = 0; 
  62:.\utilities\src/circular_buffer.c **** 	}
 324              		.loc 1 62 0
 325 0084 2580     		strh	r5, [r4]	@ <retval>, pBuffer_16(D)->write_index
 326 0086 EAE7     		b	.L12	@
 327              	.L17:
 328              		.align	2
 329              	.L16:
 330 0088 17000000 		.word	.LC2
 331              	.LBE11:
 332              		.cfi_endproc
 333              	.LFE3:
 334              		.size	VOR_CircularBuffer_Write, .-VOR_CircularBuffer_Write
 335              		.align	1
 336              		.global	VOR_CircularBuffer_Read
 337              		.syntax unified
 338              		.code	16
 339              		.thumb_func
 340              		.fpu softvfp
 341              		.type	VOR_CircularBuffer_Read, %function
 342              	VOR_CircularBuffer_Read:
 343              	.LFB4:
  66:.\utilities\src/circular_buffer.c **** 
  67:.\utilities\src/circular_buffer.c **** int32_t VOR_CircularBuffer_Read(VOR_CIRCULAR_BUFFER *pBuffer, void *pItem) {
 344              		.loc 1 67 0
 345              		.cfi_startproc
 346              		@ args = 0, pretend = 0, frame = 0
 347              		@ frame_needed = 0, uses_anonymous_args = 0
 348              	.LVL19:
 349 008c 70B5     		push	{r4, r5, r6, lr}	@
 350              	.LCFI3:
 351              		.cfi_def_cfa_offset 16
 352              		.cfi_offset 4, -16
 353              		.cfi_offset 5, -12
 354              		.cfi_offset 6, -8
 355              		.cfi_offset 14, -4
 356              	@ .\utilities\src\circular_buffer.c:67: int32_t VOR_CircularBuffer_Read(VOR_CIRCULAR_BUFFER *pBuffe
 357              		.loc 1 67 0
 358 008e 0400     		movs	r4, r0	@ pBuffer, pBuffer
 359 0090 0E00     		movs	r6, r1	@ pItem, pItem
 360              	@ .\utilities\src\circular_buffer.c:68: 	if( VOR_CircularBuffer_IsEmpty(pBuffer) ) {
  68:.\utilities\src/circular_buffer.c **** 	if( VOR_CircularBuffer_IsEmpty(pBuffer) ) {
 361              		.loc 1 68 0
 362 0092 FFF7FEFF 		bl	VOR_CircularBuffer_IsEmpty	@
 363              	.LVL20:
 364 0096 051E     		subs	r5, r0, #0	@ tmp126,,
 365 0098 06D0     		beq	.L19	@,
 366              	@ .\utilities\src\circular_buffer.c:69: 		VOR_Log(LOG_DBG, "The Buffer is Empty! \n");
  69:.\utilities\src/circular_buffer.c **** 		VOR_Log(LOG_DBG, "The Buffer is Empty! \n");
ARM GAS  C:\Users\claym\AppData\Local\Temp\ccGY57bu.s 			page 9


 367              		.loc 1 69 0
 368 009a 0520     		movs	r0, #5	@,
 369 009c 0C49     		ldr	r1, .L22	@,
 370 009e FFF7FEFF 		bl	VOR_Log	@
 371              	.LVL21:
 372              	@ .\utilities\src\circular_buffer.c:70: 		return -1; 
  70:.\utilities\src/circular_buffer.c **** 		return -1; 
 373              		.loc 1 70 0
 374 00a2 0120     		movs	r0, #1	@ <retval>,
 375 00a4 4042     		rsbs	r0, r0, #0	@ <retval>, <retval>
 376              	.L18:
 377              	@ .\utilities\src\circular_buffer.c:79: }
  71:.\utilities\src/circular_buffer.c **** 	} else {
  72:.\utilities\src/circular_buffer.c **** 		uint16_t *rPtr = (uint16_t *)pBuffer->data + pBuffer->read_index++; 
  73:.\utilities\src/circular_buffer.c **** 		pBuffer->valid_items--; 
  74:.\utilities\src/circular_buffer.c **** 		memcpy(pItem, rPtr, pBuffer->item_size); 
  75:.\utilities\src/circular_buffer.c **** 		if( pBuffer->read_index == pBuffer->max_items )
  76:.\utilities\src/circular_buffer.c **** 			pBuffer->read_index = 0; 
  77:.\utilities\src/circular_buffer.c **** 	}
  78:.\utilities\src/circular_buffer.c **** 	return 0; 
  79:.\utilities\src/circular_buffer.c **** }
 378              		.loc 1 79 0
 379              		@ sp needed	@
 380              	.LVL22:
 381              	.LVL23:
 382 00a6 70BD     		pop	{r4, r5, r6, pc}
 383              	.LVL24:
 384              	.L19:
 385              	.LBB12:
 386              	@ .\utilities\src\circular_buffer.c:72: 		uint16_t *rPtr = (uint16_t *)pBuffer->data + pBuffer->rea
  72:.\utilities\src/circular_buffer.c **** 		pBuffer->valid_items--; 
 387              		.loc 1 72 0
 388 00a8 6188     		ldrh	r1, [r4, #2]	@ _3,
 389              	@ .\utilities\src\circular_buffer.c:74: 		memcpy(pItem, rPtr, pBuffer->item_size); 
  74:.\utilities\src/circular_buffer.c **** 		if( pBuffer->read_index == pBuffer->max_items )
 390              		.loc 1 74 0
 391 00aa E289     		ldrh	r2, [r4, #14]	@ tmp135,
 392              	@ .\utilities\src\circular_buffer.c:72: 		uint16_t *rPtr = (uint16_t *)pBuffer->data + pBuffer->rea
  72:.\utilities\src/circular_buffer.c **** 		pBuffer->valid_items--; 
 393              		.loc 1 72 0
 394 00ac 4B1C     		adds	r3, r1, #1	@ tmp129, _3,
 395 00ae 6380     		strh	r3, [r4, #2]	@ tmp129, pBuffer_16(D)->read_index
 396              	.LVL25:
 397              	@ .\utilities\src\circular_buffer.c:73: 		pBuffer->valid_items--; 
  73:.\utilities\src/circular_buffer.c **** 		memcpy(pItem, rPtr, pBuffer->item_size); 
 398              		.loc 1 73 0
 399 00b0 A388     		ldrh	r3, [r4, #4]	@ tmp132,
 400              	@ .\utilities\src\circular_buffer.c:72: 		uint16_t *rPtr = (uint16_t *)pBuffer->data + pBuffer->rea
  72:.\utilities\src/circular_buffer.c **** 		pBuffer->valid_items--; 
 401              		.loc 1 72 0
 402 00b2 4900     		lsls	r1, r1, #1	@ tmp136, _3,
 403              	.LVL26:
 404              	@ .\utilities\src\circular_buffer.c:73: 		pBuffer->valid_items--; 
  73:.\utilities\src/circular_buffer.c **** 		memcpy(pItem, rPtr, pBuffer->item_size); 
 405              		.loc 1 73 0
 406 00b4 013B     		subs	r3, r3, #1	@ tmp133,
 407 00b6 A380     		strh	r3, [r4, #4]	@ tmp133, pBuffer_16(D)->valid_items
ARM GAS  C:\Users\claym\AppData\Local\Temp\ccGY57bu.s 			page 10


 408              	@ .\utilities\src\circular_buffer.c:72: 		uint16_t *rPtr = (uint16_t *)pBuffer->data + pBuffer->rea
  72:.\utilities\src/circular_buffer.c **** 		pBuffer->valid_items--; 
 409              		.loc 1 72 0
 410 00b8 A368     		ldr	r3, [r4, #8]	@ tmp151, pBuffer_16(D)->data
 411              	@ .\utilities\src\circular_buffer.c:74: 		memcpy(pItem, rPtr, pBuffer->item_size); 
  74:.\utilities\src/circular_buffer.c **** 		if( pBuffer->read_index == pBuffer->max_items )
 412              		.loc 1 74 0
 413 00ba 3000     		movs	r0, r6	@, pItem
 414              	@ .\utilities\src\circular_buffer.c:72: 		uint16_t *rPtr = (uint16_t *)pBuffer->data + pBuffer->rea
  72:.\utilities\src/circular_buffer.c **** 		pBuffer->valid_items--; 
 415              		.loc 1 72 0
 416 00bc 5918     		adds	r1, r3, r1	@ rPtr, tmp151, tmp136
 417              	@ .\utilities\src\circular_buffer.c:74: 		memcpy(pItem, rPtr, pBuffer->item_size); 
  74:.\utilities\src/circular_buffer.c **** 		if( pBuffer->read_index == pBuffer->max_items )
 418              		.loc 1 74 0
 419 00be FFF7FEFF 		bl	memcpy	@
 420              	.LVL27:
 421              	@ .\utilities\src\circular_buffer.c:75: 		if( pBuffer->read_index == pBuffer->max_items )
  75:.\utilities\src/circular_buffer.c **** 			pBuffer->read_index = 0; 
 422              		.loc 1 75 0
 423 00c2 6288     		ldrh	r2, [r4, #2]	@ tmp143,
 424 00c4 A389     		ldrh	r3, [r4, #12]	@ tmp144,
 425              	.LBE12:
 426              	@ .\utilities\src\circular_buffer.c:78: 	return 0; 
  78:.\utilities\src/circular_buffer.c **** }
 427              		.loc 1 78 0
 428 00c6 2800     		movs	r0, r5	@ <retval>, tmp126
 429              	.LBB13:
 430              	@ .\utilities\src\circular_buffer.c:75: 		if( pBuffer->read_index == pBuffer->max_items )
  75:.\utilities\src/circular_buffer.c **** 			pBuffer->read_index = 0; 
 431              		.loc 1 75 0
 432 00c8 9A42     		cmp	r2, r3	@ tmp143, tmp144
 433 00ca ECD1     		bne	.L18	@,
 434              	@ .\utilities\src\circular_buffer.c:76: 			pBuffer->read_index = 0; 
  76:.\utilities\src/circular_buffer.c **** 	}
 435              		.loc 1 76 0
 436 00cc 6580     		strh	r5, [r4, #2]	@ <retval>, pBuffer_16(D)->read_index
 437 00ce EAE7     		b	.L18	@
 438              	.L23:
 439              		.align	2
 440              	.L22:
 441 00d0 00000000 		.word	.LC0
 442              	.LBE13:
 443              		.cfi_endproc
 444              	.LFE4:
 445              		.size	VOR_CircularBuffer_Read, .-VOR_CircularBuffer_Read
 446              		.section	.rodata.str1.1,"aMS",%progbits,1
 447              	.LC0:
 448 0000 54686520 		.ascii	"The Buffer is Empty! \012\000"
 448      42756666 
 448      65722069 
 448      7320456D 
 448      70747921 
 449              	.LC2:
 450 0017 54686520 		.ascii	"The Buffer is Full! \012\000"
 450      42756666 
 450      65722069 
ARM GAS  C:\Users\claym\AppData\Local\Temp\ccGY57bu.s 			page 11


 450      73204675 
 450      6C6C2120 
 451              		.text
 452              	.Letext0:
 453              		.file 2 "c:\\program files (x86)\\gnu tools arm embedded\\7 2017-q4-major\\arm-none-eabi\\include\
 454              		.file 3 "c:\\program files (x86)\\gnu tools arm embedded\\7 2017-q4-major\\arm-none-eabi\\include\
 455              		.file 4 "c:\\program files (x86)\\gnu tools arm embedded\\7 2017-q4-major\\arm-none-eabi\\include\
 456              		.file 5 "c:\\program files (x86)\\gnu tools arm embedded\\7 2017-q4-major\\lib\\gcc\\arm-none-eabi
 457              		.file 6 "c:\\program files (x86)\\gnu tools arm embedded\\7 2017-q4-major\\arm-none-eabi\\include\
 458              		.file 7 "c:\\program files (x86)\\gnu tools arm embedded\\7 2017-q4-major\\arm-none-eabi\\include\
 459              		.file 8 ".\\utilities\\hdr/circular_buffer.h"
 460              		.file 9 ".\\hdr/reb_log.h"
 461              		.file 10 "<built-in>"
 462              		.section	.debug_info,"",%progbits
 463              	.Ldebug_info0:
 464 0000 C10C0000 		.4byte	0xcc1
 465 0004 0200     		.2byte	0x2
 466 0006 00000000 		.4byte	.Ldebug_abbrev0
 467 000a 04       		.byte	0x4
 468 000b 01       		.uleb128 0x1
 469 000c 2D010000 		.4byte	.LASF149
 470 0010 0C       		.byte	0xc
 471 0011 F5040000 		.4byte	.LASF150
 472 0015 C6000000 		.4byte	.LASF151
 473 0019 00000000 		.4byte	.Ltext0
 474 001d D4000000 		.4byte	.Letext0
 475 0021 00000000 		.4byte	.Ldebug_line0
 476 0025 02       		.uleb128 0x2
 477 0026 04       		.byte	0x4
 478 0027 05       		.byte	0x5
 479 0028 696E7400 		.ascii	"int\000"
 480 002c 03       		.uleb128 0x3
 481 002d 04       		.byte	0x4
 482 002e 07       		.byte	0x7
 483 002f C3020000 		.4byte	.LASF0
 484 0033 03       		.uleb128 0x3
 485 0034 08       		.byte	0x8
 486 0035 05       		.byte	0x5
 487 0036 0D010000 		.4byte	.LASF1
 488 003a 03       		.uleb128 0x3
 489 003b 08       		.byte	0x8
 490 003c 04       		.byte	0x4
 491 003d DD030000 		.4byte	.LASF2
 492 0041 03       		.uleb128 0x3
 493 0042 01       		.byte	0x1
 494 0043 06       		.byte	0x6
 495 0044 1B010000 		.4byte	.LASF3
 496 0048 03       		.uleb128 0x3
 497 0049 01       		.byte	0x1
 498 004a 08       		.byte	0x8
 499 004b 57040000 		.4byte	.LASF4
 500 004f 03       		.uleb128 0x3
 501 0050 02       		.byte	0x2
 502 0051 05       		.byte	0x5
 503 0052 8B040000 		.4byte	.LASF5
 504 0056 04       		.uleb128 0x4
 505 0057 A9050000 		.4byte	.LASF7
ARM GAS  C:\Users\claym\AppData\Local\Temp\ccGY57bu.s 			page 12


 506 005b 02       		.byte	0x2
 507 005c 39       		.byte	0x39
 508 005d 61000000 		.4byte	0x61
 509 0061 03       		.uleb128 0x3
 510 0062 02       		.byte	0x2
 511 0063 07       		.byte	0x7
 512 0064 18030000 		.4byte	.LASF6
 513 0068 04       		.uleb128 0x4
 514 0069 C6050000 		.4byte	.LASF8
 515 006d 02       		.byte	0x2
 516 006e 4D       		.byte	0x4d
 517 006f 73000000 		.4byte	0x73
 518 0073 03       		.uleb128 0x3
 519 0074 04       		.byte	0x4
 520 0075 05       		.byte	0x5
 521 0076 FD010000 		.4byte	.LASF9
 522 007a 03       		.uleb128 0x3
 523 007b 04       		.byte	0x4
 524 007c 07       		.byte	0x7
 525 007d E7020000 		.4byte	.LASF10
 526 0081 03       		.uleb128 0x3
 527 0082 08       		.byte	0x8
 528 0083 07       		.byte	0x7
 529 0084 6D000000 		.4byte	.LASF11
 530 0088 04       		.uleb128 0x4
 531 0089 62030000 		.4byte	.LASF12
 532 008d 03       		.byte	0x3
 533 008e 22       		.byte	0x22
 534 008f 93000000 		.4byte	0x93
 535 0093 05       		.uleb128 0x5
 536 0094 04       		.byte	0x4
 537 0095 99000000 		.4byte	0x99
 538 0099 06       		.uleb128 0x6
 539 009a 5F050000 		.4byte	.LASF119
 540 009e 01       		.byte	0x1
 541 009f 04       		.uleb128 0x4
 542 00a0 21040000 		.4byte	.LASF13
 543 00a4 04       		.byte	0x4
 544 00a5 2C       		.byte	0x2c
 545 00a6 73000000 		.4byte	0x73
 546 00aa 04       		.uleb128 0x4
 547 00ab 8C050000 		.4byte	.LASF14
 548 00af 04       		.byte	0x4
 549 00b0 72       		.byte	0x72
 550 00b1 73000000 		.4byte	0x73
 551 00b5 07       		.uleb128 0x7
 552 00b6 74030000 		.4byte	.LASF15
 553 00ba 05       		.byte	0x5
 554 00bb 6501     		.2byte	0x165
 555 00bd 2C000000 		.4byte	0x2c
 556 00c1 08       		.uleb128 0x8
 557 00c2 04       		.byte	0x4
 558 00c3 04       		.byte	0x4
 559 00c4 A6       		.byte	0xa6
 560 00c5 E0000000 		.4byte	0xe0
 561 00c9 09       		.uleb128 0x9
 562 00ca 55030000 		.4byte	.LASF16
ARM GAS  C:\Users\claym\AppData\Local\Temp\ccGY57bu.s 			page 13


 563 00ce 04       		.byte	0x4
 564 00cf A8       		.byte	0xa8
 565 00d0 B5000000 		.4byte	0xb5
 566 00d4 09       		.uleb128 0x9
 567 00d5 D0020000 		.4byte	.LASF17
 568 00d9 04       		.byte	0x4
 569 00da A9       		.byte	0xa9
 570 00db E0000000 		.4byte	0xe0
 571 00df 00       		.byte	0
 572 00e0 0A       		.uleb128 0xa
 573 00e1 48000000 		.4byte	0x48
 574 00e5 F0000000 		.4byte	0xf0
 575 00e9 0B       		.uleb128 0xb
 576 00ea 2C000000 		.4byte	0x2c
 577 00ee 03       		.byte	0x3
 578 00ef 00       		.byte	0
 579 00f0 0C       		.uleb128 0xc
 580 00f1 08       		.byte	0x8
 581 00f2 04       		.byte	0x4
 582 00f3 A3       		.byte	0xa3
 583 00f4 15010000 		.4byte	0x115
 584 00f8 0D       		.uleb128 0xd
 585 00f9 57050000 		.4byte	.LASF18
 586 00fd 04       		.byte	0x4
 587 00fe A5       		.byte	0xa5
 588 00ff 25000000 		.4byte	0x25
 589 0103 02       		.byte	0x2
 590 0104 23       		.byte	0x23
 591 0105 00       		.uleb128 0
 592 0106 0D       		.uleb128 0xd
 593 0107 66050000 		.4byte	.LASF19
 594 010b 04       		.byte	0x4
 595 010c AA       		.byte	0xaa
 596 010d C1000000 		.4byte	0xc1
 597 0111 02       		.byte	0x2
 598 0112 23       		.byte	0x23
 599 0113 04       		.uleb128 0x4
 600 0114 00       		.byte	0
 601 0115 04       		.uleb128 0x4
 602 0116 B3040000 		.4byte	.LASF20
 603 011a 04       		.byte	0x4
 604 011b AB       		.byte	0xab
 605 011c F0000000 		.4byte	0xf0
 606 0120 04       		.uleb128 0x4
 607 0121 86020000 		.4byte	.LASF21
 608 0125 04       		.byte	0x4
 609 0126 AF       		.byte	0xaf
 610 0127 88000000 		.4byte	0x88
 611 012b 0E       		.uleb128 0xe
 612 012c 04       		.byte	0x4
 613 012d 05       		.uleb128 0x5
 614 012e 04       		.byte	0x4
 615 012f 33010000 		.4byte	0x133
 616 0133 03       		.uleb128 0x3
 617 0134 01       		.byte	0x1
 618 0135 08       		.byte	0x8
 619 0136 9B050000 		.4byte	.LASF22
ARM GAS  C:\Users\claym\AppData\Local\Temp\ccGY57bu.s 			page 14


 620 013a 0F       		.uleb128 0xf
 621 013b 33010000 		.4byte	0x133
 622 013f 04       		.uleb128 0x4
 623 0140 12060000 		.4byte	.LASF23
 624 0144 06       		.byte	0x6
 625 0145 16       		.byte	0x16
 626 0146 7A000000 		.4byte	0x7a
 627 014a 10       		.uleb128 0x10
 628 014b 97020000 		.4byte	.LASF28
 629 014f 18       		.byte	0x18
 630 0150 06       		.byte	0x6
 631 0151 2F       		.byte	0x2f
 632 0152 A9010000 		.4byte	0x1a9
 633 0156 0D       		.uleb128 0xd
 634 0157 D6050000 		.4byte	.LASF24
 635 015b 06       		.byte	0x6
 636 015c 31       		.byte	0x31
 637 015d A9010000 		.4byte	0x1a9
 638 0161 02       		.byte	0x2
 639 0162 23       		.byte	0x23
 640 0163 00       		.uleb128 0
 641 0164 11       		.uleb128 0x11
 642 0165 5F6B00   		.ascii	"_k\000"
 643 0168 06       		.byte	0x6
 644 0169 32       		.byte	0x32
 645 016a 25000000 		.4byte	0x25
 646 016e 02       		.byte	0x2
 647 016f 23       		.byte	0x23
 648 0170 04       		.uleb128 0x4
 649 0171 0D       		.uleb128 0xd
 650 0172 42050000 		.4byte	.LASF25
 651 0176 06       		.byte	0x6
 652 0177 32       		.byte	0x32
 653 0178 25000000 		.4byte	0x25
 654 017c 02       		.byte	0x2
 655 017d 23       		.byte	0x23
 656 017e 08       		.uleb128 0x8
 657 017f 0D       		.uleb128 0xd
 658 0180 80020000 		.4byte	.LASF26
 659 0184 06       		.byte	0x6
 660 0185 32       		.byte	0x32
 661 0186 25000000 		.4byte	0x25
 662 018a 02       		.byte	0x2
 663 018b 23       		.byte	0x23
 664 018c 0C       		.uleb128 0xc
 665 018d 0D       		.uleb128 0xd
 666 018e 47060000 		.4byte	.LASF27
 667 0192 06       		.byte	0x6
 668 0193 32       		.byte	0x32
 669 0194 25000000 		.4byte	0x25
 670 0198 02       		.byte	0x2
 671 0199 23       		.byte	0x23
 672 019a 10       		.uleb128 0x10
 673 019b 11       		.uleb128 0x11
 674 019c 5F7800   		.ascii	"_x\000"
 675 019f 06       		.byte	0x6
 676 01a0 33       		.byte	0x33
ARM GAS  C:\Users\claym\AppData\Local\Temp\ccGY57bu.s 			page 15


 677 01a1 AF010000 		.4byte	0x1af
 678 01a5 02       		.byte	0x2
 679 01a6 23       		.byte	0x23
 680 01a7 14       		.uleb128 0x14
 681 01a8 00       		.byte	0
 682 01a9 05       		.uleb128 0x5
 683 01aa 04       		.byte	0x4
 684 01ab 4A010000 		.4byte	0x14a
 685 01af 0A       		.uleb128 0xa
 686 01b0 3F010000 		.4byte	0x13f
 687 01b4 BF010000 		.4byte	0x1bf
 688 01b8 0B       		.uleb128 0xb
 689 01b9 2C000000 		.4byte	0x2c
 690 01bd 00       		.byte	0
 691 01be 00       		.byte	0
 692 01bf 10       		.uleb128 0x10
 693 01c0 BE020000 		.4byte	.LASF29
 694 01c4 24       		.byte	0x24
 695 01c5 06       		.byte	0x6
 696 01c6 37       		.byte	0x37
 697 01c7 4A020000 		.4byte	0x24a
 698 01cb 0D       		.uleb128 0xd
 699 01cc 04010000 		.4byte	.LASF30
 700 01d0 06       		.byte	0x6
 701 01d1 39       		.byte	0x39
 702 01d2 25000000 		.4byte	0x25
 703 01d6 02       		.byte	0x2
 704 01d7 23       		.byte	0x23
 705 01d8 00       		.uleb128 0
 706 01d9 0D       		.uleb128 0xd
 707 01da A0050000 		.4byte	.LASF31
 708 01de 06       		.byte	0x6
 709 01df 3A       		.byte	0x3a
 710 01e0 25000000 		.4byte	0x25
 711 01e4 02       		.byte	0x2
 712 01e5 23       		.byte	0x23
 713 01e6 04       		.uleb128 0x4
 714 01e7 0D       		.uleb128 0xd
 715 01e8 B7010000 		.4byte	.LASF32
 716 01ec 06       		.byte	0x6
 717 01ed 3B       		.byte	0x3b
 718 01ee 25000000 		.4byte	0x25
 719 01f2 02       		.byte	0x2
 720 01f3 23       		.byte	0x23
 721 01f4 08       		.uleb128 0x8
 722 01f5 0D       		.uleb128 0xd
 723 01f6 D8060000 		.4byte	.LASF33
 724 01fa 06       		.byte	0x6
 725 01fb 3C       		.byte	0x3c
 726 01fc 25000000 		.4byte	0x25
 727 0200 02       		.byte	0x2
 728 0201 23       		.byte	0x23
 729 0202 0C       		.uleb128 0xc
 730 0203 0D       		.uleb128 0xd
 731 0204 05040000 		.4byte	.LASF34
 732 0208 06       		.byte	0x6
 733 0209 3D       		.byte	0x3d
ARM GAS  C:\Users\claym\AppData\Local\Temp\ccGY57bu.s 			page 16


 734 020a 25000000 		.4byte	0x25
 735 020e 02       		.byte	0x2
 736 020f 23       		.byte	0x23
 737 0210 10       		.uleb128 0x10
 738 0211 0D       		.uleb128 0xd
 739 0212 D3030000 		.4byte	.LASF35
 740 0216 06       		.byte	0x6
 741 0217 3E       		.byte	0x3e
 742 0218 25000000 		.4byte	0x25
 743 021c 02       		.byte	0x2
 744 021d 23       		.byte	0x23
 745 021e 14       		.uleb128 0x14
 746 021f 0D       		.uleb128 0xd
 747 0220 4C060000 		.4byte	.LASF36
 748 0224 06       		.byte	0x6
 749 0225 3F       		.byte	0x3f
 750 0226 25000000 		.4byte	0x25
 751 022a 02       		.byte	0x2
 752 022b 23       		.byte	0x23
 753 022c 18       		.uleb128 0x18
 754 022d 0D       		.uleb128 0xd
 755 022e 95040000 		.4byte	.LASF37
 756 0232 06       		.byte	0x6
 757 0233 40       		.byte	0x40
 758 0234 25000000 		.4byte	0x25
 759 0238 02       		.byte	0x2
 760 0239 23       		.byte	0x23
 761 023a 1C       		.uleb128 0x1c
 762 023b 0D       		.uleb128 0xd
 763 023c 99060000 		.4byte	.LASF38
 764 0240 06       		.byte	0x6
 765 0241 41       		.byte	0x41
 766 0242 25000000 		.4byte	0x25
 767 0246 02       		.byte	0x2
 768 0247 23       		.byte	0x23
 769 0248 20       		.uleb128 0x20
 770 0249 00       		.byte	0
 771 024a 12       		.uleb128 0x12
 772 024b C6010000 		.4byte	.LASF39
 773 024f 0801     		.2byte	0x108
 774 0251 06       		.byte	0x6
 775 0252 4A       		.byte	0x4a
 776 0253 93020000 		.4byte	0x293
 777 0257 0D       		.uleb128 0xd
 778 0258 73020000 		.4byte	.LASF40
 779 025c 06       		.byte	0x6
 780 025d 4B       		.byte	0x4b
 781 025e 93020000 		.4byte	0x293
 782 0262 02       		.byte	0x2
 783 0263 23       		.byte	0x23
 784 0264 00       		.uleb128 0
 785 0265 0D       		.uleb128 0xd
 786 0266 00000000 		.4byte	.LASF41
 787 026a 06       		.byte	0x6
 788 026b 4C       		.byte	0x4c
 789 026c 93020000 		.4byte	0x293
 790 0270 03       		.byte	0x3
ARM GAS  C:\Users\claym\AppData\Local\Temp\ccGY57bu.s 			page 17


 791 0271 23       		.byte	0x23
 792 0272 8001     		.uleb128 0x80
 793 0274 0D       		.uleb128 0xd
 794 0275 E9050000 		.4byte	.LASF42
 795 0279 06       		.byte	0x6
 796 027a 4E       		.byte	0x4e
 797 027b 3F010000 		.4byte	0x13f
 798 027f 03       		.byte	0x3
 799 0280 23       		.byte	0x23
 800 0281 8002     		.uleb128 0x100
 801 0283 0D       		.uleb128 0xd
 802 0284 0D020000 		.4byte	.LASF43
 803 0288 06       		.byte	0x6
 804 0289 51       		.byte	0x51
 805 028a 3F010000 		.4byte	0x13f
 806 028e 03       		.byte	0x3
 807 028f 23       		.byte	0x23
 808 0290 8402     		.uleb128 0x104
 809 0292 00       		.byte	0
 810 0293 0A       		.uleb128 0xa
 811 0294 2B010000 		.4byte	0x12b
 812 0298 A3020000 		.4byte	0x2a3
 813 029c 0B       		.uleb128 0xb
 814 029d 2C000000 		.4byte	0x2c
 815 02a1 1F       		.byte	0x1f
 816 02a2 00       		.byte	0
 817 02a3 12       		.uleb128 0x12
 818 02a4 0E040000 		.4byte	.LASF44
 819 02a8 9001     		.2byte	0x190
 820 02aa 06       		.byte	0x6
 821 02ab 5D       		.byte	0x5d
 822 02ac EA020000 		.4byte	0x2ea
 823 02b0 0D       		.uleb128 0xd
 824 02b1 D6050000 		.4byte	.LASF24
 825 02b5 06       		.byte	0x6
 826 02b6 5E       		.byte	0x5e
 827 02b7 EA020000 		.4byte	0x2ea
 828 02bb 02       		.byte	0x2
 829 02bc 23       		.byte	0x23
 830 02bd 00       		.uleb128 0
 831 02be 0D       		.uleb128 0xd
 832 02bf 07030000 		.4byte	.LASF45
 833 02c3 06       		.byte	0x6
 834 02c4 5F       		.byte	0x5f
 835 02c5 25000000 		.4byte	0x25
 836 02c9 02       		.byte	0x2
 837 02ca 23       		.byte	0x23
 838 02cb 04       		.uleb128 0x4
 839 02cc 0D       		.uleb128 0xd
 840 02cd 7B020000 		.4byte	.LASF46
 841 02d1 06       		.byte	0x6
 842 02d2 61       		.byte	0x61
 843 02d3 F0020000 		.4byte	0x2f0
 844 02d7 02       		.byte	0x2
 845 02d8 23       		.byte	0x23
 846 02d9 08       		.uleb128 0x8
 847 02da 0D       		.uleb128 0xd
ARM GAS  C:\Users\claym\AppData\Local\Temp\ccGY57bu.s 			page 18


 848 02db C6010000 		.4byte	.LASF39
 849 02df 06       		.byte	0x6
 850 02e0 62       		.byte	0x62
 851 02e1 4A020000 		.4byte	0x24a
 852 02e5 03       		.byte	0x3
 853 02e6 23       		.byte	0x23
 854 02e7 8801     		.uleb128 0x88
 855 02e9 00       		.byte	0
 856 02ea 05       		.uleb128 0x5
 857 02eb 04       		.byte	0x4
 858 02ec A3020000 		.4byte	0x2a3
 859 02f0 0A       		.uleb128 0xa
 860 02f1 00030000 		.4byte	0x300
 861 02f5 00030000 		.4byte	0x300
 862 02f9 0B       		.uleb128 0xb
 863 02fa 2C000000 		.4byte	0x2c
 864 02fe 1F       		.byte	0x1f
 865 02ff 00       		.byte	0
 866 0300 05       		.uleb128 0x5
 867 0301 04       		.byte	0x4
 868 0302 06030000 		.4byte	0x306
 869 0306 13       		.uleb128 0x13
 870 0307 01       		.byte	0x1
 871 0308 10       		.uleb128 0x10
 872 0309 9F040000 		.4byte	.LASF47
 873 030d 08       		.byte	0x8
 874 030e 06       		.byte	0x6
 875 030f 75       		.byte	0x75
 876 0310 31030000 		.4byte	0x331
 877 0314 0D       		.uleb128 0xd
 878 0315 B1010000 		.4byte	.LASF48
 879 0319 06       		.byte	0x6
 880 031a 76       		.byte	0x76
 881 031b 31030000 		.4byte	0x331
 882 031f 02       		.byte	0x2
 883 0320 23       		.byte	0x23
 884 0321 00       		.uleb128 0
 885 0322 0D       		.uleb128 0xd
 886 0323 14000000 		.4byte	.LASF49
 887 0327 06       		.byte	0x6
 888 0328 77       		.byte	0x77
 889 0329 25000000 		.4byte	0x25
 890 032d 02       		.byte	0x2
 891 032e 23       		.byte	0x23
 892 032f 04       		.uleb128 0x4
 893 0330 00       		.byte	0
 894 0331 05       		.uleb128 0x5
 895 0332 04       		.byte	0x4
 896 0333 48000000 		.4byte	0x48
 897 0337 10       		.uleb128 0x10
 898 0338 BE040000 		.4byte	.LASF50
 899 033c 68       		.byte	0x68
 900 033d 06       		.byte	0x6
 901 033e B5       		.byte	0xb5
 902 033f 91040000 		.4byte	0x491
 903 0343 11       		.uleb128 0x11
 904 0344 5F7000   		.ascii	"_p\000"
ARM GAS  C:\Users\claym\AppData\Local\Temp\ccGY57bu.s 			page 19


 905 0347 06       		.byte	0x6
 906 0348 B6       		.byte	0xb6
 907 0349 31030000 		.4byte	0x331
 908 034d 02       		.byte	0x2
 909 034e 23       		.byte	0x23
 910 034f 00       		.uleb128 0
 911 0350 11       		.uleb128 0x11
 912 0351 5F7200   		.ascii	"_r\000"
 913 0354 06       		.byte	0x6
 914 0355 B7       		.byte	0xb7
 915 0356 25000000 		.4byte	0x25
 916 035a 02       		.byte	0x2
 917 035b 23       		.byte	0x23
 918 035c 04       		.uleb128 0x4
 919 035d 11       		.uleb128 0x11
 920 035e 5F7700   		.ascii	"_w\000"
 921 0361 06       		.byte	0x6
 922 0362 B8       		.byte	0xb8
 923 0363 25000000 		.4byte	0x25
 924 0367 02       		.byte	0x2
 925 0368 23       		.byte	0x23
 926 0369 08       		.uleb128 0x8
 927 036a 0D       		.uleb128 0xd
 928 036b 06020000 		.4byte	.LASF51
 929 036f 06       		.byte	0x6
 930 0370 B9       		.byte	0xb9
 931 0371 4F000000 		.4byte	0x4f
 932 0375 02       		.byte	0x2
 933 0376 23       		.byte	0x23
 934 0377 0C       		.uleb128 0xc
 935 0378 0D       		.uleb128 0xd
 936 0379 F9020000 		.4byte	.LASF52
 937 037d 06       		.byte	0x6
 938 037e BA       		.byte	0xba
 939 037f 4F000000 		.4byte	0x4f
 940 0383 02       		.byte	0x2
 941 0384 23       		.byte	0x23
 942 0385 0E       		.uleb128 0xe
 943 0386 11       		.uleb128 0x11
 944 0387 5F626600 		.ascii	"_bf\000"
 945 038b 06       		.byte	0x6
 946 038c BB       		.byte	0xbb
 947 038d 08030000 		.4byte	0x308
 948 0391 02       		.byte	0x2
 949 0392 23       		.byte	0x23
 950 0393 10       		.uleb128 0x10
 951 0394 0D       		.uleb128 0xd
 952 0395 84000000 		.4byte	.LASF53
 953 0399 06       		.byte	0x6
 954 039a BC       		.byte	0xbc
 955 039b 25000000 		.4byte	0x25
 956 039f 02       		.byte	0x2
 957 03a0 23       		.byte	0x23
 958 03a1 18       		.uleb128 0x18
 959 03a2 0D       		.uleb128 0xd
 960 03a3 ED010000 		.4byte	.LASF54
 961 03a7 06       		.byte	0x6
ARM GAS  C:\Users\claym\AppData\Local\Temp\ccGY57bu.s 			page 20


 962 03a8 C3       		.byte	0xc3
 963 03a9 2B010000 		.4byte	0x12b
 964 03ad 02       		.byte	0x2
 965 03ae 23       		.byte	0x23
 966 03af 1C       		.uleb128 0x1c
 967 03b0 0D       		.uleb128 0xd
 968 03b1 AE020000 		.4byte	.LASF55
 969 03b5 06       		.byte	0x6
 970 03b6 C5       		.byte	0xc5
 971 03b7 19060000 		.4byte	0x619
 972 03bb 02       		.byte	0x2
 973 03bc 23       		.byte	0x23
 974 03bd 20       		.uleb128 0x20
 975 03be 0D       		.uleb128 0xd
 976 03bf CC030000 		.4byte	.LASF56
 977 03c3 06       		.byte	0x6
 978 03c4 C7       		.byte	0xc7
 979 03c5 44060000 		.4byte	0x644
 980 03c9 02       		.byte	0x2
 981 03ca 23       		.byte	0x23
 982 03cb 24       		.uleb128 0x24
 983 03cc 0D       		.uleb128 0xd
 984 03cd 6E050000 		.4byte	.LASF57
 985 03d1 06       		.byte	0x6
 986 03d2 CA       		.byte	0xca
 987 03d3 69060000 		.4byte	0x669
 988 03d7 02       		.byte	0x2
 989 03d8 23       		.byte	0x23
 990 03d9 28       		.uleb128 0x28
 991 03da 0D       		.uleb128 0xd
 992 03db B3060000 		.4byte	.LASF58
 993 03df 06       		.byte	0x6
 994 03e0 CB       		.byte	0xcb
 995 03e1 84060000 		.4byte	0x684
 996 03e5 02       		.byte	0x2
 997 03e6 23       		.byte	0x23
 998 03e7 2C       		.uleb128 0x2c
 999 03e8 11       		.uleb128 0x11
 1000 03e9 5F756200 		.ascii	"_ub\000"
 1001 03ed 06       		.byte	0x6
 1002 03ee CE       		.byte	0xce
 1003 03ef 08030000 		.4byte	0x308
 1004 03f3 02       		.byte	0x2
 1005 03f4 23       		.byte	0x23
 1006 03f5 30       		.uleb128 0x30
 1007 03f6 11       		.uleb128 0x11
 1008 03f7 5F757000 		.ascii	"_up\000"
 1009 03fb 06       		.byte	0x6
 1010 03fc CF       		.byte	0xcf
 1011 03fd 31030000 		.4byte	0x331
 1012 0401 02       		.byte	0x2
 1013 0402 23       		.byte	0x23
 1014 0403 38       		.uleb128 0x38
 1015 0404 11       		.uleb128 0x11
 1016 0405 5F757200 		.ascii	"_ur\000"
 1017 0409 06       		.byte	0x6
 1018 040a D0       		.byte	0xd0
ARM GAS  C:\Users\claym\AppData\Local\Temp\ccGY57bu.s 			page 21


 1019 040b 25000000 		.4byte	0x25
 1020 040f 02       		.byte	0x2
 1021 0410 23       		.byte	0x23
 1022 0411 3C       		.uleb128 0x3c
 1023 0412 0D       		.uleb128 0xd
 1024 0413 27010000 		.4byte	.LASF59
 1025 0417 06       		.byte	0x6
 1026 0418 D3       		.byte	0xd3
 1027 0419 8A060000 		.4byte	0x68a
 1028 041d 02       		.byte	0x2
 1029 041e 23       		.byte	0x23
 1030 041f 40       		.uleb128 0x40
 1031 0420 0D       		.uleb128 0xd
 1032 0421 8B060000 		.4byte	.LASF60
 1033 0425 06       		.byte	0x6
 1034 0426 D4       		.byte	0xd4
 1035 0427 9A060000 		.4byte	0x69a
 1036 042b 02       		.byte	0x2
 1037 042c 23       		.byte	0x23
 1038 042d 43       		.uleb128 0x43
 1039 042e 11       		.uleb128 0x11
 1040 042f 5F6C6200 		.ascii	"_lb\000"
 1041 0433 06       		.byte	0x6
 1042 0434 D7       		.byte	0xd7
 1043 0435 08030000 		.4byte	0x308
 1044 0439 02       		.byte	0x2
 1045 043a 23       		.byte	0x23
 1046 043b 44       		.uleb128 0x44
 1047 043c 0D       		.uleb128 0xd
 1048 043d 1C020000 		.4byte	.LASF61
 1049 0441 06       		.byte	0x6
 1050 0442 DA       		.byte	0xda
 1051 0443 25000000 		.4byte	0x25
 1052 0447 02       		.byte	0x2
 1053 0448 23       		.byte	0x23
 1054 0449 4C       		.uleb128 0x4c
 1055 044a 0D       		.uleb128 0xd
 1056 044b 47020000 		.4byte	.LASF62
 1057 044f 06       		.byte	0x6
 1058 0450 DB       		.byte	0xdb
 1059 0451 9F000000 		.4byte	0x9f
 1060 0455 02       		.byte	0x2
 1061 0456 23       		.byte	0x23
 1062 0457 50       		.uleb128 0x50
 1063 0458 0D       		.uleb128 0xd
 1064 0459 2D000000 		.4byte	.LASF63
 1065 045d 06       		.byte	0x6
 1066 045e DE       		.byte	0xde
 1067 045f B0040000 		.4byte	0x4b0
 1068 0463 02       		.byte	0x2
 1069 0464 23       		.byte	0x23
 1070 0465 54       		.uleb128 0x54
 1071 0466 0D       		.uleb128 0xd
 1072 0467 8C030000 		.4byte	.LASF64
 1073 046b 06       		.byte	0x6
 1074 046c E2       		.byte	0xe2
 1075 046d 20010000 		.4byte	0x120
ARM GAS  C:\Users\claym\AppData\Local\Temp\ccGY57bu.s 			page 22


 1076 0471 02       		.byte	0x2
 1077 0472 23       		.byte	0x23
 1078 0473 58       		.uleb128 0x58
 1079 0474 0D       		.uleb128 0xd
 1080 0475 CF040000 		.4byte	.LASF65
 1081 0479 06       		.byte	0x6
 1082 047a E4       		.byte	0xe4
 1083 047b 15010000 		.4byte	0x115
 1084 047f 02       		.byte	0x2
 1085 0480 23       		.byte	0x23
 1086 0481 5C       		.uleb128 0x5c
 1087 0482 0D       		.uleb128 0xd
 1088 0483 B0030000 		.4byte	.LASF66
 1089 0487 06       		.byte	0x6
 1090 0488 E5       		.byte	0xe5
 1091 0489 25000000 		.4byte	0x25
 1092 048d 02       		.byte	0x2
 1093 048e 23       		.byte	0x23
 1094 048f 64       		.uleb128 0x64
 1095 0490 00       		.byte	0
 1096 0491 14       		.uleb128 0x14
 1097 0492 01       		.byte	0x1
 1098 0493 25000000 		.4byte	0x25
 1099 0497 B0040000 		.4byte	0x4b0
 1100 049b 15       		.uleb128 0x15
 1101 049c B0040000 		.4byte	0x4b0
 1102 04a0 15       		.uleb128 0x15
 1103 04a1 2B010000 		.4byte	0x12b
 1104 04a5 15       		.uleb128 0x15
 1105 04a6 2D010000 		.4byte	0x12d
 1106 04aa 15       		.uleb128 0x15
 1107 04ab 25000000 		.4byte	0x25
 1108 04af 00       		.byte	0
 1109 04b0 05       		.uleb128 0x5
 1110 04b1 04       		.byte	0x4
 1111 04b2 BB040000 		.4byte	0x4bb
 1112 04b6 0F       		.uleb128 0xf
 1113 04b7 B0040000 		.4byte	0x4b0
 1114 04bb 16       		.uleb128 0x16
 1115 04bc 4A050000 		.4byte	.LASF67
 1116 04c0 2804     		.2byte	0x428
 1117 04c2 06       		.byte	0x6
 1118 04c3 3902     		.2byte	0x239
 1119 04c5 19060000 		.4byte	0x619
 1120 04c9 17       		.uleb128 0x17
 1121 04ca 94050000 		.4byte	.LASF68
 1122 04ce 06       		.byte	0x6
 1123 04cf 3B02     		.2byte	0x23b
 1124 04d1 25000000 		.4byte	0x25
 1125 04d5 02       		.byte	0x2
 1126 04d6 23       		.byte	0x23
 1127 04d7 00       		.uleb128 0
 1128 04d8 17       		.uleb128 0x17
 1129 04d9 15020000 		.4byte	.LASF69
 1130 04dd 06       		.byte	0x6
 1131 04de 4002     		.2byte	0x240
 1132 04e0 F7060000 		.4byte	0x6f7
ARM GAS  C:\Users\claym\AppData\Local\Temp\ccGY57bu.s 			page 23


 1133 04e4 02       		.byte	0x2
 1134 04e5 23       		.byte	0x23
 1135 04e6 04       		.uleb128 0x4
 1136 04e7 17       		.uleb128 0x17
 1137 04e8 D7020000 		.4byte	.LASF70
 1138 04ec 06       		.byte	0x6
 1139 04ed 4002     		.2byte	0x240
 1140 04ef F7060000 		.4byte	0x6f7
 1141 04f3 02       		.byte	0x2
 1142 04f4 23       		.byte	0x23
 1143 04f5 08       		.uleb128 0x8
 1144 04f6 17       		.uleb128 0x17
 1145 04f7 8F020000 		.4byte	.LASF71
 1146 04fb 06       		.byte	0x6
 1147 04fc 4002     		.2byte	0x240
 1148 04fe F7060000 		.4byte	0x6f7
 1149 0502 02       		.byte	0x2
 1150 0503 23       		.byte	0x23
 1151 0504 0C       		.uleb128 0xc
 1152 0505 17       		.uleb128 0x17
 1153 0506 F0040000 		.4byte	.LASF72
 1154 050a 06       		.byte	0x6
 1155 050b 4202     		.2byte	0x242
 1156 050d 25000000 		.4byte	0x25
 1157 0511 02       		.byte	0x2
 1158 0512 23       		.byte	0x23
 1159 0513 10       		.uleb128 0x10
 1160 0514 17       		.uleb128 0x17
 1161 0515 22000000 		.4byte	.LASF73
 1162 0519 06       		.byte	0x6
 1163 051a 4302     		.2byte	0x243
 1164 051c 12090000 		.4byte	0x912
 1165 0520 02       		.byte	0x2
 1166 0521 23       		.byte	0x23
 1167 0522 14       		.uleb128 0x14
 1168 0523 17       		.uleb128 0x17
 1169 0524 29050000 		.4byte	.LASF74
 1170 0528 06       		.byte	0x6
 1171 0529 4602     		.2byte	0x246
 1172 052b 25000000 		.4byte	0x25
 1173 052f 02       		.byte	0x2
 1174 0530 23       		.byte	0x23
 1175 0531 30       		.uleb128 0x30
 1176 0532 17       		.uleb128 0x17
 1177 0533 17050000 		.4byte	.LASF75
 1178 0537 06       		.byte	0x6
 1179 0538 4702     		.2byte	0x247
 1180 053a 28090000 		.4byte	0x928
 1181 053e 02       		.byte	0x2
 1182 053f 23       		.byte	0x23
 1183 0540 34       		.uleb128 0x34
 1184 0541 17       		.uleb128 0x17
 1185 0542 16040000 		.4byte	.LASF76
 1186 0546 06       		.byte	0x6
 1187 0547 4902     		.2byte	0x249
 1188 0549 25000000 		.4byte	0x25
 1189 054d 02       		.byte	0x2
ARM GAS  C:\Users\claym\AppData\Local\Temp\ccGY57bu.s 			page 24


 1190 054e 23       		.byte	0x23
 1191 054f 38       		.uleb128 0x38
 1192 0550 17       		.uleb128 0x17
 1193 0551 1F050000 		.4byte	.LASF77
 1194 0555 06       		.byte	0x6
 1195 0556 4B02     		.2byte	0x24b
 1196 0558 3A090000 		.4byte	0x93a
 1197 055c 02       		.byte	0x2
 1198 055d 23       		.byte	0x23
 1199 055e 3C       		.uleb128 0x3c
 1200 055f 17       		.uleb128 0x17
 1201 0560 4D030000 		.4byte	.LASF78
 1202 0564 06       		.byte	0x6
 1203 0565 4E02     		.2byte	0x24e
 1204 0567 A9010000 		.4byte	0x1a9
 1205 056b 02       		.byte	0x2
 1206 056c 23       		.byte	0x23
 1207 056d 40       		.uleb128 0x40
 1208 056e 17       		.uleb128 0x17
 1209 056f B4020000 		.4byte	.LASF79
 1210 0573 06       		.byte	0x6
 1211 0574 4F02     		.2byte	0x24f
 1212 0576 25000000 		.4byte	0x25
 1213 057a 02       		.byte	0x2
 1214 057b 23       		.byte	0x23
 1215 057c 44       		.uleb128 0x44
 1216 057d 17       		.uleb128 0x17
 1217 057e CD060000 		.4byte	.LASF80
 1218 0582 06       		.byte	0x6
 1219 0583 5002     		.2byte	0x250
 1220 0585 A9010000 		.4byte	0x1a9
 1221 0589 02       		.byte	0x2
 1222 058a 23       		.byte	0x23
 1223 058b 48       		.uleb128 0x48
 1224 058c 17       		.uleb128 0x17
 1225 058d 31040000 		.4byte	.LASF81
 1226 0591 06       		.byte	0x6
 1227 0592 5102     		.2byte	0x251
 1228 0594 40090000 		.4byte	0x940
 1229 0598 02       		.byte	0x2
 1230 0599 23       		.byte	0x23
 1231 059a 4C       		.uleb128 0x4c
 1232 059b 17       		.uleb128 0x17
 1233 059c DF020000 		.4byte	.LASF82
 1234 05a0 06       		.byte	0x6
 1235 05a1 5402     		.2byte	0x254
 1236 05a3 25000000 		.4byte	0x25
 1237 05a7 02       		.byte	0x2
 1238 05a8 23       		.byte	0x23
 1239 05a9 50       		.uleb128 0x50
 1240 05aa 17       		.uleb128 0x17
 1241 05ab 3F020000 		.4byte	.LASF83
 1242 05af 06       		.byte	0x6
 1243 05b0 5502     		.2byte	0x255
 1244 05b2 2D010000 		.4byte	0x12d
 1245 05b6 02       		.byte	0x2
 1246 05b7 23       		.byte	0x23
ARM GAS  C:\Users\claym\AppData\Local\Temp\ccGY57bu.s 			page 25


 1247 05b8 54       		.uleb128 0x54
 1248 05b9 17       		.uleb128 0x17
 1249 05ba 65040000 		.4byte	.LASF84
 1250 05be 06       		.byte	0x6
 1251 05bf 7802     		.2byte	0x278
 1252 05c1 F0080000 		.4byte	0x8f0
 1253 05c5 02       		.byte	0x2
 1254 05c6 23       		.byte	0x23
 1255 05c7 58       		.uleb128 0x58
 1256 05c8 17       		.uleb128 0x17
 1257 05c9 0E040000 		.4byte	.LASF44
 1258 05cd 06       		.byte	0x6
 1259 05ce 7C02     		.2byte	0x27c
 1260 05d0 EA020000 		.4byte	0x2ea
 1261 05d4 03       		.byte	0x3
 1262 05d5 23       		.byte	0x23
 1263 05d6 C802     		.uleb128 0x148
 1264 05d8 17       		.uleb128 0x17
 1265 05d9 2B030000 		.4byte	.LASF85
 1266 05dd 06       		.byte	0x6
 1267 05de 7D02     		.2byte	0x27d
 1268 05e0 A3020000 		.4byte	0x2a3
 1269 05e4 03       		.byte	0x3
 1270 05e5 23       		.byte	0x23
 1271 05e6 CC02     		.uleb128 0x14c
 1272 05e8 17       		.uleb128 0x17
 1273 05e9 79060000 		.4byte	.LASF86
 1274 05ed 06       		.byte	0x6
 1275 05ee 8102     		.2byte	0x281
 1276 05f0 52090000 		.4byte	0x952
 1277 05f4 03       		.byte	0x3
 1278 05f5 23       		.byte	0x23
 1279 05f6 DC05     		.uleb128 0x2dc
 1280 05f8 17       		.uleb128 0x17
 1281 05f9 F5010000 		.4byte	.LASF87
 1282 05fd 06       		.byte	0x6
 1283 05fe 8602     		.2byte	0x286
 1284 0600 B6060000 		.4byte	0x6b6
 1285 0604 03       		.byte	0x3
 1286 0605 23       		.byte	0x23
 1287 0606 E005     		.uleb128 0x2e0
 1288 0608 17       		.uleb128 0x17
 1289 0609 C1010000 		.4byte	.LASF88
 1290 060d 06       		.byte	0x6
 1291 060e 8802     		.2byte	0x288
 1292 0610 5E090000 		.4byte	0x95e
 1293 0614 03       		.byte	0x3
 1294 0615 23       		.byte	0x23
 1295 0616 EC05     		.uleb128 0x2ec
 1296 0618 00       		.byte	0
 1297 0619 05       		.uleb128 0x5
 1298 061a 04       		.byte	0x4
 1299 061b 91040000 		.4byte	0x491
 1300 061f 14       		.uleb128 0x14
 1301 0620 01       		.byte	0x1
 1302 0621 25000000 		.4byte	0x25
 1303 0625 3E060000 		.4byte	0x63e
ARM GAS  C:\Users\claym\AppData\Local\Temp\ccGY57bu.s 			page 26


 1304 0629 15       		.uleb128 0x15
 1305 062a B0040000 		.4byte	0x4b0
 1306 062e 15       		.uleb128 0x15
 1307 062f 2B010000 		.4byte	0x12b
 1308 0633 15       		.uleb128 0x15
 1309 0634 3E060000 		.4byte	0x63e
 1310 0638 15       		.uleb128 0x15
 1311 0639 25000000 		.4byte	0x25
 1312 063d 00       		.byte	0
 1313 063e 05       		.uleb128 0x5
 1314 063f 04       		.byte	0x4
 1315 0640 3A010000 		.4byte	0x13a
 1316 0644 05       		.uleb128 0x5
 1317 0645 04       		.byte	0x4
 1318 0646 1F060000 		.4byte	0x61f
 1319 064a 14       		.uleb128 0x14
 1320 064b 01       		.byte	0x1
 1321 064c AA000000 		.4byte	0xaa
 1322 0650 69060000 		.4byte	0x669
 1323 0654 15       		.uleb128 0x15
 1324 0655 B0040000 		.4byte	0x4b0
 1325 0659 15       		.uleb128 0x15
 1326 065a 2B010000 		.4byte	0x12b
 1327 065e 15       		.uleb128 0x15
 1328 065f AA000000 		.4byte	0xaa
 1329 0663 15       		.uleb128 0x15
 1330 0664 25000000 		.4byte	0x25
 1331 0668 00       		.byte	0
 1332 0669 05       		.uleb128 0x5
 1333 066a 04       		.byte	0x4
 1334 066b 4A060000 		.4byte	0x64a
 1335 066f 14       		.uleb128 0x14
 1336 0670 01       		.byte	0x1
 1337 0671 25000000 		.4byte	0x25
 1338 0675 84060000 		.4byte	0x684
 1339 0679 15       		.uleb128 0x15
 1340 067a B0040000 		.4byte	0x4b0
 1341 067e 15       		.uleb128 0x15
 1342 067f 2B010000 		.4byte	0x12b
 1343 0683 00       		.byte	0
 1344 0684 05       		.uleb128 0x5
 1345 0685 04       		.byte	0x4
 1346 0686 6F060000 		.4byte	0x66f
 1347 068a 0A       		.uleb128 0xa
 1348 068b 48000000 		.4byte	0x48
 1349 068f 9A060000 		.4byte	0x69a
 1350 0693 0B       		.uleb128 0xb
 1351 0694 2C000000 		.4byte	0x2c
 1352 0698 02       		.byte	0x2
 1353 0699 00       		.byte	0
 1354 069a 0A       		.uleb128 0xa
 1355 069b 48000000 		.4byte	0x48
 1356 069f AA060000 		.4byte	0x6aa
 1357 06a3 0B       		.uleb128 0xb
 1358 06a4 2C000000 		.4byte	0x2c
 1359 06a8 00       		.byte	0
 1360 06a9 00       		.byte	0
ARM GAS  C:\Users\claym\AppData\Local\Temp\ccGY57bu.s 			page 27


 1361 06aa 07       		.uleb128 0x7
 1362 06ab AC040000 		.4byte	.LASF89
 1363 06af 06       		.byte	0x6
 1364 06b0 1F01     		.2byte	0x11f
 1365 06b2 37030000 		.4byte	0x337
 1366 06b6 18       		.uleb128 0x18
 1367 06b7 56060000 		.4byte	.LASF90
 1368 06bb 0C       		.byte	0xc
 1369 06bc 06       		.byte	0x6
 1370 06bd 2301     		.2byte	0x123
 1371 06bf F1060000 		.4byte	0x6f1
 1372 06c3 17       		.uleb128 0x17
 1373 06c4 D6050000 		.4byte	.LASF24
 1374 06c8 06       		.byte	0x6
 1375 06c9 2501     		.2byte	0x125
 1376 06cb F1060000 		.4byte	0x6f1
 1377 06cf 02       		.byte	0x2
 1378 06d0 23       		.byte	0x23
 1379 06d1 00       		.uleb128 0
 1380 06d2 17       		.uleb128 0x17
 1381 06d3 0C030000 		.4byte	.LASF91
 1382 06d7 06       		.byte	0x6
 1383 06d8 2601     		.2byte	0x126
 1384 06da 25000000 		.4byte	0x25
 1385 06de 02       		.byte	0x2
 1386 06df 23       		.byte	0x23
 1387 06e0 04       		.uleb128 0x4
 1388 06e1 17       		.uleb128 0x17
 1389 06e2 A6040000 		.4byte	.LASF92
 1390 06e6 06       		.byte	0x6
 1391 06e7 2701     		.2byte	0x127
 1392 06e9 F7060000 		.4byte	0x6f7
 1393 06ed 02       		.byte	0x2
 1394 06ee 23       		.byte	0x23
 1395 06ef 08       		.uleb128 0x8
 1396 06f0 00       		.byte	0
 1397 06f1 05       		.uleb128 0x5
 1398 06f2 04       		.byte	0x4
 1399 06f3 B6060000 		.4byte	0x6b6
 1400 06f7 05       		.uleb128 0x5
 1401 06f8 04       		.byte	0x4
 1402 06f9 AA060000 		.4byte	0x6aa
 1403 06fd 18       		.uleb128 0x18
 1404 06fe 1A000000 		.4byte	.LASF93
 1405 0702 0E       		.byte	0xe
 1406 0703 06       		.byte	0x6
 1407 0704 3F01     		.2byte	0x13f
 1408 0706 38070000 		.4byte	0x738
 1409 070a 17       		.uleb128 0x17
 1410 070b 51050000 		.4byte	.LASF94
 1411 070f 06       		.byte	0x6
 1412 0710 4001     		.2byte	0x140
 1413 0712 38070000 		.4byte	0x738
 1414 0716 02       		.byte	0x2
 1415 0717 23       		.byte	0x23
 1416 0718 00       		.uleb128 0
 1417 0719 17       		.uleb128 0x17
ARM GAS  C:\Users\claym\AppData\Local\Temp\ccGY57bu.s 			page 28


 1418 071a D0050000 		.4byte	.LASF95
 1419 071e 06       		.byte	0x6
 1420 071f 4101     		.2byte	0x141
 1421 0721 38070000 		.4byte	0x738
 1422 0725 02       		.byte	0x2
 1423 0726 23       		.byte	0x23
 1424 0727 06       		.uleb128 0x6
 1425 0728 17       		.uleb128 0x17
 1426 0729 0D060000 		.4byte	.LASF96
 1427 072d 06       		.byte	0x6
 1428 072e 4201     		.2byte	0x142
 1429 0730 61000000 		.4byte	0x61
 1430 0734 02       		.byte	0x2
 1431 0735 23       		.byte	0x23
 1432 0736 0C       		.uleb128 0xc
 1433 0737 00       		.byte	0
 1434 0738 0A       		.uleb128 0xa
 1435 0739 61000000 		.4byte	0x61
 1436 073d 48070000 		.4byte	0x748
 1437 0741 0B       		.uleb128 0xb
 1438 0742 2C000000 		.4byte	0x2c
 1439 0746 02       		.byte	0x2
 1440 0747 00       		.byte	0
 1441 0748 19       		.uleb128 0x19
 1442 0749 D0       		.byte	0xd0
 1443 074a 06       		.byte	0x6
 1444 074b 5902     		.2byte	0x259
 1445 074d 78080000 		.4byte	0x878
 1446 0751 17       		.uleb128 0x17
 1447 0752 3A060000 		.4byte	.LASF97
 1448 0756 06       		.byte	0x6
 1449 0757 5B02     		.2byte	0x25b
 1450 0759 2C000000 		.4byte	0x2c
 1451 075d 02       		.byte	0x2
 1452 075e 23       		.byte	0x23
 1453 075f 00       		.uleb128 0
 1454 0760 17       		.uleb128 0x17
 1455 0761 DC050000 		.4byte	.LASF98
 1456 0765 06       		.byte	0x6
 1457 0766 5C02     		.2byte	0x25c
 1458 0768 2D010000 		.4byte	0x12d
 1459 076c 02       		.byte	0x2
 1460 076d 23       		.byte	0x23
 1461 076e 04       		.uleb128 0x4
 1462 076f 17       		.uleb128 0x17
 1463 0770 40030000 		.4byte	.LASF99
 1464 0774 06       		.byte	0x6
 1465 0775 5D02     		.2byte	0x25d
 1466 0777 78080000 		.4byte	0x878
 1467 077b 02       		.byte	0x2
 1468 077c 23       		.byte	0x23
 1469 077d 08       		.uleb128 0x8
 1470 077e 17       		.uleb128 0x17
 1471 077f A4060000 		.4byte	.LASF100
 1472 0783 06       		.byte	0x6
 1473 0784 5E02     		.2byte	0x25e
 1474 0786 BF010000 		.4byte	0x1bf
ARM GAS  C:\Users\claym\AppData\Local\Temp\ccGY57bu.s 			page 29


 1475 078a 02       		.byte	0x2
 1476 078b 23       		.byte	0x23
 1477 078c 24       		.uleb128 0x24
 1478 078d 17       		.uleb128 0x17
 1479 078e 9F020000 		.4byte	.LASF101
 1480 0792 06       		.byte	0x6
 1481 0793 5F02     		.2byte	0x25f
 1482 0795 25000000 		.4byte	0x25
 1483 0799 02       		.byte	0x2
 1484 079a 23       		.byte	0x23
 1485 079b 48       		.uleb128 0x48
 1486 079c 17       		.uleb128 0x17
 1487 079d D8040000 		.4byte	.LASF102
 1488 07a1 06       		.byte	0x6
 1489 07a2 6002     		.2byte	0x260
 1490 07a4 81000000 		.4byte	0x81
 1491 07a8 02       		.byte	0x2
 1492 07a9 23       		.byte	0x23
 1493 07aa 50       		.uleb128 0x50
 1494 07ab 17       		.uleb128 0x17
 1495 07ac BA060000 		.4byte	.LASF103
 1496 07b0 06       		.byte	0x6
 1497 07b1 6102     		.2byte	0x261
 1498 07b3 FD060000 		.4byte	0x6fd
 1499 07b7 02       		.byte	0x2
 1500 07b8 23       		.byte	0x23
 1501 07b9 58       		.uleb128 0x58
 1502 07ba 17       		.uleb128 0x17
 1503 07bb E3040000 		.4byte	.LASF104
 1504 07bf 06       		.byte	0x6
 1505 07c0 6202     		.2byte	0x262
 1506 07c2 15010000 		.4byte	0x115
 1507 07c6 02       		.byte	0x2
 1508 07c7 23       		.byte	0x23
 1509 07c8 68       		.uleb128 0x68
 1510 07c9 17       		.uleb128 0x17
 1511 07ca BF060000 		.4byte	.LASF105
 1512 07ce 06       		.byte	0x6
 1513 07cf 6302     		.2byte	0x263
 1514 07d1 15010000 		.4byte	0x115
 1515 07d5 02       		.byte	0x2
 1516 07d6 23       		.byte	0x23
 1517 07d7 70       		.uleb128 0x70
 1518 07d8 17       		.uleb128 0x17
 1519 07d9 3B040000 		.4byte	.LASF106
 1520 07dd 06       		.byte	0x6
 1521 07de 6402     		.2byte	0x264
 1522 07e0 15010000 		.4byte	0x115
 1523 07e4 02       		.byte	0x2
 1524 07e5 23       		.byte	0x23
 1525 07e6 78       		.uleb128 0x78
 1526 07e7 17       		.uleb128 0x17
 1527 07e8 6F060000 		.4byte	.LASF107
 1528 07ec 06       		.byte	0x6
 1529 07ed 6502     		.2byte	0x265
 1530 07ef 88080000 		.4byte	0x888
 1531 07f3 03       		.byte	0x3
ARM GAS  C:\Users\claym\AppData\Local\Temp\ccGY57bu.s 			page 30


 1532 07f4 23       		.byte	0x23
 1533 07f5 8001     		.uleb128 0x80
 1534 07f7 17       		.uleb128 0x17
 1535 07f8 34030000 		.4byte	.LASF108
 1536 07fc 06       		.byte	0x6
 1537 07fd 6602     		.2byte	0x266
 1538 07ff 98080000 		.4byte	0x898
 1539 0803 03       		.byte	0x3
 1540 0804 23       		.byte	0x23
 1541 0805 8801     		.uleb128 0x88
 1542 0807 17       		.uleb128 0x17
 1543 0808 1A060000 		.4byte	.LASF109
 1544 080c 06       		.byte	0x6
 1545 080d 6702     		.2byte	0x267
 1546 080f 25000000 		.4byte	0x25
 1547 0813 03       		.byte	0x3
 1548 0814 23       		.byte	0x23
 1549 0815 A001     		.uleb128 0xa0
 1550 0817 17       		.uleb128 0x17
 1551 0818 65020000 		.4byte	.LASF110
 1552 081c 06       		.byte	0x6
 1553 081d 6802     		.2byte	0x268
 1554 081f 15010000 		.4byte	0x115
 1555 0823 03       		.byte	0x3
 1556 0824 23       		.byte	0x23
 1557 0825 A401     		.uleb128 0xa4
 1558 0827 17       		.uleb128 0x17
 1559 0828 B7000000 		.4byte	.LASF111
 1560 082c 06       		.byte	0x6
 1561 082d 6902     		.2byte	0x269
 1562 082f 15010000 		.4byte	0x115
 1563 0833 03       		.byte	0x3
 1564 0834 23       		.byte	0x23
 1565 0835 AC01     		.uleb128 0xac
 1566 0837 17       		.uleb128 0x17
 1567 0838 54020000 		.4byte	.LASF112
 1568 083c 06       		.byte	0x6
 1569 083d 6A02     		.2byte	0x26a
 1570 083f 15010000 		.4byte	0x115
 1571 0843 03       		.byte	0x3
 1572 0844 23       		.byte	0x23
 1573 0845 B401     		.uleb128 0xb4
 1574 0847 17       		.uleb128 0x17
 1575 0848 4D000000 		.4byte	.LASF113
 1576 084c 06       		.byte	0x6
 1577 084d 6B02     		.2byte	0x26b
 1578 084f 15010000 		.4byte	0x115
 1579 0853 03       		.byte	0x3
 1580 0854 23       		.byte	0x23
 1581 0855 BC01     		.uleb128 0xbc
 1582 0857 17       		.uleb128 0x17
 1583 0858 5C000000 		.4byte	.LASF114
 1584 085c 06       		.byte	0x6
 1585 085d 6C02     		.2byte	0x26c
 1586 085f 15010000 		.4byte	0x115
 1587 0863 03       		.byte	0x3
 1588 0864 23       		.byte	0x23
ARM GAS  C:\Users\claym\AppData\Local\Temp\ccGY57bu.s 			page 31


 1589 0865 C401     		.uleb128 0xc4
 1590 0867 17       		.uleb128 0x17
 1591 0868 82040000 		.4byte	.LASF115
 1592 086c 06       		.byte	0x6
 1593 086d 6D02     		.2byte	0x26d
 1594 086f 25000000 		.4byte	0x25
 1595 0873 03       		.byte	0x3
 1596 0874 23       		.byte	0x23
 1597 0875 CC01     		.uleb128 0xcc
 1598 0877 00       		.byte	0
 1599 0878 0A       		.uleb128 0xa
 1600 0879 33010000 		.4byte	0x133
 1601 087d 88080000 		.4byte	0x888
 1602 0881 0B       		.uleb128 0xb
 1603 0882 2C000000 		.4byte	0x2c
 1604 0886 19       		.byte	0x19
 1605 0887 00       		.byte	0
 1606 0888 0A       		.uleb128 0xa
 1607 0889 33010000 		.4byte	0x133
 1608 088d 98080000 		.4byte	0x898
 1609 0891 0B       		.uleb128 0xb
 1610 0892 2C000000 		.4byte	0x2c
 1611 0896 07       		.byte	0x7
 1612 0897 00       		.byte	0
 1613 0898 0A       		.uleb128 0xa
 1614 0899 33010000 		.4byte	0x133
 1615 089d A8080000 		.4byte	0x8a8
 1616 08a1 0B       		.uleb128 0xb
 1617 08a2 2C000000 		.4byte	0x2c
 1618 08a6 17       		.byte	0x17
 1619 08a7 00       		.byte	0
 1620 08a8 19       		.uleb128 0x19
 1621 08a9 F0       		.byte	0xf0
 1622 08aa 06       		.byte	0x6
 1623 08ab 7202     		.2byte	0x272
 1624 08ad D0080000 		.4byte	0x8d0
 1625 08b1 17       		.uleb128 0x17
 1626 08b2 FE030000 		.4byte	.LASF116
 1627 08b6 06       		.byte	0x6
 1628 08b7 7502     		.2byte	0x275
 1629 08b9 D0080000 		.4byte	0x8d0
 1630 08bd 02       		.byte	0x2
 1631 08be 23       		.byte	0x23
 1632 08bf 00       		.uleb128 0
 1633 08c0 17       		.uleb128 0x17
 1634 08c1 66060000 		.4byte	.LASF117
 1635 08c5 06       		.byte	0x6
 1636 08c6 7602     		.2byte	0x276
 1637 08c8 E0080000 		.4byte	0x8e0
 1638 08cc 02       		.byte	0x2
 1639 08cd 23       		.byte	0x23
 1640 08ce 78       		.uleb128 0x78
 1641 08cf 00       		.byte	0
 1642 08d0 0A       		.uleb128 0xa
 1643 08d1 31030000 		.4byte	0x331
 1644 08d5 E0080000 		.4byte	0x8e0
 1645 08d9 0B       		.uleb128 0xb
ARM GAS  C:\Users\claym\AppData\Local\Temp\ccGY57bu.s 			page 32


 1646 08da 2C000000 		.4byte	0x2c
 1647 08de 1D       		.byte	0x1d
 1648 08df 00       		.byte	0
 1649 08e0 0A       		.uleb128 0xa
 1650 08e1 2C000000 		.4byte	0x2c
 1651 08e5 F0080000 		.4byte	0x8f0
 1652 08e9 0B       		.uleb128 0xb
 1653 08ea 2C000000 		.4byte	0x2c
 1654 08ee 1D       		.byte	0x1d
 1655 08ef 00       		.byte	0
 1656 08f0 1A       		.uleb128 0x1a
 1657 08f1 F0       		.byte	0xf0
 1658 08f2 06       		.byte	0x6
 1659 08f3 5702     		.2byte	0x257
 1660 08f5 12090000 		.4byte	0x912
 1661 08f9 1B       		.uleb128 0x1b
 1662 08fa 4A050000 		.4byte	.LASF67
 1663 08fe 06       		.byte	0x6
 1664 08ff 6E02     		.2byte	0x26e
 1665 0901 48070000 		.4byte	0x748
 1666 0905 1B       		.uleb128 0x1b
 1667 0906 91060000 		.4byte	.LASF118
 1668 090a 06       		.byte	0x6
 1669 090b 7702     		.2byte	0x277
 1670 090d A8080000 		.4byte	0x8a8
 1671 0911 00       		.byte	0
 1672 0912 0A       		.uleb128 0xa
 1673 0913 33010000 		.4byte	0x133
 1674 0917 22090000 		.4byte	0x922
 1675 091b 0B       		.uleb128 0xb
 1676 091c 2C000000 		.4byte	0x2c
 1677 0920 18       		.byte	0x18
 1678 0921 00       		.byte	0
 1679 0922 06       		.uleb128 0x6
 1680 0923 8D000000 		.4byte	.LASF120
 1681 0927 01       		.byte	0x1
 1682 0928 05       		.uleb128 0x5
 1683 0929 04       		.byte	0x4
 1684 092a 22090000 		.4byte	0x922
 1685 092e 1C       		.uleb128 0x1c
 1686 092f 01       		.byte	0x1
 1687 0930 3A090000 		.4byte	0x93a
 1688 0934 15       		.uleb128 0x15
 1689 0935 B0040000 		.4byte	0x4b0
 1690 0939 00       		.byte	0
 1691 093a 05       		.uleb128 0x5
 1692 093b 04       		.byte	0x4
 1693 093c 2E090000 		.4byte	0x92e
 1694 0940 05       		.uleb128 0x5
 1695 0941 04       		.byte	0x4
 1696 0942 A9010000 		.4byte	0x1a9
 1697 0946 1C       		.uleb128 0x1c
 1698 0947 01       		.byte	0x1
 1699 0948 52090000 		.4byte	0x952
 1700 094c 15       		.uleb128 0x15
 1701 094d 25000000 		.4byte	0x25
 1702 0951 00       		.byte	0
ARM GAS  C:\Users\claym\AppData\Local\Temp\ccGY57bu.s 			page 33


 1703 0952 05       		.uleb128 0x5
 1704 0953 04       		.byte	0x4
 1705 0954 58090000 		.4byte	0x958
 1706 0958 05       		.uleb128 0x5
 1707 0959 04       		.byte	0x4
 1708 095a 46090000 		.4byte	0x946
 1709 095e 0A       		.uleb128 0xa
 1710 095f AA060000 		.4byte	0x6aa
 1711 0963 6E090000 		.4byte	0x96e
 1712 0967 0B       		.uleb128 0xb
 1713 0968 2C000000 		.4byte	0x2c
 1714 096c 02       		.byte	0x2
 1715 096d 00       		.byte	0
 1716 096e 1D       		.uleb128 0x1d
 1717 096f 80050000 		.4byte	.LASF121
 1718 0973 06       		.byte	0x6
 1719 0974 0703     		.2byte	0x307
 1720 0976 B0040000 		.4byte	0x4b0
 1721 097a 01       		.byte	0x1
 1722 097b 01       		.byte	0x1
 1723 097c 1D       		.uleb128 0x1d
 1724 097d 27060000 		.4byte	.LASF122
 1725 0981 06       		.byte	0x6
 1726 0982 0803     		.2byte	0x308
 1727 0984 B6040000 		.4byte	0x4b6
 1728 0988 01       		.byte	0x1
 1729 0989 01       		.byte	0x1
 1730 098a 04       		.uleb128 0x4
 1731 098b 31020000 		.4byte	.LASF123
 1732 098f 07       		.byte	0x7
 1733 0990 24       		.byte	0x24
 1734 0991 56000000 		.4byte	0x56
 1735 0995 04       		.uleb128 0x4
 1736 0996 4F040000 		.4byte	.LASF124
 1737 099a 07       		.byte	0x7
 1738 099b 2C       		.byte	0x2c
 1739 099c 68000000 		.4byte	0x68
 1740 09a0 10       		.uleb128 0x10
 1741 09a1 98000000 		.4byte	.LASF125
 1742 09a5 10       		.byte	0x10
 1743 09a6 08       		.byte	0x8
 1744 09a7 20       		.byte	0x20
 1745 09a8 010A0000 		.4byte	0xa01
 1746 09ac 0D       		.uleb128 0xd
 1747 09ad BA050000 		.4byte	.LASF126
 1748 09b1 08       		.byte	0x8
 1749 09b2 21       		.byte	0x21
 1750 09b3 8A090000 		.4byte	0x98a
 1751 09b7 02       		.byte	0x2
 1752 09b8 23       		.byte	0x23
 1753 09b9 00       		.uleb128 0
 1754 09ba 0D       		.uleb128 0xd
 1755 09bb F3030000 		.4byte	.LASF127
 1756 09bf 08       		.byte	0x8
 1757 09c0 22       		.byte	0x22
 1758 09c1 8A090000 		.4byte	0x98a
 1759 09c5 02       		.byte	0x2
ARM GAS  C:\Users\claym\AppData\Local\Temp\ccGY57bu.s 			page 34


 1760 09c6 23       		.byte	0x23
 1761 09c7 02       		.uleb128 0x2
 1762 09c8 0D       		.uleb128 0xd
 1763 09c9 74050000 		.4byte	.LASF128
 1764 09cd 08       		.byte	0x8
 1765 09ce 23       		.byte	0x23
 1766 09cf 8A090000 		.4byte	0x98a
 1767 09d3 02       		.byte	0x2
 1768 09d4 23       		.byte	0x23
 1769 09d5 04       		.uleb128 0x4
 1770 09d6 0D       		.uleb128 0xd
 1771 09d7 13030000 		.4byte	.LASF129
 1772 09db 08       		.byte	0x8
 1773 09dc 24       		.byte	0x24
 1774 09dd 2B010000 		.4byte	0x12b
 1775 09e1 02       		.byte	0x2
 1776 09e2 23       		.byte	0x23
 1777 09e3 08       		.uleb128 0x8
 1778 09e4 0D       		.uleb128 0xd
 1779 09e5 E9030000 		.4byte	.LASF130
 1780 09e9 08       		.byte	0x8
 1781 09ea 25       		.byte	0x25
 1782 09eb 8A090000 		.4byte	0x98a
 1783 09ef 02       		.byte	0x2
 1784 09f0 23       		.byte	0x23
 1785 09f1 0C       		.uleb128 0xc
 1786 09f2 0D       		.uleb128 0xd
 1787 09f3 6A030000 		.4byte	.LASF131
 1788 09f7 08       		.byte	0x8
 1789 09f8 26       		.byte	0x26
 1790 09f9 8A090000 		.4byte	0x98a
 1791 09fd 02       		.byte	0x2
 1792 09fe 23       		.byte	0x23
 1793 09ff 0E       		.uleb128 0xe
 1794 0a00 00       		.byte	0
 1795 0a01 04       		.uleb128 0x4
 1796 0a02 B8030000 		.4byte	.LASF132
 1797 0a06 08       		.byte	0x8
 1798 0a07 27       		.byte	0x27
 1799 0a08 A0090000 		.4byte	0x9a0
 1800 0a0c 1E       		.uleb128 0x1e
 1801 0a0d 07       		.byte	0x7
 1802 0a0e 01       		.byte	0x1
 1803 0a0f 48000000 		.4byte	0x48
 1804 0a13 09       		.byte	0x9
 1805 0a14 24       		.byte	0x24
 1806 0a15 3E0A0000 		.4byte	0xa3e
 1807 0a19 1F       		.uleb128 0x1f
 1808 0a1a 25020000 		.4byte	.LASF133
 1809 0a1e 01       		.byte	0x1
 1810 0a1f 1F       		.uleb128 0x1f
 1811 0a20 AD000000 		.4byte	.LASF134
 1812 0a24 02       		.byte	0x2
 1813 0a25 1F       		.uleb128 0x1f
 1814 0a26 28040000 		.4byte	.LASF135
 1815 0a2a 03       		.byte	0x3
 1816 0a2b 1F       		.uleb128 0x1f
ARM GAS  C:\Users\claym\AppData\Local\Temp\ccGY57bu.s 			page 35


 1817 0a2c C6040000 		.4byte	.LASF136
 1818 0a30 04       		.byte	0x4
 1819 0a31 1F       		.uleb128 0x1f
 1820 0a32 0C000000 		.4byte	.LASF137
 1821 0a36 05       		.byte	0x5
 1822 0a37 1F       		.uleb128 0x1f
 1823 0a38 5C060000 		.4byte	.LASF138
 1824 0a3c 06       		.byte	0x6
 1825 0a3d 00       		.byte	0
 1826 0a3e 20       		.uleb128 0x20
 1827 0a3f 01       		.byte	0x1
 1828 0a40 6A040000 		.4byte	.LASF141
 1829 0a44 01       		.byte	0x1
 1830 0a45 43       		.byte	0x43
 1831 0a46 01       		.byte	0x1
 1832 0a47 95090000 		.4byte	0x995
 1833 0a4b 8C000000 		.4byte	.LFB4
 1834 0a4f D4000000 		.4byte	.LFE4
 1835 0a53 00000000 		.4byte	.LLST11
 1836 0a57 01       		.byte	0x1
 1837 0a58 D00A0000 		.4byte	0xad0
 1838 0a5c 21       		.uleb128 0x21
 1839 0a5d FF020000 		.4byte	.LASF139
 1840 0a61 01       		.byte	0x1
 1841 0a62 43       		.byte	0x43
 1842 0a63 D00A0000 		.4byte	0xad0
 1843 0a67 20000000 		.4byte	.LLST12
 1844 0a6b 21       		.uleb128 0x21
 1845 0a6c B4050000 		.4byte	.LASF140
 1846 0a70 01       		.byte	0x1
 1847 0a71 43       		.byte	0x43
 1848 0a72 2B010000 		.4byte	0x12b
 1849 0a76 57000000 		.4byte	.LLST13
 1850 0a7a 22       		.uleb128 0x22
 1851 0a7b 18000000 		.4byte	.Ldebug_ranges0+0x18
 1852 0a7f A30A0000 		.4byte	0xaa3
 1853 0a83 23       		.uleb128 0x23
 1854 0a84 4F020000 		.4byte	.LASF143
 1855 0a88 01       		.byte	0x1
 1856 0a89 48       		.byte	0x48
 1857 0a8a D60A0000 		.4byte	0xad6
 1858 0a8e 8E000000 		.4byte	.LLST14
 1859 0a92 24       		.uleb128 0x24
 1860 0a93 C2000000 		.4byte	.LVL27
 1861 0a97 A60C0000 		.4byte	0xca6
 1862 0a9b 25       		.uleb128 0x25
 1863 0a9c 01       		.byte	0x1
 1864 0a9d 50       		.byte	0x50
 1865 0a9e 02       		.byte	0x2
 1866 0a9f 76       		.byte	0x76
 1867 0aa0 00       		.sleb128 0
 1868 0aa1 00       		.byte	0
 1869 0aa2 00       		.byte	0
 1870 0aa3 26       		.uleb128 0x26
 1871 0aa4 96000000 		.4byte	.LVL20
 1872 0aa8 9A0B0000 		.4byte	0xb9a
 1873 0aac B70A0000 		.4byte	0xab7
ARM GAS  C:\Users\claym\AppData\Local\Temp\ccGY57bu.s 			page 36


 1874 0ab0 25       		.uleb128 0x25
 1875 0ab1 01       		.byte	0x1
 1876 0ab2 50       		.byte	0x50
 1877 0ab3 02       		.byte	0x2
 1878 0ab4 74       		.byte	0x74
 1879 0ab5 00       		.sleb128 0
 1880 0ab6 00       		.byte	0
 1881 0ab7 24       		.uleb128 0x24
 1882 0ab8 A2000000 		.4byte	.LVL21
 1883 0abc B70C0000 		.4byte	0xcb7
 1884 0ac0 25       		.uleb128 0x25
 1885 0ac1 01       		.byte	0x1
 1886 0ac2 50       		.byte	0x50
 1887 0ac3 01       		.byte	0x1
 1888 0ac4 35       		.byte	0x35
 1889 0ac5 25       		.uleb128 0x25
 1890 0ac6 01       		.byte	0x1
 1891 0ac7 51       		.byte	0x51
 1892 0ac8 05       		.byte	0x5
 1893 0ac9 03       		.byte	0x3
 1894 0aca 00000000 		.4byte	.LC0
 1895 0ace 00       		.byte	0
 1896 0acf 00       		.byte	0
 1897 0ad0 05       		.uleb128 0x5
 1898 0ad1 04       		.byte	0x4
 1899 0ad2 010A0000 		.4byte	0xa01
 1900 0ad6 05       		.uleb128 0x5
 1901 0ad7 04       		.byte	0x4
 1902 0ad8 8A090000 		.4byte	0x98a
 1903 0adc 20       		.uleb128 0x20
 1904 0add 01       		.byte	0x1
 1905 0ade D4010000 		.4byte	.LASF142
 1906 0ae2 01       		.byte	0x1
 1907 0ae3 35       		.byte	0x35
 1908 0ae4 01       		.byte	0x1
 1909 0ae5 95090000 		.4byte	0x995
 1910 0ae9 44000000 		.4byte	.LFB3
 1911 0aed 8C000000 		.4byte	.LFE3
 1912 0af1 AD000000 		.4byte	.LLST7
 1913 0af5 01       		.byte	0x1
 1914 0af6 6E0B0000 		.4byte	0xb6e
 1915 0afa 21       		.uleb128 0x21
 1916 0afb FF020000 		.4byte	.LASF139
 1917 0aff 01       		.byte	0x1
 1918 0b00 35       		.byte	0x35
 1919 0b01 D00A0000 		.4byte	0xad0
 1920 0b05 CD000000 		.4byte	.LLST8
 1921 0b09 21       		.uleb128 0x21
 1922 0b0a B4050000 		.4byte	.LASF140
 1923 0b0e 01       		.byte	0x1
 1924 0b0f 35       		.byte	0x35
 1925 0b10 6E0B0000 		.4byte	0xb6e
 1926 0b14 04010000 		.4byte	.LLST9
 1927 0b18 22       		.uleb128 0x22
 1928 0b19 00000000 		.4byte	.Ldebug_ranges0+0
 1929 0b1d 410B0000 		.4byte	0xb41
 1930 0b21 23       		.uleb128 0x23
ARM GAS  C:\Users\claym\AppData\Local\Temp\ccGY57bu.s 			page 37


 1931 0b22 3A020000 		.4byte	.LASF144
 1932 0b26 01       		.byte	0x1
 1933 0b27 3A       		.byte	0x3a
 1934 0b28 D60A0000 		.4byte	0xad6
 1935 0b2c 3B010000 		.4byte	.LLST10
 1936 0b30 24       		.uleb128 0x24
 1937 0b31 7A000000 		.4byte	.LVL18
 1938 0b35 A60C0000 		.4byte	0xca6
 1939 0b39 25       		.uleb128 0x25
 1940 0b3a 01       		.byte	0x1
 1941 0b3b 51       		.byte	0x51
 1942 0b3c 02       		.byte	0x2
 1943 0b3d 76       		.byte	0x76
 1944 0b3e 00       		.sleb128 0
 1945 0b3f 00       		.byte	0
 1946 0b40 00       		.byte	0
 1947 0b41 26       		.uleb128 0x26
 1948 0b42 4E000000 		.4byte	.LVL11
 1949 0b46 750B0000 		.4byte	0xb75
 1950 0b4a 550B0000 		.4byte	0xb55
 1951 0b4e 25       		.uleb128 0x25
 1952 0b4f 01       		.byte	0x1
 1953 0b50 50       		.byte	0x50
 1954 0b51 02       		.byte	0x2
 1955 0b52 74       		.byte	0x74
 1956 0b53 00       		.sleb128 0
 1957 0b54 00       		.byte	0
 1958 0b55 24       		.uleb128 0x24
 1959 0b56 5A000000 		.4byte	.LVL12
 1960 0b5a B70C0000 		.4byte	0xcb7
 1961 0b5e 25       		.uleb128 0x25
 1962 0b5f 01       		.byte	0x1
 1963 0b60 50       		.byte	0x50
 1964 0b61 01       		.byte	0x1
 1965 0b62 35       		.byte	0x35
 1966 0b63 25       		.uleb128 0x25
 1967 0b64 01       		.byte	0x1
 1968 0b65 51       		.byte	0x51
 1969 0b66 05       		.byte	0x5
 1970 0b67 03       		.byte	0x3
 1971 0b68 17000000 		.4byte	.LC2
 1972 0b6c 00       		.byte	0
 1973 0b6d 00       		.byte	0
 1974 0b6e 05       		.uleb128 0x5
 1975 0b6f 04       		.byte	0x4
 1976 0b70 740B0000 		.4byte	0xb74
 1977 0b74 27       		.uleb128 0x27
 1978 0b75 28       		.uleb128 0x28
 1979 0b76 01       		.byte	0x1
 1980 0b77 33000000 		.4byte	.LASF146
 1981 0b7b 01       		.byte	0x1
 1982 0b7c 2C       		.byte	0x2c
 1983 0b7d 01       		.byte	0x1
 1984 0b7e 930B0000 		.4byte	0xb93
 1985 0b82 01       		.byte	0x1
 1986 0b83 930B0000 		.4byte	0xb93
 1987 0b87 29       		.uleb128 0x29
ARM GAS  C:\Users\claym\AppData\Local\Temp\ccGY57bu.s 			page 38


 1988 0b88 FF020000 		.4byte	.LASF139
 1989 0b8c 01       		.byte	0x1
 1990 0b8d 2C       		.byte	0x2c
 1991 0b8e D00A0000 		.4byte	0xad0
 1992 0b92 00       		.byte	0
 1993 0b93 03       		.uleb128 0x3
 1994 0b94 01       		.byte	0x1
 1995 0b95 02       		.byte	0x2
 1996 0b96 49040000 		.4byte	.LASF145
 1997 0b9a 28       		.uleb128 0x28
 1998 0b9b 01       		.byte	0x1
 1999 0b9c F2050000 		.4byte	.LASF147
 2000 0ba0 01       		.byte	0x1
 2001 0ba1 23       		.byte	0x23
 2002 0ba2 01       		.byte	0x1
 2003 0ba3 930B0000 		.4byte	0xb93
 2004 0ba7 01       		.byte	0x1
 2005 0ba8 B80B0000 		.4byte	0xbb8
 2006 0bac 29       		.uleb128 0x29
 2007 0bad FF020000 		.4byte	.LASF139
 2008 0bb1 01       		.byte	0x1
 2009 0bb2 23       		.byte	0x23
 2010 0bb3 D00A0000 		.4byte	0xad0
 2011 0bb7 00       		.byte	0
 2012 0bb8 2A       		.uleb128 0x2a
 2013 0bb9 01       		.byte	0x1
 2014 0bba 92030000 		.4byte	.LASF152
 2015 0bbe 01       		.byte	0x1
 2016 0bbf 1A       		.byte	0x1a
 2017 0bc0 01       		.byte	0x1
 2018 0bc1 00000000 		.4byte	.LFB0
 2019 0bc5 0E000000 		.4byte	.LFE0
 2020 0bc9 02       		.byte	0x2
 2021 0bca 7D       		.byte	0x7d
 2022 0bcb 00       		.sleb128 0
 2023 0bcc 01       		.byte	0x1
 2024 0bcd 080C0000 		.4byte	0xc08
 2025 0bd1 2B       		.uleb128 0x2b
 2026 0bd2 FF020000 		.4byte	.LASF139
 2027 0bd6 01       		.byte	0x1
 2028 0bd7 1A       		.byte	0x1a
 2029 0bd8 D00A0000 		.4byte	0xad0
 2030 0bdc 01       		.byte	0x1
 2031 0bdd 50       		.byte	0x50
 2032 0bde 2B       		.uleb128 0x2b
 2033 0bdf D2060000 		.4byte	.LASF148
 2034 0be3 01       		.byte	0x1
 2035 0be4 1A       		.byte	0x1a
 2036 0be5 2B010000 		.4byte	0x12b
 2037 0be9 01       		.byte	0x1
 2038 0bea 51       		.byte	0x51
 2039 0beb 2B       		.uleb128 0x2b
 2040 0bec 6A030000 		.4byte	.LASF131
 2041 0bf0 01       		.byte	0x1
 2042 0bf1 1A       		.byte	0x1a
 2043 0bf2 8A090000 		.4byte	0x98a
 2044 0bf6 01       		.byte	0x1
ARM GAS  C:\Users\claym\AppData\Local\Temp\ccGY57bu.s 			page 39


 2045 0bf7 52       		.byte	0x52
 2046 0bf8 21       		.uleb128 0x21
 2047 0bf9 E9030000 		.4byte	.LASF130
 2048 0bfd 01       		.byte	0x1
 2049 0bfe 1A       		.byte	0x1a
 2050 0bff 8A090000 		.4byte	0x98a
 2051 0c03 5A010000 		.4byte	.LLST0
 2052 0c07 00       		.byte	0
 2053 0c08 2C       		.uleb128 0x2c
 2054 0c09 9A0B0000 		.4byte	0xb9a
 2055 0c0d 0E000000 		.4byte	.LFB1
 2056 0c11 28000000 		.4byte	.LFE1
 2057 0c15 79010000 		.4byte	.LLST1
 2058 0c19 01       		.byte	0x1
 2059 0c1a 570C0000 		.4byte	0xc57
 2060 0c1e 2D       		.uleb128 0x2d
 2061 0c1f AC0B0000 		.4byte	0xbac
 2062 0c23 99010000 		.4byte	.LLST2
 2063 0c27 2E       		.uleb128 0x2e
 2064 0c28 9A0B0000 		.4byte	0xb9a
 2065 0c2c 18000000 		.4byte	.LBB4
 2066 0c30 22000000 		.4byte	.LBE4
 2067 0c34 2D       		.uleb128 0x2d
 2068 0c35 AC0B0000 		.4byte	0xbac
 2069 0c39 BA010000 		.4byte	.LLST3
 2070 0c3d 24       		.uleb128 0x24
 2071 0c3e 20000000 		.4byte	.LVL5
 2072 0c42 B70C0000 		.4byte	0xcb7
 2073 0c46 25       		.uleb128 0x25
 2074 0c47 01       		.byte	0x1
 2075 0c48 50       		.byte	0x50
 2076 0c49 01       		.byte	0x1
 2077 0c4a 35       		.byte	0x35
 2078 0c4b 25       		.uleb128 0x25
 2079 0c4c 01       		.byte	0x1
 2080 0c4d 51       		.byte	0x51
 2081 0c4e 05       		.byte	0x5
 2082 0c4f 03       		.byte	0x3
 2083 0c50 00000000 		.4byte	.LC0
 2084 0c54 00       		.byte	0
 2085 0c55 00       		.byte	0
 2086 0c56 00       		.byte	0
 2087 0c57 2C       		.uleb128 0x2c
 2088 0c58 750B0000 		.4byte	0xb75
 2089 0c5c 28000000 		.4byte	.LFB2
 2090 0c60 44000000 		.4byte	.LFE2
 2091 0c64 D0010000 		.4byte	.LLST4
 2092 0c68 01       		.byte	0x1
 2093 0c69 A60C0000 		.4byte	0xca6
 2094 0c6d 2D       		.uleb128 0x2d
 2095 0c6e 870B0000 		.4byte	0xb87
 2096 0c72 F0010000 		.4byte	.LLST5
 2097 0c76 2E       		.uleb128 0x2e
 2098 0c77 750B0000 		.4byte	0xb75
 2099 0c7b 34000000 		.4byte	.LBB8
 2100 0c7f 3E000000 		.4byte	.LBE8
 2101 0c83 2D       		.uleb128 0x2d
ARM GAS  C:\Users\claym\AppData\Local\Temp\ccGY57bu.s 			page 40


 2102 0c84 870B0000 		.4byte	0xb87
 2103 0c88 11020000 		.4byte	.LLST6
 2104 0c8c 24       		.uleb128 0x24
 2105 0c8d 3C000000 		.4byte	.LVL9
 2106 0c91 B70C0000 		.4byte	0xcb7
 2107 0c95 25       		.uleb128 0x25
 2108 0c96 01       		.byte	0x1
 2109 0c97 50       		.byte	0x50
 2110 0c98 01       		.byte	0x1
 2111 0c99 35       		.byte	0x35
 2112 0c9a 25       		.uleb128 0x25
 2113 0c9b 01       		.byte	0x1
 2114 0c9c 51       		.byte	0x51
 2115 0c9d 05       		.byte	0x5
 2116 0c9e 03       		.byte	0x3
 2117 0c9f 17000000 		.4byte	.LC2
 2118 0ca3 00       		.byte	0
 2119 0ca4 00       		.byte	0
 2120 0ca5 00       		.byte	0
 2121 0ca6 2F       		.uleb128 0x2f
 2122 0ca7 01       		.byte	0x1
 2123 0ca8 01       		.byte	0x1
 2124 0ca9 5B030000 		.4byte	.LASF153
 2125 0cad 7B030000 		.4byte	.LASF154
 2126 0cb1 0A       		.byte	0xa
 2127 0cb2 00       		.byte	0
 2128 0cb3 5B030000 		.4byte	.LASF153
 2129 0cb7 30       		.uleb128 0x30
 2130 0cb8 01       		.byte	0x1
 2131 0cb9 01       		.byte	0x1
 2132 0cba 83060000 		.4byte	.LASF155
 2133 0cbe 83060000 		.4byte	.LASF155
 2134 0cc2 09       		.byte	0x9
 2135 0cc3 49       		.byte	0x49
 2136 0cc4 00       		.byte	0
 2137              		.section	.debug_abbrev,"",%progbits
 2138              	.Ldebug_abbrev0:
 2139 0000 01       		.uleb128 0x1
 2140 0001 11       		.uleb128 0x11
 2141 0002 01       		.byte	0x1
 2142 0003 25       		.uleb128 0x25
 2143 0004 0E       		.uleb128 0xe
 2144 0005 13       		.uleb128 0x13
 2145 0006 0B       		.uleb128 0xb
 2146 0007 03       		.uleb128 0x3
 2147 0008 0E       		.uleb128 0xe
 2148 0009 1B       		.uleb128 0x1b
 2149 000a 0E       		.uleb128 0xe
 2150 000b 11       		.uleb128 0x11
 2151 000c 01       		.uleb128 0x1
 2152 000d 12       		.uleb128 0x12
 2153 000e 01       		.uleb128 0x1
 2154 000f 10       		.uleb128 0x10
 2155 0010 06       		.uleb128 0x6
 2156 0011 00       		.byte	0
 2157 0012 00       		.byte	0
 2158 0013 02       		.uleb128 0x2
ARM GAS  C:\Users\claym\AppData\Local\Temp\ccGY57bu.s 			page 41


 2159 0014 24       		.uleb128 0x24
 2160 0015 00       		.byte	0
 2161 0016 0B       		.uleb128 0xb
 2162 0017 0B       		.uleb128 0xb
 2163 0018 3E       		.uleb128 0x3e
 2164 0019 0B       		.uleb128 0xb
 2165 001a 03       		.uleb128 0x3
 2166 001b 08       		.uleb128 0x8
 2167 001c 00       		.byte	0
 2168 001d 00       		.byte	0
 2169 001e 03       		.uleb128 0x3
 2170 001f 24       		.uleb128 0x24
 2171 0020 00       		.byte	0
 2172 0021 0B       		.uleb128 0xb
 2173 0022 0B       		.uleb128 0xb
 2174 0023 3E       		.uleb128 0x3e
 2175 0024 0B       		.uleb128 0xb
 2176 0025 03       		.uleb128 0x3
 2177 0026 0E       		.uleb128 0xe
 2178 0027 00       		.byte	0
 2179 0028 00       		.byte	0
 2180 0029 04       		.uleb128 0x4
 2181 002a 16       		.uleb128 0x16
 2182 002b 00       		.byte	0
 2183 002c 03       		.uleb128 0x3
 2184 002d 0E       		.uleb128 0xe
 2185 002e 3A       		.uleb128 0x3a
 2186 002f 0B       		.uleb128 0xb
 2187 0030 3B       		.uleb128 0x3b
 2188 0031 0B       		.uleb128 0xb
 2189 0032 49       		.uleb128 0x49
 2190 0033 13       		.uleb128 0x13
 2191 0034 00       		.byte	0
 2192 0035 00       		.byte	0
 2193 0036 05       		.uleb128 0x5
 2194 0037 0F       		.uleb128 0xf
 2195 0038 00       		.byte	0
 2196 0039 0B       		.uleb128 0xb
 2197 003a 0B       		.uleb128 0xb
 2198 003b 49       		.uleb128 0x49
 2199 003c 13       		.uleb128 0x13
 2200 003d 00       		.byte	0
 2201 003e 00       		.byte	0
 2202 003f 06       		.uleb128 0x6
 2203 0040 13       		.uleb128 0x13
 2204 0041 00       		.byte	0
 2205 0042 03       		.uleb128 0x3
 2206 0043 0E       		.uleb128 0xe
 2207 0044 3C       		.uleb128 0x3c
 2208 0045 0C       		.uleb128 0xc
 2209 0046 00       		.byte	0
 2210 0047 00       		.byte	0
 2211 0048 07       		.uleb128 0x7
 2212 0049 16       		.uleb128 0x16
 2213 004a 00       		.byte	0
 2214 004b 03       		.uleb128 0x3
 2215 004c 0E       		.uleb128 0xe
ARM GAS  C:\Users\claym\AppData\Local\Temp\ccGY57bu.s 			page 42


 2216 004d 3A       		.uleb128 0x3a
 2217 004e 0B       		.uleb128 0xb
 2218 004f 3B       		.uleb128 0x3b
 2219 0050 05       		.uleb128 0x5
 2220 0051 49       		.uleb128 0x49
 2221 0052 13       		.uleb128 0x13
 2222 0053 00       		.byte	0
 2223 0054 00       		.byte	0
 2224 0055 08       		.uleb128 0x8
 2225 0056 17       		.uleb128 0x17
 2226 0057 01       		.byte	0x1
 2227 0058 0B       		.uleb128 0xb
 2228 0059 0B       		.uleb128 0xb
 2229 005a 3A       		.uleb128 0x3a
 2230 005b 0B       		.uleb128 0xb
 2231 005c 3B       		.uleb128 0x3b
 2232 005d 0B       		.uleb128 0xb
 2233 005e 01       		.uleb128 0x1
 2234 005f 13       		.uleb128 0x13
 2235 0060 00       		.byte	0
 2236 0061 00       		.byte	0
 2237 0062 09       		.uleb128 0x9
 2238 0063 0D       		.uleb128 0xd
 2239 0064 00       		.byte	0
 2240 0065 03       		.uleb128 0x3
 2241 0066 0E       		.uleb128 0xe
 2242 0067 3A       		.uleb128 0x3a
 2243 0068 0B       		.uleb128 0xb
 2244 0069 3B       		.uleb128 0x3b
 2245 006a 0B       		.uleb128 0xb
 2246 006b 49       		.uleb128 0x49
 2247 006c 13       		.uleb128 0x13
 2248 006d 00       		.byte	0
 2249 006e 00       		.byte	0
 2250 006f 0A       		.uleb128 0xa
 2251 0070 01       		.uleb128 0x1
 2252 0071 01       		.byte	0x1
 2253 0072 49       		.uleb128 0x49
 2254 0073 13       		.uleb128 0x13
 2255 0074 01       		.uleb128 0x1
 2256 0075 13       		.uleb128 0x13
 2257 0076 00       		.byte	0
 2258 0077 00       		.byte	0
 2259 0078 0B       		.uleb128 0xb
 2260 0079 21       		.uleb128 0x21
 2261 007a 00       		.byte	0
 2262 007b 49       		.uleb128 0x49
 2263 007c 13       		.uleb128 0x13
 2264 007d 2F       		.uleb128 0x2f
 2265 007e 0B       		.uleb128 0xb
 2266 007f 00       		.byte	0
 2267 0080 00       		.byte	0
 2268 0081 0C       		.uleb128 0xc
 2269 0082 13       		.uleb128 0x13
 2270 0083 01       		.byte	0x1
 2271 0084 0B       		.uleb128 0xb
 2272 0085 0B       		.uleb128 0xb
ARM GAS  C:\Users\claym\AppData\Local\Temp\ccGY57bu.s 			page 43


 2273 0086 3A       		.uleb128 0x3a
 2274 0087 0B       		.uleb128 0xb
 2275 0088 3B       		.uleb128 0x3b
 2276 0089 0B       		.uleb128 0xb
 2277 008a 01       		.uleb128 0x1
 2278 008b 13       		.uleb128 0x13
 2279 008c 00       		.byte	0
 2280 008d 00       		.byte	0
 2281 008e 0D       		.uleb128 0xd
 2282 008f 0D       		.uleb128 0xd
 2283 0090 00       		.byte	0
 2284 0091 03       		.uleb128 0x3
 2285 0092 0E       		.uleb128 0xe
 2286 0093 3A       		.uleb128 0x3a
 2287 0094 0B       		.uleb128 0xb
 2288 0095 3B       		.uleb128 0x3b
 2289 0096 0B       		.uleb128 0xb
 2290 0097 49       		.uleb128 0x49
 2291 0098 13       		.uleb128 0x13
 2292 0099 38       		.uleb128 0x38
 2293 009a 0A       		.uleb128 0xa
 2294 009b 00       		.byte	0
 2295 009c 00       		.byte	0
 2296 009d 0E       		.uleb128 0xe
 2297 009e 0F       		.uleb128 0xf
 2298 009f 00       		.byte	0
 2299 00a0 0B       		.uleb128 0xb
 2300 00a1 0B       		.uleb128 0xb
 2301 00a2 00       		.byte	0
 2302 00a3 00       		.byte	0
 2303 00a4 0F       		.uleb128 0xf
 2304 00a5 26       		.uleb128 0x26
 2305 00a6 00       		.byte	0
 2306 00a7 49       		.uleb128 0x49
 2307 00a8 13       		.uleb128 0x13
 2308 00a9 00       		.byte	0
 2309 00aa 00       		.byte	0
 2310 00ab 10       		.uleb128 0x10
 2311 00ac 13       		.uleb128 0x13
 2312 00ad 01       		.byte	0x1
 2313 00ae 03       		.uleb128 0x3
 2314 00af 0E       		.uleb128 0xe
 2315 00b0 0B       		.uleb128 0xb
 2316 00b1 0B       		.uleb128 0xb
 2317 00b2 3A       		.uleb128 0x3a
 2318 00b3 0B       		.uleb128 0xb
 2319 00b4 3B       		.uleb128 0x3b
 2320 00b5 0B       		.uleb128 0xb
 2321 00b6 01       		.uleb128 0x1
 2322 00b7 13       		.uleb128 0x13
 2323 00b8 00       		.byte	0
 2324 00b9 00       		.byte	0
 2325 00ba 11       		.uleb128 0x11
 2326 00bb 0D       		.uleb128 0xd
 2327 00bc 00       		.byte	0
 2328 00bd 03       		.uleb128 0x3
 2329 00be 08       		.uleb128 0x8
ARM GAS  C:\Users\claym\AppData\Local\Temp\ccGY57bu.s 			page 44


 2330 00bf 3A       		.uleb128 0x3a
 2331 00c0 0B       		.uleb128 0xb
 2332 00c1 3B       		.uleb128 0x3b
 2333 00c2 0B       		.uleb128 0xb
 2334 00c3 49       		.uleb128 0x49
 2335 00c4 13       		.uleb128 0x13
 2336 00c5 38       		.uleb128 0x38
 2337 00c6 0A       		.uleb128 0xa
 2338 00c7 00       		.byte	0
 2339 00c8 00       		.byte	0
 2340 00c9 12       		.uleb128 0x12
 2341 00ca 13       		.uleb128 0x13
 2342 00cb 01       		.byte	0x1
 2343 00cc 03       		.uleb128 0x3
 2344 00cd 0E       		.uleb128 0xe
 2345 00ce 0B       		.uleb128 0xb
 2346 00cf 05       		.uleb128 0x5
 2347 00d0 3A       		.uleb128 0x3a
 2348 00d1 0B       		.uleb128 0xb
 2349 00d2 3B       		.uleb128 0x3b
 2350 00d3 0B       		.uleb128 0xb
 2351 00d4 01       		.uleb128 0x1
 2352 00d5 13       		.uleb128 0x13
 2353 00d6 00       		.byte	0
 2354 00d7 00       		.byte	0
 2355 00d8 13       		.uleb128 0x13
 2356 00d9 15       		.uleb128 0x15
 2357 00da 00       		.byte	0
 2358 00db 27       		.uleb128 0x27
 2359 00dc 0C       		.uleb128 0xc
 2360 00dd 00       		.byte	0
 2361 00de 00       		.byte	0
 2362 00df 14       		.uleb128 0x14
 2363 00e0 15       		.uleb128 0x15
 2364 00e1 01       		.byte	0x1
 2365 00e2 27       		.uleb128 0x27
 2366 00e3 0C       		.uleb128 0xc
 2367 00e4 49       		.uleb128 0x49
 2368 00e5 13       		.uleb128 0x13
 2369 00e6 01       		.uleb128 0x1
 2370 00e7 13       		.uleb128 0x13
 2371 00e8 00       		.byte	0
 2372 00e9 00       		.byte	0
 2373 00ea 15       		.uleb128 0x15
 2374 00eb 05       		.uleb128 0x5
 2375 00ec 00       		.byte	0
 2376 00ed 49       		.uleb128 0x49
 2377 00ee 13       		.uleb128 0x13
 2378 00ef 00       		.byte	0
 2379 00f0 00       		.byte	0
 2380 00f1 16       		.uleb128 0x16
 2381 00f2 13       		.uleb128 0x13
 2382 00f3 01       		.byte	0x1
 2383 00f4 03       		.uleb128 0x3
 2384 00f5 0E       		.uleb128 0xe
 2385 00f6 0B       		.uleb128 0xb
 2386 00f7 05       		.uleb128 0x5
ARM GAS  C:\Users\claym\AppData\Local\Temp\ccGY57bu.s 			page 45


 2387 00f8 3A       		.uleb128 0x3a
 2388 00f9 0B       		.uleb128 0xb
 2389 00fa 3B       		.uleb128 0x3b
 2390 00fb 05       		.uleb128 0x5
 2391 00fc 01       		.uleb128 0x1
 2392 00fd 13       		.uleb128 0x13
 2393 00fe 00       		.byte	0
 2394 00ff 00       		.byte	0
 2395 0100 17       		.uleb128 0x17
 2396 0101 0D       		.uleb128 0xd
 2397 0102 00       		.byte	0
 2398 0103 03       		.uleb128 0x3
 2399 0104 0E       		.uleb128 0xe
 2400 0105 3A       		.uleb128 0x3a
 2401 0106 0B       		.uleb128 0xb
 2402 0107 3B       		.uleb128 0x3b
 2403 0108 05       		.uleb128 0x5
 2404 0109 49       		.uleb128 0x49
 2405 010a 13       		.uleb128 0x13
 2406 010b 38       		.uleb128 0x38
 2407 010c 0A       		.uleb128 0xa
 2408 010d 00       		.byte	0
 2409 010e 00       		.byte	0
 2410 010f 18       		.uleb128 0x18
 2411 0110 13       		.uleb128 0x13
 2412 0111 01       		.byte	0x1
 2413 0112 03       		.uleb128 0x3
 2414 0113 0E       		.uleb128 0xe
 2415 0114 0B       		.uleb128 0xb
 2416 0115 0B       		.uleb128 0xb
 2417 0116 3A       		.uleb128 0x3a
 2418 0117 0B       		.uleb128 0xb
 2419 0118 3B       		.uleb128 0x3b
 2420 0119 05       		.uleb128 0x5
 2421 011a 01       		.uleb128 0x1
 2422 011b 13       		.uleb128 0x13
 2423 011c 00       		.byte	0
 2424 011d 00       		.byte	0
 2425 011e 19       		.uleb128 0x19
 2426 011f 13       		.uleb128 0x13
 2427 0120 01       		.byte	0x1
 2428 0121 0B       		.uleb128 0xb
 2429 0122 0B       		.uleb128 0xb
 2430 0123 3A       		.uleb128 0x3a
 2431 0124 0B       		.uleb128 0xb
 2432 0125 3B       		.uleb128 0x3b
 2433 0126 05       		.uleb128 0x5
 2434 0127 01       		.uleb128 0x1
 2435 0128 13       		.uleb128 0x13
 2436 0129 00       		.byte	0
 2437 012a 00       		.byte	0
 2438 012b 1A       		.uleb128 0x1a
 2439 012c 17       		.uleb128 0x17
 2440 012d 01       		.byte	0x1
 2441 012e 0B       		.uleb128 0xb
 2442 012f 0B       		.uleb128 0xb
 2443 0130 3A       		.uleb128 0x3a
ARM GAS  C:\Users\claym\AppData\Local\Temp\ccGY57bu.s 			page 46


 2444 0131 0B       		.uleb128 0xb
 2445 0132 3B       		.uleb128 0x3b
 2446 0133 05       		.uleb128 0x5
 2447 0134 01       		.uleb128 0x1
 2448 0135 13       		.uleb128 0x13
 2449 0136 00       		.byte	0
 2450 0137 00       		.byte	0
 2451 0138 1B       		.uleb128 0x1b
 2452 0139 0D       		.uleb128 0xd
 2453 013a 00       		.byte	0
 2454 013b 03       		.uleb128 0x3
 2455 013c 0E       		.uleb128 0xe
 2456 013d 3A       		.uleb128 0x3a
 2457 013e 0B       		.uleb128 0xb
 2458 013f 3B       		.uleb128 0x3b
 2459 0140 05       		.uleb128 0x5
 2460 0141 49       		.uleb128 0x49
 2461 0142 13       		.uleb128 0x13
 2462 0143 00       		.byte	0
 2463 0144 00       		.byte	0
 2464 0145 1C       		.uleb128 0x1c
 2465 0146 15       		.uleb128 0x15
 2466 0147 01       		.byte	0x1
 2467 0148 27       		.uleb128 0x27
 2468 0149 0C       		.uleb128 0xc
 2469 014a 01       		.uleb128 0x1
 2470 014b 13       		.uleb128 0x13
 2471 014c 00       		.byte	0
 2472 014d 00       		.byte	0
 2473 014e 1D       		.uleb128 0x1d
 2474 014f 34       		.uleb128 0x34
 2475 0150 00       		.byte	0
 2476 0151 03       		.uleb128 0x3
 2477 0152 0E       		.uleb128 0xe
 2478 0153 3A       		.uleb128 0x3a
 2479 0154 0B       		.uleb128 0xb
 2480 0155 3B       		.uleb128 0x3b
 2481 0156 05       		.uleb128 0x5
 2482 0157 49       		.uleb128 0x49
 2483 0158 13       		.uleb128 0x13
 2484 0159 3F       		.uleb128 0x3f
 2485 015a 0C       		.uleb128 0xc
 2486 015b 3C       		.uleb128 0x3c
 2487 015c 0C       		.uleb128 0xc
 2488 015d 00       		.byte	0
 2489 015e 00       		.byte	0
 2490 015f 1E       		.uleb128 0x1e
 2491 0160 04       		.uleb128 0x4
 2492 0161 01       		.byte	0x1
 2493 0162 3E       		.uleb128 0x3e
 2494 0163 0B       		.uleb128 0xb
 2495 0164 0B       		.uleb128 0xb
 2496 0165 0B       		.uleb128 0xb
 2497 0166 49       		.uleb128 0x49
 2498 0167 13       		.uleb128 0x13
 2499 0168 3A       		.uleb128 0x3a
 2500 0169 0B       		.uleb128 0xb
ARM GAS  C:\Users\claym\AppData\Local\Temp\ccGY57bu.s 			page 47


 2501 016a 3B       		.uleb128 0x3b
 2502 016b 0B       		.uleb128 0xb
 2503 016c 01       		.uleb128 0x1
 2504 016d 13       		.uleb128 0x13
 2505 016e 00       		.byte	0
 2506 016f 00       		.byte	0
 2507 0170 1F       		.uleb128 0x1f
 2508 0171 28       		.uleb128 0x28
 2509 0172 00       		.byte	0
 2510 0173 03       		.uleb128 0x3
 2511 0174 0E       		.uleb128 0xe
 2512 0175 1C       		.uleb128 0x1c
 2513 0176 0B       		.uleb128 0xb
 2514 0177 00       		.byte	0
 2515 0178 00       		.byte	0
 2516 0179 20       		.uleb128 0x20
 2517 017a 2E       		.uleb128 0x2e
 2518 017b 01       		.byte	0x1
 2519 017c 3F       		.uleb128 0x3f
 2520 017d 0C       		.uleb128 0xc
 2521 017e 03       		.uleb128 0x3
 2522 017f 0E       		.uleb128 0xe
 2523 0180 3A       		.uleb128 0x3a
 2524 0181 0B       		.uleb128 0xb
 2525 0182 3B       		.uleb128 0x3b
 2526 0183 0B       		.uleb128 0xb
 2527 0184 27       		.uleb128 0x27
 2528 0185 0C       		.uleb128 0xc
 2529 0186 49       		.uleb128 0x49
 2530 0187 13       		.uleb128 0x13
 2531 0188 11       		.uleb128 0x11
 2532 0189 01       		.uleb128 0x1
 2533 018a 12       		.uleb128 0x12
 2534 018b 01       		.uleb128 0x1
 2535 018c 40       		.uleb128 0x40
 2536 018d 06       		.uleb128 0x6
 2537 018e 9742     		.uleb128 0x2117
 2538 0190 0C       		.uleb128 0xc
 2539 0191 01       		.uleb128 0x1
 2540 0192 13       		.uleb128 0x13
 2541 0193 00       		.byte	0
 2542 0194 00       		.byte	0
 2543 0195 21       		.uleb128 0x21
 2544 0196 05       		.uleb128 0x5
 2545 0197 00       		.byte	0
 2546 0198 03       		.uleb128 0x3
 2547 0199 0E       		.uleb128 0xe
 2548 019a 3A       		.uleb128 0x3a
 2549 019b 0B       		.uleb128 0xb
 2550 019c 3B       		.uleb128 0x3b
 2551 019d 0B       		.uleb128 0xb
 2552 019e 49       		.uleb128 0x49
 2553 019f 13       		.uleb128 0x13
 2554 01a0 02       		.uleb128 0x2
 2555 01a1 06       		.uleb128 0x6
 2556 01a2 00       		.byte	0
 2557 01a3 00       		.byte	0
ARM GAS  C:\Users\claym\AppData\Local\Temp\ccGY57bu.s 			page 48


 2558 01a4 22       		.uleb128 0x22
 2559 01a5 0B       		.uleb128 0xb
 2560 01a6 01       		.byte	0x1
 2561 01a7 55       		.uleb128 0x55
 2562 01a8 06       		.uleb128 0x6
 2563 01a9 01       		.uleb128 0x1
 2564 01aa 13       		.uleb128 0x13
 2565 01ab 00       		.byte	0
 2566 01ac 00       		.byte	0
 2567 01ad 23       		.uleb128 0x23
 2568 01ae 34       		.uleb128 0x34
 2569 01af 00       		.byte	0
 2570 01b0 03       		.uleb128 0x3
 2571 01b1 0E       		.uleb128 0xe
 2572 01b2 3A       		.uleb128 0x3a
 2573 01b3 0B       		.uleb128 0xb
 2574 01b4 3B       		.uleb128 0x3b
 2575 01b5 0B       		.uleb128 0xb
 2576 01b6 49       		.uleb128 0x49
 2577 01b7 13       		.uleb128 0x13
 2578 01b8 02       		.uleb128 0x2
 2579 01b9 06       		.uleb128 0x6
 2580 01ba 00       		.byte	0
 2581 01bb 00       		.byte	0
 2582 01bc 24       		.uleb128 0x24
 2583 01bd 898201   		.uleb128 0x4109
 2584 01c0 01       		.byte	0x1
 2585 01c1 11       		.uleb128 0x11
 2586 01c2 01       		.uleb128 0x1
 2587 01c3 31       		.uleb128 0x31
 2588 01c4 13       		.uleb128 0x13
 2589 01c5 00       		.byte	0
 2590 01c6 00       		.byte	0
 2591 01c7 25       		.uleb128 0x25
 2592 01c8 8A8201   		.uleb128 0x410a
 2593 01cb 00       		.byte	0
 2594 01cc 02       		.uleb128 0x2
 2595 01cd 0A       		.uleb128 0xa
 2596 01ce 9142     		.uleb128 0x2111
 2597 01d0 0A       		.uleb128 0xa
 2598 01d1 00       		.byte	0
 2599 01d2 00       		.byte	0
 2600 01d3 26       		.uleb128 0x26
 2601 01d4 898201   		.uleb128 0x4109
 2602 01d7 01       		.byte	0x1
 2603 01d8 11       		.uleb128 0x11
 2604 01d9 01       		.uleb128 0x1
 2605 01da 31       		.uleb128 0x31
 2606 01db 13       		.uleb128 0x13
 2607 01dc 01       		.uleb128 0x1
 2608 01dd 13       		.uleb128 0x13
 2609 01de 00       		.byte	0
 2610 01df 00       		.byte	0
 2611 01e0 27       		.uleb128 0x27
 2612 01e1 26       		.uleb128 0x26
 2613 01e2 00       		.byte	0
 2614 01e3 00       		.byte	0
ARM GAS  C:\Users\claym\AppData\Local\Temp\ccGY57bu.s 			page 49


 2615 01e4 00       		.byte	0
 2616 01e5 28       		.uleb128 0x28
 2617 01e6 2E       		.uleb128 0x2e
 2618 01e7 01       		.byte	0x1
 2619 01e8 3F       		.uleb128 0x3f
 2620 01e9 0C       		.uleb128 0xc
 2621 01ea 03       		.uleb128 0x3
 2622 01eb 0E       		.uleb128 0xe
 2623 01ec 3A       		.uleb128 0x3a
 2624 01ed 0B       		.uleb128 0xb
 2625 01ee 3B       		.uleb128 0x3b
 2626 01ef 0B       		.uleb128 0xb
 2627 01f0 27       		.uleb128 0x27
 2628 01f1 0C       		.uleb128 0xc
 2629 01f2 49       		.uleb128 0x49
 2630 01f3 13       		.uleb128 0x13
 2631 01f4 20       		.uleb128 0x20
 2632 01f5 0B       		.uleb128 0xb
 2633 01f6 01       		.uleb128 0x1
 2634 01f7 13       		.uleb128 0x13
 2635 01f8 00       		.byte	0
 2636 01f9 00       		.byte	0
 2637 01fa 29       		.uleb128 0x29
 2638 01fb 05       		.uleb128 0x5
 2639 01fc 00       		.byte	0
 2640 01fd 03       		.uleb128 0x3
 2641 01fe 0E       		.uleb128 0xe
 2642 01ff 3A       		.uleb128 0x3a
 2643 0200 0B       		.uleb128 0xb
 2644 0201 3B       		.uleb128 0x3b
 2645 0202 0B       		.uleb128 0xb
 2646 0203 49       		.uleb128 0x49
 2647 0204 13       		.uleb128 0x13
 2648 0205 00       		.byte	0
 2649 0206 00       		.byte	0
 2650 0207 2A       		.uleb128 0x2a
 2651 0208 2E       		.uleb128 0x2e
 2652 0209 01       		.byte	0x1
 2653 020a 3F       		.uleb128 0x3f
 2654 020b 0C       		.uleb128 0xc
 2655 020c 03       		.uleb128 0x3
 2656 020d 0E       		.uleb128 0xe
 2657 020e 3A       		.uleb128 0x3a
 2658 020f 0B       		.uleb128 0xb
 2659 0210 3B       		.uleb128 0x3b
 2660 0211 0B       		.uleb128 0xb
 2661 0212 27       		.uleb128 0x27
 2662 0213 0C       		.uleb128 0xc
 2663 0214 11       		.uleb128 0x11
 2664 0215 01       		.uleb128 0x1
 2665 0216 12       		.uleb128 0x12
 2666 0217 01       		.uleb128 0x1
 2667 0218 40       		.uleb128 0x40
 2668 0219 0A       		.uleb128 0xa
 2669 021a 9742     		.uleb128 0x2117
 2670 021c 0C       		.uleb128 0xc
 2671 021d 01       		.uleb128 0x1
ARM GAS  C:\Users\claym\AppData\Local\Temp\ccGY57bu.s 			page 50


 2672 021e 13       		.uleb128 0x13
 2673 021f 00       		.byte	0
 2674 0220 00       		.byte	0
 2675 0221 2B       		.uleb128 0x2b
 2676 0222 05       		.uleb128 0x5
 2677 0223 00       		.byte	0
 2678 0224 03       		.uleb128 0x3
 2679 0225 0E       		.uleb128 0xe
 2680 0226 3A       		.uleb128 0x3a
 2681 0227 0B       		.uleb128 0xb
 2682 0228 3B       		.uleb128 0x3b
 2683 0229 0B       		.uleb128 0xb
 2684 022a 49       		.uleb128 0x49
 2685 022b 13       		.uleb128 0x13
 2686 022c 02       		.uleb128 0x2
 2687 022d 0A       		.uleb128 0xa
 2688 022e 00       		.byte	0
 2689 022f 00       		.byte	0
 2690 0230 2C       		.uleb128 0x2c
 2691 0231 2E       		.uleb128 0x2e
 2692 0232 01       		.byte	0x1
 2693 0233 31       		.uleb128 0x31
 2694 0234 13       		.uleb128 0x13
 2695 0235 11       		.uleb128 0x11
 2696 0236 01       		.uleb128 0x1
 2697 0237 12       		.uleb128 0x12
 2698 0238 01       		.uleb128 0x1
 2699 0239 40       		.uleb128 0x40
 2700 023a 06       		.uleb128 0x6
 2701 023b 9742     		.uleb128 0x2117
 2702 023d 0C       		.uleb128 0xc
 2703 023e 01       		.uleb128 0x1
 2704 023f 13       		.uleb128 0x13
 2705 0240 00       		.byte	0
 2706 0241 00       		.byte	0
 2707 0242 2D       		.uleb128 0x2d
 2708 0243 05       		.uleb128 0x5
 2709 0244 00       		.byte	0
 2710 0245 31       		.uleb128 0x31
 2711 0246 13       		.uleb128 0x13
 2712 0247 02       		.uleb128 0x2
 2713 0248 06       		.uleb128 0x6
 2714 0249 00       		.byte	0
 2715 024a 00       		.byte	0
 2716 024b 2E       		.uleb128 0x2e
 2717 024c 0B       		.uleb128 0xb
 2718 024d 01       		.byte	0x1
 2719 024e 31       		.uleb128 0x31
 2720 024f 13       		.uleb128 0x13
 2721 0250 11       		.uleb128 0x11
 2722 0251 01       		.uleb128 0x1
 2723 0252 12       		.uleb128 0x12
 2724 0253 01       		.uleb128 0x1
 2725 0254 00       		.byte	0
 2726 0255 00       		.byte	0
 2727 0256 2F       		.uleb128 0x2f
 2728 0257 2E       		.uleb128 0x2e
ARM GAS  C:\Users\claym\AppData\Local\Temp\ccGY57bu.s 			page 51


 2729 0258 00       		.byte	0
 2730 0259 3F       		.uleb128 0x3f
 2731 025a 0C       		.uleb128 0xc
 2732 025b 3C       		.uleb128 0x3c
 2733 025c 0C       		.uleb128 0xc
 2734 025d 8740     		.uleb128 0x2007
 2735 025f 0E       		.uleb128 0xe
 2736 0260 03       		.uleb128 0x3
 2737 0261 0E       		.uleb128 0xe
 2738 0262 3A       		.uleb128 0x3a
 2739 0263 0B       		.uleb128 0xb
 2740 0264 3B       		.uleb128 0x3b
 2741 0265 0B       		.uleb128 0xb
 2742 0266 8740     		.uleb128 0x2007
 2743 0268 0E       		.uleb128 0xe
 2744 0269 00       		.byte	0
 2745 026a 00       		.byte	0
 2746 026b 30       		.uleb128 0x30
 2747 026c 2E       		.uleb128 0x2e
 2748 026d 00       		.byte	0
 2749 026e 3F       		.uleb128 0x3f
 2750 026f 0C       		.uleb128 0xc
 2751 0270 3C       		.uleb128 0x3c
 2752 0271 0C       		.uleb128 0xc
 2753 0272 8740     		.uleb128 0x2007
 2754 0274 0E       		.uleb128 0xe
 2755 0275 03       		.uleb128 0x3
 2756 0276 0E       		.uleb128 0xe
 2757 0277 3A       		.uleb128 0x3a
 2758 0278 0B       		.uleb128 0xb
 2759 0279 3B       		.uleb128 0x3b
 2760 027a 0B       		.uleb128 0xb
 2761 027b 00       		.byte	0
 2762 027c 00       		.byte	0
 2763 027d 00       		.byte	0
 2764              		.section	.debug_loc,"",%progbits
 2765              	.Ldebug_loc0:
 2766              	.LLST11:
 2767 0000 8C000000 		.4byte	.LFB4-.Ltext0
 2768 0004 8E000000 		.4byte	.LCFI3-.Ltext0
 2769 0008 0200     		.2byte	0x2
 2770 000a 7D       		.byte	0x7d
 2771 000b 00       		.sleb128 0
 2772 000c 8E000000 		.4byte	.LCFI3-.Ltext0
 2773 0010 D4000000 		.4byte	.LFE4-.Ltext0
 2774 0014 0200     		.2byte	0x2
 2775 0016 7D       		.byte	0x7d
 2776 0017 10       		.sleb128 16
 2777 0018 00000000 		.4byte	0
 2778 001c 00000000 		.4byte	0
 2779              	.LLST12:
 2780 0020 8C000000 		.4byte	.LVL19-.Ltext0
 2781 0024 95000000 		.4byte	.LVL20-1-.Ltext0
 2782 0028 0100     		.2byte	0x1
 2783 002a 50       		.byte	0x50
 2784 002b 95000000 		.4byte	.LVL20-1-.Ltext0
 2785 002f A6000000 		.4byte	.LVL22-.Ltext0
ARM GAS  C:\Users\claym\AppData\Local\Temp\ccGY57bu.s 			page 52


 2786 0033 0100     		.2byte	0x1
 2787 0035 54       		.byte	0x54
 2788 0036 A6000000 		.4byte	.LVL22-.Ltext0
 2789 003a A8000000 		.4byte	.LVL24-.Ltext0
 2790 003e 0400     		.2byte	0x4
 2791 0040 F3       		.byte	0xf3
 2792 0041 01       		.uleb128 0x1
 2793 0042 50       		.byte	0x50
 2794 0043 9F       		.byte	0x9f
 2795 0044 A8000000 		.4byte	.LVL24-.Ltext0
 2796 0048 D4000000 		.4byte	.LFE4-.Ltext0
 2797 004c 0100     		.2byte	0x1
 2798 004e 54       		.byte	0x54
 2799 004f 00000000 		.4byte	0
 2800 0053 00000000 		.4byte	0
 2801              	.LLST13:
 2802 0057 8C000000 		.4byte	.LVL19-.Ltext0
 2803 005b 95000000 		.4byte	.LVL20-1-.Ltext0
 2804 005f 0100     		.2byte	0x1
 2805 0061 51       		.byte	0x51
 2806 0062 95000000 		.4byte	.LVL20-1-.Ltext0
 2807 0066 A6000000 		.4byte	.LVL23-.Ltext0
 2808 006a 0100     		.2byte	0x1
 2809 006c 56       		.byte	0x56
 2810 006d A6000000 		.4byte	.LVL23-.Ltext0
 2811 0071 A8000000 		.4byte	.LVL24-.Ltext0
 2812 0075 0400     		.2byte	0x4
 2813 0077 F3       		.byte	0xf3
 2814 0078 01       		.uleb128 0x1
 2815 0079 51       		.byte	0x51
 2816 007a 9F       		.byte	0x9f
 2817 007b A8000000 		.4byte	.LVL24-.Ltext0
 2818 007f D4000000 		.4byte	.LFE4-.Ltext0
 2819 0083 0100     		.2byte	0x1
 2820 0085 56       		.byte	0x56
 2821 0086 00000000 		.4byte	0
 2822 008a 00000000 		.4byte	0
 2823              	.LLST14:
 2824 008e B0000000 		.4byte	.LVL25-.Ltext0
 2825 0092 B4000000 		.4byte	.LVL26-.Ltext0
 2826 0096 0D00     		.2byte	0xd
 2827 0098 71       		.byte	0x71
 2828 0099 00       		.sleb128 0
 2829 009a 0A       		.byte	0xa
 2830 009b FFFF     		.2byte	0xffff
 2831 009d 1A       		.byte	0x1a
 2832 009e 31       		.byte	0x31
 2833 009f 24       		.byte	0x24
 2834 00a0 74       		.byte	0x74
 2835 00a1 08       		.sleb128 8
 2836 00a2 06       		.byte	0x6
 2837 00a3 22       		.byte	0x22
 2838 00a4 9F       		.byte	0x9f
 2839 00a5 00000000 		.4byte	0
 2840 00a9 00000000 		.4byte	0
 2841              	.LLST7:
 2842 00ad 44000000 		.4byte	.LFB3-.Ltext0
ARM GAS  C:\Users\claym\AppData\Local\Temp\ccGY57bu.s 			page 53


 2843 00b1 46000000 		.4byte	.LCFI2-.Ltext0
 2844 00b5 0200     		.2byte	0x2
 2845 00b7 7D       		.byte	0x7d
 2846 00b8 00       		.sleb128 0
 2847 00b9 46000000 		.4byte	.LCFI2-.Ltext0
 2848 00bd 8C000000 		.4byte	.LFE3-.Ltext0
 2849 00c1 0200     		.2byte	0x2
 2850 00c3 7D       		.byte	0x7d
 2851 00c4 10       		.sleb128 16
 2852 00c5 00000000 		.4byte	0
 2853 00c9 00000000 		.4byte	0
 2854              	.LLST8:
 2855 00cd 44000000 		.4byte	.LVL10-.Ltext0
 2856 00d1 4D000000 		.4byte	.LVL11-1-.Ltext0
 2857 00d5 0100     		.2byte	0x1
 2858 00d7 50       		.byte	0x50
 2859 00d8 4D000000 		.4byte	.LVL11-1-.Ltext0
 2860 00dc 5E000000 		.4byte	.LVL13-.Ltext0
 2861 00e0 0100     		.2byte	0x1
 2862 00e2 54       		.byte	0x54
 2863 00e3 5E000000 		.4byte	.LVL13-.Ltext0
 2864 00e7 60000000 		.4byte	.LVL15-.Ltext0
 2865 00eb 0400     		.2byte	0x4
 2866 00ed F3       		.byte	0xf3
 2867 00ee 01       		.uleb128 0x1
 2868 00ef 50       		.byte	0x50
 2869 00f0 9F       		.byte	0x9f
 2870 00f1 60000000 		.4byte	.LVL15-.Ltext0
 2871 00f5 8C000000 		.4byte	.LFE3-.Ltext0
 2872 00f9 0100     		.2byte	0x1
 2873 00fb 54       		.byte	0x54
 2874 00fc 00000000 		.4byte	0
 2875 0100 00000000 		.4byte	0
 2876              	.LLST9:
 2877 0104 44000000 		.4byte	.LVL10-.Ltext0
 2878 0108 4D000000 		.4byte	.LVL11-1-.Ltext0
 2879 010c 0100     		.2byte	0x1
 2880 010e 51       		.byte	0x51
 2881 010f 4D000000 		.4byte	.LVL11-1-.Ltext0
 2882 0113 5E000000 		.4byte	.LVL14-.Ltext0
 2883 0117 0100     		.2byte	0x1
 2884 0119 56       		.byte	0x56
 2885 011a 5E000000 		.4byte	.LVL14-.Ltext0
 2886 011e 60000000 		.4byte	.LVL15-.Ltext0
 2887 0122 0400     		.2byte	0x4
 2888 0124 F3       		.byte	0xf3
 2889 0125 01       		.uleb128 0x1
 2890 0126 51       		.byte	0x51
 2891 0127 9F       		.byte	0x9f
 2892 0128 60000000 		.4byte	.LVL15-.Ltext0
 2893 012c 8C000000 		.4byte	.LFE3-.Ltext0
 2894 0130 0100     		.2byte	0x1
 2895 0132 56       		.byte	0x56
 2896 0133 00000000 		.4byte	0
 2897 0137 00000000 		.4byte	0
 2898              	.LLST10:
 2899 013b 68000000 		.4byte	.LVL16-.Ltext0
ARM GAS  C:\Users\claym\AppData\Local\Temp\ccGY57bu.s 			page 54


 2900 013f 6C000000 		.4byte	.LVL17-.Ltext0
 2901 0143 0D00     		.2byte	0xd
 2902 0145 70       		.byte	0x70
 2903 0146 00       		.sleb128 0
 2904 0147 0A       		.byte	0xa
 2905 0148 FFFF     		.2byte	0xffff
 2906 014a 1A       		.byte	0x1a
 2907 014b 31       		.byte	0x31
 2908 014c 24       		.byte	0x24
 2909 014d 74       		.byte	0x74
 2910 014e 08       		.sleb128 8
 2911 014f 06       		.byte	0x6
 2912 0150 22       		.byte	0x22
 2913 0151 9F       		.byte	0x9f
 2914 0152 00000000 		.4byte	0
 2915 0156 00000000 		.4byte	0
 2916              	.LLST0:
 2917 015a 00000000 		.4byte	.LVL0-.Ltext0
 2918 015e 04000000 		.4byte	.LVL1-.Ltext0
 2919 0162 0100     		.2byte	0x1
 2920 0164 53       		.byte	0x53
 2921 0165 04000000 		.4byte	.LVL1-.Ltext0
 2922 0169 0E000000 		.4byte	.LFE0-.Ltext0
 2923 016d 0200     		.2byte	0x2
 2924 016f 70       		.byte	0x70
 2925 0170 0C       		.sleb128 12
 2926 0171 00000000 		.4byte	0
 2927 0175 00000000 		.4byte	0
 2928              	.LLST1:
 2929 0179 0E000000 		.4byte	.LFB1-.Ltext0
 2930 017d 10000000 		.4byte	.LCFI0-.Ltext0
 2931 0181 0200     		.2byte	0x2
 2932 0183 7D       		.byte	0x7d
 2933 0184 00       		.sleb128 0
 2934 0185 10000000 		.4byte	.LCFI0-.Ltext0
 2935 0189 28000000 		.4byte	.LFE1-.Ltext0
 2936 018d 0200     		.2byte	0x2
 2937 018f 7D       		.byte	0x7d
 2938 0190 08       		.sleb128 8
 2939 0191 00000000 		.4byte	0
 2940 0195 00000000 		.4byte	0
 2941              	.LLST2:
 2942 0199 0E000000 		.4byte	.LVL2-.Ltext0
 2943 019d 14000000 		.4byte	.LVL3-.Ltext0
 2944 01a1 0100     		.2byte	0x1
 2945 01a3 50       		.byte	0x50
 2946 01a4 14000000 		.4byte	.LVL3-.Ltext0
 2947 01a8 28000000 		.4byte	.LFE1-.Ltext0
 2948 01ac 0400     		.2byte	0x4
 2949 01ae F3       		.byte	0xf3
 2950 01af 01       		.uleb128 0x1
 2951 01b0 50       		.byte	0x50
 2952 01b1 9F       		.byte	0x9f
 2953 01b2 00000000 		.4byte	0
 2954 01b6 00000000 		.4byte	0
 2955              	.LLST3:
 2956 01ba 18000000 		.4byte	.LVL4-.Ltext0
ARM GAS  C:\Users\claym\AppData\Local\Temp\ccGY57bu.s 			page 55


 2957 01be 20000000 		.4byte	.LVL5-.Ltext0
 2958 01c2 0400     		.2byte	0x4
 2959 01c4 F3       		.byte	0xf3
 2960 01c5 01       		.uleb128 0x1
 2961 01c6 50       		.byte	0x50
 2962 01c7 9F       		.byte	0x9f
 2963 01c8 00000000 		.4byte	0
 2964 01cc 00000000 		.4byte	0
 2965              	.LLST4:
 2966 01d0 28000000 		.4byte	.LFB2-.Ltext0
 2967 01d4 2A000000 		.4byte	.LCFI1-.Ltext0
 2968 01d8 0200     		.2byte	0x2
 2969 01da 7D       		.byte	0x7d
 2970 01db 00       		.sleb128 0
 2971 01dc 2A000000 		.4byte	.LCFI1-.Ltext0
 2972 01e0 44000000 		.4byte	.LFE2-.Ltext0
 2973 01e4 0200     		.2byte	0x2
 2974 01e6 7D       		.byte	0x7d
 2975 01e7 08       		.sleb128 8
 2976 01e8 00000000 		.4byte	0
 2977 01ec 00000000 		.4byte	0
 2978              	.LLST5:
 2979 01f0 28000000 		.4byte	.LVL6-.Ltext0
 2980 01f4 30000000 		.4byte	.LVL7-.Ltext0
 2981 01f8 0100     		.2byte	0x1
 2982 01fa 50       		.byte	0x50
 2983 01fb 30000000 		.4byte	.LVL7-.Ltext0
 2984 01ff 44000000 		.4byte	.LFE2-.Ltext0
 2985 0203 0400     		.2byte	0x4
 2986 0205 F3       		.byte	0xf3
 2987 0206 01       		.uleb128 0x1
 2988 0207 50       		.byte	0x50
 2989 0208 9F       		.byte	0x9f
 2990 0209 00000000 		.4byte	0
 2991 020d 00000000 		.4byte	0
 2992              	.LLST6:
 2993 0211 34000000 		.4byte	.LVL8-.Ltext0
 2994 0215 3C000000 		.4byte	.LVL9-.Ltext0
 2995 0219 0400     		.2byte	0x4
 2996 021b F3       		.byte	0xf3
 2997 021c 01       		.uleb128 0x1
 2998 021d 50       		.byte	0x50
 2999 021e 9F       		.byte	0x9f
 3000 021f 00000000 		.4byte	0
 3001 0223 00000000 		.4byte	0
 3002              		.section	.debug_aranges,"",%progbits
 3003 0000 1C000000 		.4byte	0x1c
 3004 0004 0200     		.2byte	0x2
 3005 0006 00000000 		.4byte	.Ldebug_info0
 3006 000a 04       		.byte	0x4
 3007 000b 00       		.byte	0
 3008 000c 0000     		.2byte	0
 3009 000e 0000     		.2byte	0
 3010 0010 00000000 		.4byte	.Ltext0
 3011 0014 D4000000 		.4byte	.Letext0-.Ltext0
 3012 0018 00000000 		.4byte	0
 3013 001c 00000000 		.4byte	0
ARM GAS  C:\Users\claym\AppData\Local\Temp\ccGY57bu.s 			page 56


 3014              		.section	.debug_ranges,"",%progbits
 3015              	.Ldebug_ranges0:
 3016 0000 60000000 		.4byte	.LBB10-.Ltext0
 3017 0004 7E000000 		.4byte	.LBE10-.Ltext0
 3018 0008 80000000 		.4byte	.LBB11-.Ltext0
 3019 000c 8C000000 		.4byte	.LBE11-.Ltext0
 3020 0010 00000000 		.4byte	0
 3021 0014 00000000 		.4byte	0
 3022 0018 A8000000 		.4byte	.LBB12-.Ltext0
 3023 001c C6000000 		.4byte	.LBE12-.Ltext0
 3024 0020 C8000000 		.4byte	.LBB13-.Ltext0
 3025 0024 D4000000 		.4byte	.LBE13-.Ltext0
 3026 0028 00000000 		.4byte	0
 3027 002c 00000000 		.4byte	0
 3028              		.section	.debug_line,"",%progbits
 3029              	.Ldebug_line0:
 3030 0000 3A020000 		.section	.debug_str,"MS",%progbits,1
 3030      0200E201 
 3030      00000201 
 3030      FB0E0D00 
 3030      01010101 
 3031              	.LASF41:
 3032 0000 5F64736F 		.ascii	"_dso_handle\000"
 3032      5F68616E 
 3032      646C6500 
 3033              	.LASF137:
 3034 000c 4C4F475F 		.ascii	"LOG_DBG\000"
 3034      44424700 
 3035              	.LASF49:
 3036 0014 5F73697A 		.ascii	"_size\000"
 3036      6500
 3037              	.LASF93:
 3038 001a 5F72616E 		.ascii	"_rand48\000"
 3038      64343800 
 3039              	.LASF73:
 3040 0022 5F656D65 		.ascii	"_emergency\000"
 3040      7267656E 
 3040      637900
 3041              	.LASF63:
 3042 002d 5F646174 		.ascii	"_data\000"
 3042      6100
 3043              	.LASF146:
 3044 0033 564F525F 		.ascii	"VOR_CircularBuffer_IsFull\000"
 3044      43697263 
 3044      756C6172 
 3044      42756666 
 3044      65725F49 
 3045              	.LASF113:
 3046 004d 5F776372 		.ascii	"_wcrtomb_state\000"
 3046      746F6D62 
 3046      5F737461 
 3046      746500
 3047              	.LASF114:
 3048 005c 5F776373 		.ascii	"_wcsrtombs_state\000"
 3048      72746F6D 
 3048      62735F73 
 3048      74617465 
ARM GAS  C:\Users\claym\AppData\Local\Temp\ccGY57bu.s 			page 57


 3048      00
 3049              	.LASF11:
 3050 006d 6C6F6E67 		.ascii	"long long unsigned int\000"
 3050      206C6F6E 
 3050      6720756E 
 3050      7369676E 
 3050      65642069 
 3051              	.LASF53:
 3052 0084 5F6C6266 		.ascii	"_lbfsize\000"
 3052      73697A65 
 3052      00
 3053              	.LASF120:
 3054 008d 5F5F6C6F 		.ascii	"__locale_t\000"
 3054      63616C65 
 3054      5F7400
 3055              	.LASF125:
 3056 0098 5F564F52 		.ascii	"_VOR_CIRCULAR_BUFFER\000"
 3056      5F434952 
 3056      43554C41 
 3056      525F4255 
 3056      46464552 
 3057              	.LASF134:
 3058 00ad 4C4F475F 		.ascii	"LOG_ERROR\000"
 3058      4552524F 
 3058      5200
 3059              	.LASF111:
 3060 00b7 5F6D6272 		.ascii	"_mbrtowc_state\000"
 3060      746F7763 
 3060      5F737461 
 3060      746500
 3061              	.LASF151:
 3062 00c6 433A5C44 		.ascii	"C:\\Development\\New_Mar8\\Workspace-Vorago - REB1\\"
 3062      6576656C 
 3062      6F706D65 
 3062      6E745C4E 
 3062      65775F4D 
 3063 00f6 766F7261 		.ascii	"vorago_try311\000"
 3063      676F5F74 
 3063      72793331 
 3063      3100
 3064              	.LASF30:
 3065 0104 5F5F746D 		.ascii	"__tm_sec\000"
 3065      5F736563 
 3065      00
 3066              	.LASF1:
 3067 010d 6C6F6E67 		.ascii	"long long int\000"
 3067      206C6F6E 
 3067      6720696E 
 3067      7400
 3068              	.LASF3:
 3069 011b 7369676E 		.ascii	"signed char\000"
 3069      65642063 
 3069      68617200 
 3070              	.LASF59:
 3071 0127 5F756275 		.ascii	"_ubuf\000"
 3071      6600
 3072              	.LASF149:
ARM GAS  C:\Users\claym\AppData\Local\Temp\ccGY57bu.s 			page 58


 3073 012d 474E5520 		.ascii	"GNU C11 7.2.1 20170904 (release) [ARM/embedded-7-br"
 3073      43313120 
 3073      372E322E 
 3073      31203230 
 3073      31373039 
 3074 0160 616E6368 		.ascii	"anch revision 255204] -mcpu=cortex-m0 -mthumb -gdwa"
 3074      20726576 
 3074      6973696F 
 3074      6E203235 
 3074      35323034 
 3075 0193 72662D32 		.ascii	"rf-2 -Os -fomit-frame-pointer\000"
 3075      202D4F73 
 3075      202D666F 
 3075      6D69742D 
 3075      6672616D 
 3076              	.LASF48:
 3077 01b1 5F626173 		.ascii	"_base\000"
 3077      6500
 3078              	.LASF32:
 3079 01b7 5F5F746D 		.ascii	"__tm_hour\000"
 3079      5F686F75 
 3079      7200
 3080              	.LASF88:
 3081 01c1 5F5F7366 		.ascii	"__sf\000"
 3081      00
 3082              	.LASF39:
 3083 01c6 5F6F6E5F 		.ascii	"_on_exit_args\000"
 3083      65786974 
 3083      5F617267 
 3083      7300
 3084              	.LASF142:
 3085 01d4 564F525F 		.ascii	"VOR_CircularBuffer_Write\000"
 3085      43697263 
 3085      756C6172 
 3085      42756666 
 3085      65725F57 
 3086              	.LASF54:
 3087 01ed 5F636F6F 		.ascii	"_cookie\000"
 3087      6B696500 
 3088              	.LASF87:
 3089 01f5 5F5F7367 		.ascii	"__sglue\000"
 3089      6C756500 
 3090              	.LASF9:
 3091 01fd 6C6F6E67 		.ascii	"long int\000"
 3091      20696E74 
 3091      00
 3092              	.LASF51:
 3093 0206 5F666C61 		.ascii	"_flags\000"
 3093      677300
 3094              	.LASF43:
 3095 020d 5F69735F 		.ascii	"_is_cxa\000"
 3095      63786100 
 3096              	.LASF69:
 3097 0215 5F737464 		.ascii	"_stdin\000"
 3097      696E00
 3098              	.LASF61:
 3099 021c 5F626C6B 		.ascii	"_blksize\000"
ARM GAS  C:\Users\claym\AppData\Local\Temp\ccGY57bu.s 			page 59


 3099      73697A65 
 3099      00
 3100              	.LASF133:
 3101 0225 4C4F475F 		.ascii	"LOG_DISABLE\000"
 3101      44495341 
 3101      424C4500 
 3102              	.LASF123:
 3103 0231 75696E74 		.ascii	"uint16_t\000"
 3103      31365F74 
 3103      00
 3104              	.LASF144:
 3105 023a 77507472 		.ascii	"wPtr\000"
 3105      00
 3106              	.LASF83:
 3107 023f 5F637674 		.ascii	"_cvtbuf\000"
 3107      62756600 
 3108              	.LASF62:
 3109 0247 5F6F6666 		.ascii	"_offset\000"
 3109      73657400 
 3110              	.LASF143:
 3111 024f 72507472 		.ascii	"rPtr\000"
 3111      00
 3112              	.LASF112:
 3113 0254 5F6D6273 		.ascii	"_mbsrtowcs_state\000"
 3113      72746F77 
 3113      63735F73 
 3113      74617465 
 3113      00
 3114              	.LASF110:
 3115 0265 5F6D6272 		.ascii	"_mbrlen_state\000"
 3115      6C656E5F 
 3115      73746174 
 3115      6500
 3116              	.LASF40:
 3117 0273 5F666E61 		.ascii	"_fnargs\000"
 3117      72677300 
 3118              	.LASF46:
 3119 027b 5F666E73 		.ascii	"_fns\000"
 3119      00
 3120              	.LASF26:
 3121 0280 5F736967 		.ascii	"_sign\000"
 3121      6E00
 3122              	.LASF21:
 3123 0286 5F666C6F 		.ascii	"_flock_t\000"
 3123      636B5F74 
 3123      00
 3124              	.LASF71:
 3125 028f 5F737464 		.ascii	"_stderr\000"
 3125      65727200 
 3126              	.LASF28:
 3127 0297 5F426967 		.ascii	"_Bigint\000"
 3127      696E7400 
 3128              	.LASF101:
 3129 029f 5F67616D 		.ascii	"_gamma_signgam\000"
 3129      6D615F73 
 3129      69676E67 
 3129      616D00
ARM GAS  C:\Users\claym\AppData\Local\Temp\ccGY57bu.s 			page 60


 3130              	.LASF55:
 3131 02ae 5F726561 		.ascii	"_read\000"
 3131      6400
 3132              	.LASF79:
 3133 02b4 5F726573 		.ascii	"_result_k\000"
 3133      756C745F 
 3133      6B00
 3134              	.LASF29:
 3135 02be 5F5F746D 		.ascii	"__tm\000"
 3135      00
 3136              	.LASF0:
 3137 02c3 756E7369 		.ascii	"unsigned int\000"
 3137      676E6564 
 3137      20696E74 
 3137      00
 3138              	.LASF17:
 3139 02d0 5F5F7763 		.ascii	"__wchb\000"
 3139      686200
 3140              	.LASF70:
 3141 02d7 5F737464 		.ascii	"_stdout\000"
 3141      6F757400 
 3142              	.LASF82:
 3143 02df 5F637674 		.ascii	"_cvtlen\000"
 3143      6C656E00 
 3144              	.LASF10:
 3145 02e7 6C6F6E67 		.ascii	"long unsigned int\000"
 3145      20756E73 
 3145      69676E65 
 3145      6420696E 
 3145      7400
 3146              	.LASF52:
 3147 02f9 5F66696C 		.ascii	"_file\000"
 3147      6500
 3148              	.LASF139:
 3149 02ff 70427566 		.ascii	"pBuffer\000"
 3149      66657200 
 3150              	.LASF45:
 3151 0307 5F696E64 		.ascii	"_ind\000"
 3151      00
 3152              	.LASF91:
 3153 030c 5F6E696F 		.ascii	"_niobs\000"
 3153      627300
 3154              	.LASF129:
 3155 0313 64617461 		.ascii	"data\000"
 3155      00
 3156              	.LASF6:
 3157 0318 73686F72 		.ascii	"short unsigned int\000"
 3157      7420756E 
 3157      7369676E 
 3157      65642069 
 3157      6E7400
 3158              	.LASF85:
 3159 032b 5F617465 		.ascii	"_atexit0\000"
 3159      78697430 
 3159      00
 3160              	.LASF108:
 3161 0334 5F736967 		.ascii	"_signal_buf\000"
ARM GAS  C:\Users\claym\AppData\Local\Temp\ccGY57bu.s 			page 61


 3161      6E616C5F 
 3161      62756600 
 3162              	.LASF99:
 3163 0340 5F617363 		.ascii	"_asctime_buf\000"
 3163      74696D65 
 3163      5F627566 
 3163      00
 3164              	.LASF78:
 3165 034d 5F726573 		.ascii	"_result\000"
 3165      756C7400 
 3166              	.LASF16:
 3167 0355 5F5F7763 		.ascii	"__wch\000"
 3167      6800
 3168              	.LASF153:
 3169 035b 6D656D63 		.ascii	"memcpy\000"
 3169      707900
 3170              	.LASF12:
 3171 0362 5F4C4F43 		.ascii	"_LOCK_T\000"
 3171      4B5F5400 
 3172              	.LASF131:
 3173 036a 6974656D 		.ascii	"item_size\000"
 3173      5F73697A 
 3173      6500
 3174              	.LASF15:
 3175 0374 77696E74 		.ascii	"wint_t\000"
 3175      5F7400
 3176              	.LASF154:
 3177 037b 5F5F6275 		.ascii	"__builtin_memcpy\000"
 3177      696C7469 
 3177      6E5F6D65 
 3177      6D637079 
 3177      00
 3178              	.LASF64:
 3179 038c 5F6C6F63 		.ascii	"_lock\000"
 3179      6B00
 3180              	.LASF152:
 3181 0392 564F525F 		.ascii	"VOR_CircularBuffer_Initialize\000"
 3181      43697263 
 3181      756C6172 
 3181      42756666 
 3181      65725F49 
 3182              	.LASF66:
 3183 03b0 5F666C61 		.ascii	"_flags2\000"
 3183      67733200 
 3184              	.LASF132:
 3185 03b8 564F525F 		.ascii	"VOR_CIRCULAR_BUFFER\000"
 3185      43495243 
 3185      554C4152 
 3185      5F425546 
 3185      46455200 
 3186              	.LASF56:
 3187 03cc 5F777269 		.ascii	"_write\000"
 3187      746500
 3188              	.LASF35:
 3189 03d3 5F5F746D 		.ascii	"__tm_year\000"
 3189      5F796561 
 3189      7200
ARM GAS  C:\Users\claym\AppData\Local\Temp\ccGY57bu.s 			page 62


 3190              	.LASF2:
 3191 03dd 6C6F6E67 		.ascii	"long double\000"
 3191      20646F75 
 3191      626C6500 
 3192              	.LASF130:
 3193 03e9 6D61785F 		.ascii	"max_items\000"
 3193      6974656D 
 3193      7300
 3194              	.LASF127:
 3195 03f3 72656164 		.ascii	"read_index\000"
 3195      5F696E64 
 3195      657800
 3196              	.LASF116:
 3197 03fe 5F6E6578 		.ascii	"_nextf\000"
 3197      746600
 3198              	.LASF34:
 3199 0405 5F5F746D 		.ascii	"__tm_mon\000"
 3199      5F6D6F6E 
 3199      00
 3200              	.LASF44:
 3201 040e 5F617465 		.ascii	"_atexit\000"
 3201      78697400 
 3202              	.LASF76:
 3203 0416 5F5F7364 		.ascii	"__sdidinit\000"
 3203      6964696E 
 3203      697400
 3204              	.LASF13:
 3205 0421 5F6F6666 		.ascii	"_off_t\000"
 3205      5F7400
 3206              	.LASF135:
 3207 0428 4C4F475F 		.ascii	"LOG_WARN\000"
 3207      5741524E 
 3207      00
 3208              	.LASF81:
 3209 0431 5F667265 		.ascii	"_freelist\000"
 3209      656C6973 
 3209      7400
 3210              	.LASF106:
 3211 043b 5F776374 		.ascii	"_wctomb_state\000"
 3211      6F6D625F 
 3211      73746174 
 3211      6500
 3212              	.LASF145:
 3213 0449 5F426F6F 		.ascii	"_Bool\000"
 3213      6C00
 3214              	.LASF124:
 3215 044f 696E7433 		.ascii	"int32_t\000"
 3215      325F7400 
 3216              	.LASF4:
 3217 0457 756E7369 		.ascii	"unsigned char\000"
 3217      676E6564 
 3217      20636861 
 3217      7200
 3218              	.LASF84:
 3219 0465 5F6E6577 		.ascii	"_new\000"
 3219      00
 3220              	.LASF141:
ARM GAS  C:\Users\claym\AppData\Local\Temp\ccGY57bu.s 			page 63


 3221 046a 564F525F 		.ascii	"VOR_CircularBuffer_Read\000"
 3221      43697263 
 3221      756C6172 
 3221      42756666 
 3221      65725F52 
 3222              	.LASF115:
 3223 0482 5F685F65 		.ascii	"_h_errno\000"
 3223      72726E6F 
 3223      00
 3224              	.LASF5:
 3225 048b 73686F72 		.ascii	"short int\000"
 3225      7420696E 
 3225      7400
 3226              	.LASF37:
 3227 0495 5F5F746D 		.ascii	"__tm_yday\000"
 3227      5F796461 
 3227      7900
 3228              	.LASF47:
 3229 049f 5F5F7362 		.ascii	"__sbuf\000"
 3229      756600
 3230              	.LASF92:
 3231 04a6 5F696F62 		.ascii	"_iobs\000"
 3231      7300
 3232              	.LASF89:
 3233 04ac 5F5F4649 		.ascii	"__FILE\000"
 3233      4C4500
 3234              	.LASF20:
 3235 04b3 5F6D6273 		.ascii	"_mbstate_t\000"
 3235      74617465 
 3235      5F7400
 3236              	.LASF50:
 3237 04be 5F5F7346 		.ascii	"__sFILE\000"
 3237      494C4500 
 3238              	.LASF136:
 3239 04c6 4C4F475F 		.ascii	"LOG_INFO\000"
 3239      494E464F 
 3239      00
 3240              	.LASF65:
 3241 04cf 5F6D6273 		.ascii	"_mbstate\000"
 3241      74617465 
 3241      00
 3242              	.LASF102:
 3243 04d8 5F72616E 		.ascii	"_rand_next\000"
 3243      645F6E65 
 3243      787400
 3244              	.LASF104:
 3245 04e3 5F6D626C 		.ascii	"_mblen_state\000"
 3245      656E5F73 
 3245      74617465 
 3245      00
 3246              	.LASF72:
 3247 04f0 5F696E63 		.ascii	"_inc\000"
 3247      00
 3248              	.LASF150:
 3249 04f5 2E5C7574 		.ascii	".\\utilities\\src\\circular_buffer.c\000"
 3249      696C6974 
 3249      6965735C 
ARM GAS  C:\Users\claym\AppData\Local\Temp\ccGY57bu.s 			page 64


 3249      7372635C 
 3249      63697263 
 3250              	.LASF75:
 3251 0517 5F6C6F63 		.ascii	"_locale\000"
 3251      616C6500 
 3252              	.LASF77:
 3253 051f 5F5F636C 		.ascii	"__cleanup\000"
 3253      65616E75 
 3253      7000
 3254              	.LASF74:
 3255 0529 5F756E73 		.ascii	"_unspecified_locale_info\000"
 3255      70656369 
 3255      66696564 
 3255      5F6C6F63 
 3255      616C655F 
 3256              	.LASF25:
 3257 0542 5F6D6178 		.ascii	"_maxwds\000"
 3257      77647300 
 3258              	.LASF67:
 3259 054a 5F726565 		.ascii	"_reent\000"
 3259      6E7400
 3260              	.LASF94:
 3261 0551 5F736565 		.ascii	"_seed\000"
 3261      6400
 3262              	.LASF18:
 3263 0557 5F5F636F 		.ascii	"__count\000"
 3263      756E7400 
 3264              	.LASF119:
 3265 055f 5F5F6C6F 		.ascii	"__lock\000"
 3265      636B00
 3266              	.LASF19:
 3267 0566 5F5F7661 		.ascii	"__value\000"
 3267      6C756500 
 3268              	.LASF57:
 3269 056e 5F736565 		.ascii	"_seek\000"
 3269      6B00
 3270              	.LASF128:
 3271 0574 76616C69 		.ascii	"valid_items\000"
 3271      645F6974 
 3271      656D7300 
 3272              	.LASF121:
 3273 0580 5F696D70 		.ascii	"_impure_ptr\000"
 3273      7572655F 
 3273      70747200 
 3274              	.LASF14:
 3275 058c 5F66706F 		.ascii	"_fpos_t\000"
 3275      735F7400 
 3276              	.LASF68:
 3277 0594 5F657272 		.ascii	"_errno\000"
 3277      6E6F00
 3278              	.LASF22:
 3279 059b 63686172 		.ascii	"char\000"
 3279      00
 3280              	.LASF31:
 3281 05a0 5F5F746D 		.ascii	"__tm_min\000"
 3281      5F6D696E 
 3281      00
ARM GAS  C:\Users\claym\AppData\Local\Temp\ccGY57bu.s 			page 65


 3282              	.LASF7:
 3283 05a9 5F5F7569 		.ascii	"__uint16_t\000"
 3283      6E743136 
 3283      5F7400
 3284              	.LASF140:
 3285 05b4 70497465 		.ascii	"pItem\000"
 3285      6D00
 3286              	.LASF126:
 3287 05ba 77726974 		.ascii	"write_index\000"
 3287      655F696E 
 3287      64657800 
 3288              	.LASF8:
 3289 05c6 5F5F696E 		.ascii	"__int32_t\000"
 3289      7433325F 
 3289      7400
 3290              	.LASF95:
 3291 05d0 5F6D756C 		.ascii	"_mult\000"
 3291      7400
 3292              	.LASF24:
 3293 05d6 5F6E6578 		.ascii	"_next\000"
 3293      7400
 3294              	.LASF98:
 3295 05dc 5F737472 		.ascii	"_strtok_last\000"
 3295      746F6B5F 
 3295      6C617374 
 3295      00
 3296              	.LASF42:
 3297 05e9 5F666E74 		.ascii	"_fntypes\000"
 3297      79706573 
 3297      00
 3298              	.LASF147:
 3299 05f2 564F525F 		.ascii	"VOR_CircularBuffer_IsEmpty\000"
 3299      43697263 
 3299      756C6172 
 3299      42756666 
 3299      65725F49 
 3300              	.LASF96:
 3301 060d 5F616464 		.ascii	"_add\000"
 3301      00
 3302              	.LASF23:
 3303 0612 5F5F554C 		.ascii	"__ULong\000"
 3303      6F6E6700 
 3304              	.LASF109:
 3305 061a 5F676574 		.ascii	"_getdate_err\000"
 3305      64617465 
 3305      5F657272 
 3305      00
 3306              	.LASF122:
 3307 0627 5F676C6F 		.ascii	"_global_impure_ptr\000"
 3307      62616C5F 
 3307      696D7075 
 3307      72655F70 
 3307      747200
 3308              	.LASF97:
 3309 063a 5F756E75 		.ascii	"_unused_rand\000"
 3309      7365645F 
 3309      72616E64 
ARM GAS  C:\Users\claym\AppData\Local\Temp\ccGY57bu.s 			page 66


 3309      00
 3310              	.LASF27:
 3311 0647 5F776473 		.ascii	"_wds\000"
 3311      00
 3312              	.LASF36:
 3313 064c 5F5F746D 		.ascii	"__tm_wday\000"
 3313      5F776461 
 3313      7900
 3314              	.LASF90:
 3315 0656 5F676C75 		.ascii	"_glue\000"
 3315      6500
 3316              	.LASF138:
 3317 065c 4C4F475F 		.ascii	"LOG_TRACE\000"
 3317      54524143 
 3317      4500
 3318              	.LASF117:
 3319 0666 5F6E6D61 		.ascii	"_nmalloc\000"
 3319      6C6C6F63 
 3319      00
 3320              	.LASF107:
 3321 066f 5F6C3634 		.ascii	"_l64a_buf\000"
 3321      615F6275 
 3321      6600
 3322              	.LASF86:
 3323 0679 5F736967 		.ascii	"_sig_func\000"
 3323      5F66756E 
 3323      6300
 3324              	.LASF155:
 3325 0683 564F525F 		.ascii	"VOR_Log\000"
 3325      4C6F6700 
 3326              	.LASF60:
 3327 068b 5F6E6275 		.ascii	"_nbuf\000"
 3327      6600
 3328              	.LASF118:
 3329 0691 5F756E75 		.ascii	"_unused\000"
 3329      73656400 
 3330              	.LASF38:
 3331 0699 5F5F746D 		.ascii	"__tm_isdst\000"
 3331      5F697364 
 3331      737400
 3332              	.LASF100:
 3333 06a4 5F6C6F63 		.ascii	"_localtime_buf\000"
 3333      616C7469 
 3333      6D655F62 
 3333      756600
 3334              	.LASF58:
 3335 06b3 5F636C6F 		.ascii	"_close\000"
 3335      736500
 3336              	.LASF103:
 3337 06ba 5F723438 		.ascii	"_r48\000"
 3337      00
 3338              	.LASF105:
 3339 06bf 5F6D6274 		.ascii	"_mbtowc_state\000"
 3339      6F77635F 
 3339      73746174 
 3339      6500
 3340              	.LASF80:
ARM GAS  C:\Users\claym\AppData\Local\Temp\ccGY57bu.s 			page 67


 3341 06cd 5F703573 		.ascii	"_p5s\000"
 3341      00
 3342              	.LASF148:
 3343 06d2 70446174 		.ascii	"pData\000"
 3343      6100
 3344              	.LASF33:
 3345 06d8 5F5F746D 		.ascii	"__tm_mday\000"
 3345      5F6D6461 
 3345      7900
 3346              		.ident	"GCC: (GNU Tools for Arm Embedded Processors 7-2017-q4-major) 7.2.1 20170904 (release) [ARM
ARM GAS  C:\Users\claym\AppData\Local\Temp\ccGY57bu.s 			page 68


DEFINED SYMBOLS
                            *ABS*:00000000 circular_buffer.c
C:\Users\claym\AppData\Local\Temp\ccGY57bu.s:73     .text:00000000 $t
C:\Users\claym\AppData\Local\Temp\ccGY57bu.s:80     .text:00000000 VOR_CircularBuffer_Initialize
C:\Users\claym\AppData\Local\Temp\ccGY57bu.s:122    .text:0000000e VOR_CircularBuffer_IsEmpty
C:\Users\claym\AppData\Local\Temp\ccGY57bu.s:165    .text:00000024 $d
C:\Users\claym\AppData\Local\Temp\ccGY57bu.s:169    .text:00000028 $t
C:\Users\claym\AppData\Local\Temp\ccGY57bu.s:176    .text:00000028 VOR_CircularBuffer_IsFull
C:\Users\claym\AppData\Local\Temp\ccGY57bu.s:220    .text:00000040 $d
C:\Users\claym\AppData\Local\Temp\ccGY57bu.s:224    .text:00000044 $t
C:\Users\claym\AppData\Local\Temp\ccGY57bu.s:231    .text:00000044 VOR_CircularBuffer_Write
C:\Users\claym\AppData\Local\Temp\ccGY57bu.s:330    .text:00000088 $d
C:\Users\claym\AppData\Local\Temp\ccGY57bu.s:335    .text:0000008c $t
C:\Users\claym\AppData\Local\Temp\ccGY57bu.s:342    .text:0000008c VOR_CircularBuffer_Read
C:\Users\claym\AppData\Local\Temp\ccGY57bu.s:441    .text:000000d0 $d

UNDEFINED SYMBOLS
VOR_Log
memcpy
