ARM GAS  C:\Users\claym\AppData\Local\Temp\ccGY57bu.s 			page 1


   1              		.cpu cortex-m0
   2              		.eabi_attribute 20, 1	@ Tag_ABI_FP_denormal
   3              		.eabi_attribute 21, 1	@ Tag_ABI_FP_exceptions
   4              		.eabi_attribute 23, 3	@ Tag_ABI_FP_number_model
   5              		.eabi_attribute 24, 1	@ Tag_ABI_align8_needed
   6              		.eabi_attribute 25, 1	@ Tag_ABI_align8_preserved
   7              		.eabi_attribute 26, 1	@ Tag_ABI_enum_size
   8              		.eabi_attribute 30, 4	@ Tag_ABI_optimization_goals
   9              		.eabi_attribute 34, 0	@ Tag_CPU_unaligned_access
  10              		.eabi_attribute 18, 4	@ Tag_ABI_PCS_wchar_t
  11              		.file	"circular_buffer.c"
  12              	@ GNU C11 (GNU Tools for Arm Embedded Processors 7-2017-q4-major) version 7.2.1 20170904 (release) 
  13              	@	compiled by GNU C version 5.3.1 20160211, GMP version 6.1.0, MPFR version 3.1.4, MPC version 1.0.
  14              	
  15              	@ GGC heuristics: --param ggc-min-expand=100 --param ggc-min-heapsize=131072
  16              	@ options passed:  -I . -I .\common\hdr -I .\driver\hdr -I .\utilities\hdr
  17              	@ -I .\inc -I .\driver\hdr -I .\hdr -imultilib thumb/v6-m
  18              	@ -iprefix c:\program files (x86)\gnu tools arm embedded\7 2017-q4-major\bin\../lib/gcc/arm-none-ea
  19              	@ -isysroot c:\program files (x86)\gnu tools arm embedded\7 2017-q4-major\bin\../arm-none-eabi
  20              	@ -D__USES_INITFINI__ -D RUN_FROM_FLASH=1 .\utilities\src\circular_buffer.c
  21              	@ -mcpu=cortex-m0 -mthumb -auxbase-strip .\utilities\src\circular_buffer.o
  22              	@ -gdwarf-2 -Os -Wall -Wstrict-prototypes -fomit-frame-pointer
  23              	@ -fverbose-asm
  24              	@ options enabled:  -faggressive-loop-optimizations -falign-jumps
  25              	@ -falign-labels -falign-loops -fauto-inc-dec -fbranch-count-reg
  26              	@ -fcaller-saves -fchkp-check-incomplete-type -fchkp-check-read
  27              	@ -fchkp-check-write -fchkp-instrument-calls -fchkp-narrow-bounds
  28              	@ -fchkp-optimize -fchkp-store-bounds -fchkp-use-static-bounds
  29              	@ -fchkp-use-static-const-bounds -fchkp-use-wrappers -fcode-hoisting
  30              	@ -fcombine-stack-adjustments -fcommon -fcompare-elim -fcprop-registers
  31              	@ -fcrossjumping -fcse-follow-jumps -fdefer-pop
  32              	@ -fdelete-null-pointer-checks -fdevirtualize -fdevirtualize-speculatively
  33              	@ -fdwarf2-cfi-asm -fearly-inlining -feliminate-unused-debug-types
  34              	@ -fexpensive-optimizations -fforward-propagate -ffp-int-builtin-inexact
  35              	@ -ffunction-cse -fgcse -fgcse-lm -fgnu-runtime -fgnu-unique
  36              	@ -fguess-branch-probability -fhoist-adjacent-loads -fident -fif-conversion
  37              	@ -fif-conversion2 -findirect-inlining -finline -finline-atomics
  38              	@ -finline-functions -finline-functions-called-once
  39              	@ -finline-small-functions -fipa-bit-cp -fipa-cp -fipa-icf
  40              	@ -fipa-icf-functions -fipa-icf-variables -fipa-profile -fipa-pure-const
  41              	@ -fipa-reference -fipa-sra -fipa-vrp -fira-hoist-pressure
  42              	@ -fira-share-save-slots -fira-share-spill-slots
  43              	@ -fisolate-erroneous-paths-dereference -fivopts -fkeep-static-consts
  44              	@ -fleading-underscore -flifetime-dse -flra-remat -flto-odr-type-merging
  45              	@ -fmath-errno -fmerge-constants -fmerge-debug-strings
  46              	@ -fmove-loop-invariants -fomit-frame-pointer -foptimize-sibling-calls
  47              	@ -fpartial-inlining -fpeephole -fpeephole2 -fplt -fprefetch-loop-arrays
  48              	@ -freg-struct-return -freorder-blocks -freorder-functions
  49              	@ -frerun-cse-after-loop -fsched-critical-path-heuristic
  50              	@ -fsched-dep-count-heuristic -fsched-group-heuristic -fsched-interblock
  51              	@ -fsched-last-insn-heuristic -fsched-pressure -fsched-rank-heuristic
  52              	@ -fsched-spec -fsched-spec-insn-heuristic -fsched-stalled-insns-dep
  53              	@ -fschedule-insns2 -fsection-anchors -fsemantic-interposition
  54              	@ -fshow-column -fshrink-wrap -fshrink-wrap-separate -fsigned-zeros
  55              	@ -fsplit-ivs-in-unroller -fsplit-wide-types -fssa-backprop -fssa-phiopt
  56              	@ -fstdarg-opt -fstore-merging -fstrict-aliasing -fstrict-overflow
  57              	@ -fstrict-volatile-bitfields -fsync-libcalls -fthread-jumps
ARM GAS  C:\Users\claym\AppData\Local\Temp\ccGY57bu.s 			page 2


  58              	@ -ftoplevel-reorder -ftrapping-math -ftree-bit-ccp -ftree-builtin-call-dce
  59              	@ -ftree-ccp -ftree-ch -ftree-coalesce-vars -ftree-copy-prop -ftree-cselim
  60              	@ -ftree-dce -ftree-dominator-opts -ftree-dse -ftree-forwprop -ftree-fre
  61              	@ -ftree-loop-if-convert -ftree-loop-im -ftree-loop-ivcanon
  62              	@ -ftree-loop-optimize -ftree-parallelize-loops= -ftree-phiprop -ftree-pre
  63              	@ -ftree-pta -ftree-reassoc -ftree-scev-cprop -ftree-sink -ftree-slsr
  64              	@ -ftree-sra -ftree-switch-conversion -ftree-tail-merge -ftree-ter
  65              	@ -ftree-vrp -funit-at-a-time -fvar-tracking -fvar-tracking-assignments
  66              	@ -fverbose-asm -fzero-initialized-in-bss -mlittle-endian
  67              	@ -mpic-data-is-text-relative -msched-prolog -mthumb
  68              	@ -mvectorize-with-neon-quad
  69              	
  70              		.text
  71              	.Ltext0:
  72              		.cfi_sections	.debug_frame
  73              		.align	1
  74              		.global	VOR_CircularBuffer_Initialize
  75              		.syntax unified
  76              		.code	16
  77              		.thumb_func
  78              		.fpu softvfp
  79              		.type	VOR_CircularBuffer_Initialize, %function
  80              	VOR_CircularBuffer_Initialize:
  81              	.LFB0:
  82              		.file 1 ".\\utilities\\src\\circular_buffer.c"
   1:.\utilities\src/circular_buffer.c **** /***************************************************************************************
   2:.\utilities\src/circular_buffer.c ****  * @file     circular_buffer.c
   3:.\utilities\src/circular_buffer.c ****  * @version  V1.0
   4:.\utilities\src/circular_buffer.c ****  * @date     31. March 2016
   5:.\utilities\src/circular_buffer.c ****  *
   6:.\utilities\src/circular_buffer.c ****  * @note
   7:.\utilities\src/circular_buffer.c ****  * VORAGO Technologies 
   8:.\utilities\src/circular_buffer.c ****  *
   9:.\utilities\src/circular_buffer.c ****  * @note
  10:.\utilities\src/circular_buffer.c ****  * Copyright (c) 2013-2016 VORAGO Technologies. 
  11:.\utilities\src/circular_buffer.c ****  *
  12:.\utilities\src/circular_buffer.c ****  * @par
  13:.\utilities\src/circular_buffer.c ****  * BY DOWNLOADING, INSTALLING OR USING THIS SOFTWARE, YOU AGREE TO BE BOUND BY 
  14:.\utilities\src/circular_buffer.c ****  * ALL THE TERMS AND CONDITIONS OF THE VORAGO TECHNOLOGIES END USER LICENSE AGREEMENT. 
  15:.\utilities\src/circular_buffer.c ****  * THIS SOFTWARE IS PROVIDED "AS IS". NO WARRANTIES, WHETHER EXPRESS, IMPLIED
  16:.\utilities\src/circular_buffer.c ****  * OR STATUTORY, INCLUDING, BUT NOT LIMITED TO, IMPLIED WARRANTIES OF MERCHANTABILITY 
  17:.\utilities\src/circular_buffer.c ****  * AND FITNESS FOR A PARTICULAR PURPOSE APPLY TO THIS SOFTWARE. VORAGO TECHNOLOGIES 
  18:.\utilities\src/circular_buffer.c ****  * SHALL NOT, IN ANY CIRCUMSTANCES, BE LIABLE FOR SPECIAL, INCIDENTAL, OR CONSEQUENTIAL 
  19:.\utilities\src/circular_buffer.c ****  * DAMAGES, FOR ANY REASON WHATSOEVER.
  20:.\utilities\src/circular_buffer.c ****  *
  21:.\utilities\src/circular_buffer.c ****  ****************************************************************************************/
  22:.\utilities\src/circular_buffer.c **** #include <string.h>
  23:.\utilities\src/circular_buffer.c **** #include "circular_buffer.h"
  24:.\utilities\src/circular_buffer.c **** #include "reb_log.h"
  25:.\utilities\src/circular_buffer.c **** 
  26:.\utilities\src/circular_buffer.c **** void VOR_CircularBuffer_Initialize(VOR_CIRCULAR_BUFFER *pBuffer, void *pData, uint16_t item_size, u
  83              		.loc 1 26 0
  84              		.cfi_startproc
  85              		@ args = 0, pretend = 0, frame = 0
  86              		@ frame_needed = 0, uses_anonymous_args = 0
  87              		@ link register save eliminated.
  88              	.LVL0:
ARM GAS  C:\Users\claym\AppData\Local\Temp\ccGY57bu.s 			page 3


  89              	@ .\utilities\src\circular_buffer.c:27: 	pBuffer->max_items = max_items; 
  27:.\utilities\src/circular_buffer.c **** 	pBuffer->max_items = max_items; 
  90              		.loc 1 27 0
  91 0000 8381     		strh	r3, [r0, #12]	@ max_items, pBuffer_2(D)->max_items
  92              	@ .\utilities\src\circular_buffer.c:32: 	pBuffer->write_index = 0; 
  28:.\utilities\src/circular_buffer.c **** 	pBuffer->valid_items = 0; 
  29:.\utilities\src/circular_buffer.c **** 	pBuffer->data = pData; 
  30:.\utilities\src/circular_buffer.c **** 	pBuffer->item_size = item_size; 
  31:.\utilities\src/circular_buffer.c **** 	pBuffer->read_index = 0; 
  32:.\utilities\src/circular_buffer.c **** 	pBuffer->write_index = 0; 
  93              		.loc 1 32 0
  94 0002 0023     		movs	r3, #0	@ tmp116,
  95              	.LVL1:
  96              	@ .\utilities\src\circular_buffer.c:29: 	pBuffer->data = pData; 
  29:.\utilities\src/circular_buffer.c **** 	pBuffer->item_size = item_size; 
  97              		.loc 1 29 0
  98 0004 8160     		str	r1, [r0, #8]	@ pData, pBuffer_2(D)->data
  99              	@ .\utilities\src\circular_buffer.c:30: 	pBuffer->item_size = item_size; 
  30:.\utilities\src/circular_buffer.c **** 	pBuffer->read_index = 0; 
 100              		.loc 1 30 0
 101 0006 C281     		strh	r2, [r0, #14]	@ item_size, pBuffer_2(D)->item_size
 102              	@ .\utilities\src\circular_buffer.c:32: 	pBuffer->write_index = 0; 
 103              		.loc 1 32 0
 104 0008 0360     		str	r3, [r0]	@ tmp116, MEM[(short unsigned int *)pBuffer_2(D)]
 105              	@ .\utilities\src\circular_buffer.c:31: 	pBuffer->read_index = 0; 
  31:.\utilities\src/circular_buffer.c **** 	pBuffer->write_index = 0; 
 106              		.loc 1 31 0
 107 000a 8380     		strh	r3, [r0, #4]	@ tmp116, MEM[(short unsigned int *)pBuffer_2(D) + 4B]
 108              	@ .\utilities\src\circular_buffer.c:33: }
  33:.\utilities\src/circular_buffer.c **** }
 109              		.loc 1 33 0
 110              		@ sp needed	@
 111 000c 7047     		bx	lr
 112              		.cfi_endproc
 113              	.LFE0:
 114              		.size	VOR_CircularBuffer_Initialize, .-VOR_CircularBuffer_Initialize
 115              		.align	1
 116              		.global	VOR_CircularBuffer_IsEmpty
 117              		.syntax unified
 118              		.code	16
 119              		.thumb_func
 120              		.fpu softvfp
 121              		.type	VOR_CircularBuffer_IsEmpty, %function
 122              	VOR_CircularBuffer_IsEmpty:
 123              	.LFB1:
  34:.\utilities\src/circular_buffer.c **** 
  35:.\utilities\src/circular_buffer.c **** bool VOR_CircularBuffer_IsEmpty(VOR_CIRCULAR_BUFFER *pBuffer) {
 124              		.loc 1 35 0
 125              		.cfi_startproc
 126              		@ args = 0, pretend = 0, frame = 0
 127              		@ frame_needed = 0, uses_anonymous_args = 0
 128              	.LVL2:
 129 000e 10B5     		push	{r4, lr}	@
 130              	.LCFI0:
 131              		.cfi_def_cfa_offset 8
 132              		.cfi_offset 4, -8
 133              		.cfi_offset 14, -4
ARM GAS  C:\Users\claym\AppData\Local\Temp\ccGY57bu.s 			page 4


 134              	@ .\utilities\src\circular_buffer.c:36: 	if( pBuffer->valid_items == 0 ) {
  36:.\utilities\src/circular_buffer.c **** 	if( pBuffer->valid_items == 0 ) {
 135              		.loc 1 36 0
 136 0010 8388     		ldrh	r3, [r0, #4]	@ tmp113,
 137              	@ .\utilities\src\circular_buffer.c:40: 		return false; 
  37:.\utilities\src/circular_buffer.c **** 		VOR_Log(LOG_DBG, "The Buffer is Empty! \n");
  38:.\utilities\src/circular_buffer.c **** 		return true; 
  39:.\utilities\src/circular_buffer.c **** 	} else {
  40:.\utilities\src/circular_buffer.c **** 		return false; 
 138              		.loc 1 40 0
 139 0012 0020     		movs	r0, #0	@ <retval>,
 140              	.LVL3:
 141              	@ .\utilities\src\circular_buffer.c:36: 	if( pBuffer->valid_items == 0 ) {
  36:.\utilities\src/circular_buffer.c **** 	if( pBuffer->valid_items == 0 ) {
 142              		.loc 1 36 0
 143 0014 8342     		cmp	r3, r0	@ tmp113,
 144 0016 04D1     		bne	.L3	@,
 145              	.LVL4:
 146              	.LBB4:
 147              	.LBB5:
 148              	@ .\utilities\src\circular_buffer.c:37: 		VOR_Log(LOG_DBG, "The Buffer is Empty! \n");
  37:.\utilities\src/circular_buffer.c **** 		VOR_Log(LOG_DBG, "The Buffer is Empty! \n");
 149              		.loc 1 37 0
 150 0018 0530     		adds	r0, r0, #5	@,
 151 001a 0249     		ldr	r1, .L5	@,
 152 001c FFF7FEFF 		bl	VOR_Log	@
 153              	.LVL5:
 154 0020 0120     		movs	r0, #1	@ <retval>,
 155              	.L3:
 156              	.LBE5:
 157              	.LBE4:
 158              	@ .\utilities\src\circular_buffer.c:42: }
  41:.\utilities\src/circular_buffer.c **** 	}
  42:.\utilities\src/circular_buffer.c **** }
 159              		.loc 1 42 0
 160              		@ sp needed	@
 161 0022 10BD     		pop	{r4, pc}
 162              	.L6:
 163              		.align	2
 164              	.L5:
 165 0024 00000000 		.word	.LC0
 166              		.cfi_endproc
 167              	.LFE1:
 168              		.size	VOR_CircularBuffer_IsEmpty, .-VOR_CircularBuffer_IsEmpty
 169              		.align	1
 170              		.global	VOR_CircularBuffer_IsFull
 171              		.syntax unified
 172              		.code	16
 173              		.thumb_func
 174              		.fpu softvfp
 175              		.type	VOR_CircularBuffer_IsFull, %function
 176              	VOR_CircularBuffer_IsFull:
 177              	.LFB2:
  43:.\utilities\src/circular_buffer.c **** 
  44:.\utilities\src/circular_buffer.c **** bool VOR_CircularBuffer_IsFull(VOR_CIRCULAR_BUFFER *pBuffer) {
 178              		.loc 1 44 0
 179              		.cfi_startproc
ARM GAS  C:\Users\claym\AppData\Local\Temp\ccGY57bu.s 			page 5


 180              		@ args = 0, pretend = 0, frame = 0
 181              		@ frame_needed = 0, uses_anonymous_args = 0
 182              	.LVL6:
 183 0028 10B5     		push	{r4, lr}	@
 184              	.LCFI1:
 185              		.cfi_def_cfa_offset 8
 186              		.cfi_offset 4, -8
 187              		.cfi_offset 14, -4
 188              	@ .\utilities\src\circular_buffer.c:45: 	if( pBuffer->valid_items == pBuffer->max_items ) {
  45:.\utilities\src/circular_buffer.c **** 	if( pBuffer->valid_items == pBuffer->max_items ) {
 189              		.loc 1 45 0
 190 002a 8288     		ldrh	r2, [r0, #4]	@ tmp114,
 191 002c 8389     		ldrh	r3, [r0, #12]	@ tmp115,
 192              	@ .\utilities\src\circular_buffer.c:49: 		return false; 
  46:.\utilities\src/circular_buffer.c **** 		VOR_Log(LOG_DBG, "The Buffer is Full! \n");
  47:.\utilities\src/circular_buffer.c **** 		return true; 
  48:.\utilities\src/circular_buffer.c **** 	} else {
  49:.\utilities\src/circular_buffer.c **** 		return false; 
 193              		.loc 1 49 0
 194 002e 0020     		movs	r0, #0	@ <retval>,
 195              	.LVL7:
 196              	@ .\utilities\src\circular_buffer.c:45: 	if( pBuffer->valid_items == pBuffer->max_items ) {
  45:.\utilities\src/circular_buffer.c **** 	if( pBuffer->valid_items == pBuffer->max_items ) {
 197              		.loc 1 45 0
 198 0030 9A42     		cmp	r2, r3	@ tmp114, tmp115
 199 0032 04D1     		bne	.L8	@,
 200              	.LVL8:
 201              	.LBB8:
 202              	.LBB9:
 203              	@ .\utilities\src\circular_buffer.c:46: 		VOR_Log(LOG_DBG, "The Buffer is Full! \n");
  46:.\utilities\src/circular_buffer.c **** 		VOR_Log(LOG_DBG, "The Buffer is Full! \n");
 204              		.loc 1 46 0
 205 0034 0530     		adds	r0, r0, #5	@,
 206 0036 0249     		ldr	r1, .L10	@,
 207 0038 FFF7FEFF 		bl	VOR_Log	@
 208              	.LVL9:
 209 003c 0120     		movs	r0, #1	@ <retval>,
 210              	.L8:
 211              	.LBE9:
 212              	.LBE8:
 213              	@ .\utilities\src\circular_buffer.c:51: }
  50:.\utilities\src/circular_buffer.c **** 	}
  51:.\utilities\src/circular_buffer.c **** }
 214              		.loc 1 51 0
 215              		@ sp needed	@
 216 003e 10BD     		pop	{r4, pc}
 217              	.L11:
 218              		.align	2
 219              	.L10:
 220 0040 17000000 		.word	.LC2
 221              		.cfi_endproc
 222              	.LFE2:
 223              		.size	VOR_CircularBuffer_IsFull, .-VOR_CircularBuffer_IsFull
 224              		.align	1
 225              		.global	VOR_CircularBuffer_Write
 226              		.syntax unified
 227              		.code	16
ARM GAS  C:\Users\claym\AppData\Local\Temp\ccGY57bu.s 			page 6


 228              		.thumb_func
 229              		.fpu softvfp
 230              		.type	VOR_CircularBuffer_Write, %function
 231              	VOR_CircularBuffer_Write:
 232              	.LFB3:
  52:.\utilities\src/circular_buffer.c **** 
  53:.\utilities\src/circular_buffer.c **** int32_t VOR_CircularBuffer_Write(VOR_CIRCULAR_BUFFER *pBuffer, const void *pItem) {
 233              		.loc 1 53 0
 234              		.cfi_startproc
 235              		@ args = 0, pretend = 0, frame = 0
 236              		@ frame_needed = 0, uses_anonymous_args = 0
 237              	.LVL10:
 238 0044 70B5     		push	{r4, r5, r6, lr}	@
 239              	.LCFI2:
 240              		.cfi_def_cfa_offset 16
 241              		.cfi_offset 4, -16
 242              		.cfi_offset 5, -12
 243              		.cfi_offset 6, -8
 244              		.cfi_offset 14, -4
 245              	@ .\utilities\src\circular_buffer.c:53: int32_t VOR_CircularBuffer_Write(VOR_CIRCULAR_BUFFER *pBuff
 246              		.loc 1 53 0
 247 0046 0400     		movs	r4, r0	@ pBuffer, pBuffer
 248 0048 0E00     		movs	r6, r1	@ pItem, pItem
 249              	@ .\utilities\src\circular_buffer.c:54: 	if( VOR_CircularBuffer_IsFull(pBuffer) ) {
  54:.\utilities\src/circular_buffer.c **** 	if( VOR_CircularBuffer_IsFull(pBuffer) ) {
 250              		.loc 1 54 0
 251 004a FFF7FEFF 		bl	VOR_CircularBuffer_IsFull	@
 252              	.LVL11:
 253 004e 051E     		subs	r5, r0, #0	@ tmp126,,
 254 0050 06D0     		beq	.L13	@,
 255              	@ .\utilities\src\circular_buffer.c:55: 		VOR_Log(LOG_DBG, "The Buffer is Full! \n");
  55:.\utilities\src/circular_buffer.c **** 		VOR_Log(LOG_DBG, "The Buffer is Full! \n");
 256              		.loc 1 55 0
 257 0052 0520     		movs	r0, #5	@,
 258 0054 0C49     		ldr	r1, .L16	@,
 259 0056 FFF7FEFF 		bl	VOR_Log	@
 260              	.LVL12:
 261              	@ .\utilities\src\circular_buffer.c:56: 		return -1; 
  56:.\utilities\src/circular_buffer.c **** 		return -1; 
 262              		.loc 1 56 0
 263 005a 0120     		movs	r0, #1	@ <retval>,
 264 005c 4042     		rsbs	r0, r0, #0	@ <retval>, <retval>
 265              	.L12:
 266              	@ .\utilities\src\circular_buffer.c:65: }
  57:.\utilities\src/circular_buffer.c **** 	} else {
  58:.\utilities\src/circular_buffer.c **** 		uint16_t *wPtr = (uint16_t *)pBuffer->data + pBuffer->write_index++; 
  59:.\utilities\src/circular_buffer.c **** 		pBuffer->valid_items++; 
  60:.\utilities\src/circular_buffer.c **** 		memcpy(wPtr, pItem, pBuffer->item_size); 
  61:.\utilities\src/circular_buffer.c **** 		if( pBuffer->write_index == pBuffer->max_items )
  62:.\utilities\src/circular_buffer.c **** 			pBuffer->write_index = 0; 
  63:.\utilities\src/circular_buffer.c **** 	}
  64:.\utilities\src/circular_buffer.c **** 	return 0; 
  65:.\utilities\src/circular_buffer.c **** }
 267              		.loc 1 65 0
 268              		@ sp needed	@
 269              	.LVL13:
 270              	.LVL14:
ARM GAS  C:\Users\claym\AppData\Local\Temp\ccGY57bu.s 			page 7


 271 005e 70BD     		pop	{r4, r5, r6, pc}
 272              	.LVL15:
 273              	.L13:
 274              	.LBB10:
 275              	@ .\utilities\src\circular_buffer.c:58: 		uint16_t *wPtr = (uint16_t *)pBuffer->data + pBuffer->wri
  58:.\utilities\src/circular_buffer.c **** 		pBuffer->valid_items++; 
 276              		.loc 1 58 0
 277 0060 2088     		ldrh	r0, [r4]	@ _3, *pBuffer_16(D)
 278              	@ .\utilities\src\circular_buffer.c:60: 		memcpy(wPtr, pItem, pBuffer->item_size); 
  60:.\utilities\src/circular_buffer.c **** 		if( pBuffer->write_index == pBuffer->max_items )
 279              		.loc 1 60 0
 280 0062 E289     		ldrh	r2, [r4, #14]	@ tmp137,
 281              	@ .\utilities\src\circular_buffer.c:58: 		uint16_t *wPtr = (uint16_t *)pBuffer->data + pBuffer->wri
  58:.\utilities\src/circular_buffer.c **** 		pBuffer->valid_items++; 
 282              		.loc 1 58 0
 283 0064 431C     		adds	r3, r0, #1	@ tmp129, _3,
 284 0066 2380     		strh	r3, [r4]	@ tmp129, pBuffer_16(D)->write_index
 285              	.LVL16:
 286              	@ .\utilities\src\circular_buffer.c:59: 		pBuffer->valid_items++; 
  59:.\utilities\src/circular_buffer.c **** 		memcpy(wPtr, pItem, pBuffer->item_size); 
 287              		.loc 1 59 0
 288 0068 A388     		ldrh	r3, [r4, #4]	@ tmp132,
 289              	@ .\utilities\src\circular_buffer.c:58: 		uint16_t *wPtr = (uint16_t *)pBuffer->data + pBuffer->wri
  58:.\utilities\src/circular_buffer.c **** 		pBuffer->valid_items++; 
 290              		.loc 1 58 0
 291 006a 4000     		lsls	r0, r0, #1	@ tmp135, _3,
 292              	.LVL17:
 293              	@ .\utilities\src\circular_buffer.c:59: 		pBuffer->valid_items++; 
  59:.\utilities\src/circular_buffer.c **** 		memcpy(wPtr, pItem, pBuffer->item_size); 
 294              		.loc 1 59 0
 295 006c 0133     		adds	r3, r3, #1	@ tmp133,
 296 006e A380     		strh	r3, [r4, #4]	@ tmp133, pBuffer_16(D)->valid_items
 297              	@ .\utilities\src\circular_buffer.c:58: 		uint16_t *wPtr = (uint16_t *)pBuffer->data + pBuffer->wri
  58:.\utilities\src/circular_buffer.c **** 		pBuffer->valid_items++; 
 298              		.loc 1 58 0
 299 0070 A368     		ldr	r3, [r4, #8]	@ tmp151, pBuffer_16(D)->data
 300              	@ .\utilities\src\circular_buffer.c:60: 		memcpy(wPtr, pItem, pBuffer->item_size); 
  60:.\utilities\src/circular_buffer.c **** 		if( pBuffer->write_index == pBuffer->max_items )
 301              		.loc 1 60 0
 302 0072 3100     		movs	r1, r6	@, pItem
 303              	@ .\utilities\src\circular_buffer.c:58: 		uint16_t *wPtr = (uint16_t *)pBuffer->data + pBuffer->wri
  58:.\utilities\src/circular_buffer.c **** 		pBuffer->valid_items++; 
 304              		.loc 1 58 0
 305 0074 1818     		adds	r0, r3, r0	@ wPtr, tmp151, tmp135
 306              	@ .\utilities\src\circular_buffer.c:60: 		memcpy(wPtr, pItem, pBuffer->item_size); 
  60:.\utilities\src/circular_buffer.c **** 		if( pBuffer->write_index == pBuffer->max_items )
 307              		.loc 1 60 0
 308 0076 FFF7FEFF 		bl	memcpy	@
 309              	.LVL18:
 310              	@ .\utilities\src\circular_buffer.c:61: 		if( pBuffer->write_index == pBuffer->max_items )
  61:.\utilities\src/circular_buffer.c **** 			pBuffer->write_index = 0; 
 311              		.loc 1 61 0
 312 007a 2288     		ldrh	r2, [r4]	@ *pBuffer_16(D), *pBuffer_16(D)
 313 007c A389     		ldrh	r3, [r4, #12]	@ tmp144,
 314              	.LBE10:
 315              	@ .\utilities\src\circular_buffer.c:64: 	return 0; 
  64:.\utilities\src/circular_buffer.c **** }
ARM GAS  C:\Users\claym\AppData\Local\Temp\ccGY57bu.s 			page 8


 316              		.loc 1 64 0
 317 007e 2800     		movs	r0, r5	@ <retval>, tmp126
 318              	.LBB11:
 319              	@ .\utilities\src\circular_buffer.c:61: 		if( pBuffer->write_index == pBuffer->max_items )
  61:.\utilities\src/circular_buffer.c **** 			pBuffer->write_index = 0; 
 320              		.loc 1 61 0
 321 0080 9A42     		cmp	r2, r3	@ *pBuffer_16(D), tmp144
 322 0082 ECD1     		bne	.L12	@,
 323              	@ .\utilities\src\circular_buffer.c:62: 			pBuffer->write_index = 0; 
  62:.\utilities\src/circular_buffer.c **** 	}
 324              		.loc 1 62 0
 325 0084 2580     		strh	r5, [r4]	@ <retval>, pBuffer_16(D)->write_index
 326 0086 EAE7     		b	.L12	@
 327              	.L17:
 328              		.align	2
 329              	.L16:
 330 0088 17000000 		.word	.LC2
 331              	.LBE11:
 332              		.cfi_endproc
 333              	.LFE3:
 334              		.size	VOR_CircularBuffer_Write, .-VOR_CircularBuffer_Write
 335              		.align	1
 336              		.global	VOR_CircularBuffer_Read
 337              		.syntax unified
 338              		.code	16
 339              		.thumb_func
 340              		.fpu softvfp
 341              		.type	VOR_CircularBuffer_Read, %function
 342              	VOR_CircularBuffer_Read:
 343              	.LFB4:
  66:.\utilities\src/circular_buffer.c **** 
  67:.\utilities\src/circular_buffer.c **** int32_t VOR_CircularBuffer_Read(VOR_CIRCULAR_BUFFER *pBuffer, void *pItem) {
 344              		.loc 1 67 0
 345              		.cfi_startproc
 346              		@ args = 0, pretend = 0, frame = 0
 347              		@ frame_needed = 0, uses_anonymous_args = 0
 348              	.LVL19:
 349 008c 70B5     		push	{r4, r5, r6, lr}	@
 350              	.LCFI3:
 351              		.cfi_def_cfa_offset 16
 352              		.cfi_offset 4, -16
 353              		.cfi_offset 5, -12
 354              		.cfi_offset 6, -8
 355              		.cfi_offset 14, -4
 356              	@ .\utilities\src\circular_buffer.c:67: int32_t VOR_CircularBuffer_Read(VOR_CIRCULAR_BUFFER *pBuffe
 357              		.loc 1 67 0
 358 008e 0400     		movs	r4, r0	@ pBuffer, pBuffer
 359 0090 0E00     		movs	r6, r1	@ pItem, pItem
 360              	@ .\utilities\src\circular_buffer.c:68: 	if( VOR_CircularBuffer_IsEmpty(pBuffer) ) {
  68:.\utilities\src/circular_buffer.c **** 	if( VOR_CircularBuffer_IsEmpty(pBuffer) ) {
 361              		.loc 1 68 0
 362 0092 FFF7FEFF 		bl	VOR_CircularBuffer_IsEmpty	@
 363              	.LVL20:
 364 0096 051E     		subs	r5, r0, #0	@ tmp126,,
 365 0098 06D0     		beq	.L19	@,
 366              	@ .\utilities\src\circular_buffer.c:69: 		VOR_Log(LOG_DBG, "The Buffer is Empty! \n");
  69:.\utilities\src/circular_buffer.c **** 		VOR_Log(LOG_DBG, "The Buffer is Empty! \n");
ARM GAS  C:\Users\claym\AppData\Local\Temp\ccGY57bu.s 			page 9


 367              		.loc 1 69 0
 368 009a 0520     		movs	r0, #5	@,
 369 009c 0C49     		ldr	r1, .L22	@,
 370 009e FFF7FEFF 		bl	VOR_Log	@
 371              	.LVL21:
 372              	@ .\utilities\src\circular_buffer.c:70: 		return -1; 
  70:.\utilities\src/circular_buffer.c **** 		return -1; 
 373              		.loc 1 70 0
 374 00a2 0120     		movs	r0, #1	@ <retval>,
 375 00a4 4042     		rsbs	r0, r0, #0	@ <retval>, <retval>
 376              	.L18:
 377              	@ .\utilities\src\circular_buffer.c:79: }
  71:.\utilities\src/circular_buffer.c **** 	} else {
  72:.\utilities\src/circular_buffer.c **** 		uint16_t *rPtr = (uint16_t *)pBuffer->data + pBuffer->read_index++; 
  73:.\utilities\src/circular_buffer.c **** 		pBuffer->valid_items--; 
  74:.\utilities\src/circular_buffer.c **** 		memcpy(pItem, rPtr, pBuffer->item_size); 
  75:.\utilities\src/circular_buffer.c **** 		if( pBuffer->read_index == pBuffer->max_items )
  76:.\utilities\src/circular_buffer.c **** 			pBuffer->read_index = 0; 
  77:.\utilities\src/circular_buffer.c **** 	}
  78:.\utilities\src/circular_buffer.c **** 	return 0; 
  79:.\utilities\src/circular_buffer.c **** }
 378              		.loc 1 79 0
 379              		@ sp needed	@
 380              	.LVL22:
 381              	.LVL23:
 382 00a6 70BD     		pop	{r4, r5, r6, pc}
 383              	.LVL24:
 384              	.L19:
 385              	.LBB12:
 386              	@ .\utilities\src\circular_buffer.c:72: 		uint16_t *rPtr = (uint16_t *)pBuffer->data + pBuffer->rea
  72:.\utilities\src/circular_buffer.c **** 		pBuffer->valid_items--; 
 387              		.loc 1 72 0
 388 00a8 6188     		ldrh	r1, [r4, #2]	@ _3,
 389              	@ .\utilities\src\circular_buffer.c:74: 		memcpy(pItem, rPtr, pBuffer->item_size); 
  74:.\utilities\src/circular_buffer.c **** 		if( pBuffer->read_index == pBuffer->max_items )
 390              		.loc 1 74 0
 391 00aa E289     		ldrh	r2, [r4, #14]	@ tmp135,
 392              	@ .\utilities\src\circular_buffer.c:72: 		uint16_t *rPtr = (uint16_t *)pBuffer->data + pBuffer->rea
  72:.\utilities\src/circular_buffer.c **** 		pBuffer->valid_items--; 
 393              		.loc 1 72 0
 394 00ac 4B1C     		adds	r3, r1, #1	@ tmp129, _3,
 395 00ae 6380     		strh	r3, [r4, #2]	@ tmp129, pBuffer_16(D)->read_index
 396              	.LVL25:
 397              	@ .\utilities\src\circular_buffer.c:73: 		pBuffer->valid_items--; 
  73:.\utilities\src/circular_buffer.c **** 		memcpy(pItem, rPtr, pBuffer->item_size); 
 398              		.loc 1 73 0
 399 00b0 A388     		ldrh	r3, [r4, #4]	@ tmp132,
 400              	@ .\utilities\src\circular_buffer.c:72: 		uint16_t *rPtr = (uint16_t *)pBuffer->data + pBuffer->rea
  72:.\utilities\src/circular_buffer.c **** 		pBuffer->valid_items--; 
 401              		.loc 1 72 0
 402 00b2 4900     		lsls	r1, r1, #1	@ tmp136, _3,
 403              	.LVL26:
 404              	@ .\utilities\src\circular_buffer.c:73: 		pBuffer->valid_items--; 
  73:.\utilities\src/circular_buffer.c **** 		memcpy(pItem, rPtr, pBuffer->item_size); 
 405              		.loc 1 73 0
 406 00b4 013B     		subs	r3, r3, #1	@ tmp133,
 407 00b6 A380     		strh	r3, [r4, #4]	@ tmp133, pBuffer_16(D)->valid_items
ARM GAS  C:\Users\claym\AppData\Local\Temp\ccGY57bu.s 			page 10


 408              	@ .\utilities\src\circular_buffer.c:72: 		uint16_t *rPtr = (uint16_t *)pBuffer->data + pBuffer->rea
  72:.\utilities\src/circular_buffer.c **** 		pBuffer->valid_items--; 
 409              		.loc 1 72 0
 410 00b8 A368     		ldr	r3, [r4, #8]	@ tmp151, pBuffer_16(D)->data
 411              	@ .\utilities\src\circular_buffer.c:74: 		memcpy(pItem, rPtr, pBuffer->item_size); 
  74:.\utilities\src/circular_buffer.c **** 		if( pBuffer->read_index == pBuffer->max_items )
 412              		.loc 1 74 0
 413 00ba 3000     		movs	r0, r6	@, pItem
 414              	@ .\utilities\src\circular_buffer.c:72: 		uint16_t *rPtr = (uint16_t *)pBuffer->data + pBuffer->rea
  72:.\utilities\src/circular_buffer.c **** 		pBuffer->valid_items--; 
 415              		.loc 1 72 0
 416 00bc 5918     		adds	r1, r3, r1	@ rPtr, tmp151, tmp136
 417              	@ .\utilities\src\circular_buffer.c:74: 		memcpy(pItem, rPtr, pBuffer->item_size); 
  74:.\utilities\src/circular_buffer.c **** 		if( pBuffer->read_index == pBuffer->max_items )
 418              		.loc 1 74 0
 419 00be FFF7FEFF 		bl	memcpy	@
 420              	.LVL27:
 421              	@ .\utilities\src\circular_buffer.c:75: 		if( pBuffer->read_index == pBuffer->max_items )
  75:.\utilities\src/circular_buffer.c **** 			pBuffer->read_index = 0; 
 422              		.loc 1 75 0
 423 00c2 6288     		ldrh	r2, [r4, #2]	@ tmp143,
 424 00c4 A389     		ldrh	r3, [r4, #12]	@ tmp144,
 425              	.LBE12:
 426              	@ .\utilities\src\circular_buffer.c:78: 	return 0; 
  78:.\utilities\src/circular_buffer.c **** }
 427              		.loc 1 78 0
 428 00c6 2800     		movs	r0, r5	@ <retval>, tmp126
 429              	.LBB13:
 430              	@ .\utilities\src\circular_buffer.c:75: 		if( pBuffer->read_index == pBuffer->max_items )
  75:.\utilities\src/circular_buffer.c **** 			pBuffer->read_index = 0; 
 431              		.loc 1 75 0
 432 00c8 9A42     		cmp	r2, r3	@ tmp143, tmp144
 433 00ca ECD1     		bne	.L18	@,
 434              	@ .\utilities\src\circular_buffer.c:76: 			pBuffer->read_index = 0; 
  76:.\utilities\src/circular_buffer.c **** 	}
 435              		.loc 1 76 0
 436 00cc 6580     		strh	r5, [r4, #2]	@ <retval>, pBuffer_16(D)->read_index
 437 00ce EAE7     		b	.L18	@
 438              	.L23:
 439              		.align	2
 440              	.L22:
 441 00d0 00000000 		.word	.LC0
 442              	.LBE13:
 443              		.cfi_endproc
 444              	.LFE4:
 445              		.size	VOR_CircularBuffer_Read, .-VOR_CircularBuffer_Read
 446              		.section	.rodata.str1.1,"aMS",%progbits,1
 447              	.LC0:
 448 0000 54686520 		.ascii	"The Buffer is Empty! \012\000"
 448      42756666 
 448      65722069 
 448      7320456D 
 448      70747921 
 449              	.LC2:
 450 0017 54686520 		.ascii	"The Buffer is Full! \012\000"
 450      42756666 
 450      65722069 
ARM GAS  C:\Users\claym\AppData\Local\Temp\ccGY57bu.s 			page 11


 450      73204675 
 450      6C6C2120 
 451              		.text
 452              	.Letext0:
 453              		.file 2 "c:\\program files (x86)\\gnu tools arm embedded\\7 2017-q4-major\\arm-none-eabi\\include\
 454              		.file 3 "c:\\program files (x86)\\gnu tools arm embedded\\7 2017-q4-major\\arm-none-eabi\\include\
 455              		.file 4 "c:\\program files (x86)\\gnu tools arm embedded\\7 2017-q4-major\\arm-none-eabi\\include\
 456              		.file 5 "c:\\program files (x86)\\gnu tools arm embedded\\7 2017-q4-major\\lib\\gcc\\arm-none-eabi
 457              		.file 6 "c:\\program files (x86)\\gnu tools arm embedded\\7 2017-q4-major\\arm-none-eabi\\include\
 458              		.file 7 "c:\\program files (x86)\\gnu tools arm embedded\\7 2017-q4-major\\arm-none-eabi\\include\
 459              		.file 8 ".\\utilities\\hdr/circular_buffer.h"
 460              		.file 9 ".\\hdr/reb_log.h"
 461              		.file 10 "<built-in>"