ARM GAS  C:\Users\claym\AppData\Local\Temp\ccb01mZK.s 			page 1


   1              		.cpu cortex-m0
   2              		.eabi_attribute 20, 1	@ Tag_ABI_FP_denormal
   3              		.eabi_attribute 21, 1	@ Tag_ABI_FP_exceptions
   4              		.eabi_attribute 23, 3	@ Tag_ABI_FP_number_model
   5              		.eabi_attribute 24, 1	@ Tag_ABI_align8_needed
   6              		.eabi_attribute 25, 1	@ Tag_ABI_align8_preserved
   7              		.eabi_attribute 26, 1	@ Tag_ABI_enum_size
   8              		.eabi_attribute 30, 4	@ Tag_ABI_optimization_goals
   9              		.eabi_attribute 34, 0	@ Tag_CPU_unaligned_access
  10              		.eabi_attribute 18, 4	@ Tag_ABI_PCS_wchar_t
  11              		.file	"segger_rtt.c"
  12              	@ GNU C11 (GNU Tools for Arm Embedded Processors 7-2017-q4-major) version 7.2.1 20170904 (release) 
  13              	@	compiled by GNU C version 5.3.1 20160211, GMP version 6.1.0, MPFR version 3.1.4, MPC version 1.0.
  14              	
  15              	@ GGC heuristics: --param ggc-min-expand=100 --param ggc-min-heapsize=131072
  16              	@ options passed:  -I . -I .\common\hdr -I .\driver\hdr -I .\utilities\hdr
  17              	@ -I .\inc -I .\driver\hdr -I .\hdr -imultilib thumb/v6-m
  18              	@ -iprefix c:\program files (x86)\gnu tools arm embedded\7 2017-q4-major\bin\../lib/gcc/arm-none-ea
  19              	@ -isysroot c:\program files (x86)\gnu tools arm embedded\7 2017-q4-major\bin\../arm-none-eabi
  20              	@ -D__USES_INITFINI__ -D RUN_FROM_FLASH=1 .\utilities\src\segger_rtt.c
  21              	@ -mcpu=cortex-m0 -mthumb -auxbase-strip .\utilities\src\segger_rtt.o
  22              	@ -gdwarf-2 -Os -Wall -Wstrict-prototypes -fomit-frame-pointer
  23              	@ -fverbose-asm
  24              	@ options enabled:  -faggressive-loop-optimizations -falign-jumps
  25              	@ -falign-labels -falign-loops -fauto-inc-dec -fbranch-count-reg
  26              	@ -fcaller-saves -fchkp-check-incomplete-type -fchkp-check-read
  27              	@ -fchkp-check-write -fchkp-instrument-calls -fchkp-narrow-bounds
  28              	@ -fchkp-optimize -fchkp-store-bounds -fchkp-use-static-bounds
  29              	@ -fchkp-use-static-const-bounds -fchkp-use-wrappers -fcode-hoisting
  30              	@ -fcombine-stack-adjustments -fcommon -fcompare-elim -fcprop-registers
  31              	@ -fcrossjumping -fcse-follow-jumps -fdefer-pop
  32              	@ -fdelete-null-pointer-checks -fdevirtualize -fdevirtualize-speculatively
  33              	@ -fdwarf2-cfi-asm -fearly-inlining -feliminate-unused-debug-types
  34              	@ -fexpensive-optimizations -fforward-propagate -ffp-int-builtin-inexact
  35              	@ -ffunction-cse -fgcse -fgcse-lm -fgnu-runtime -fgnu-unique
  36              	@ -fguess-branch-probability -fhoist-adjacent-loads -fident -fif-conversion
  37              	@ -fif-conversion2 -findirect-inlining -finline -finline-atomics
  38              	@ -finline-functions -finline-functions-called-once
  39              	@ -finline-small-functions -fipa-bit-cp -fipa-cp -fipa-icf
  40              	@ -fipa-icf-functions -fipa-icf-variables -fipa-profile -fipa-pure-const
  41              	@ -fipa-reference -fipa-sra -fipa-vrp -fira-hoist-pressure
  42              	@ -fira-share-save-slots -fira-share-spill-slots
  43              	@ -fisolate-erroneous-paths-dereference -fivopts -fkeep-static-consts
  44              	@ -fleading-underscore -flifetime-dse -flra-remat -flto-odr-type-merging
  45              	@ -fmath-errno -fmerge-constants -fmerge-debug-strings
  46              	@ -fmove-loop-invariants -fomit-frame-pointer -foptimize-sibling-calls
  47              	@ -fpartial-inlining -fpeephole -fpeephole2 -fplt -fprefetch-loop-arrays
  48              	@ -freg-struct-return -freorder-blocks -freorder-functions
  49              	@ -frerun-cse-after-loop -fsched-critical-path-heuristic
  50              	@ -fsched-dep-count-heuristic -fsched-group-heuristic -fsched-interblock
  51              	@ -fsched-last-insn-heuristic -fsched-pressure -fsched-rank-heuristic
  52              	@ -fsched-spec -fsched-spec-insn-heuristic -fsched-stalled-insns-dep
  53              	@ -fschedule-insns2 -fsection-anchors -fsemantic-interposition
  54              	@ -fshow-column -fshrink-wrap -fshrink-wrap-separate -fsigned-zeros
  55              	@ -fsplit-ivs-in-unroller -fsplit-wide-types -fssa-backprop -fssa-phiopt
  56              	@ -fstdarg-opt -fstore-merging -fstrict-aliasing -fstrict-overflow
  57              	@ -fstrict-volatile-bitfields -fsync-libcalls -fthread-jumps
ARM GAS  C:\Users\claym\AppData\Local\Temp\ccb01mZK.s 			page 2


  58              	@ -ftoplevel-reorder -ftrapping-math -ftree-bit-ccp -ftree-builtin-call-dce
  59              	@ -ftree-ccp -ftree-ch -ftree-coalesce-vars -ftree-copy-prop -ftree-cselim
  60              	@ -ftree-dce -ftree-dominator-opts -ftree-dse -ftree-forwprop -ftree-fre
  61              	@ -ftree-loop-if-convert -ftree-loop-im -ftree-loop-ivcanon
  62              	@ -ftree-loop-optimize -ftree-parallelize-loops= -ftree-phiprop -ftree-pre
  63              	@ -ftree-pta -ftree-reassoc -ftree-scev-cprop -ftree-sink -ftree-slsr
  64              	@ -ftree-sra -ftree-switch-conversion -ftree-tail-merge -ftree-ter
  65              	@ -ftree-vrp -funit-at-a-time -fvar-tracking -fvar-tracking-assignments
  66              	@ -fverbose-asm -fzero-initialized-in-bss -mlittle-endian
  67              	@ -mpic-data-is-text-relative -msched-prolog -mthumb
  68              	@ -mvectorize-with-neon-quad
  69              	
  70              		.text
  71              	.Ltext0:
  72              		.cfi_sections	.debug_frame
  73              		.align	1
  74              		.syntax unified
  75              		.code	16
  76              		.thumb_func
  77              		.fpu softvfp
  78              		.type	_GetAvailWriteSpace, %function
  79              	_GetAvailWriteSpace:
  80              	.LFB4:
  81              		.file 1 ".\\utilities\\src\\segger_rtt.c"
   1:.\utilities\src/segger_rtt.c **** /*********************************************************************
   2:.\utilities\src/segger_rtt.c **** *               SEGGER MICROCONTROLLER GmbH & Co. KG                 *
   3:.\utilities\src/segger_rtt.c **** *       Solutions for real time microcontroller applications         *
   4:.\utilities\src/segger_rtt.c **** **********************************************************************
   5:.\utilities\src/segger_rtt.c **** *                                                                    *
   6:.\utilities\src/segger_rtt.c **** *       (c) 2014 - 2016  SEGGER Microcontroller GmbH & Co. KG        *
   7:.\utilities\src/segger_rtt.c **** *                                                                    *
   8:.\utilities\src/segger_rtt.c **** *       www.segger.com     Support: support@segger.com               *
   9:.\utilities\src/segger_rtt.c **** *                                                                    *
  10:.\utilities\src/segger_rtt.c **** **********************************************************************
  11:.\utilities\src/segger_rtt.c **** *                                                                    *
  12:.\utilities\src/segger_rtt.c **** *       SEGGER RTT * Real Time Transfer for embedded targets         *
  13:.\utilities\src/segger_rtt.c **** *                                                                    *
  14:.\utilities\src/segger_rtt.c **** **********************************************************************
  15:.\utilities\src/segger_rtt.c **** *                                                                    *
  16:.\utilities\src/segger_rtt.c **** * All rights reserved.                                               *
  17:.\utilities\src/segger_rtt.c **** *                                                                    *
  18:.\utilities\src/segger_rtt.c **** * * This software may in its unmodified form be freely redistributed *
  19:.\utilities\src/segger_rtt.c **** *   in source form.                                                  *
  20:.\utilities\src/segger_rtt.c **** * * The source code may be modified, provided the source code        *
  21:.\utilities\src/segger_rtt.c **** *   retains the above copyright notice, this list of conditions and  *
  22:.\utilities\src/segger_rtt.c **** *   the following disclaimer.                                        *
  23:.\utilities\src/segger_rtt.c **** * * Modified versions of this software in source or linkable form    *
  24:.\utilities\src/segger_rtt.c **** *   may not be distributed without prior consent of SEGGER.          *
  25:.\utilities\src/segger_rtt.c **** * * This software may only be used for communication with SEGGER     *
  26:.\utilities\src/segger_rtt.c **** *   J-Link debug probes.                                             *
  27:.\utilities\src/segger_rtt.c **** *                                                                    *
  28:.\utilities\src/segger_rtt.c **** * THIS SOFTWARE IS PROVIDED BY THE COPYRIGHT HOLDERS AND             *
  29:.\utilities\src/segger_rtt.c **** * CONTRIBUTORS "AS IS" AND ANY EXPRESS OR IMPLIED WARRANTIES,        *
  30:.\utilities\src/segger_rtt.c **** * INCLUDING, BUT NOT LIMITED TO, THE IMPLIED WARRANTIES OF           *
  31:.\utilities\src/segger_rtt.c **** * MERCHANTABILITY AND FITNESS FOR A PARTICULAR PURPOSE ARE           *
  32:.\utilities\src/segger_rtt.c **** * DISCLAIMED. IN NO EVENT SHALL SEGGER Microcontroller BE LIABLE FOR *
  33:.\utilities\src/segger_rtt.c **** * ANY DIRECT, INDIRECT, INCIDENTAL, SPECIAL, EXEMPLARY, OR           *
ARM GAS  C:\Users\claym\AppData\Local\Temp\ccb01mZK.s 			page 3


  34:.\utilities\src/segger_rtt.c **** * CONSEQUENTIAL DAMAGES (INCLUDING, BUT NOT LIMITED TO, PROCUREMENT  *
  35:.\utilities\src/segger_rtt.c **** * OF SUBSTITUTE GOODS OR SERVICES; LOSS OF USE, DATA, OR PROFITS;    *
  36:.\utilities\src/segger_rtt.c **** * OR BUSINESS INTERRUPTION) HOWEVER CAUSED AND ON ANY THEORY OF      *
  37:.\utilities\src/segger_rtt.c **** * LIABILITY, WHETHER IN CONTRACT, STRICT LIABILITY, OR TORT          *
  38:.\utilities\src/segger_rtt.c **** * (INCLUDING NEGLIGENCE OR OTHERWISE) ARISING IN ANY WAY OUT OF THE  *
  39:.\utilities\src/segger_rtt.c **** * USE OF THIS SOFTWARE, EVEN IF ADVISED OF THE POSSIBILITY OF SUCH   *
  40:.\utilities\src/segger_rtt.c **** * DAMAGE.                                                            *
  41:.\utilities\src/segger_rtt.c **** *                                                                    *
  42:.\utilities\src/segger_rtt.c **** **********************************************************************
  43:.\utilities\src/segger_rtt.c **** *                                                                    *
  44:.\utilities\src/segger_rtt.c **** *       RTT version: 5.10p                                           *
  45:.\utilities\src/segger_rtt.c **** *                                                                    *
  46:.\utilities\src/segger_rtt.c **** **********************************************************************
  47:.\utilities\src/segger_rtt.c **** ---------------------------END-OF-HEADER------------------------------
  48:.\utilities\src/segger_rtt.c **** File    : SEGGER_RTT.c
  49:.\utilities\src/segger_rtt.c **** Purpose : Implementation of SEGGER real-time transfer (RTT) which
  50:.\utilities\src/segger_rtt.c ****           allows real-time communication on targets which support
  51:.\utilities\src/segger_rtt.c ****           debugger memory accesses while the CPU is running.
  52:.\utilities\src/segger_rtt.c **** 
  53:.\utilities\src/segger_rtt.c **** Additional information:
  54:.\utilities\src/segger_rtt.c ****           Type "int" is assumed to be 32-bits in size
  55:.\utilities\src/segger_rtt.c ****           H->T    Host to target communication
  56:.\utilities\src/segger_rtt.c ****           T->H    Target to host communication
  57:.\utilities\src/segger_rtt.c **** 
  58:.\utilities\src/segger_rtt.c ****           RTT channel 0 is always present and reserved for Terminal usage.
  59:.\utilities\src/segger_rtt.c ****           Name is fixed to "Terminal"
  60:.\utilities\src/segger_rtt.c **** 
  61:.\utilities\src/segger_rtt.c **** ----------------------------------------------------------------------
  62:.\utilities\src/segger_rtt.c **** */
  63:.\utilities\src/segger_rtt.c **** 
  64:.\utilities\src/segger_rtt.c **** #include "SEGGER_RTT.h"
  65:.\utilities\src/segger_rtt.c **** 
  66:.\utilities\src/segger_rtt.c **** #include <string.h>                 // for memcpy
  67:.\utilities\src/segger_rtt.c **** 
  68:.\utilities\src/segger_rtt.c **** /*********************************************************************
  69:.\utilities\src/segger_rtt.c **** *
  70:.\utilities\src/segger_rtt.c **** *       Configuration, default values
  71:.\utilities\src/segger_rtt.c **** *
  72:.\utilities\src/segger_rtt.c **** **********************************************************************
  73:.\utilities\src/segger_rtt.c **** */
  74:.\utilities\src/segger_rtt.c **** 
  75:.\utilities\src/segger_rtt.c **** #ifndef   BUFFER_SIZE_UP
  76:.\utilities\src/segger_rtt.c ****   #define BUFFER_SIZE_UP                                  1024  // Size of the buffer for terminal 
  77:.\utilities\src/segger_rtt.c **** #endif
  78:.\utilities\src/segger_rtt.c **** 
  79:.\utilities\src/segger_rtt.c **** #ifndef   BUFFER_SIZE_DOWN
  80:.\utilities\src/segger_rtt.c ****   #define BUFFER_SIZE_DOWN                                16    // Size of the buffer for terminal 
  81:.\utilities\src/segger_rtt.c **** #endif
  82:.\utilities\src/segger_rtt.c **** 
  83:.\utilities\src/segger_rtt.c **** #ifndef   SEGGER_RTT_MAX_NUM_UP_BUFFERS
  84:.\utilities\src/segger_rtt.c ****   #define SEGGER_RTT_MAX_NUM_UP_BUFFERS                    2    // Number of up-buffers (T->H) avai
  85:.\utilities\src/segger_rtt.c **** #endif
  86:.\utilities\src/segger_rtt.c **** 
  87:.\utilities\src/segger_rtt.c **** #ifndef   SEGGER_RTT_MAX_NUM_DOWN_BUFFERS
  88:.\utilities\src/segger_rtt.c ****   #define SEGGER_RTT_MAX_NUM_DOWN_BUFFERS                  2    // Number of down-buffers (H->T) av
  89:.\utilities\src/segger_rtt.c **** #endif
  90:.\utilities\src/segger_rtt.c **** 
ARM GAS  C:\Users\claym\AppData\Local\Temp\ccb01mZK.s 			page 4


  91:.\utilities\src/segger_rtt.c **** #ifndef   SEGGER_RTT_MODE_DEFAULT
  92:.\utilities\src/segger_rtt.c ****   #define SEGGER_RTT_MODE_DEFAULT                         SEGGER_RTT_MODE_NO_BLOCK_SKIP
  93:.\utilities\src/segger_rtt.c **** #endif
  94:.\utilities\src/segger_rtt.c **** 
  95:.\utilities\src/segger_rtt.c **** #ifndef   SEGGER_RTT_LOCK
  96:.\utilities\src/segger_rtt.c ****   #define SEGGER_RTT_LOCK()
  97:.\utilities\src/segger_rtt.c **** #endif
  98:.\utilities\src/segger_rtt.c **** 
  99:.\utilities\src/segger_rtt.c **** #ifndef   SEGGER_RTT_UNLOCK
 100:.\utilities\src/segger_rtt.c ****   #define SEGGER_RTT_UNLOCK()
 101:.\utilities\src/segger_rtt.c **** #endif
 102:.\utilities\src/segger_rtt.c **** 
 103:.\utilities\src/segger_rtt.c **** #ifndef   STRLEN
 104:.\utilities\src/segger_rtt.c ****   #define STRLEN(a)                                       strlen((a))
 105:.\utilities\src/segger_rtt.c **** #endif
 106:.\utilities\src/segger_rtt.c **** 
 107:.\utilities\src/segger_rtt.c **** #ifndef   MEMCPY
 108:.\utilities\src/segger_rtt.c ****   #define MEMCPY(pDest, pSrc, NumBytes)                   memcpy((pDest), (pSrc), (NumBytes))
 109:.\utilities\src/segger_rtt.c **** #endif
 110:.\utilities\src/segger_rtt.c **** 
 111:.\utilities\src/segger_rtt.c **** #ifndef   MIN
 112:.\utilities\src/segger_rtt.c ****   #define MIN(a, b)         (((a) < (b)) ? (a) : (b))
 113:.\utilities\src/segger_rtt.c **** #endif
 114:.\utilities\src/segger_rtt.c **** 
 115:.\utilities\src/segger_rtt.c **** #ifndef   MAX
 116:.\utilities\src/segger_rtt.c ****   #define MAX(a, b)         (((a) > (b)) ? (a) : (b))
 117:.\utilities\src/segger_rtt.c **** #endif
 118:.\utilities\src/segger_rtt.c **** //
 119:.\utilities\src/segger_rtt.c **** // For some environments, NULL may not be defined until certain headers are included
 120:.\utilities\src/segger_rtt.c **** //
 121:.\utilities\src/segger_rtt.c **** #ifndef NULL
 122:.\utilities\src/segger_rtt.c ****   #define NULL 0
 123:.\utilities\src/segger_rtt.c **** #endif
 124:.\utilities\src/segger_rtt.c **** 
 125:.\utilities\src/segger_rtt.c **** /*********************************************************************
 126:.\utilities\src/segger_rtt.c **** *
 127:.\utilities\src/segger_rtt.c **** *       Static const data
 128:.\utilities\src/segger_rtt.c **** *
 129:.\utilities\src/segger_rtt.c **** **********************************************************************
 130:.\utilities\src/segger_rtt.c **** */
 131:.\utilities\src/segger_rtt.c **** 
 132:.\utilities\src/segger_rtt.c **** static unsigned char _aTerminalId[16] = { '0', '1', '2', '3', '4', '5', '6', '7', '8', '9', 'A', 'B
 133:.\utilities\src/segger_rtt.c **** 
 134:.\utilities\src/segger_rtt.c **** /*********************************************************************
 135:.\utilities\src/segger_rtt.c **** *
 136:.\utilities\src/segger_rtt.c **** *       Static data
 137:.\utilities\src/segger_rtt.c **** *
 138:.\utilities\src/segger_rtt.c **** **********************************************************************
 139:.\utilities\src/segger_rtt.c **** */
 140:.\utilities\src/segger_rtt.c **** //
 141:.\utilities\src/segger_rtt.c **** // Allocate buffers for channel 0
 142:.\utilities\src/segger_rtt.c **** //
 143:.\utilities\src/segger_rtt.c **** static char _acUpBuffer  [BUFFER_SIZE_UP];
 144:.\utilities\src/segger_rtt.c **** static char _acDownBuffer[BUFFER_SIZE_DOWN];
 145:.\utilities\src/segger_rtt.c **** static char _scopeUpBuffer[BUFFER_SIZE_UP*2]; 
 146:.\utilities\src/segger_rtt.c **** static char _scopeDownBuffer[BUFFER_SIZE_DOWN]; 
 147:.\utilities\src/segger_rtt.c **** //
ARM GAS  C:\Users\claym\AppData\Local\Temp\ccb01mZK.s 			page 5


 148:.\utilities\src/segger_rtt.c **** // Initialize SEGGER Real-time-Terminal control block (CB)
 149:.\utilities\src/segger_rtt.c **** //
 150:.\utilities\src/segger_rtt.c **** #ifdef __GNUC__
 151:.\utilities\src/segger_rtt.c **** SEGGER_RTT_CB _SEGGER_RTT __attribute__((section(".RTTSection"))); 
 152:.\utilities\src/segger_rtt.c **** #else
 153:.\utilities\src/segger_rtt.c **** SEGGER_RTT_CB _SEGGER_RTT __attribute__((section(".ARM.__at_0x10007000"), zero_init));
 154:.\utilities\src/segger_rtt.c **** #endif 
 155:.\utilities\src/segger_rtt.c **** static char _ActiveTerminal;
 156:.\utilities\src/segger_rtt.c **** 
 157:.\utilities\src/segger_rtt.c **** /*********************************************************************
 158:.\utilities\src/segger_rtt.c **** *
 159:.\utilities\src/segger_rtt.c **** *       Static functions
 160:.\utilities\src/segger_rtt.c **** *
 161:.\utilities\src/segger_rtt.c **** **********************************************************************
 162:.\utilities\src/segger_rtt.c **** */
 163:.\utilities\src/segger_rtt.c **** 
 164:.\utilities\src/segger_rtt.c **** /*********************************************************************
 165:.\utilities\src/segger_rtt.c **** *
 166:.\utilities\src/segger_rtt.c **** *       _DoInit()
 167:.\utilities\src/segger_rtt.c **** *
 168:.\utilities\src/segger_rtt.c **** *  Function description
 169:.\utilities\src/segger_rtt.c **** *    Initializes the control block an buffers.
 170:.\utilities\src/segger_rtt.c **** *    May only be called via INIT() to avoid overriding settings.
 171:.\utilities\src/segger_rtt.c **** *
 172:.\utilities\src/segger_rtt.c **** */
 173:.\utilities\src/segger_rtt.c **** #define INIT()  do {                                            \
 174:.\utilities\src/segger_rtt.c ****                   if (_SEGGER_RTT.acID[0] == '\0') { _DoInit(); }  \
 175:.\utilities\src/segger_rtt.c ****                 } while (0)
 176:.\utilities\src/segger_rtt.c **** static void _DoInit(void) {
 177:.\utilities\src/segger_rtt.c ****   SEGGER_RTT_CB* p;
 178:.\utilities\src/segger_rtt.c ****   //
 179:.\utilities\src/segger_rtt.c ****   // Initialize control block
 180:.\utilities\src/segger_rtt.c ****   //
 181:.\utilities\src/segger_rtt.c ****   p = &_SEGGER_RTT;
 182:.\utilities\src/segger_rtt.c ****   p->MaxNumUpBuffers    = SEGGER_RTT_MAX_NUM_UP_BUFFERS;
 183:.\utilities\src/segger_rtt.c ****   p->MaxNumDownBuffers  = SEGGER_RTT_MAX_NUM_DOWN_BUFFERS;
 184:.\utilities\src/segger_rtt.c ****   //
 185:.\utilities\src/segger_rtt.c ****   // Initialize up buffer 0
 186:.\utilities\src/segger_rtt.c ****   //
 187:.\utilities\src/segger_rtt.c ****   p->aUp[0].sName         = "Terminal";
 188:.\utilities\src/segger_rtt.c ****   p->aUp[0].pBuffer       = _acUpBuffer;
 189:.\utilities\src/segger_rtt.c ****   p->aUp[0].SizeOfBuffer  = sizeof(_acUpBuffer);
 190:.\utilities\src/segger_rtt.c ****   p->aUp[0].RdOff         = 0u;
 191:.\utilities\src/segger_rtt.c ****   p->aUp[0].WrOff         = 0u;
 192:.\utilities\src/segger_rtt.c ****   p->aUp[0].Flags         = SEGGER_RTT_MODE_DEFAULT;
 193:.\utilities\src/segger_rtt.c ****   //
 194:.\utilities\src/segger_rtt.c ****   // Initialize down buffer 0
 195:.\utilities\src/segger_rtt.c ****   //
 196:.\utilities\src/segger_rtt.c ****   p->aDown[0].sName         = "Terminal";
 197:.\utilities\src/segger_rtt.c ****   p->aDown[0].pBuffer       = _acDownBuffer;
 198:.\utilities\src/segger_rtt.c ****   p->aDown[0].SizeOfBuffer  = sizeof(_acDownBuffer);
 199:.\utilities\src/segger_rtt.c ****   p->aDown[0].RdOff         = 0u;
 200:.\utilities\src/segger_rtt.c ****   p->aDown[0].WrOff         = 0u;
 201:.\utilities\src/segger_rtt.c ****   p->aDown[0].Flags         = SEGGER_RTT_MODE_DEFAULT;
 202:.\utilities\src/segger_rtt.c **** 	
 203:.\utilities\src/segger_rtt.c **** 	p->aUp[1].sName						= "JScope_u1"; 
 204:.\utilities\src/segger_rtt.c **** 	p->aUp[1].pBuffer					= (char *)_scopeUpBuffer; 
ARM GAS  C:\Users\claym\AppData\Local\Temp\ccb01mZK.s 			page 6


 205:.\utilities\src/segger_rtt.c **** 	p->aUp[1].SizeOfBuffer  	= sizeof(_scopeUpBuffer);
 206:.\utilities\src/segger_rtt.c ****   p->aUp[1].RdOff         	= 0u;
 207:.\utilities\src/segger_rtt.c ****   p->aUp[1].WrOff         	= 0u;
 208:.\utilities\src/segger_rtt.c ****   p->aUp[1].Flags         	= SEGGER_RTT_MODE_DEFAULT;
 209:.\utilities\src/segger_rtt.c **** 	
 210:.\utilities\src/segger_rtt.c **** 	p->aDown[1].sName						= "JScope_u1"; 
 211:.\utilities\src/segger_rtt.c **** 	p->aDown[1].pBuffer					= (char *)_scopeDownBuffer; 
 212:.\utilities\src/segger_rtt.c **** 	p->aDown[1].SizeOfBuffer  	= sizeof(_scopeDownBuffer);
 213:.\utilities\src/segger_rtt.c ****   p->aDown[1].RdOff         	= 0u;
 214:.\utilities\src/segger_rtt.c ****   p->aDown[1].WrOff         	= 0u;
 215:.\utilities\src/segger_rtt.c ****   p->aDown[1].Flags         	= SEGGER_RTT_MODE_DEFAULT;
 216:.\utilities\src/segger_rtt.c ****   //
 217:.\utilities\src/segger_rtt.c ****   // Finish initialization of the control block.
 218:.\utilities\src/segger_rtt.c ****   // Copy Id string in three steps to make sure "SEGGER RTT" is not found
 219:.\utilities\src/segger_rtt.c ****   // in initializer memory (usually flash) by J-Link
 220:.\utilities\src/segger_rtt.c ****   //
 221:.\utilities\src/segger_rtt.c ****   strcpy(&p->acID[7], "RTT");
 222:.\utilities\src/segger_rtt.c ****   strcpy(&p->acID[0], "SEGGER");
 223:.\utilities\src/segger_rtt.c ****   p->acID[6] = ' ';
 224:.\utilities\src/segger_rtt.c **** }
 225:.\utilities\src/segger_rtt.c **** 
 226:.\utilities\src/segger_rtt.c **** /*********************************************************************
 227:.\utilities\src/segger_rtt.c **** *
 228:.\utilities\src/segger_rtt.c **** *       _WriteBlocking()
 229:.\utilities\src/segger_rtt.c **** *
 230:.\utilities\src/segger_rtt.c **** *  Function description
 231:.\utilities\src/segger_rtt.c **** *    Stores a specified number of characters in SEGGER RTT ring buffer
 232:.\utilities\src/segger_rtt.c **** *    and updates the associated write pointer which is periodically
 233:.\utilities\src/segger_rtt.c **** *    read by the host.
 234:.\utilities\src/segger_rtt.c **** *    The caller is responsible for managing the write chunk sizes as
 235:.\utilities\src/segger_rtt.c **** *    _WriteBlocking() will block until all data has been posted successfully.
 236:.\utilities\src/segger_rtt.c **** *
 237:.\utilities\src/segger_rtt.c **** *  Parameters
 238:.\utilities\src/segger_rtt.c **** *    pRing        Ring buffer to post to.
 239:.\utilities\src/segger_rtt.c **** *    pBuffer      Pointer to character array. Does not need to point to a \0 terminated string.
 240:.\utilities\src/segger_rtt.c **** *    NumBytes     Number of bytes to be stored in the SEGGER RTT control block.
 241:.\utilities\src/segger_rtt.c **** *
 242:.\utilities\src/segger_rtt.c **** *  Return value
 243:.\utilities\src/segger_rtt.c **** *    >= 0 - Number of bytes written into buffer.
 244:.\utilities\src/segger_rtt.c **** */
 245:.\utilities\src/segger_rtt.c **** static unsigned _WriteBlocking(SEGGER_RTT_BUFFER_UP* pRing, const char* pBuffer, unsigned NumBytes)
 246:.\utilities\src/segger_rtt.c ****   unsigned NumBytesToWrite;
 247:.\utilities\src/segger_rtt.c ****   unsigned NumBytesWritten;
 248:.\utilities\src/segger_rtt.c ****   unsigned RdOff;
 249:.\utilities\src/segger_rtt.c ****   unsigned WrOff;
 250:.\utilities\src/segger_rtt.c ****   //
 251:.\utilities\src/segger_rtt.c ****   // Write data to buffer and handle wrap-around if necessary
 252:.\utilities\src/segger_rtt.c ****   //
 253:.\utilities\src/segger_rtt.c ****   NumBytesWritten = 0u;
 254:.\utilities\src/segger_rtt.c ****   WrOff = pRing->WrOff;
 255:.\utilities\src/segger_rtt.c ****   do {
 256:.\utilities\src/segger_rtt.c ****     RdOff = pRing->RdOff;                         // May be changed by host (debug probe) in the me
 257:.\utilities\src/segger_rtt.c ****     if (RdOff > WrOff) {
 258:.\utilities\src/segger_rtt.c ****       NumBytesToWrite = RdOff - WrOff - 1u;
 259:.\utilities\src/segger_rtt.c ****     } else {
 260:.\utilities\src/segger_rtt.c ****       NumBytesToWrite = pRing->SizeOfBuffer - (WrOff - RdOff + 1u);
 261:.\utilities\src/segger_rtt.c ****     }
ARM GAS  C:\Users\claym\AppData\Local\Temp\ccb01mZK.s 			page 7


 262:.\utilities\src/segger_rtt.c ****     NumBytesToWrite = MIN(NumBytesToWrite, (pRing->SizeOfBuffer - WrOff));      // Number of bytes 
 263:.\utilities\src/segger_rtt.c ****     NumBytesToWrite = MIN(NumBytesToWrite, NumBytes);
 264:.\utilities\src/segger_rtt.c ****     memcpy(pRing->pBuffer + WrOff, pBuffer, NumBytesToWrite);
 265:.\utilities\src/segger_rtt.c ****     NumBytesWritten += NumBytesToWrite;
 266:.\utilities\src/segger_rtt.c ****     pBuffer         += NumBytesToWrite;
 267:.\utilities\src/segger_rtt.c ****     NumBytes        -= NumBytesToWrite;
 268:.\utilities\src/segger_rtt.c ****     WrOff           += NumBytesToWrite;
 269:.\utilities\src/segger_rtt.c ****     if (WrOff == pRing->SizeOfBuffer) {
 270:.\utilities\src/segger_rtt.c ****       WrOff = 0u;
 271:.\utilities\src/segger_rtt.c ****     }
 272:.\utilities\src/segger_rtt.c ****     pRing->WrOff = WrOff;
 273:.\utilities\src/segger_rtt.c ****   } while (NumBytes);
 274:.\utilities\src/segger_rtt.c ****   //
 275:.\utilities\src/segger_rtt.c ****   return NumBytesWritten;
 276:.\utilities\src/segger_rtt.c **** }
 277:.\utilities\src/segger_rtt.c **** 
 278:.\utilities\src/segger_rtt.c **** /*********************************************************************
 279:.\utilities\src/segger_rtt.c **** *
 280:.\utilities\src/segger_rtt.c **** *       _WriteNoCheck()
 281:.\utilities\src/segger_rtt.c **** *
 282:.\utilities\src/segger_rtt.c **** *  Function description
 283:.\utilities\src/segger_rtt.c **** *    Stores a specified number of characters in SEGGER RTT ring buffer
 284:.\utilities\src/segger_rtt.c **** *    and updates the associated write pointer which is periodically
 285:.\utilities\src/segger_rtt.c **** *    read by the host.
 286:.\utilities\src/segger_rtt.c **** *    It is callers responsibility to make sure data actually fits in buffer.
 287:.\utilities\src/segger_rtt.c **** *
 288:.\utilities\src/segger_rtt.c **** *  Parameters
 289:.\utilities\src/segger_rtt.c **** *    pRing        Ring buffer to post to.
 290:.\utilities\src/segger_rtt.c **** *    pBuffer      Pointer to character array. Does not need to point to a \0 terminated string.
 291:.\utilities\src/segger_rtt.c **** *    NumBytes     Number of bytes to be stored in the SEGGER RTT control block.
 292:.\utilities\src/segger_rtt.c **** *
 293:.\utilities\src/segger_rtt.c **** *  Notes
 294:.\utilities\src/segger_rtt.c **** *    (1) If there might not be enough space in the "Up"-buffer, call _WriteBlocking
 295:.\utilities\src/segger_rtt.c **** */
 296:.\utilities\src/segger_rtt.c **** static void _WriteNoCheck(SEGGER_RTT_BUFFER_UP* pRing, const char* pData, unsigned NumBytes) {
 297:.\utilities\src/segger_rtt.c ****   unsigned NumBytesAtOnce;
 298:.\utilities\src/segger_rtt.c ****   unsigned WrOff;
 299:.\utilities\src/segger_rtt.c ****   unsigned Rem;
 300:.\utilities\src/segger_rtt.c **** 
 301:.\utilities\src/segger_rtt.c ****   WrOff = pRing->WrOff;
 302:.\utilities\src/segger_rtt.c ****   Rem = pRing->SizeOfBuffer - WrOff;
 303:.\utilities\src/segger_rtt.c ****   if (Rem > NumBytes) {
 304:.\utilities\src/segger_rtt.c ****     //
 305:.\utilities\src/segger_rtt.c ****     // All data fits before wrap around
 306:.\utilities\src/segger_rtt.c ****     //
 307:.\utilities\src/segger_rtt.c ****     memcpy(pRing->pBuffer + WrOff, pData, NumBytes);
 308:.\utilities\src/segger_rtt.c ****     pRing->WrOff = WrOff + NumBytes;
 309:.\utilities\src/segger_rtt.c ****   } else {
 310:.\utilities\src/segger_rtt.c ****     //
 311:.\utilities\src/segger_rtt.c ****     // We reach the end of the buffer, so need to wrap around
 312:.\utilities\src/segger_rtt.c ****     //
 313:.\utilities\src/segger_rtt.c ****     NumBytesAtOnce = Rem;
 314:.\utilities\src/segger_rtt.c ****     memcpy(pRing->pBuffer + WrOff, pData, NumBytesAtOnce);
 315:.\utilities\src/segger_rtt.c ****     NumBytesAtOnce = NumBytes - Rem;
 316:.\utilities\src/segger_rtt.c ****     memcpy(pRing->pBuffer, pData + Rem, NumBytesAtOnce);
 317:.\utilities\src/segger_rtt.c ****     pRing->WrOff = NumBytesAtOnce;
 318:.\utilities\src/segger_rtt.c ****   }
ARM GAS  C:\Users\claym\AppData\Local\Temp\ccb01mZK.s 			page 8


 319:.\utilities\src/segger_rtt.c **** }
 320:.\utilities\src/segger_rtt.c **** 
 321:.\utilities\src/segger_rtt.c **** /*********************************************************************
 322:.\utilities\src/segger_rtt.c **** *
 323:.\utilities\src/segger_rtt.c **** *       _PostTerminalSwitch()
 324:.\utilities\src/segger_rtt.c **** *
 325:.\utilities\src/segger_rtt.c **** *  Function description
 326:.\utilities\src/segger_rtt.c **** *    Switch terminal to the given terminal ID.  It is the caller's
 327:.\utilities\src/segger_rtt.c **** *    responsibility to ensure the terminal ID is correct and there is
 328:.\utilities\src/segger_rtt.c **** *    enough space in the buffer for this to complete successfully.
 329:.\utilities\src/segger_rtt.c **** *
 330:.\utilities\src/segger_rtt.c **** *  Parameters
 331:.\utilities\src/segger_rtt.c **** *    pRing        Ring buffer to post to.
 332:.\utilities\src/segger_rtt.c **** *    TerminalId   Terminal ID to switch to.
 333:.\utilities\src/segger_rtt.c **** */
 334:.\utilities\src/segger_rtt.c **** static void _PostTerminalSwitch(SEGGER_RTT_BUFFER_UP* pRing, unsigned char TerminalId) {
 335:.\utilities\src/segger_rtt.c ****   char ac[2];
 336:.\utilities\src/segger_rtt.c **** 
 337:.\utilities\src/segger_rtt.c ****   ac[0] = 0xFFu;
 338:.\utilities\src/segger_rtt.c ****   ac[1] = _aTerminalId[TerminalId];  // Caller made already sure that TerminalId does not exceed ou
 339:.\utilities\src/segger_rtt.c ****   _WriteBlocking(pRing, ac, 2u);
 340:.\utilities\src/segger_rtt.c **** }
 341:.\utilities\src/segger_rtt.c **** 
 342:.\utilities\src/segger_rtt.c **** /*********************************************************************
 343:.\utilities\src/segger_rtt.c **** *
 344:.\utilities\src/segger_rtt.c **** *       _GetAvailWriteSpace()
 345:.\utilities\src/segger_rtt.c **** *
 346:.\utilities\src/segger_rtt.c **** *  Function description
 347:.\utilities\src/segger_rtt.c **** *    Returns the number of bytes that can be written to the ring
 348:.\utilities\src/segger_rtt.c **** *    buffer without blocking.
 349:.\utilities\src/segger_rtt.c **** *
 350:.\utilities\src/segger_rtt.c **** *  Parameters
 351:.\utilities\src/segger_rtt.c **** *    pRing        Ring buffer to check.
 352:.\utilities\src/segger_rtt.c **** *
 353:.\utilities\src/segger_rtt.c **** *  Return value
 354:.\utilities\src/segger_rtt.c **** *    Number of bytes that are free in the buffer.
 355:.\utilities\src/segger_rtt.c **** */
 356:.\utilities\src/segger_rtt.c **** static unsigned _GetAvailWriteSpace(SEGGER_RTT_BUFFER_UP* pRing) {
  82              		.loc 1 356 0
  83              		.cfi_startproc
  84              		@ args = 0, pretend = 0, frame = 0
  85              		@ frame_needed = 0, uses_anonymous_args = 0
  86              		@ link register save eliminated.
  87              	.LVL0:
  88              	@ .\utilities\src\segger_rtt.c:364:   RdOff = pRing->RdOff;
 357:.\utilities\src/segger_rtt.c ****   unsigned RdOff;
 358:.\utilities\src/segger_rtt.c ****   unsigned WrOff;
 359:.\utilities\src/segger_rtt.c ****   unsigned r;
 360:.\utilities\src/segger_rtt.c ****   //
 361:.\utilities\src/segger_rtt.c ****   // Avoid warnings regarding volatile access order.  It's not a problem
 362:.\utilities\src/segger_rtt.c ****   // in this case, but dampen compiler enthusiasm.
 363:.\utilities\src/segger_rtt.c ****   //
 364:.\utilities\src/segger_rtt.c ****   RdOff = pRing->RdOff;
  89              		.loc 1 364 0
  90 0000 0369     		ldr	r3, [r0, #16]	@ RdOff, pRing_7(D)->RdOff
  91              	.LVL1:
  92              	@ .\utilities\src\segger_rtt.c:365:   WrOff = pRing->WrOff;
ARM GAS  C:\Users\claym\AppData\Local\Temp\ccb01mZK.s 			page 9


 365:.\utilities\src/segger_rtt.c ****   WrOff = pRing->WrOff;
  93              		.loc 1 365 0
  94 0002 C268     		ldr	r2, [r0, #12]	@ WrOff, pRing_7(D)->WrOff
  95              	.LVL2:
  96              	@ .\utilities\src\segger_rtt.c:366:   if (RdOff <= WrOff) {
 366:.\utilities\src/segger_rtt.c ****   if (RdOff <= WrOff) {
  97              		.loc 1 366 0
  98 0004 9342     		cmp	r3, r2	@ RdOff, WrOff
  99 0006 01D8     		bhi	.L2	@,
 100              	@ .\utilities\src\segger_rtt.c:367:     r = pRing->SizeOfBuffer - 1u - WrOff + RdOff;
 367:.\utilities\src/segger_rtt.c ****     r = pRing->SizeOfBuffer - 1u - WrOff + RdOff;
 101              		.loc 1 367 0
 102 0008 8068     		ldr	r0, [r0, #8]	@ pRing_7(D)->SizeOfBuffer, pRing_7(D)->SizeOfBuffer
 103              	.LVL3:
 104 000a 1B18     		adds	r3, r3, r0	@ tmp118, RdOff, pRing_7(D)->SizeOfBuffer
 105              	.LVL4:
 106              	.L2:
 107              	@ .\utilities\src\segger_rtt.c:369:     r = RdOff - WrOff - 1u;
 368:.\utilities\src/segger_rtt.c ****   } else {
 369:.\utilities\src/segger_rtt.c ****     r = RdOff - WrOff - 1u;
 108              		.loc 1 369 0
 109 000c 013B     		subs	r3, r3, #1	@ tmp121,
 110 000e 981A     		subs	r0, r3, r2	@ <retval>, tmp121, WrOff
 111              	.LVL5:
 112              	@ .\utilities\src\segger_rtt.c:372: }
 370:.\utilities\src/segger_rtt.c ****   }
 371:.\utilities\src/segger_rtt.c ****   return r;
 372:.\utilities\src/segger_rtt.c **** }
 113              		.loc 1 372 0
 114              		@ sp needed	@
 115 0010 7047     		bx	lr
 116              		.cfi_endproc
 117              	.LFE4:
 118              		.size	_GetAvailWriteSpace, .-_GetAvailWriteSpace
 119              		.align	1
 120              		.syntax unified
 121              		.code	16
 122              		.thumb_func
 123              		.fpu softvfp
 124              		.type	_WriteNoCheck, %function
 125              	_WriteNoCheck:
 126              	.LFB2:
 296:.\utilities\src/segger_rtt.c ****   unsigned NumBytesAtOnce;
 127              		.loc 1 296 0
 128              		.cfi_startproc
 129              		@ args = 0, pretend = 0, frame = 8
 130              		@ frame_needed = 0, uses_anonymous_args = 0
 131              	.LVL6:
 132 0012 F7B5     		push	{r0, r1, r2, r4, r5, r6, r7, lr}	@
 133              	.LCFI0:
 134              		.cfi_def_cfa_offset 32
 135              		.cfi_offset 0, -32
 136              		.cfi_offset 1, -28
 137              		.cfi_offset 2, -24
 138              		.cfi_offset 4, -20
 139              		.cfi_offset 5, -16
 140              		.cfi_offset 6, -12
ARM GAS  C:\Users\claym\AppData\Local\Temp\ccb01mZK.s 			page 10


 141              		.cfi_offset 7, -8
 142              		.cfi_offset 14, -4
 143              	@ .\utilities\src\segger_rtt.c:301:   WrOff = pRing->WrOff;
 301:.\utilities\src/segger_rtt.c ****   Rem = pRing->SizeOfBuffer - WrOff;
 144              		.loc 1 301 0
 145 0014 C368     		ldr	r3, [r0, #12]	@ WrOff, pRing_11(D)->WrOff
 146              	@ .\utilities\src\segger_rtt.c:296: static void _WriteNoCheck(SEGGER_RTT_BUFFER_UP* pRing, const ch
 296:.\utilities\src/segger_rtt.c ****   unsigned NumBytesAtOnce;
 147              		.loc 1 296 0
 148 0016 1400     		movs	r4, r2	@ NumBytes, NumBytes
 149              	@ .\utilities\src\segger_rtt.c:301:   WrOff = pRing->WrOff;
 301:.\utilities\src/segger_rtt.c ****   Rem = pRing->SizeOfBuffer - WrOff;
 150              		.loc 1 301 0
 151 0018 0193     		str	r3, [sp, #4]	@ WrOff, %sfp
 152              	.LVL7:
 153              	@ .\utilities\src\segger_rtt.c:302:   Rem = pRing->SizeOfBuffer - WrOff;
 302:.\utilities\src/segger_rtt.c ****   if (Rem > NumBytes) {
 154              		.loc 1 302 0
 155 001a 019A     		ldr	r2, [sp, #4]	@ WrOff, %sfp
 156              	.LVL8:
 157 001c 8368     		ldr	r3, [r0, #8]	@ tmp143, pRing_11(D)->SizeOfBuffer
 158              	.LVL9:
 159              	@ .\utilities\src\segger_rtt.c:296: static void _WriteNoCheck(SEGGER_RTT_BUFFER_UP* pRing, const ch
 296:.\utilities\src/segger_rtt.c ****   unsigned NumBytesAtOnce;
 160              		.loc 1 296 0
 161 001e 0500     		movs	r5, r0	@ pRing, pRing
 162              	@ .\utilities\src\segger_rtt.c:302:   Rem = pRing->SizeOfBuffer - WrOff;
 302:.\utilities\src/segger_rtt.c ****   if (Rem > NumBytes) {
 163              		.loc 1 302 0
 164 0020 9E1A     		subs	r6, r3, r2	@ Rem, tmp143, WrOff
 165              	.LVL10:
 166 0022 4368     		ldr	r3, [r0, #4]	@ tmp145, pRing_11(D)->pBuffer
 167              	@ .\utilities\src\segger_rtt.c:296: static void _WriteNoCheck(SEGGER_RTT_BUFFER_UP* pRing, const ch
 296:.\utilities\src/segger_rtt.c ****   unsigned NumBytesAtOnce;
 168              		.loc 1 296 0
 169 0024 0F00     		movs	r7, r1	@ pData, pData
 170 0026 9818     		adds	r0, r3, r2	@ _23, tmp145, WrOff
 171              	.LVL11:
 172              	@ .\utilities\src\segger_rtt.c:303:   if (Rem > NumBytes) {
 303:.\utilities\src/segger_rtt.c ****     //
 173              		.loc 1 303 0
 174 0028 A642     		cmp	r6, r4	@ Rem, NumBytes
 175 002a 06D9     		bls	.L5	@,
 176              	@ .\utilities\src\segger_rtt.c:307:     memcpy(pRing->pBuffer + WrOff, pData, NumBytes);
 307:.\utilities\src/segger_rtt.c ****     pRing->WrOff = WrOff + NumBytes;
 177              		.loc 1 307 0
 178 002c 2200     		movs	r2, r4	@, NumBytes
 179              	.LVL12:
 180 002e FFF7FEFF 		bl	memcpy	@
 181              	.LVL13:
 182              	@ .\utilities\src\segger_rtt.c:308:     pRing->WrOff = WrOff + NumBytes;
 308:.\utilities\src/segger_rtt.c ****   } else {
 183              		.loc 1 308 0
 184 0032 019B     		ldr	r3, [sp, #4]	@ WrOff, %sfp
 185 0034 1C19     		adds	r4, r3, r4	@ tmp129, WrOff, NumBytes
 186              	.LVL14:
 187              	.L7:
ARM GAS  C:\Users\claym\AppData\Local\Temp\ccb01mZK.s 			page 11


 188              	@ .\utilities\src\segger_rtt.c:317:     pRing->WrOff = NumBytesAtOnce;
 317:.\utilities\src/segger_rtt.c ****   }
 189              		.loc 1 317 0
 190 0036 EC60     		str	r4, [r5, #12]	@ NumBytesAtOnce, pRing_11(D)->WrOff
 191              	@ .\utilities\src\segger_rtt.c:319: }
 319:.\utilities\src/segger_rtt.c **** 
 192              		.loc 1 319 0
 193              		@ sp needed	@
 194              	.LVL15:
 195              	.LVL16:
 196              	.LVL17:
 197 0038 F7BD     		pop	{r0, r1, r2, r4, r5, r6, r7, pc}
 198              	.LVL18:
 199              	.L5:
 200              	@ .\utilities\src\segger_rtt.c:314:     memcpy(pRing->pBuffer + WrOff, pData, NumBytesAtOnce);
 314:.\utilities\src/segger_rtt.c ****     NumBytesAtOnce = NumBytes - Rem;
 201              		.loc 1 314 0
 202 003a 3200     		movs	r2, r6	@, Rem
 203              	.LVL19:
 204              	@ .\utilities\src\segger_rtt.c:315:     NumBytesAtOnce = NumBytes - Rem;
 315:.\utilities\src/segger_rtt.c ****     memcpy(pRing->pBuffer, pData + Rem, NumBytesAtOnce);
 205              		.loc 1 315 0
 206 003c A41B     		subs	r4, r4, r6	@ NumBytesAtOnce, NumBytes, Rem
 207              	.LVL20:
 208              	@ .\utilities\src\segger_rtt.c:314:     memcpy(pRing->pBuffer + WrOff, pData, NumBytesAtOnce);
 314:.\utilities\src/segger_rtt.c ****     NumBytesAtOnce = NumBytes - Rem;
 209              		.loc 1 314 0
 210 003e FFF7FEFF 		bl	memcpy	@
 211              	.LVL21:
 212              	@ .\utilities\src\segger_rtt.c:316:     memcpy(pRing->pBuffer, pData + Rem, NumBytesAtOnce);
 316:.\utilities\src/segger_rtt.c ****     pRing->WrOff = NumBytesAtOnce;
 213              		.loc 1 316 0
 214 0042 B919     		adds	r1, r7, r6	@ tmp136, pData, Rem
 215 0044 2200     		movs	r2, r4	@, NumBytesAtOnce
 216 0046 6868     		ldr	r0, [r5, #4]	@, pRing_11(D)->pBuffer
 217 0048 FFF7FEFF 		bl	memcpy	@
 218              	.LVL22:
 219 004c F3E7     		b	.L7	@
 220              		.cfi_endproc
 221              	.LFE2:
 222              		.size	_WriteNoCheck, .-_WriteNoCheck
 223              		.align	1
 224              		.syntax unified
 225              		.code	16
 226              		.thumb_func
 227              		.fpu softvfp
 228              		.type	_WriteBlocking, %function
 229              	_WriteBlocking:
 230              	.LFB1:
 245:.\utilities\src/segger_rtt.c ****   unsigned NumBytesToWrite;
 231              		.loc 1 245 0
 232              		.cfi_startproc
 233              		@ args = 0, pretend = 0, frame = 8
 234              		@ frame_needed = 0, uses_anonymous_args = 0
 235              	.LVL23:
 236              	@ .\utilities\src\segger_rtt.c:253:   NumBytesWritten = 0u;
 253:.\utilities\src/segger_rtt.c ****   WrOff = pRing->WrOff;
ARM GAS  C:\Users\claym\AppData\Local\Temp\ccb01mZK.s 			page 12


 237              		.loc 1 253 0
 238 004e 0023     		movs	r3, #0	@ <retval>,
 239              	@ .\utilities\src\segger_rtt.c:245: static unsigned _WriteBlocking(SEGGER_RTT_BUFFER_UP* pRing, con
 245:.\utilities\src/segger_rtt.c ****   unsigned NumBytesToWrite;
 240              		.loc 1 245 0
 241 0050 F7B5     		push	{r0, r1, r2, r4, r5, r6, r7, lr}	@
 242              	.LCFI1:
 243              		.cfi_def_cfa_offset 32
 244              		.cfi_offset 0, -32
 245              		.cfi_offset 1, -28
 246              		.cfi_offset 2, -24
 247              		.cfi_offset 4, -20
 248              		.cfi_offset 5, -16
 249              		.cfi_offset 6, -12
 250              		.cfi_offset 7, -8
 251              		.cfi_offset 14, -4
 252              	@ .\utilities\src\segger_rtt.c:245: static unsigned _WriteBlocking(SEGGER_RTT_BUFFER_UP* pRing, con
 245:.\utilities\src/segger_rtt.c ****   unsigned NumBytesToWrite;
 253              		.loc 1 245 0
 254 0052 0600     		movs	r6, r0	@ pRing, pRing
 255 0054 1700     		movs	r7, r2	@ NumBytes, NumBytes
 256              	@ .\utilities\src\segger_rtt.c:254:   WrOff = pRing->WrOff;
 254:.\utilities\src/segger_rtt.c ****   do {
 257              		.loc 1 254 0
 258 0056 C568     		ldr	r5, [r0, #12]	@ WrOff, pRing_18(D)->WrOff
 259              	.LVL24:
 260              	@ .\utilities\src\segger_rtt.c:245: static unsigned _WriteBlocking(SEGGER_RTT_BUFFER_UP* pRing, con
 245:.\utilities\src/segger_rtt.c ****   unsigned NumBytesToWrite;
 261              		.loc 1 245 0
 262 0058 0191     		str	r1, [sp, #4]	@ pBuffer, %sfp
 263              	@ .\utilities\src\segger_rtt.c:253:   NumBytesWritten = 0u;
 253:.\utilities\src/segger_rtt.c ****   WrOff = pRing->WrOff;
 264              		.loc 1 253 0
 265 005a 0093     		str	r3, [sp]	@ <retval>, %sfp
 266              	.LVL25:
 267              	.L14:
 268              	@ .\utilities\src\segger_rtt.c:256:     RdOff = pRing->RdOff;                         // May be cha
 256:.\utilities\src/segger_rtt.c ****     if (RdOff > WrOff) {
 269              		.loc 1 256 0
 270 005c 3369     		ldr	r3, [r6, #16]	@ RdOff, pRing_18(D)->RdOff
 271              	.LVL26:
 272 005e B468     		ldr	r4, [r6, #8]	@ pretmp_36, pRing_18(D)->SizeOfBuffer
 273              	@ .\utilities\src\segger_rtt.c:257:     if (RdOff > WrOff) {
 257:.\utilities\src/segger_rtt.c ****       NumBytesToWrite = RdOff - WrOff - 1u;
 274              		.loc 1 257 0
 275 0060 9D42     		cmp	r5, r3	@ WrOff, RdOff
 276 0062 1FD2     		bcs	.L9	@,
 277              	.LVL27:
 278              	.L17:
 279              	@ .\utilities\src\segger_rtt.c:260:       NumBytesToWrite = pRing->SizeOfBuffer - (WrOff - RdOff + 
 260:.\utilities\src/segger_rtt.c ****     }
 280              		.loc 1 260 0
 281 0064 013B     		subs	r3, r3, #1	@ tmp129,
 282 0066 5B1B     		subs	r3, r3, r5	@ NumBytesToWrite, tmp129, WrOff
 283              	.LVL28:
 284              	@ .\utilities\src\segger_rtt.c:262:     NumBytesToWrite = MIN(NumBytesToWrite, (pRing->SizeOfBuffer
 262:.\utilities\src/segger_rtt.c ****     NumBytesToWrite = MIN(NumBytesToWrite, NumBytes);
ARM GAS  C:\Users\claym\AppData\Local\Temp\ccb01mZK.s 			page 13


 285              		.loc 1 262 0
 286 0068 641B     		subs	r4, r4, r5	@ NumBytes, pretmp_36, WrOff
 287              	.LVL29:
 288              	@ .\utilities\src\segger_rtt.c:263:     NumBytesToWrite = MIN(NumBytesToWrite, NumBytes);
 263:.\utilities\src/segger_rtt.c ****     memcpy(pRing->pBuffer + WrOff, pBuffer, NumBytesToWrite);
 289              		.loc 1 263 0
 290 006a BC42     		cmp	r4, r7	@ NumBytes, NumBytes
 291 006c 00D9     		bls	.L11	@,
 292 006e 3C00     		movs	r4, r7	@ NumBytes, NumBytes
 293              	.LVL30:
 294              	.L11:
 295 0070 9C42     		cmp	r4, r3	@ NumBytesToWrite, NumBytesToWrite
 296 0072 00D9     		bls	.L12	@,
 297 0074 1C00     		movs	r4, r3	@ NumBytesToWrite, NumBytesToWrite
 298              	.L12:
 299              	.LVL31:
 300              	@ .\utilities\src\segger_rtt.c:264:     memcpy(pRing->pBuffer + WrOff, pBuffer, NumBytesToWrite);
 264:.\utilities\src/segger_rtt.c ****     NumBytesWritten += NumBytesToWrite;
 301              		.loc 1 264 0
 302 0076 7368     		ldr	r3, [r6, #4]	@ tmp152, pRing_18(D)->pBuffer
 303 0078 2200     		movs	r2, r4	@, NumBytesToWrite
 304 007a 5819     		adds	r0, r3, r5	@ tmp132, tmp152, WrOff
 305 007c 0199     		ldr	r1, [sp, #4]	@, %sfp
 306 007e FFF7FEFF 		bl	memcpy	@
 307              	.LVL32:
 308              	@ .\utilities\src\segger_rtt.c:265:     NumBytesWritten += NumBytesToWrite;
 265:.\utilities\src/segger_rtt.c ****     pBuffer         += NumBytesToWrite;
 309              		.loc 1 265 0
 310 0082 009B     		ldr	r3, [sp]	@ <retval>, %sfp
 311              	@ .\utilities\src\segger_rtt.c:268:     WrOff           += NumBytesToWrite;
 268:.\utilities\src/segger_rtt.c ****     if (WrOff == pRing->SizeOfBuffer) {
 312              		.loc 1 268 0
 313 0084 2D19     		adds	r5, r5, r4	@ WrOff, WrOff, NumBytesToWrite
 314              	.LVL33:
 315              	@ .\utilities\src\segger_rtt.c:265:     NumBytesWritten += NumBytesToWrite;
 265:.\utilities\src/segger_rtt.c ****     pBuffer         += NumBytesToWrite;
 316              		.loc 1 265 0
 317 0086 1B19     		adds	r3, r3, r4	@ <retval>, <retval>, NumBytesToWrite
 318 0088 0093     		str	r3, [sp]	@ <retval>, %sfp
 319              	.LVL34:
 320              	@ .\utilities\src\segger_rtt.c:266:     pBuffer         += NumBytesToWrite;
 266:.\utilities\src/segger_rtt.c ****     NumBytes        -= NumBytesToWrite;
 321              		.loc 1 266 0
 322 008a 019B     		ldr	r3, [sp, #4]	@ pBuffer, %sfp
 323              	.LVL35:
 324              	@ .\utilities\src\segger_rtt.c:267:     NumBytes        -= NumBytesToWrite;
 267:.\utilities\src/segger_rtt.c ****     WrOff           += NumBytesToWrite;
 325              		.loc 1 267 0
 326 008c 3F1B     		subs	r7, r7, r4	@ NumBytes, NumBytes, NumBytesToWrite
 327              	.LVL36:
 328              	@ .\utilities\src\segger_rtt.c:266:     pBuffer         += NumBytesToWrite;
 266:.\utilities\src/segger_rtt.c ****     NumBytes        -= NumBytesToWrite;
 329              		.loc 1 266 0
 330 008e 1B19     		adds	r3, r3, r4	@ pBuffer, pBuffer, NumBytesToWrite
 331 0090 0193     		str	r3, [sp, #4]	@ pBuffer, %sfp
 332              	.LVL37:
 333              	@ .\utilities\src\segger_rtt.c:269:     if (WrOff == pRing->SizeOfBuffer) {
ARM GAS  C:\Users\claym\AppData\Local\Temp\ccb01mZK.s 			page 14


 269:.\utilities\src/segger_rtt.c ****       WrOff = 0u;
 334              		.loc 1 269 0
 335 0092 B368     		ldr	r3, [r6, #8]	@ tmp157, pRing_18(D)->SizeOfBuffer
 336              	.LVL38:
 337 0094 AB42     		cmp	r3, r5	@ tmp157, WrOff
 338 0096 00D1     		bne	.L13	@,
 339              	@ .\utilities\src\segger_rtt.c:270:       WrOff = 0u;
 270:.\utilities\src/segger_rtt.c ****     }
 340              		.loc 1 270 0
 341 0098 0025     		movs	r5, #0	@ WrOff,
 342              	.LVL39:
 343              	.L13:
 344              	@ .\utilities\src\segger_rtt.c:272:     pRing->WrOff = WrOff;
 272:.\utilities\src/segger_rtt.c ****   } while (NumBytes);
 345              		.loc 1 272 0
 346 009a F560     		str	r5, [r6, #12]	@ WrOff, pRing_18(D)->WrOff
 347              	@ .\utilities\src\segger_rtt.c:273:   } while (NumBytes);
 273:.\utilities\src/segger_rtt.c ****   //
 348              		.loc 1 273 0
 349 009c 002F     		cmp	r7, #0	@ NumBytes,
 350 009e DDD1     		bne	.L14	@,
 351              	@ .\utilities\src\segger_rtt.c:276: }
 276:.\utilities\src/segger_rtt.c **** 
 352              		.loc 1 276 0
 353 00a0 0098     		ldr	r0, [sp]	@, %sfp
 354              		@ sp needed	@
 355              	.LVL40:
 356              	.LVL41:
 357              	.LVL42:
 358              	.LVL43:
 359 00a2 FEBD     		pop	{r1, r2, r3, r4, r5, r6, r7, pc}
 360              	.LVL44:
 361              	.L9:
 362              	@ .\utilities\src\segger_rtt.c:260:       NumBytesToWrite = pRing->SizeOfBuffer - (WrOff - RdOff + 
 260:.\utilities\src/segger_rtt.c ****     }
 363              		.loc 1 260 0
 364 00a4 1B19     		adds	r3, r3, r4	@ tmp128, RdOff, pretmp_36
 365              	.LVL45:
 366 00a6 DDE7     		b	.L17	@
 367              		.cfi_endproc
 368              	.LFE1:
 369              		.size	_WriteBlocking, .-_WriteBlocking
 370              		.align	1
 371              		.syntax unified
 372              		.code	16
 373              		.thumb_func
 374              		.fpu softvfp
 375              		.type	_DoInit, %function
 376              	_DoInit:
 377              	.LFB0:
 176:.\utilities\src/segger_rtt.c ****   SEGGER_RTT_CB* p;
 378              		.loc 1 176 0
 379              		.cfi_startproc
 380              		@ args = 0, pretend = 0, frame = 0
 381              		@ frame_needed = 0, uses_anonymous_args = 0
 382              	.LVL46:
 383              	@ .\utilities\src\segger_rtt.c:182:   p->MaxNumUpBuffers    = SEGGER_RTT_MAX_NUM_UP_BUFFERS;
ARM GAS  C:\Users\claym\AppData\Local\Temp\ccb01mZK.s 			page 15


 182:.\utilities\src/segger_rtt.c ****   p->MaxNumDownBuffers  = SEGGER_RTT_MAX_NUM_DOWN_BUFFERS;
 384              		.loc 1 182 0
 385 00a8 0323     		movs	r3, #3	@ tmp111,
 386              	@ .\utilities\src\segger_rtt.c:176: static void _DoInit(void) {
 176:.\utilities\src/segger_rtt.c ****   SEGGER_RTT_CB* p;
 387              		.loc 1 176 0
 388 00aa 70B5     		push	{r4, r5, r6, lr}	@
 389              	.LCFI2:
 390              		.cfi_def_cfa_offset 16
 391              		.cfi_offset 4, -16
 392              		.cfi_offset 5, -12
 393              		.cfi_offset 6, -8
 394              		.cfi_offset 14, -4
 395              	@ .\utilities\src\segger_rtt.c:182:   p->MaxNumUpBuffers    = SEGGER_RTT_MAX_NUM_UP_BUFFERS;
 182:.\utilities\src/segger_rtt.c ****   p->MaxNumDownBuffers  = SEGGER_RTT_MAX_NUM_DOWN_BUFFERS;
 396              		.loc 1 182 0
 397 00ac 1C4C     		ldr	r4, .L19	@ tmp110,
 398              	@ .\utilities\src\segger_rtt.c:198:   p->aDown[0].SizeOfBuffer  = sizeof(_acDownBuffer);
 198:.\utilities\src/segger_rtt.c ****   p->aDown[0].RdOff         = 0u;
 399              		.loc 1 198 0
 400 00ae 1021     		movs	r1, #16	@ tmp131,
 401              	@ .\utilities\src\segger_rtt.c:182:   p->MaxNumUpBuffers    = SEGGER_RTT_MAX_NUM_UP_BUFFERS;
 182:.\utilities\src/segger_rtt.c ****   p->MaxNumDownBuffers  = SEGGER_RTT_MAX_NUM_DOWN_BUFFERS;
 402              		.loc 1 182 0
 403 00b0 2361     		str	r3, [r4, #16]	@ tmp111, _SEGGER_RTT.MaxNumUpBuffers
 404              	@ .\utilities\src\segger_rtt.c:183:   p->MaxNumDownBuffers  = SEGGER_RTT_MAX_NUM_DOWN_BUFFERS;
 183:.\utilities\src/segger_rtt.c ****   //
 405              		.loc 1 183 0
 406 00b2 6361     		str	r3, [r4, #20]	@ tmp111, _SEGGER_RTT.MaxNumDownBuffers
 407              	@ .\utilities\src\segger_rtt.c:188:   p->aUp[0].pBuffer       = _acUpBuffer;
 188:.\utilities\src/segger_rtt.c ****   p->aUp[0].SizeOfBuffer  = sizeof(_acUpBuffer);
 408              		.loc 1 188 0
 409 00b4 1B4B     		ldr	r3, .L19+4	@ tmp117,
 410              	@ .\utilities\src\segger_rtt.c:187:   p->aUp[0].sName         = "Terminal";
 187:.\utilities\src/segger_rtt.c ****   p->aUp[0].pBuffer       = _acUpBuffer;
 411              		.loc 1 187 0
 412 00b6 1C4A     		ldr	r2, .L19+8	@ tmp115,
 413              	@ .\utilities\src\segger_rtt.c:188:   p->aUp[0].pBuffer       = _acUpBuffer;
 188:.\utilities\src/segger_rtt.c ****   p->aUp[0].SizeOfBuffer  = sizeof(_acUpBuffer);
 414              		.loc 1 188 0
 415 00b8 E361     		str	r3, [r4, #28]	@ tmp117, _SEGGER_RTT.aUp[0].pBuffer
 416              	@ .\utilities\src\segger_rtt.c:189:   p->aUp[0].SizeOfBuffer  = sizeof(_acUpBuffer);
 189:.\utilities\src/segger_rtt.c ****   p->aUp[0].RdOff         = 0u;
 417              		.loc 1 189 0
 418 00ba 8023     		movs	r3, #128	@ tmp119,
 419              	@ .\utilities\src\segger_rtt.c:187:   p->aUp[0].sName         = "Terminal";
 187:.\utilities\src/segger_rtt.c ****   p->aUp[0].pBuffer       = _acUpBuffer;
 420              		.loc 1 187 0
 421 00bc A261     		str	r2, [r4, #24]	@ tmp115, _SEGGER_RTT.aUp[0].sName
 422              	@ .\utilities\src\segger_rtt.c:196:   p->aDown[0].sName         = "Terminal";
 196:.\utilities\src/segger_rtt.c ****   p->aDown[0].pBuffer       = _acDownBuffer;
 423              		.loc 1 196 0
 424 00be 2266     		str	r2, [r4, #96]	@ tmp115, _SEGGER_RTT.aDown[0].sName
 425              	@ .\utilities\src\segger_rtt.c:197:   p->aDown[0].pBuffer       = _acDownBuffer;
 197:.\utilities\src/segger_rtt.c ****   p->aDown[0].SizeOfBuffer  = sizeof(_acDownBuffer);
 426              		.loc 1 197 0
 427 00c0 1A4A     		ldr	r2, .L19+12	@ tmp129,
ARM GAS  C:\Users\claym\AppData\Local\Temp\ccb01mZK.s 			page 16


 428              	@ .\utilities\src\segger_rtt.c:189:   p->aUp[0].SizeOfBuffer  = sizeof(_acUpBuffer);
 189:.\utilities\src/segger_rtt.c ****   p->aUp[0].RdOff         = 0u;
 429              		.loc 1 189 0
 430 00c2 DB00     		lsls	r3, r3, #3	@ tmp119, tmp119,
 431              	@ .\utilities\src\segger_rtt.c:197:   p->aDown[0].pBuffer       = _acDownBuffer;
 197:.\utilities\src/segger_rtt.c ****   p->aDown[0].SizeOfBuffer  = sizeof(_acDownBuffer);
 432              		.loc 1 197 0
 433 00c4 6266     		str	r2, [r4, #100]	@ tmp129, _SEGGER_RTT.aDown[0].pBuffer
 434              	@ .\utilities\src\segger_rtt.c:211: 	p->aDown[1].pBuffer					= (char *)_scopeDownBuffer; 
 211:.\utilities\src/segger_rtt.c **** 	p->aDown[1].SizeOfBuffer  	= sizeof(_scopeDownBuffer);
 435              		.loc 1 211 0
 436 00c6 5218     		adds	r2, r2, r1	@ tmp154, tmp129,
 437 00c8 E267     		str	r2, [r4, #124]	@ tmp154, _SEGGER_RTT.aDown[1].pBuffer
 438              	@ .\utilities\src\segger_rtt.c:212: 	p->aDown[1].SizeOfBuffer  	= sizeof(_scopeDownBuffer);
 212:.\utilities\src/segger_rtt.c ****   p->aDown[1].RdOff         	= 0u;
 439              		.loc 1 212 0
 440 00ca 221D     		adds	r2, r4, #4	@ tmp156, tmp110,
 441 00cc D167     		str	r1, [r2, #124]	@ tmp131, _SEGGER_RTT.aDown[1].SizeOfBuffer
 442              	@ .\utilities\src\segger_rtt.c:213:   p->aDown[1].RdOff         	= 0u;
 213:.\utilities\src/segger_rtt.c ****   p->aDown[1].WrOff         	= 0u;
 443              		.loc 1 213 0
 444 00ce 2200     		movs	r2, r4	@ tmp159, tmp110
 445              	@ .\utilities\src\segger_rtt.c:189:   p->aUp[0].SizeOfBuffer  = sizeof(_acUpBuffer);
 189:.\utilities\src/segger_rtt.c ****   p->aUp[0].RdOff         = 0u;
 446              		.loc 1 189 0
 447 00d0 2362     		str	r3, [r4, #32]	@ tmp119, _SEGGER_RTT.aUp[0].SizeOfBuffer
 448              	@ .\utilities\src\segger_rtt.c:190:   p->aUp[0].RdOff         = 0u;
 190:.\utilities\src/segger_rtt.c ****   p->aUp[0].WrOff         = 0u;
 449              		.loc 1 190 0
 450 00d2 0023     		movs	r3, #0	@ tmp121,
 451              	@ .\utilities\src\segger_rtt.c:204: 	p->aUp[1].pBuffer					= (char *)_scopeUpBuffer; 
 204:.\utilities\src/segger_rtt.c **** 	p->aUp[1].SizeOfBuffer  	= sizeof(_scopeUpBuffer);
 452              		.loc 1 204 0
 453 00d4 164D     		ldr	r5, .L19+16	@ tmp141,
 454              	@ .\utilities\src\segger_rtt.c:213:   p->aDown[1].RdOff         	= 0u;
 213:.\utilities\src/segger_rtt.c ****   p->aDown[1].WrOff         	= 0u;
 455              		.loc 1 213 0
 456 00d6 0832     		adds	r2, r2, #8	@ tmp159,
 457              	@ .\utilities\src\segger_rtt.c:190:   p->aUp[0].RdOff         = 0u;
 190:.\utilities\src/segger_rtt.c ****   p->aUp[0].WrOff         = 0u;
 458              		.loc 1 190 0
 459 00d8 A362     		str	r3, [r4, #40]	@ tmp121, _SEGGER_RTT.aUp[0].RdOff
 460              	@ .\utilities\src\segger_rtt.c:198:   p->aDown[0].SizeOfBuffer  = sizeof(_acDownBuffer);
 198:.\utilities\src/segger_rtt.c ****   p->aDown[0].RdOff         = 0u;
 461              		.loc 1 198 0
 462 00da A166     		str	r1, [r4, #104]	@ tmp131, _SEGGER_RTT.aDown[0].SizeOfBuffer
 463              	@ .\utilities\src\segger_rtt.c:200:   p->aDown[0].WrOff         = 0u;
 200:.\utilities\src/segger_rtt.c ****   p->aDown[0].Flags         = SEGGER_RTT_MODE_DEFAULT;
 464              		.loc 1 200 0
 465 00dc E366     		str	r3, [r4, #108]	@ tmp121, _SEGGER_RTT.aDown[0].WrOff
 466              	@ .\utilities\src\segger_rtt.c:204: 	p->aUp[1].pBuffer					= (char *)_scopeUpBuffer; 
 204:.\utilities\src/segger_rtt.c **** 	p->aUp[1].SizeOfBuffer  	= sizeof(_scopeUpBuffer);
 467              		.loc 1 204 0
 468 00de 6563     		str	r5, [r4, #52]	@ tmp141, _SEGGER_RTT.aUp[1].pBuffer
 469              	@ .\utilities\src\segger_rtt.c:206:   p->aUp[1].RdOff         	= 0u;
 206:.\utilities\src/segger_rtt.c ****   p->aUp[1].WrOff         	= 0u;
 470              		.loc 1 206 0
ARM GAS  C:\Users\claym\AppData\Local\Temp\ccb01mZK.s 			page 17


 471 00e0 2364     		str	r3, [r4, #64]	@ tmp121, _SEGGER_RTT.aUp[1].RdOff
 472              	@ .\utilities\src\segger_rtt.c:213:   p->aDown[1].RdOff         	= 0u;
 213:.\utilities\src/segger_rtt.c ****   p->aDown[1].WrOff         	= 0u;
 473              		.loc 1 213 0
 474 00e2 2100     		movs	r1, r4	@ tmp161, tmp110
 475              	@ .\utilities\src\segger_rtt.c:214:   p->aDown[1].WrOff         	= 0u;
 214:.\utilities\src/segger_rtt.c ****   p->aDown[1].Flags         	= SEGGER_RTT_MODE_DEFAULT;
 476              		.loc 1 214 0
 477 00e4 D367     		str	r3, [r2, #124]	@ tmp121, _SEGGER_RTT.aDown[1].WrOff
 478              	@ .\utilities\src\segger_rtt.c:205: 	p->aUp[1].SizeOfBuffer  	= sizeof(_scopeUpBuffer);
 205:.\utilities\src/segger_rtt.c ****   p->aUp[1].RdOff         	= 0u;
 479              		.loc 1 205 0
 480 00e6 8025     		movs	r5, #128	@ tmp143,
 481              	@ .\utilities\src\segger_rtt.c:215:   p->aDown[1].Flags         	= SEGGER_RTT_MODE_DEFAULT;
 215:.\utilities\src/segger_rtt.c ****   //
 482              		.loc 1 215 0
 483 00e8 2200     		movs	r2, r4	@ tmp169, tmp110
 484              	@ .\utilities\src\segger_rtt.c:203: 	p->aUp[1].sName						= "JScope_u1"; 
 203:.\utilities\src/segger_rtt.c **** 	p->aUp[1].pBuffer					= (char *)_scopeUpBuffer; 
 485              		.loc 1 203 0
 486 00ea 1248     		ldr	r0, .L19+20	@ tmp139,
 487              	@ .\utilities\src\segger_rtt.c:215:   p->aDown[1].Flags         	= SEGGER_RTT_MODE_DEFAULT;
 215:.\utilities\src/segger_rtt.c ****   //
 488              		.loc 1 215 0
 489 00ec 8C32     		adds	r2, r2, #140	@ tmp169,
 490              	@ .\utilities\src\segger_rtt.c:205: 	p->aUp[1].SizeOfBuffer  	= sizeof(_scopeUpBuffer);
 205:.\utilities\src/segger_rtt.c ****   p->aUp[1].RdOff         	= 0u;
 491              		.loc 1 205 0
 492 00ee 2D01     		lsls	r5, r5, #4	@ tmp143, tmp143,
 493              	@ .\utilities\src\segger_rtt.c:213:   p->aDown[1].RdOff         	= 0u;
 213:.\utilities\src/segger_rtt.c ****   p->aDown[1].WrOff         	= 0u;
 494              		.loc 1 213 0
 495 00f0 8831     		adds	r1, r1, #136	@ tmp161,
 496              	@ .\utilities\src\segger_rtt.c:191:   p->aUp[0].WrOff         = 0u;
 191:.\utilities\src/segger_rtt.c ****   p->aUp[0].Flags         = SEGGER_RTT_MODE_DEFAULT;
 497              		.loc 1 191 0
 498 00f2 6362     		str	r3, [r4, #36]	@ tmp121, _SEGGER_RTT.aUp[0].WrOff
 499              	@ .\utilities\src\segger_rtt.c:192:   p->aUp[0].Flags         = SEGGER_RTT_MODE_DEFAULT;
 192:.\utilities\src/segger_rtt.c ****   //
 500              		.loc 1 192 0
 501 00f4 E362     		str	r3, [r4, #44]	@ tmp121, _SEGGER_RTT.aUp[0].Flags
 502              	@ .\utilities\src\segger_rtt.c:199:   p->aDown[0].RdOff         = 0u;
 199:.\utilities\src/segger_rtt.c ****   p->aDown[0].WrOff         = 0u;
 503              		.loc 1 199 0
 504 00f6 2367     		str	r3, [r4, #112]	@ tmp121, _SEGGER_RTT.aDown[0].RdOff
 505              	@ .\utilities\src\segger_rtt.c:201:   p->aDown[0].Flags         = SEGGER_RTT_MODE_DEFAULT;
 201:.\utilities\src/segger_rtt.c **** 	
 506              		.loc 1 201 0
 507 00f8 6367     		str	r3, [r4, #116]	@ tmp121, _SEGGER_RTT.aDown[0].Flags
 508              	@ .\utilities\src\segger_rtt.c:207:   p->aUp[1].WrOff         	= 0u;
 207:.\utilities\src/segger_rtt.c ****   p->aUp[1].Flags         	= SEGGER_RTT_MODE_DEFAULT;
 509              		.loc 1 207 0
 510 00fa E363     		str	r3, [r4, #60]	@ tmp121, _SEGGER_RTT.aUp[1].WrOff
 511              	@ .\utilities\src\segger_rtt.c:208:   p->aUp[1].Flags         	= SEGGER_RTT_MODE_DEFAULT;
 208:.\utilities\src/segger_rtt.c **** 	
 512              		.loc 1 208 0
 513 00fc 6364     		str	r3, [r4, #68]	@ tmp121, _SEGGER_RTT.aUp[1].Flags
ARM GAS  C:\Users\claym\AppData\Local\Temp\ccb01mZK.s 			page 18


 514              	@ .\utilities\src\segger_rtt.c:213:   p->aDown[1].RdOff         	= 0u;
 213:.\utilities\src/segger_rtt.c ****   p->aDown[1].WrOff         	= 0u;
 515              		.loc 1 213 0
 516 00fe 0B60     		str	r3, [r1]	@ tmp121, _SEGGER_RTT.aDown[1].RdOff
 517              	@ .\utilities\src\segger_rtt.c:203: 	p->aUp[1].sName						= "JScope_u1"; 
 203:.\utilities\src/segger_rtt.c **** 	p->aUp[1].pBuffer					= (char *)_scopeUpBuffer; 
 518              		.loc 1 203 0
 519 0100 2063     		str	r0, [r4, #48]	@ tmp139, _SEGGER_RTT.aUp[1].sName
 520              	@ .\utilities\src\segger_rtt.c:205: 	p->aUp[1].SizeOfBuffer  	= sizeof(_scopeUpBuffer);
 205:.\utilities\src/segger_rtt.c ****   p->aUp[1].RdOff         	= 0u;
 521              		.loc 1 205 0
 522 0102 A563     		str	r5, [r4, #56]	@ tmp143, _SEGGER_RTT.aUp[1].SizeOfBuffer
 523              	@ .\utilities\src\segger_rtt.c:210: 	p->aDown[1].sName						= "JScope_u1"; 
 210:.\utilities\src/segger_rtt.c **** 	p->aDown[1].pBuffer					= (char *)_scopeDownBuffer; 
 524              		.loc 1 210 0
 525 0104 A067     		str	r0, [r4, #120]	@ tmp139, _SEGGER_RTT.aDown[1].sName
 526              	@ .\utilities\src\segger_rtt.c:215:   p->aDown[1].Flags         	= SEGGER_RTT_MODE_DEFAULT;
 215:.\utilities\src/segger_rtt.c ****   //
 527              		.loc 1 215 0
 528 0106 1360     		str	r3, [r2]	@ tmp121, _SEGGER_RTT.aDown[1].Flags
 529              	@ .\utilities\src\segger_rtt.c:221:   strcpy(&p->acID[7], "RTT");
 221:.\utilities\src/segger_rtt.c ****   strcpy(&p->acID[0], "SEGGER");
 530              		.loc 1 221 0
 531 0108 0B49     		ldr	r1, .L19+24	@,
 532 010a 0C48     		ldr	r0, .L19+28	@,
 533 010c FFF7FEFF 		bl	strcpy	@
 534              	.LVL47:
 535              	@ .\utilities\src\segger_rtt.c:222:   strcpy(&p->acID[0], "SEGGER");
 222:.\utilities\src/segger_rtt.c ****   p->acID[6] = ' ';
 536              		.loc 1 222 0
 537 0110 0B49     		ldr	r1, .L19+32	@,
 538 0112 2000     		movs	r0, r4	@, tmp110
 539 0114 FFF7FEFF 		bl	strcpy	@
 540              	.LVL48:
 541              	@ .\utilities\src\segger_rtt.c:223:   p->acID[6] = ' ';
 223:.\utilities\src/segger_rtt.c **** }
 542              		.loc 1 223 0
 543 0118 2023     		movs	r3, #32	@ tmp176,
 544              	@ .\utilities\src\segger_rtt.c:224: }
 224:.\utilities\src/segger_rtt.c **** 
 545              		.loc 1 224 0
 546              		@ sp needed	@
 547              	@ .\utilities\src\segger_rtt.c:223:   p->acID[6] = ' ';
 223:.\utilities\src/segger_rtt.c **** }
 548              		.loc 1 223 0
 549 011a A371     		strb	r3, [r4, #6]	@ tmp176, _SEGGER_RTT.acID
 550              	@ .\utilities\src\segger_rtt.c:224: }
 224:.\utilities\src/segger_rtt.c **** 
 551              		.loc 1 224 0
 552 011c 70BD     		pop	{r4, r5, r6, pc}
 553              	.L20:
 554 011e C046     		.align	2
 555              	.L19:
 556 0120 00000000 		.word	_SEGGER_RTT
 557 0124 21080000 		.word	_acUpBuffer
 558 0128 00000000 		.word	.LC1
 559 012c 00000000 		.word	.LANCHOR0
ARM GAS  C:\Users\claym\AppData\Local\Temp\ccb01mZK.s 			page 19


 560 0130 21000000 		.word	_scopeUpBuffer
 561 0134 09000000 		.word	.LC5
 562 0138 13000000 		.word	.LC8
 563 013c 07000000 		.word	_SEGGER_RTT+7
 564 0140 17000000 		.word	.LC11
 565              		.cfi_endproc
 566              	.LFE0:
 567              		.size	_DoInit, .-_DoInit
 568              		.align	1
 569              		.syntax unified
 570              		.code	16
 571              		.thumb_func
 572              		.fpu softvfp
 573              		.type	_PostTerminalSwitch.constprop.0, %function
 574              	_PostTerminalSwitch.constprop.0:
 575              	.LFB24:
 334:.\utilities\src/segger_rtt.c ****   char ac[2];
 576              		.loc 1 334 0
 577              		.cfi_startproc
 578              		@ args = 0, pretend = 0, frame = 8
 579              		@ frame_needed = 0, uses_anonymous_args = 0
 580              	.LVL49:
 581              	@ .\utilities\src\segger_rtt.c:337:   ac[0] = 0xFFu;
 337:.\utilities\src/segger_rtt.c ****   ac[1] = _aTerminalId[TerminalId];  // Caller made already sure that TerminalId does not exceed ou
 582              		.loc 1 337 0
 583 0144 FF23     		movs	r3, #255	@ tmp114,
 584              	@ .\utilities\src\segger_rtt.c:334: static void _PostTerminalSwitch(SEGGER_RTT_BUFFER_UP* pRing, un
 334:.\utilities\src/segger_rtt.c ****   char ac[2];
 585              		.loc 1 334 0
 586 0146 07B5     		push	{r0, r1, r2, lr}	@
 587              	.LCFI3:
 588              		.cfi_def_cfa_offset 16
 589              		.cfi_offset 0, -16
 590              		.cfi_offset 1, -12
 591              		.cfi_offset 2, -8
 592              		.cfi_offset 14, -4
 593              	@ .\utilities\src\segger_rtt.c:337:   ac[0] = 0xFFu;
 337:.\utilities\src/segger_rtt.c ****   ac[1] = _aTerminalId[TerminalId];  // Caller made already sure that TerminalId does not exceed ou
 594              		.loc 1 337 0
 595 0148 01A9     		add	r1, sp, #4	@ tmp113,,
 596 014a 0B70     		strb	r3, [r1]	@ tmp114, ac
 597              	@ .\utilities\src\segger_rtt.c:338:   ac[1] = _aTerminalId[TerminalId];  // Caller made already sur
 338:.\utilities\src/segger_rtt.c ****   _WriteBlocking(pRing, ac, 2u);
 598              		.loc 1 338 0
 599 014c 034B     		ldr	r3, .L22	@ tmp117,
 600              	@ .\utilities\src\segger_rtt.c:339:   _WriteBlocking(pRing, ac, 2u);
 339:.\utilities\src/segger_rtt.c **** }
 601              		.loc 1 339 0
 602 014e 0222     		movs	r2, #2	@,
 603              	@ .\utilities\src\segger_rtt.c:338:   ac[1] = _aTerminalId[TerminalId];  // Caller made already sur
 338:.\utilities\src/segger_rtt.c ****   _WriteBlocking(pRing, ac, 2u);
 604              		.loc 1 338 0
 605 0150 1B5C     		ldrb	r3, [r3, r0]	@ tmp118, _aTerminalId
 606              	@ .\utilities\src\segger_rtt.c:339:   _WriteBlocking(pRing, ac, 2u);
 339:.\utilities\src/segger_rtt.c **** }
 607              		.loc 1 339 0
 608 0152 0348     		ldr	r0, .L22+4	@,
ARM GAS  C:\Users\claym\AppData\Local\Temp\ccb01mZK.s 			page 20


 609              	.LVL50:
 610              	@ .\utilities\src\segger_rtt.c:338:   ac[1] = _aTerminalId[TerminalId];  // Caller made already sur
 338:.\utilities\src/segger_rtt.c ****   _WriteBlocking(pRing, ac, 2u);
 611              		.loc 1 338 0
 612 0154 4B70     		strb	r3, [r1, #1]	@ tmp118, ac
 613              	@ .\utilities\src\segger_rtt.c:340: }
 340:.\utilities\src/segger_rtt.c **** 
 614              		.loc 1 340 0
 615              		@ sp needed	@
 616              	@ .\utilities\src\segger_rtt.c:339:   _WriteBlocking(pRing, ac, 2u);
 339:.\utilities\src/segger_rtt.c **** }
 617              		.loc 1 339 0
 618 0156 FFF77AFF 		bl	_WriteBlocking	@
 619              	.LVL51:
 620              	@ .\utilities\src\segger_rtt.c:340: }
 340:.\utilities\src/segger_rtt.c **** 
 621              		.loc 1 340 0
 622 015a 07BD     		pop	{r0, r1, r2, pc}
 623              	.L23:
 624              		.align	2
 625              	.L22:
 626 015c 00000000 		.word	.LANCHOR1
 627 0160 18000000 		.word	_SEGGER_RTT+24
 628              		.cfi_endproc
 629              	.LFE24:
 630              		.size	_PostTerminalSwitch.constprop.0, .-_PostTerminalSwitch.constprop.0
 631              		.align	1
 632              		.global	SEGGER_RTT_ReadNoLock
 633              		.syntax unified
 634              		.code	16
 635              		.thumb_func
 636              		.fpu softvfp
 637              		.type	SEGGER_RTT_ReadNoLock, %function
 638              	SEGGER_RTT_ReadNoLock:
 639              	.LFB5:
 373:.\utilities\src/segger_rtt.c **** 
 374:.\utilities\src/segger_rtt.c **** /*********************************************************************
 375:.\utilities\src/segger_rtt.c **** *
 376:.\utilities\src/segger_rtt.c **** *       Public code
 377:.\utilities\src/segger_rtt.c **** *
 378:.\utilities\src/segger_rtt.c **** **********************************************************************
 379:.\utilities\src/segger_rtt.c **** */
 380:.\utilities\src/segger_rtt.c **** /*********************************************************************
 381:.\utilities\src/segger_rtt.c **** *
 382:.\utilities\src/segger_rtt.c **** *       SEGGER_RTT_ReadNoLock()
 383:.\utilities\src/segger_rtt.c **** *
 384:.\utilities\src/segger_rtt.c **** *  Function description
 385:.\utilities\src/segger_rtt.c **** *    Reads characters from SEGGER real-time-terminal control block
 386:.\utilities\src/segger_rtt.c **** *    which have been previously stored by the host.
 387:.\utilities\src/segger_rtt.c **** *    Do not lock against interrupts and multiple access.
 388:.\utilities\src/segger_rtt.c **** *
 389:.\utilities\src/segger_rtt.c **** *  Parameters
 390:.\utilities\src/segger_rtt.c **** *    BufferIndex  Index of Down-buffer to be used (e.g. 0 for "Terminal").
 391:.\utilities\src/segger_rtt.c **** *    pBuffer      Pointer to buffer provided by target application, to copy characters from RTT-dow
 392:.\utilities\src/segger_rtt.c **** *    BufferSize   Size of the target application buffer.
 393:.\utilities\src/segger_rtt.c **** *
 394:.\utilities\src/segger_rtt.c **** *  Return value
ARM GAS  C:\Users\claym\AppData\Local\Temp\ccb01mZK.s 			page 21


 395:.\utilities\src/segger_rtt.c **** *    Number of bytes that have been read.
 396:.\utilities\src/segger_rtt.c **** */
 397:.\utilities\src/segger_rtt.c **** unsigned SEGGER_RTT_ReadNoLock(unsigned BufferIndex, void* pData, unsigned BufferSize) {
 640              		.loc 1 397 0
 641              		.cfi_startproc
 642              		@ args = 0, pretend = 0, frame = 16
 643              		@ frame_needed = 0, uses_anonymous_args = 0
 644              	.LVL52:
 645 0164 F0B5     		push	{r4, r5, r6, r7, lr}	@
 646              	.LCFI4:
 647              		.cfi_def_cfa_offset 20
 648              		.cfi_offset 4, -20
 649              		.cfi_offset 5, -16
 650              		.cfi_offset 6, -12
 651              		.cfi_offset 7, -8
 652              		.cfi_offset 14, -4
 653              	@ .\utilities\src\segger_rtt.c:405:   INIT();
 398:.\utilities\src/segger_rtt.c ****   unsigned                NumBytesRem;
 399:.\utilities\src/segger_rtt.c ****   unsigned                NumBytesRead;
 400:.\utilities\src/segger_rtt.c ****   unsigned                RdOff;
 401:.\utilities\src/segger_rtt.c ****   unsigned                WrOff;
 402:.\utilities\src/segger_rtt.c ****   unsigned char*          pBuffer;
 403:.\utilities\src/segger_rtt.c ****   SEGGER_RTT_BUFFER_DOWN* pRing;
 404:.\utilities\src/segger_rtt.c ****   //
 405:.\utilities\src/segger_rtt.c ****   INIT();
 654              		.loc 1 405 0
 655 0166 274B     		ldr	r3, .L38	@ tmp196,
 656              	@ .\utilities\src\segger_rtt.c:397: unsigned SEGGER_RTT_ReadNoLock(unsigned BufferIndex, void* pDat
 397:.\utilities\src/segger_rtt.c ****   unsigned                NumBytesRem;
 657              		.loc 1 397 0
 658 0168 85B0     		sub	sp, sp, #20	@,,
 659              	.LCFI5:
 660              		.cfi_def_cfa_offset 40
 661              	@ .\utilities\src\segger_rtt.c:405:   INIT();
 662              		.loc 1 405 0
 663 016a 1B78     		ldrb	r3, [r3]	@ _SEGGER_RTT, _SEGGER_RTT
 664              	@ .\utilities\src\segger_rtt.c:397: unsigned SEGGER_RTT_ReadNoLock(unsigned BufferIndex, void* pDat
 397:.\utilities\src/segger_rtt.c ****   unsigned                NumBytesRem;
 665              		.loc 1 397 0
 666 016c 0190     		str	r0, [sp, #4]	@ BufferIndex, %sfp
 667 016e 0291     		str	r1, [sp, #8]	@ pData, %sfp
 668 0170 1500     		movs	r5, r2	@ BufferSize, BufferSize
 669              	@ .\utilities\src\segger_rtt.c:405:   INIT();
 670              		.loc 1 405 0
 671 0172 002B     		cmp	r3, #0	@ _SEGGER_RTT,
 672 0174 01D1     		bne	.L25	@,
 673              	@ .\utilities\src\segger_rtt.c:405:   INIT();
 674              		.loc 1 405 0 is_stmt 0 discriminator 1
 675 0176 FFF797FF 		bl	_DoInit	@
 676              	.LVL53:
 677              	.L25:
 678              	@ .\utilities\src\segger_rtt.c:408:   RdOff = pRing->RdOff;
 406:.\utilities\src/segger_rtt.c ****   pRing = &_SEGGER_RTT.aDown[BufferIndex];
 407:.\utilities\src/segger_rtt.c ****   pBuffer = (unsigned char*)pData;
 408:.\utilities\src/segger_rtt.c ****   RdOff = pRing->RdOff;
 679              		.loc 1 408 0 is_stmt 1
 680 017a 1823     		movs	r3, #24	@ tmp129,
ARM GAS  C:\Users\claym\AppData\Local\Temp\ccb01mZK.s 			page 22


 681 017c 019A     		ldr	r2, [sp, #4]	@ BufferIndex, %sfp
 682              	@ .\utilities\src\segger_rtt.c:410:   NumBytesRead = 0u;
 409:.\utilities\src/segger_rtt.c ****   WrOff = pRing->WrOff;
 410:.\utilities\src/segger_rtt.c ****   NumBytesRead = 0u;
 683              		.loc 1 410 0
 684 017e 0026     		movs	r6, #0	@ <retval>,
 685              	@ .\utilities\src\segger_rtt.c:408:   RdOff = pRing->RdOff;
 408:.\utilities\src/segger_rtt.c ****   WrOff = pRing->WrOff;
 686              		.loc 1 408 0
 687 0180 5343     		muls	r3, r2	@ tmp130, BufferIndex
 688 0182 204A     		ldr	r2, .L38	@ tmp198,
 689 0184 D318     		adds	r3, r2, r3	@ tmp131, tmp198, tmp130
 690              	@ .\utilities\src\segger_rtt.c:409:   WrOff = pRing->WrOff;
 409:.\utilities\src/segger_rtt.c ****   WrOff = pRing->WrOff;
 691              		.loc 1 409 0
 692 0186 DA6E     		ldr	r2, [r3, #108]	@ WrOff, MEM[(struct SEGGER_RTT_BUFFER_DOWN *)&_SEGGER_RTT].aDown[BufferIndex_2
 693              	@ .\utilities\src\segger_rtt.c:408:   RdOff = pRing->RdOff;
 408:.\utilities\src/segger_rtt.c ****   WrOff = pRing->WrOff;
 694              		.loc 1 408 0
 695 0188 1C6F     		ldr	r4, [r3, #112]	@ RdOff, MEM[(struct SEGGER_RTT_BUFFER_DOWN *)&_SEGGER_RTT].aDown[BufferIndex_2
 696              	.LVL54:
 697              	@ .\utilities\src\segger_rtt.c:409:   WrOff = pRing->WrOff;
 409:.\utilities\src/segger_rtt.c ****   WrOff = pRing->WrOff;
 698              		.loc 1 409 0
 699 018a 0392     		str	r2, [sp, #12]	@ WrOff, %sfp
 700              	.LVL55:
 701              	@ .\utilities\src\segger_rtt.c:414:   if (RdOff > WrOff) {
 411:.\utilities\src/segger_rtt.c ****   //
 412:.\utilities\src/segger_rtt.c ****   // Read from current read position to wrap-around of buffer, first
 413:.\utilities\src/segger_rtt.c ****   //
 414:.\utilities\src/segger_rtt.c ****   if (RdOff > WrOff) {
 702              		.loc 1 414 0
 703 018c 9442     		cmp	r4, r2	@ RdOff, WrOff
 704 018e 19D9     		bls	.L26	@,
 705              	@ .\utilities\src\segger_rtt.c:415:     NumBytesRem = pRing->SizeOfBuffer - RdOff;
 415:.\utilities\src/segger_rtt.c ****     NumBytesRem = pRing->SizeOfBuffer - RdOff;
 706              		.loc 1 415 0
 707 0190 9B6E     		ldr	r3, [r3, #104]	@ MEM[(struct SEGGER_RTT_BUFFER_DOWN *)&_SEGGER_RTT].aDown[BufferIndex_20(D)].S
 708              	@ .\utilities\src\segger_rtt.c:416:     NumBytesRem = MIN(NumBytesRem, BufferSize);
 416:.\utilities\src/segger_rtt.c ****     NumBytesRem = MIN(NumBytesRem, BufferSize);
 709              		.loc 1 416 0
 710 0192 2E00     		movs	r6, r5	@ <retval>, BufferSize
 711              	@ .\utilities\src\segger_rtt.c:415:     NumBytesRem = pRing->SizeOfBuffer - RdOff;
 415:.\utilities\src/segger_rtt.c ****     NumBytesRem = pRing->SizeOfBuffer - RdOff;
 712              		.loc 1 415 0
 713 0194 1B1B     		subs	r3, r3, r4	@ NumBytesRem, MEM[(struct SEGGER_RTT_BUFFER_DOWN *)&_SEGGER_RTT].aDown[BufferInde
 714              	.LVL56:
 715              	@ .\utilities\src\segger_rtt.c:416:     NumBytesRem = MIN(NumBytesRem, BufferSize);
 716              		.loc 1 416 0
 717 0196 9D42     		cmp	r5, r3	@ BufferSize, NumBytesRem
 718 0198 00D9     		bls	.L27	@,
 719 019a 1E00     		movs	r6, r3	@ <retval>, NumBytesRem
 720              	.L27:
 721              	.LVL57:
 722              	@ .\utilities\src\segger_rtt.c:417:     memcpy(pBuffer, pRing->pBuffer + RdOff, NumBytesRem);
 417:.\utilities\src/segger_rtt.c ****     memcpy(pBuffer, pRing->pBuffer + RdOff, NumBytesRem);
 723              		.loc 1 417 0
ARM GAS  C:\Users\claym\AppData\Local\Temp\ccb01mZK.s 			page 23


 724 019c 1827     		movs	r7, #24	@ tmp145,
 725 019e 019B     		ldr	r3, [sp, #4]	@ BufferIndex, %sfp
 726 01a0 3200     		movs	r2, r6	@, <retval>
 727              	.LVL58:
 728 01a2 5F43     		muls	r7, r3	@ tmp146, BufferIndex
 729 01a4 174B     		ldr	r3, .L38	@ tmp203,
 730 01a6 0298     		ldr	r0, [sp, #8]	@, %sfp
 731 01a8 DF19     		adds	r7, r3, r7	@ tmp147, tmp203, tmp146
 732 01aa 7B6E     		ldr	r3, [r7, #100]	@ tmp204, MEM[(struct SEGGER_RTT_BUFFER_DOWN *)&_SEGGER_RTT].aDown[BufferIndex_
 733              	@ .\utilities\src\segger_rtt.c:420:     BufferSize   -= NumBytesRem;
 418:.\utilities\src/segger_rtt.c ****     NumBytesRead += NumBytesRem;
 419:.\utilities\src/segger_rtt.c ****     pBuffer      += NumBytesRem;
 420:.\utilities\src/segger_rtt.c ****     BufferSize   -= NumBytesRem;
 734              		.loc 1 420 0
 735 01ac AD1B     		subs	r5, r5, r6	@ BufferSize, BufferSize, <retval>
 736              	.LVL59:
 737              	@ .\utilities\src\segger_rtt.c:417:     memcpy(pBuffer, pRing->pBuffer + RdOff, NumBytesRem);
 417:.\utilities\src/segger_rtt.c ****     memcpy(pBuffer, pRing->pBuffer + RdOff, NumBytesRem);
 738              		.loc 1 417 0
 739 01ae 1919     		adds	r1, r3, r4	@ tmp149, tmp204, RdOff
 740 01b0 FFF7FEFF 		bl	memcpy	@
 741              	.LVL60:
 742              	@ .\utilities\src\segger_rtt.c:419:     pBuffer      += NumBytesRem;
 419:.\utilities\src/segger_rtt.c ****     BufferSize   -= NumBytesRem;
 743              		.loc 1 419 0
 744 01b4 029B     		ldr	r3, [sp, #8]	@ pData, %sfp
 745              	@ .\utilities\src\segger_rtt.c:421:     RdOff        += NumBytesRem;
 421:.\utilities\src/segger_rtt.c ****     RdOff        += NumBytesRem;
 746              		.loc 1 421 0
 747 01b6 A419     		adds	r4, r4, r6	@ RdOff, RdOff, <retval>
 748              	.LVL61:
 749              	@ .\utilities\src\segger_rtt.c:419:     pBuffer      += NumBytesRem;
 419:.\utilities\src/segger_rtt.c ****     BufferSize   -= NumBytesRem;
 750              		.loc 1 419 0
 751 01b8 9B19     		adds	r3, r3, r6	@ pData, pData, <retval>
 752              	.LVL62:
 753 01ba 0293     		str	r3, [sp, #8]	@ pData, %sfp
 754              	.LVL63:
 755              	@ .\utilities\src\segger_rtt.c:425:     if (RdOff == pRing->SizeOfBuffer) {
 422:.\utilities\src/segger_rtt.c ****     //
 423:.\utilities\src/segger_rtt.c ****     // Handle wrap-around of buffer
 424:.\utilities\src/segger_rtt.c ****     //
 425:.\utilities\src/segger_rtt.c ****     if (RdOff == pRing->SizeOfBuffer) {
 756              		.loc 1 425 0
 757 01bc BB6E     		ldr	r3, [r7, #104]	@ MEM[(struct SEGGER_RTT_BUFFER_DOWN *)&_SEGGER_RTT].aDown[BufferIndex_20(D)].S
 758              	.LVL64:
 759 01be A342     		cmp	r3, r4	@ MEM[(struct SEGGER_RTT_BUFFER_DOWN *)&_SEGGER_RTT].aDown[BufferIndex_20(D)].SizeOfBuf
 760 01c0 00D1     		bne	.L26	@,
 761              	@ .\utilities\src\segger_rtt.c:426:       RdOff = 0u;
 426:.\utilities\src/segger_rtt.c ****       RdOff = 0u;
 762              		.loc 1 426 0
 763 01c2 0024     		movs	r4, #0	@ RdOff,
 764              	.LVL65:
 765              	.L26:
 766              	@ .\utilities\src\segger_rtt.c:432:   NumBytesRem = WrOff - RdOff;
 427:.\utilities\src/segger_rtt.c ****     }
 428:.\utilities\src/segger_rtt.c ****   }
ARM GAS  C:\Users\claym\AppData\Local\Temp\ccb01mZK.s 			page 24


 429:.\utilities\src/segger_rtt.c ****   //
 430:.\utilities\src/segger_rtt.c ****   // Read remaining items of buffer
 431:.\utilities\src/segger_rtt.c ****   //
 432:.\utilities\src/segger_rtt.c ****   NumBytesRem = WrOff - RdOff;
 767              		.loc 1 432 0
 768 01c4 039B     		ldr	r3, [sp, #12]	@ WrOff, %sfp
 769 01c6 1B1B     		subs	r3, r3, r4	@ NumBytesRem, WrOff, RdOff
 770              	.LVL66:
 771              	@ .\utilities\src\segger_rtt.c:433:   NumBytesRem = MIN(NumBytesRem, BufferSize);
 433:.\utilities\src/segger_rtt.c ****   NumBytesRem = MIN(NumBytesRem, BufferSize);
 772              		.loc 1 433 0
 773 01c8 9D42     		cmp	r5, r3	@ NumBytesRem, NumBytesRem
 774 01ca 00D9     		bls	.L28	@,
 775 01cc 1D00     		movs	r5, r3	@ NumBytesRem, NumBytesRem
 776              	.L28:
 777              	.LVL67:
 778              	@ .\utilities\src\segger_rtt.c:434:   if (NumBytesRem > 0u) {
 434:.\utilities\src/segger_rtt.c ****   if (NumBytesRem > 0u) {
 779              		.loc 1 434 0
 780 01ce 002D     		cmp	r5, #0	@ NumBytesRem,
 781 01d0 0CD0     		beq	.L29	@,
 782              	@ .\utilities\src\segger_rtt.c:435:     memcpy(pBuffer, pRing->pBuffer + RdOff, NumBytesRem);
 435:.\utilities\src/segger_rtt.c ****     memcpy(pBuffer, pRing->pBuffer + RdOff, NumBytesRem);
 783              		.loc 1 435 0
 784 01d2 1823     		movs	r3, #24	@ tmp163,
 785 01d4 019A     		ldr	r2, [sp, #4]	@ BufferIndex, %sfp
 786 01d6 0298     		ldr	r0, [sp, #8]	@, %sfp
 787 01d8 5343     		muls	r3, r2	@ tmp164, BufferIndex
 788 01da 0A4A     		ldr	r2, .L38	@ tmp209,
 789              	@ .\utilities\src\segger_rtt.c:436:     NumBytesRead += NumBytesRem;
 436:.\utilities\src/segger_rtt.c ****     NumBytesRead += NumBytesRem;
 790              		.loc 1 436 0
 791 01dc 7619     		adds	r6, r6, r5	@ <retval>, <retval>, NumBytesRem
 792              	.LVL68:
 793              	@ .\utilities\src\segger_rtt.c:435:     memcpy(pBuffer, pRing->pBuffer + RdOff, NumBytesRem);
 435:.\utilities\src/segger_rtt.c ****     memcpy(pBuffer, pRing->pBuffer + RdOff, NumBytesRem);
 794              		.loc 1 435 0
 795 01de D318     		adds	r3, r2, r3	@ tmp165, tmp209, tmp164
 796 01e0 596E     		ldr	r1, [r3, #100]	@ MEM[(struct SEGGER_RTT_BUFFER_DOWN *)&_SEGGER_RTT].aDown[BufferIndex_20(D)].p
 797 01e2 2A00     		movs	r2, r5	@, NumBytesRem
 798 01e4 0919     		adds	r1, r1, r4	@ tmp167, MEM[(struct SEGGER_RTT_BUFFER_DOWN *)&_SEGGER_RTT].aDown[BufferIndex_20(
 799 01e6 FFF7FEFF 		bl	memcpy	@
 800              	.LVL69:
 801              	@ .\utilities\src\segger_rtt.c:439:     RdOff        += NumBytesRem;
 437:.\utilities\src/segger_rtt.c ****     pBuffer      += NumBytesRem;
 438:.\utilities\src/segger_rtt.c ****     BufferSize   -= NumBytesRem;
 439:.\utilities\src/segger_rtt.c ****     RdOff        += NumBytesRem;
 802              		.loc 1 439 0
 803 01ea 6419     		adds	r4, r4, r5	@ RdOff, RdOff, NumBytesRem
 804              	.LVL70:
 805              	.L29:
 806              	@ .\utilities\src\segger_rtt.c:441:   if (NumBytesRead) {
 440:.\utilities\src/segger_rtt.c ****   }
 441:.\utilities\src/segger_rtt.c ****   if (NumBytesRead) {
 807              		.loc 1 441 0
 808 01ec 002E     		cmp	r6, #0	@ <retval>,
 809 01ee 05D0     		beq	.L24	@,
ARM GAS  C:\Users\claym\AppData\Local\Temp\ccb01mZK.s 			page 25


 810              	@ .\utilities\src\segger_rtt.c:442:     pRing->RdOff = RdOff;
 442:.\utilities\src/segger_rtt.c ****     pRing->RdOff = RdOff;
 811              		.loc 1 442 0
 812 01f0 1822     		movs	r2, #24	@ tmp175,
 813 01f2 019B     		ldr	r3, [sp, #4]	@ BufferIndex, %sfp
 814 01f4 5A43     		muls	r2, r3	@ tmp176, BufferIndex
 815 01f6 034B     		ldr	r3, .L38	@ tmp174,
 816 01f8 9B18     		adds	r3, r3, r2	@ tmp177, tmp174, tmp176
 817 01fa 1C67     		str	r4, [r3, #112]	@ RdOff, MEM[(struct SEGGER_RTT_BUFFER_DOWN *)&_SEGGER_RTT].aDown[BufferIndex_2
 818              	.L24:
 819              	@ .\utilities\src\segger_rtt.c:446: }
 443:.\utilities\src/segger_rtt.c ****   }
 444:.\utilities\src/segger_rtt.c ****   //
 445:.\utilities\src/segger_rtt.c ****   return NumBytesRead;
 446:.\utilities\src/segger_rtt.c **** }
 820              		.loc 1 446 0
 821 01fc 3000     		movs	r0, r6	@, <retval>
 822 01fe 05B0     		add	sp, sp, #20	@,,
 823              		@ sp needed	@
 824              	.LVL71:
 825              	.LVL72:
 826              	.LVL73:
 827 0200 F0BD     		pop	{r4, r5, r6, r7, pc}
 828              	.L39:
 829 0202 C046     		.align	2
 830              	.L38:
 831 0204 00000000 		.word	_SEGGER_RTT
 832              		.cfi_endproc
 833              	.LFE5:
 834              		.size	SEGGER_RTT_ReadNoLock, .-SEGGER_RTT_ReadNoLock
 835              		.align	1
 836              		.global	SEGGER_RTT_Read
 837              		.syntax unified
 838              		.code	16
 839              		.thumb_func
 840              		.fpu softvfp
 841              		.type	SEGGER_RTT_Read, %function
 842              	SEGGER_RTT_Read:
 843              	.LFB6:
 447:.\utilities\src/segger_rtt.c **** 
 448:.\utilities\src/segger_rtt.c **** /*********************************************************************
 449:.\utilities\src/segger_rtt.c **** *
 450:.\utilities\src/segger_rtt.c **** *       SEGGER_RTT_Read
 451:.\utilities\src/segger_rtt.c **** *
 452:.\utilities\src/segger_rtt.c **** *  Function description
 453:.\utilities\src/segger_rtt.c **** *    Reads characters from SEGGER real-time-terminal control block
 454:.\utilities\src/segger_rtt.c **** *    which have been previously stored by the host.
 455:.\utilities\src/segger_rtt.c **** *
 456:.\utilities\src/segger_rtt.c **** *  Parameters
 457:.\utilities\src/segger_rtt.c **** *    BufferIndex  Index of Down-buffer to be used (e.g. 0 for "Terminal").
 458:.\utilities\src/segger_rtt.c **** *    pBuffer      Pointer to buffer provided by target application, to copy characters from RTT-dow
 459:.\utilities\src/segger_rtt.c **** *    BufferSize   Size of the target application buffer.
 460:.\utilities\src/segger_rtt.c **** *
 461:.\utilities\src/segger_rtt.c **** *  Return value
 462:.\utilities\src/segger_rtt.c **** *    Number of bytes that have been read.
 463:.\utilities\src/segger_rtt.c **** */
 464:.\utilities\src/segger_rtt.c **** unsigned SEGGER_RTT_Read(unsigned BufferIndex, void* pBuffer, unsigned BufferSize) {
ARM GAS  C:\Users\claym\AppData\Local\Temp\ccb01mZK.s 			page 26


 844              		.loc 1 464 0
 845              		.cfi_startproc
 846              		@ args = 0, pretend = 0, frame = 0
 847              		@ frame_needed = 0, uses_anonymous_args = 0
 848              	.LVL74:
 849 0208 10B5     		push	{r4, lr}	@
 850              	.LCFI6:
 851              		.cfi_def_cfa_offset 8
 852              		.cfi_offset 4, -8
 853              		.cfi_offset 14, -4
 854              	@ .\utilities\src\segger_rtt.c:464: unsigned SEGGER_RTT_Read(unsigned BufferIndex, void* pBuffer, u
 855              		.loc 1 464 0
 856 020a 0B00     		movs	r3, r1	@ pBuffer, pBuffer
 857              	.LBB2:
 858              	@ .\utilities\src\segger_rtt.c:467:   SEGGER_RTT_LOCK();
 465:.\utilities\src/segger_rtt.c ****   unsigned NumBytesRead;
 466:.\utilities\src/segger_rtt.c ****   //
 467:.\utilities\src/segger_rtt.c ****   SEGGER_RTT_LOCK();
 859              		.loc 1 467 0
 860              		.syntax divided
 861              	@ 467 ".\utilities\src\segger_rtt.c" 1
 862 020c EFF31084 		mrs   r4, primask  	@ LockState
 863 0210 0121     		mov   r1, $1     
 864 0212 81F31088 		msr   primask, r1  
 865              		
 866              	@ 0 "" 2
 867              	.LVL75:
 868              	@ .\utilities\src\segger_rtt.c:471:   NumBytesRead = SEGGER_RTT_ReadNoLock(BufferIndex, pBuffer, Bu
 468:.\utilities\src/segger_rtt.c ****   //
 469:.\utilities\src/segger_rtt.c ****   // Call the non-locking read function
 470:.\utilities\src/segger_rtt.c ****   //
 471:.\utilities\src/segger_rtt.c ****   NumBytesRead = SEGGER_RTT_ReadNoLock(BufferIndex, pBuffer, BufferSize);
 869              		.loc 1 471 0
 870              		.thumb
 871              		.syntax unified
 872 0216 1900     		movs	r1, r3	@, pBuffer
 873 0218 FFF7FEFF 		bl	SEGGER_RTT_ReadNoLock	@
 874              	.LVL76:
 875              	@ .\utilities\src\segger_rtt.c:475:   SEGGER_RTT_UNLOCK();
 472:.\utilities\src/segger_rtt.c ****   //
 473:.\utilities\src/segger_rtt.c ****   // Finish up.
 474:.\utilities\src/segger_rtt.c ****   //
 475:.\utilities\src/segger_rtt.c ****   SEGGER_RTT_UNLOCK();
 876              		.loc 1 475 0
 877              		.syntax divided
 878              	@ 475 ".\utilities\src\segger_rtt.c" 1
 879 021c 84F31088 		msr   primask, r4  	@ LockState
 880              		
 881              	@ 0 "" 2
 882              		.thumb
 883              		.syntax unified
 884              	.LBE2:
 885              	@ .\utilities\src\segger_rtt.c:478: }
 476:.\utilities\src/segger_rtt.c ****   //
 477:.\utilities\src/segger_rtt.c ****   return NumBytesRead;
 478:.\utilities\src/segger_rtt.c **** }
 886              		.loc 1 478 0
ARM GAS  C:\Users\claym\AppData\Local\Temp\ccb01mZK.s 			page 27


 887              		@ sp needed	@
 888              	.LVL77:
 889 0220 10BD     		pop	{r4, pc}
 890              		.cfi_endproc
 891              	.LFE6:
 892              		.size	SEGGER_RTT_Read, .-SEGGER_RTT_Read
 893              		.align	1
 894              		.global	SEGGER_RTT_WriteSkipNoLock
 895              		.syntax unified
 896              		.code	16
 897              		.thumb_func
 898              		.fpu softvfp
 899              		.type	SEGGER_RTT_WriteSkipNoLock, %function
 900              	SEGGER_RTT_WriteSkipNoLock:
 901              	.LFB7:
 479:.\utilities\src/segger_rtt.c **** 
 480:.\utilities\src/segger_rtt.c **** /*********************************************************************
 481:.\utilities\src/segger_rtt.c **** *
 482:.\utilities\src/segger_rtt.c **** *       SEGGER_RTT_WriteSkipNoLock
 483:.\utilities\src/segger_rtt.c **** *
 484:.\utilities\src/segger_rtt.c **** *  Function description
 485:.\utilities\src/segger_rtt.c **** *    Stores a specified number of characters in SEGGER RTT
 486:.\utilities\src/segger_rtt.c **** *    control block which is then read by the host.
 487:.\utilities\src/segger_rtt.c **** *    SEGGER_RTT_WriteSkipNoLock does not lock the application and
 488:.\utilities\src/segger_rtt.c **** *    skips all data, if the data does not fit into the buffer.
 489:.\utilities\src/segger_rtt.c **** *
 490:.\utilities\src/segger_rtt.c **** *  Parameters
 491:.\utilities\src/segger_rtt.c **** *    BufferIndex  Index of "Up"-buffer to be used (e.g. 0 for "Terminal").
 492:.\utilities\src/segger_rtt.c **** *    pBuffer      Pointer to character array. Does not need to point to a \0 terminated string.
 493:.\utilities\src/segger_rtt.c **** *    NumBytes     Number of bytes to be stored in the SEGGER RTT control block.
 494:.\utilities\src/segger_rtt.c **** *
 495:.\utilities\src/segger_rtt.c **** *  Return value
 496:.\utilities\src/segger_rtt.c **** *    Number of bytes which have been stored in the "Up"-buffer.
 497:.\utilities\src/segger_rtt.c **** *
 498:.\utilities\src/segger_rtt.c **** *  Notes
 499:.\utilities\src/segger_rtt.c **** *    (1) If there is not enough space in the "Up"-buffer, all data is dropped.
 500:.\utilities\src/segger_rtt.c **** *    (2) For performance reasons this function does not call Init()
 501:.\utilities\src/segger_rtt.c **** *        and may only be called after RTT has been initialized.
 502:.\utilities\src/segger_rtt.c **** *        Either by calling SEGGER_RTT_Init() or calling another RTT API function first.
 503:.\utilities\src/segger_rtt.c **** */
 504:.\utilities\src/segger_rtt.c **** unsigned SEGGER_RTT_WriteSkipNoLock(unsigned BufferIndex, const void* pBuffer, unsigned NumBytes) {
 902              		.loc 1 504 0
 903              		.cfi_startproc
 904              		@ args = 0, pretend = 0, frame = 8
 905              		@ frame_needed = 0, uses_anonymous_args = 0
 906              	.LVL78:
 907 0222 F7B5     		push	{r0, r1, r2, r4, r5, r6, r7, lr}	@
 908              	.LCFI7:
 909              		.cfi_def_cfa_offset 32
 910              		.cfi_offset 0, -32
 911              		.cfi_offset 1, -28
 912              		.cfi_offset 2, -24
 913              		.cfi_offset 4, -20
 914              		.cfi_offset 5, -16
 915              		.cfi_offset 6, -12
 916              		.cfi_offset 7, -8
 917              		.cfi_offset 14, -4
ARM GAS  C:\Users\claym\AppData\Local\Temp\ccb01mZK.s 			page 28


 918              	.LVL79:
 919              	@ .\utilities\src\segger_rtt.c:517:   RdOff = pRing->RdOff;
 505:.\utilities\src/segger_rtt.c ****   const char*           pData;
 506:.\utilities\src/segger_rtt.c ****   SEGGER_RTT_BUFFER_UP* pRing;
 507:.\utilities\src/segger_rtt.c ****   unsigned              Avail;
 508:.\utilities\src/segger_rtt.c ****   unsigned              RdOff;
 509:.\utilities\src/segger_rtt.c ****   unsigned              WrOff;
 510:.\utilities\src/segger_rtt.c ****   unsigned              Rem;
 511:.\utilities\src/segger_rtt.c **** 
 512:.\utilities\src/segger_rtt.c ****   pData = (const char *)pBuffer;
 513:.\utilities\src/segger_rtt.c ****   //
 514:.\utilities\src/segger_rtt.c ****   // Get "to-host" ring buffer and copy some elements into local variables.
 515:.\utilities\src/segger_rtt.c ****   //
 516:.\utilities\src/segger_rtt.c ****   pRing = &_SEGGER_RTT.aUp[BufferIndex];
 517:.\utilities\src/segger_rtt.c ****   RdOff = pRing->RdOff;
 920              		.loc 1 517 0
 921 0224 1826     		movs	r6, #24	@ tmp161,
 922 0226 3700     		movs	r7, r6	@ tmp162, tmp161
 923 0228 4743     		muls	r7, r0	@ tmp162, BufferIndex
 924              	@ .\utilities\src\segger_rtt.c:504: unsigned SEGGER_RTT_WriteSkipNoLock(unsigned BufferIndex, const
 504:.\utilities\src/segger_rtt.c ****   const char*           pData;
 925              		.loc 1 504 0
 926 022a 0191     		str	r1, [sp, #4]	@ pBuffer, %sfp
 927              	.LVL80:
 928              	@ .\utilities\src\segger_rtt.c:517:   RdOff = pRing->RdOff;
 929              		.loc 1 517 0
 930 022c 2749     		ldr	r1, .L52	@ tmp160,
 931              	.LVL81:
 932              	@ .\utilities\src\segger_rtt.c:504: unsigned SEGGER_RTT_WriteSkipNoLock(unsigned BufferIndex, const
 504:.\utilities\src/segger_rtt.c ****   const char*           pData;
 933              		.loc 1 504 0
 934 022e 1500     		movs	r5, r2	@ NumBytes, NumBytes
 935              	@ .\utilities\src\segger_rtt.c:517:   RdOff = pRing->RdOff;
 936              		.loc 1 517 0
 937 0230 CF19     		adds	r7, r1, r7	@ tmp163, tmp160, tmp162
 938 0232 BA6A     		ldr	r2, [r7, #40]	@ RdOff, MEM[(struct SEGGER_RTT_BUFFER_UP *)&_SEGGER_RTT].aUp[BufferIndex_25(D)]
 939              	.LVL82:
 940              	@ .\utilities\src\segger_rtt.c:518:   WrOff = pRing->WrOff;
 518:.\utilities\src/segger_rtt.c ****   WrOff = pRing->WrOff;
 941              		.loc 1 518 0
 942 0234 7C6A     		ldr	r4, [r7, #36]	@ WrOff, MEM[(struct SEGGER_RTT_BUFFER_UP *)&_SEGGER_RTT].aUp[BufferIndex_25(D)]
 943              	.LVL83:
 944              	@ .\utilities\src\segger_rtt.c:504: unsigned SEGGER_RTT_WriteSkipNoLock(unsigned BufferIndex, const
 504:.\utilities\src/segger_rtt.c ****   const char*           pData;
 945              		.loc 1 504 0
 946 0236 0300     		movs	r3, r0	@ BufferIndex, BufferIndex
 947              	@ .\utilities\src\segger_rtt.c:532:   if (RdOff <= WrOff) {
 519:.\utilities\src/segger_rtt.c ****   //
 520:.\utilities\src/segger_rtt.c ****   // Handle the most common cases fastest.
 521:.\utilities\src/segger_rtt.c ****   // Which is:
 522:.\utilities\src/segger_rtt.c ****   //    RdOff <= WrOff -> Space until wrap around is free.
 523:.\utilities\src/segger_rtt.c ****   //  AND
 524:.\utilities\src/segger_rtt.c ****   //    WrOff + NumBytes < SizeOfBuffer -> No Wrap around necessary.
 525:.\utilities\src/segger_rtt.c ****   //
 526:.\utilities\src/segger_rtt.c ****   //  OR
 527:.\utilities\src/segger_rtt.c ****   //
 528:.\utilities\src/segger_rtt.c ****   //    RdOff > WrOff -> Space until RdOff - 1 is free.
ARM GAS  C:\Users\claym\AppData\Local\Temp\ccb01mZK.s 			page 29


 529:.\utilities\src/segger_rtt.c ****   //  AND
 530:.\utilities\src/segger_rtt.c ****   //    WrOff + NumBytes < RdOff -> Data fits into buffer
 531:.\utilities\src/segger_rtt.c ****   //
 532:.\utilities\src/segger_rtt.c ****   if (RdOff <= WrOff) {
 948              		.loc 1 532 0
 949 0238 A242     		cmp	r2, r4	@ RdOff, WrOff
 950 023a 3CD8     		bhi	.L42	@,
 951              	@ .\utilities\src\segger_rtt.c:536:     Avail = pRing->SizeOfBuffer - 1u - WrOff ;
 533:.\utilities\src/segger_rtt.c ****     //
 534:.\utilities\src/segger_rtt.c ****     // Get space until WrOff will be at wrap around.
 535:.\utilities\src/segger_rtt.c ****     //
 536:.\utilities\src/segger_rtt.c ****     Avail = pRing->SizeOfBuffer - 1u - WrOff ;
 952              		.loc 1 536 0
 953 023c 386A     		ldr	r0, [r7, #32]	@ tmp256, MEM[(struct SEGGER_RTT_BUFFER_UP *)&_SEGGER_RTT].aUp[BufferIndex_25(D)
 954              	.LVL84:
 955 023e 001B     		subs	r0, r0, r4	@ _2, tmp256, WrOff
 956 0240 0090     		str	r0, [sp]	@ _2, %sfp
 957 0242 0138     		subs	r0, r0, #1	@ Avail,
 958              	.LVL85:
 959              	@ .\utilities\src\segger_rtt.c:537:     if (Avail >= NumBytes) {
 537:.\utilities\src/segger_rtt.c ****     if (Avail >= NumBytes) {
 960              		.loc 1 537 0
 961 0244 8542     		cmp	r5, r0	@ NumBytes, Avail
 962 0246 12D8     		bhi	.L43	@,
 963              	.LBB3:
 964              	@ .\utilities\src\segger_rtt.c:541:       WrOff += NumBytes;
 538:.\utilities\src/segger_rtt.c **** #if 1 // memcpy() is good for large amounts of data, but the overhead is too big for small amounts.
 539:.\utilities\src/segger_rtt.c ****       char* pDst;
 540:.\utilities\src/segger_rtt.c ****       pDst = pRing->pBuffer + WrOff;
 541:.\utilities\src/segger_rtt.c ****       WrOff += NumBytes;
 965              		.loc 1 541 0
 966 0248 0022     		movs	r2, #0	@ ivtmp.46,
 967              	.LVL86:
 968              	@ .\utilities\src\segger_rtt.c:540:       pDst = pRing->pBuffer + WrOff;
 540:.\utilities\src/segger_rtt.c ****       WrOff += NumBytes;
 969              		.loc 1 540 0
 970 024a 581C     		adds	r0, r3, #1	@ tmp177, BufferIndex,
 971              	.LVL87:
 972 024c 4643     		muls	r6, r0	@ tmp179, tmp177
 973 024e 8E19     		adds	r6, r1, r6	@ tmp180, tmp160, tmp179
 974              	.LVL88:
 975 0250 7068     		ldr	r0, [r6, #4]	@ MEM[(struct SEGGER_RTT_BUFFER_UP *)&_SEGGER_RTT].aUp[BufferIndex_25(D)].pBuffer
 976 0252 0019     		adds	r0, r0, r4	@ pDst, MEM[(struct SEGGER_RTT_BUFFER_UP *)&_SEGGER_RTT].aUp[BufferIndex_25(D)].pB
 977              	.LVL89:
 978              	@ .\utilities\src\segger_rtt.c:541:       WrOff += NumBytes;
 979              		.loc 1 541 0
 980 0254 6419     		adds	r4, r4, r5	@ WrOff, WrOff, NumBytes
 981              	.LVL90:
 982              	.L44:
 983              	@ .\utilities\src\segger_rtt.c:543:         *pDst++ = *pData++;
 542:.\utilities\src/segger_rtt.c ****       do {
 543:.\utilities\src/segger_rtt.c ****         *pDst++ = *pData++;
 984              		.loc 1 543 0 discriminator 1
 985 0256 019E     		ldr	r6, [sp, #4]	@ pBuffer, %sfp
 986 0258 B65C     		ldrb	r6, [r6, r2]	@ _4, MEM[base: pBuffer_24(D), index: ivtmp.46_9, offset: 0B]
 987 025a 8654     		strb	r6, [r0, r2]	@ _4, MEM[base: pDst_40, index: ivtmp.46_9, offset: 0B]
 988              	.LVL91:
ARM GAS  C:\Users\claym\AppData\Local\Temp\ccb01mZK.s 			page 30


 989 025c 0132     		adds	r2, r2, #1	@ ivtmp.46,
 990              	.LVL92:
 991              	@ .\utilities\src\segger_rtt.c:544:       } while (--NumBytes);
 544:.\utilities\src/segger_rtt.c ****       } while (--NumBytes);
 992              		.loc 1 544 0 discriminator 1
 993 025e AA42     		cmp	r2, r5	@ ivtmp.46, NumBytes
 994 0260 F9D1     		bne	.L44	@,
 995              	@ .\utilities\src\segger_rtt.c:545:       pRing->WrOff = WrOff + NumBytes;
 545:.\utilities\src/segger_rtt.c ****       pRing->WrOff = WrOff + NumBytes;
 996              		.loc 1 545 0
 997 0262 1826     		movs	r6, #24	@ tmp185,
 998 0264 5E43     		muls	r6, r3	@ tmp186, BufferIndex
 999 0266 8E19     		adds	r6, r1, r6	@ tmp187, tmp160, tmp186
 1000 0268 7462     		str	r4, [r6, #36]	@ WrOff, MEM[(struct SEGGER_RTT_BUFFER_UP *)&_SEGGER_RTT].aUp[BufferIndex_25(D)]
 1001              	.LVL93:
 1002              	.L50:
 1003              	.LBE3:
 1004              	@ .\utilities\src\segger_rtt.c:582:       return 1;
 546:.\utilities\src/segger_rtt.c **** #else
 547:.\utilities\src/segger_rtt.c ****       memcpy(pRing->pBuffer + WrOff, pData, NumBytes);
 548:.\utilities\src/segger_rtt.c ****       pRing->WrOff = WrOff + NumBytes;
 549:.\utilities\src/segger_rtt.c **** #endif
 550:.\utilities\src/segger_rtt.c ****       return 1;
 551:.\utilities\src/segger_rtt.c ****     }
 552:.\utilities\src/segger_rtt.c ****     //
 553:.\utilities\src/segger_rtt.c ****     // If data did not fit into space until wrap around calculate complete space in buffer.
 554:.\utilities\src/segger_rtt.c ****     //
 555:.\utilities\src/segger_rtt.c ****     Avail += RdOff;
 556:.\utilities\src/segger_rtt.c ****     //
 557:.\utilities\src/segger_rtt.c ****     // If there is still no space for the whole of this output, don't bother.
 558:.\utilities\src/segger_rtt.c ****     //
 559:.\utilities\src/segger_rtt.c ****     if (Avail >= NumBytes) {
 560:.\utilities\src/segger_rtt.c ****       //
 561:.\utilities\src/segger_rtt.c ****       //  OK, we have enough space in buffer. Copy in one or 2 chunks
 562:.\utilities\src/segger_rtt.c ****       //
 563:.\utilities\src/segger_rtt.c ****       Rem = pRing->SizeOfBuffer - WrOff;      // Space until end of buffer
 564:.\utilities\src/segger_rtt.c ****       if (Rem > NumBytes) {
 565:.\utilities\src/segger_rtt.c ****         memcpy(pRing->pBuffer + WrOff, pData, NumBytes);
 566:.\utilities\src/segger_rtt.c ****         pRing->WrOff = WrOff + NumBytes;
 567:.\utilities\src/segger_rtt.c ****       } else {
 568:.\utilities\src/segger_rtt.c ****         //
 569:.\utilities\src/segger_rtt.c ****         // We reach the end of the buffer, so need to wrap around
 570:.\utilities\src/segger_rtt.c ****         //
 571:.\utilities\src/segger_rtt.c ****         memcpy(pRing->pBuffer + WrOff, pData, Rem);
 572:.\utilities\src/segger_rtt.c ****         memcpy(pRing->pBuffer, pData + Rem, NumBytes - Rem);
 573:.\utilities\src/segger_rtt.c ****         pRing->WrOff = NumBytes - Rem;
 574:.\utilities\src/segger_rtt.c ****       }
 575:.\utilities\src/segger_rtt.c ****       return 1;
 576:.\utilities\src/segger_rtt.c ****     }
 577:.\utilities\src/segger_rtt.c ****   } else {
 578:.\utilities\src/segger_rtt.c ****     Avail = RdOff - WrOff - 1u;
 579:.\utilities\src/segger_rtt.c ****     if (Avail >= NumBytes) {
 580:.\utilities\src/segger_rtt.c ****       memcpy(pRing->pBuffer + WrOff, pData, NumBytes);
 581:.\utilities\src/segger_rtt.c ****       pRing->WrOff = WrOff + NumBytes;
 582:.\utilities\src/segger_rtt.c ****       return 1;
 1005              		.loc 1 582 0
 1006 026a 0120     		movs	r0, #1	@ <retval>,
ARM GAS  C:\Users\claym\AppData\Local\Temp\ccb01mZK.s 			page 31


 1007              	.L41:
 1008              	@ .\utilities\src\segger_rtt.c:589: }
 583:.\utilities\src/segger_rtt.c ****     }
 584:.\utilities\src/segger_rtt.c ****   }
 585:.\utilities\src/segger_rtt.c ****   //
 586:.\utilities\src/segger_rtt.c ****   // If we reach this point no data has been written
 587:.\utilities\src/segger_rtt.c ****   //
 588:.\utilities\src/segger_rtt.c ****   return 0;
 589:.\utilities\src/segger_rtt.c **** }
 1009              		.loc 1 589 0
 1010              		@ sp needed	@
 1011 026c FEBD     		pop	{r1, r2, r3, r4, r5, r6, r7, pc}
 1012              	.LVL94:
 1013              	.L43:
 1014              	@ .\utilities\src\segger_rtt.c:555:     Avail += RdOff;
 555:.\utilities\src/segger_rtt.c ****     //
 1015              		.loc 1 555 0
 1016 026e 1218     		adds	r2, r2, r0	@ Avail, RdOff, Avail
 1017              	.LVL95:
 1018              	@ .\utilities\src\segger_rtt.c:588:   return 0;
 588:.\utilities\src/segger_rtt.c **** }
 1019              		.loc 1 588 0
 1020 0270 0020     		movs	r0, #0	@ <retval>,
 1021              	@ .\utilities\src\segger_rtt.c:559:     if (Avail >= NumBytes) {
 559:.\utilities\src/segger_rtt.c ****       //
 1022              		.loc 1 559 0
 1023 0272 9542     		cmp	r5, r2	@ NumBytes, Avail
 1024 0274 FAD8     		bhi	.L41	@,
 1025              	.LVL96:
 1026 0276 0133     		adds	r3, r3, #1	@ tmp191,
 1027              	.LVL97:
 1028 0278 5E43     		muls	r6, r3	@ tmp193, tmp191
 1029 027a 8E19     		adds	r6, r1, r6	@ tmp194, tmp160, tmp193
 1030 027c 7368     		ldr	r3, [r6, #4]	@ tmp259, MEM[(struct SEGGER_RTT_BUFFER_UP *)&_SEGGER_RTT].aUp[BufferIndex_25(D)]
 1031              	.LVL98:
 1032 027e 1819     		adds	r0, r3, r4	@ _14, tmp259, WrOff
 1033              	@ .\utilities\src\segger_rtt.c:564:       if (Rem > NumBytes) {
 564:.\utilities\src/segger_rtt.c ****         memcpy(pRing->pBuffer + WrOff, pData, NumBytes);
 1034              		.loc 1 564 0
 1035 0280 009B     		ldr	r3, [sp]	@ _2, %sfp
 1036 0282 AB42     		cmp	r3, r5	@ _2, NumBytes
 1037 0284 06D9     		bls	.L46	@,
 1038              	.LVL99:
 1039              	.L51:
 1040              	@ .\utilities\src\segger_rtt.c:580:       memcpy(pRing->pBuffer + WrOff, pData, NumBytes);
 580:.\utilities\src/segger_rtt.c ****       pRing->WrOff = WrOff + NumBytes;
 1041              		.loc 1 580 0
 1042 0286 2A00     		movs	r2, r5	@, NumBytes
 1043 0288 0199     		ldr	r1, [sp, #4]	@, %sfp
 1044              	@ .\utilities\src\segger_rtt.c:581:       pRing->WrOff = WrOff + NumBytes;
 581:.\utilities\src/segger_rtt.c ****       return 1;
 1045              		.loc 1 581 0
 1046 028a 6419     		adds	r4, r4, r5	@ tmp251, WrOff, NumBytes
 1047              	.LVL100:
 1048              	@ .\utilities\src\segger_rtt.c:580:       memcpy(pRing->pBuffer + WrOff, pData, NumBytes);
 580:.\utilities\src/segger_rtt.c ****       pRing->WrOff = WrOff + NumBytes;
 1049              		.loc 1 580 0
ARM GAS  C:\Users\claym\AppData\Local\Temp\ccb01mZK.s 			page 32


 1050 028c FFF7FEFF 		bl	memcpy	@
 1051              	.LVL101:
 1052              	@ .\utilities\src\segger_rtt.c:581:       pRing->WrOff = WrOff + NumBytes;
 581:.\utilities\src/segger_rtt.c ****       return 1;
 1053              		.loc 1 581 0
 1054 0290 7C62     		str	r4, [r7, #36]	@ tmp251, MEM[(struct SEGGER_RTT_BUFFER_UP *)&_SEGGER_RTT].aUp[BufferIndex_25(D)
 1055 0292 EAE7     		b	.L50	@
 1056              	.LVL102:
 1057              	.L46:
 1058              	@ .\utilities\src\segger_rtt.c:571:         memcpy(pRing->pBuffer + WrOff, pData, Rem);
 571:.\utilities\src/segger_rtt.c ****         memcpy(pRing->pBuffer, pData + Rem, NumBytes - Rem);
 1059              		.loc 1 571 0
 1060 0294 009A     		ldr	r2, [sp]	@, %sfp
 1061              	.LVL103:
 1062 0296 0199     		ldr	r1, [sp, #4]	@, %sfp
 1063 0298 FFF7FEFF 		bl	memcpy	@
 1064              	.LVL104:
 1065              	@ .\utilities\src\segger_rtt.c:572:         memcpy(pRing->pBuffer, pData + Rem, NumBytes - Rem);
 572:.\utilities\src/segger_rtt.c ****         pRing->WrOff = NumBytes - Rem;
 1066              		.loc 1 572 0
 1067 029c 009A     		ldr	r2, [sp]	@ _2, %sfp
 1068 029e 009B     		ldr	r3, [sp]	@ _2, %sfp
 1069 02a0 9446     		mov	ip, r2	@ _2, _2
 1070 02a2 ED1A     		subs	r5, r5, r3	@ _13, NumBytes, _2
 1071              	.LVL105:
 1072 02a4 019B     		ldr	r3, [sp, #4]	@ pBuffer, %sfp
 1073 02a6 7068     		ldr	r0, [r6, #4]	@ MEM[(struct SEGGER_RTT_BUFFER_UP *)&_SEGGER_RTT].aUp[BufferIndex_25(D)].pBuffer
 1074 02a8 6344     		add	r3, r3, ip	@ pBuffer, _2
 1075 02aa 1900     		movs	r1, r3	@ tmp220, pBuffer
 1076 02ac 2A00     		movs	r2, r5	@, _13
 1077 02ae FFF7FEFF 		bl	memcpy	@
 1078              	.LVL106:
 1079              	@ .\utilities\src\segger_rtt.c:573:         pRing->WrOff = NumBytes - Rem;
 573:.\utilities\src/segger_rtt.c ****       }
 1080              		.loc 1 573 0
 1081 02b2 7D62     		str	r5, [r7, #36]	@ _13, MEM[(struct SEGGER_RTT_BUFFER_UP *)&_SEGGER_RTT].aUp[BufferIndex_25(D)].W
 1082 02b4 D9E7     		b	.L50	@
 1083              	.LVL107:
 1084              	.L42:
 1085              	@ .\utilities\src\segger_rtt.c:578:     Avail = RdOff - WrOff - 1u;
 578:.\utilities\src/segger_rtt.c ****     if (Avail >= NumBytes) {
 1086              		.loc 1 578 0
 1087 02b6 013A     		subs	r2, r2, #1	@ tmp231,
 1088              	.LVL108:
 1089 02b8 121B     		subs	r2, r2, r4	@ Avail, tmp231, WrOff
 1090              	.LVL109:
 1091              	@ .\utilities\src\segger_rtt.c:588:   return 0;
 588:.\utilities\src/segger_rtt.c **** }
 1092              		.loc 1 588 0
 1093 02ba 0020     		movs	r0, #0	@ <retval>,
 1094              	.LVL110:
 1095              	@ .\utilities\src\segger_rtt.c:579:     if (Avail >= NumBytes) {
 579:.\utilities\src/segger_rtt.c ****       memcpy(pRing->pBuffer + WrOff, pData, NumBytes);
 1096              		.loc 1 579 0
 1097 02bc AA42     		cmp	r2, r5	@ Avail, NumBytes
 1098 02be D5D3     		bcc	.L41	@,
 1099              	@ .\utilities\src\segger_rtt.c:580:       memcpy(pRing->pBuffer + WrOff, pData, NumBytes);
ARM GAS  C:\Users\claym\AppData\Local\Temp\ccb01mZK.s 			page 33


 580:.\utilities\src/segger_rtt.c ****       pRing->WrOff = WrOff + NumBytes;
 1100              		.loc 1 580 0
 1101 02c0 0133     		adds	r3, r3, #1	@ tmp234,
 1102              	.LVL111:
 1103 02c2 5E43     		muls	r6, r3	@ tmp236, tmp234
 1104 02c4 8E19     		adds	r6, r1, r6	@ tmp237, tmp160, tmp236
 1105 02c6 7068     		ldr	r0, [r6, #4]	@ MEM[(struct SEGGER_RTT_BUFFER_UP *)&_SEGGER_RTT].aUp[BufferIndex_25(D)].pBuffer
 1106 02c8 0019     		adds	r0, r0, r4	@ tmp239, MEM[(struct SEGGER_RTT_BUFFER_UP *)&_SEGGER_RTT].aUp[BufferIndex_25(D)].
 1107 02ca DCE7     		b	.L51	@
 1108              	.L53:
 1109              		.align	2
 1110              	.L52:
 1111 02cc 00000000 		.word	_SEGGER_RTT
 1112              		.cfi_endproc
 1113              	.LFE7:
 1114              		.size	SEGGER_RTT_WriteSkipNoLock, .-SEGGER_RTT_WriteSkipNoLock
 1115              		.align	1
 1116              		.global	SEGGER_RTT_WriteNoLock
 1117              		.syntax unified
 1118              		.code	16
 1119              		.thumb_func
 1120              		.fpu softvfp
 1121              		.type	SEGGER_RTT_WriteNoLock, %function
 1122              	SEGGER_RTT_WriteNoLock:
 1123              	.LFB8:
 590:.\utilities\src/segger_rtt.c **** 
 591:.\utilities\src/segger_rtt.c **** /*********************************************************************
 592:.\utilities\src/segger_rtt.c **** *
 593:.\utilities\src/segger_rtt.c **** *       SEGGER_RTT_WriteNoLock
 594:.\utilities\src/segger_rtt.c **** *
 595:.\utilities\src/segger_rtt.c **** *  Function description
 596:.\utilities\src/segger_rtt.c **** *    Stores a specified number of characters in SEGGER RTT
 597:.\utilities\src/segger_rtt.c **** *    control block which is then read by the host.
 598:.\utilities\src/segger_rtt.c **** *    SEGGER_RTT_WriteNoLock does not lock the application.
 599:.\utilities\src/segger_rtt.c **** *
 600:.\utilities\src/segger_rtt.c **** *  Parameters
 601:.\utilities\src/segger_rtt.c **** *    BufferIndex  Index of "Up"-buffer to be used (e.g. 0 for "Terminal").
 602:.\utilities\src/segger_rtt.c **** *    pBuffer      Pointer to character array. Does not need to point to a \0 terminated string.
 603:.\utilities\src/segger_rtt.c **** *    NumBytes     Number of bytes to be stored in the SEGGER RTT control block.
 604:.\utilities\src/segger_rtt.c **** *
 605:.\utilities\src/segger_rtt.c **** *  Return value
 606:.\utilities\src/segger_rtt.c **** *    Number of bytes which have been stored in the "Up"-buffer.
 607:.\utilities\src/segger_rtt.c **** *
 608:.\utilities\src/segger_rtt.c **** *  Notes
 609:.\utilities\src/segger_rtt.c **** *    (1) If there is not enough space in the "Up"-buffer, remaining characters of pBuffer are dropp
 610:.\utilities\src/segger_rtt.c **** *    (2) For performance reasons this function does not call Init()
 611:.\utilities\src/segger_rtt.c **** *        and may only be called after RTT has been initialized.
 612:.\utilities\src/segger_rtt.c **** *        Either by calling SEGGER_RTT_Init() or calling another RTT API function first.
 613:.\utilities\src/segger_rtt.c **** */
 614:.\utilities\src/segger_rtt.c **** unsigned SEGGER_RTT_WriteNoLock(unsigned BufferIndex, const void* pBuffer, unsigned NumBytes) {
 1124              		.loc 1 614 0
 1125              		.cfi_startproc
 1126              		@ args = 0, pretend = 0, frame = 0
 1127              		@ frame_needed = 0, uses_anonymous_args = 0
 1128              	.LVL112:
 1129 02d0 F8B5     		push	{r3, r4, r5, r6, r7, lr}	@
 1130              	.LCFI8:
ARM GAS  C:\Users\claym\AppData\Local\Temp\ccb01mZK.s 			page 34


 1131              		.cfi_def_cfa_offset 24
 1132              		.cfi_offset 3, -24
 1133              		.cfi_offset 4, -20
 1134              		.cfi_offset 5, -16
 1135              		.cfi_offset 6, -12
 1136              		.cfi_offset 7, -8
 1137              		.cfi_offset 14, -4
 1138              	@ .\utilities\src\segger_rtt.c:614: unsigned SEGGER_RTT_WriteNoLock(unsigned BufferIndex, const voi
 1139              		.loc 1 614 0
 1140 02d2 1600     		movs	r6, r2	@ NumBytes, NumBytes
 1141              	@ .\utilities\src\segger_rtt.c:624:   pRing = &_SEGGER_RTT.aUp[BufferIndex];
 615:.\utilities\src/segger_rtt.c ****   unsigned              Status;
 616:.\utilities\src/segger_rtt.c ****   unsigned              Avail;
 617:.\utilities\src/segger_rtt.c ****   const char*           pData;
 618:.\utilities\src/segger_rtt.c ****   SEGGER_RTT_BUFFER_UP* pRing;
 619:.\utilities\src/segger_rtt.c **** 
 620:.\utilities\src/segger_rtt.c ****   pData = (const char *)pBuffer;
 621:.\utilities\src/segger_rtt.c ****   //
 622:.\utilities\src/segger_rtt.c ****   // Get "to-host" ring buffer.
 623:.\utilities\src/segger_rtt.c ****   //
 624:.\utilities\src/segger_rtt.c ****   pRing = &_SEGGER_RTT.aUp[BufferIndex];
 1142              		.loc 1 624 0
 1143 02d4 1822     		movs	r2, #24	@ tmp120,
 1144              	.LVL113:
 1145 02d6 451C     		adds	r5, r0, #1	@ tmp119, BufferIndex,
 1146 02d8 5543     		muls	r5, r2	@ tmp121, tmp120
 1147              	@ .\utilities\src\segger_rtt.c:628:   switch (pRing->Flags) {
 625:.\utilities\src/segger_rtt.c ****   //
 626:.\utilities\src/segger_rtt.c ****   // How we output depends upon the mode...
 627:.\utilities\src/segger_rtt.c ****   //
 628:.\utilities\src/segger_rtt.c ****   switch (pRing->Flags) {
 1148              		.loc 1 628 0
 1149 02da 4243     		muls	r2, r0	@ tmp125, BufferIndex
 1150              	@ .\utilities\src\segger_rtt.c:624:   pRing = &_SEGGER_RTT.aUp[BufferIndex];
 624:.\utilities\src/segger_rtt.c ****   //
 1151              		.loc 1 624 0
 1152 02dc 164B     		ldr	r3, .L62	@ tmp122,
 1153              	@ .\utilities\src\segger_rtt.c:614: unsigned SEGGER_RTT_WriteNoLock(unsigned BufferIndex, const voi
 614:.\utilities\src/segger_rtt.c ****   unsigned              Status;
 1154              		.loc 1 614 0
 1155 02de 0F00     		movs	r7, r1	@ pBuffer, pBuffer
 1156              	@ .\utilities\src\segger_rtt.c:624:   pRing = &_SEGGER_RTT.aUp[BufferIndex];
 624:.\utilities\src/segger_rtt.c ****   //
 1157              		.loc 1 624 0
 1158 02e0 ED18     		adds	r5, r5, r3	@ pRing, tmp121, tmp122
 1159              	.LVL114:
 1160              	@ .\utilities\src\segger_rtt.c:628:   switch (pRing->Flags) {
 1161              		.loc 1 628 0
 1162 02e2 9B18     		adds	r3, r3, r2	@ tmp126, tmp122, tmp125
 1163 02e4 DC6A     		ldr	r4, [r3, #44]	@ <retval>, MEM[(struct SEGGER_RTT_BUFFER_UP *)&_SEGGER_RTT].aUp[BufferIndex_5(D
 1164 02e6 012C     		cmp	r4, #1	@ <retval>,
 1165 02e8 12D0     		beq	.L56	@,
 1166 02ea 002C     		cmp	r4, #0	@ <retval>,
 1167 02ec 03D0     		beq	.L57	@,
 1168 02ee 022C     		cmp	r4, #2	@ <retval>,
 1169 02f0 1BD0     		beq	.L58	@,
 1170              	@ .\utilities\src\segger_rtt.c:657:     Status = 0u;
ARM GAS  C:\Users\claym\AppData\Local\Temp\ccb01mZK.s 			page 35


 629:.\utilities\src/segger_rtt.c ****   case SEGGER_RTT_MODE_NO_BLOCK_SKIP:
 630:.\utilities\src/segger_rtt.c ****     //
 631:.\utilities\src/segger_rtt.c ****     // If we are in skip mode and there is no space for the whole
 632:.\utilities\src/segger_rtt.c ****     // of this output, don't bother.
 633:.\utilities\src/segger_rtt.c ****     //
 634:.\utilities\src/segger_rtt.c ****     Avail = _GetAvailWriteSpace(pRing);
 635:.\utilities\src/segger_rtt.c ****     if (Avail < NumBytes) {
 636:.\utilities\src/segger_rtt.c ****       Status = 0u;
 637:.\utilities\src/segger_rtt.c ****     } else {
 638:.\utilities\src/segger_rtt.c ****       Status = NumBytes;
 639:.\utilities\src/segger_rtt.c ****       _WriteNoCheck(pRing, pData, NumBytes);
 640:.\utilities\src/segger_rtt.c ****     }
 641:.\utilities\src/segger_rtt.c ****     break;
 642:.\utilities\src/segger_rtt.c ****   case SEGGER_RTT_MODE_NO_BLOCK_TRIM:
 643:.\utilities\src/segger_rtt.c ****     //
 644:.\utilities\src/segger_rtt.c ****     // If we are in trim mode, trim to what we can output without blocking.
 645:.\utilities\src/segger_rtt.c ****     //
 646:.\utilities\src/segger_rtt.c ****     Avail = _GetAvailWriteSpace(pRing);
 647:.\utilities\src/segger_rtt.c ****     Status = Avail < NumBytes ? Avail : NumBytes;
 648:.\utilities\src/segger_rtt.c ****     _WriteNoCheck(pRing, pData, Status);
 649:.\utilities\src/segger_rtt.c ****     break;
 650:.\utilities\src/segger_rtt.c ****   case SEGGER_RTT_MODE_BLOCK_IF_FIFO_FULL:
 651:.\utilities\src/segger_rtt.c ****     //
 652:.\utilities\src/segger_rtt.c ****     // If we are in blocking mode, output everything.
 653:.\utilities\src/segger_rtt.c ****     //
 654:.\utilities\src/segger_rtt.c ****     Status = _WriteBlocking(pRing, pData, NumBytes);
 655:.\utilities\src/segger_rtt.c ****     break;
 656:.\utilities\src/segger_rtt.c ****   default:
 657:.\utilities\src/segger_rtt.c ****     Status = 0u;
 1171              		.loc 1 657 0
 1172 02f2 0024     		movs	r4, #0	@ <retval>,
 1173              	.LVL115:
 1174              	@ .\utilities\src\segger_rtt.c:663:   return Status;
 658:.\utilities\src/segger_rtt.c ****     break;
 659:.\utilities\src/segger_rtt.c ****   }
 660:.\utilities\src/segger_rtt.c ****   //
 661:.\utilities\src/segger_rtt.c ****   // Finish up.
 662:.\utilities\src/segger_rtt.c ****   //
 663:.\utilities\src/segger_rtt.c ****   return Status;
 1175              		.loc 1 663 0
 1176 02f4 0AE0     		b	.L54	@
 1177              	.LVL116:
 1178              	.L57:
 1179              	@ .\utilities\src\segger_rtt.c:634:     Avail = _GetAvailWriteSpace(pRing);
 634:.\utilities\src/segger_rtt.c ****     if (Avail < NumBytes) {
 1180              		.loc 1 634 0
 1181 02f6 2800     		movs	r0, r5	@, pRing
 1182              	.LVL117:
 1183 02f8 FFF782FE 		bl	_GetAvailWriteSpace	@
 1184              	.LVL118:
 1185              	@ .\utilities\src\segger_rtt.c:635:     if (Avail < NumBytes) {
 635:.\utilities\src/segger_rtt.c ****       Status = 0u;
 1186              		.loc 1 635 0
 1187 02fc 8642     		cmp	r6, r0	@ NumBytes, Avail
 1188 02fe 05D8     		bhi	.L54	@,
 1189              	.LVL119:
 1190              	@ .\utilities\src\segger_rtt.c:639:       _WriteNoCheck(pRing, pData, NumBytes);
ARM GAS  C:\Users\claym\AppData\Local\Temp\ccb01mZK.s 			page 36


 639:.\utilities\src/segger_rtt.c ****     }
 1191              		.loc 1 639 0
 1192 0300 3200     		movs	r2, r6	@, NumBytes
 1193 0302 3900     		movs	r1, r7	@, pBuffer
 1194 0304 2800     		movs	r0, r5	@, pRing
 1195              	.LVL120:
 1196 0306 FFF784FE 		bl	_WriteNoCheck	@
 1197              	.LVL121:
 1198 030a 3400     		movs	r4, r6	@ <retval>, NumBytes
 1199              	.LVL122:
 1200              	.L54:
 1201              	@ .\utilities\src\segger_rtt.c:664: }
 664:.\utilities\src/segger_rtt.c **** }
 1202              		.loc 1 664 0
 1203 030c 2000     		movs	r0, r4	@, <retval>
 1204              		@ sp needed	@
 1205              	.LVL123:
 1206              	.LVL124:
 1207              	.LVL125:
 1208 030e F8BD     		pop	{r3, r4, r5, r6, r7, pc}
 1209              	.LVL126:
 1210              	.L56:
 1211              	@ .\utilities\src\segger_rtt.c:646:     Avail = _GetAvailWriteSpace(pRing);
 646:.\utilities\src/segger_rtt.c ****     Status = Avail < NumBytes ? Avail : NumBytes;
 1212              		.loc 1 646 0
 1213 0310 2800     		movs	r0, r5	@, pRing
 1214              	.LVL127:
 1215 0312 FFF775FE 		bl	_GetAvailWriteSpace	@
 1216              	.LVL128:
 1217              	@ .\utilities\src\segger_rtt.c:647:     Status = Avail < NumBytes ? Avail : NumBytes;
 647:.\utilities\src/segger_rtt.c ****     _WriteNoCheck(pRing, pData, Status);
 1218              		.loc 1 647 0
 1219 0316 3400     		movs	r4, r6	@ <retval>, NumBytes
 1220 0318 8642     		cmp	r6, r0	@ <retval>, Avail
 1221 031a 00D9     		bls	.L59	@,
 1222              	.LVL129:
 1223 031c 0400     		movs	r4, r0	@ <retval>, Avail
 1224              	.LVL130:
 1225              	.L59:
 1226              	@ .\utilities\src\segger_rtt.c:648:     _WriteNoCheck(pRing, pData, Status);
 648:.\utilities\src/segger_rtt.c ****     break;
 1227              		.loc 1 648 0
 1228 031e 2200     		movs	r2, r4	@, <retval>
 1229 0320 3900     		movs	r1, r7	@, pBuffer
 1230 0322 2800     		movs	r0, r5	@, pRing
 1231              	.LVL131:
 1232 0324 FFF775FE 		bl	_WriteNoCheck	@
 1233              	.LVL132:
 1234              	@ .\utilities\src\segger_rtt.c:649:     break;
 649:.\utilities\src/segger_rtt.c ****   case SEGGER_RTT_MODE_BLOCK_IF_FIFO_FULL:
 1235              		.loc 1 649 0
 1236 0328 F0E7     		b	.L54	@
 1237              	.LVL133:
 1238              	.L58:
 1239              	@ .\utilities\src\segger_rtt.c:654:     Status = _WriteBlocking(pRing, pData, NumBytes);
 654:.\utilities\src/segger_rtt.c ****     break;
 1240              		.loc 1 654 0
ARM GAS  C:\Users\claym\AppData\Local\Temp\ccb01mZK.s 			page 37


 1241 032a 3200     		movs	r2, r6	@, NumBytes
 1242 032c 2800     		movs	r0, r5	@, pRing
 1243              	.LVL134:
 1244 032e FFF78EFE 		bl	_WriteBlocking	@
 1245              	.LVL135:
 1246 0332 0400     		movs	r4, r0	@ <retval>,
 1247              	.LVL136:
 1248              	@ .\utilities\src\segger_rtt.c:655:     break;
 655:.\utilities\src/segger_rtt.c ****   default:
 1249              		.loc 1 655 0
 1250 0334 EAE7     		b	.L54	@
 1251              	.L63:
 1252 0336 C046     		.align	2
 1253              	.L62:
 1254 0338 00000000 		.word	_SEGGER_RTT
 1255              		.cfi_endproc
 1256              	.LFE8:
 1257              		.size	SEGGER_RTT_WriteNoLock, .-SEGGER_RTT_WriteNoLock
 1258              		.align	1
 1259              		.global	SEGGER_RTT_Write
 1260              		.syntax unified
 1261              		.code	16
 1262              		.thumb_func
 1263              		.fpu softvfp
 1264              		.type	SEGGER_RTT_Write, %function
 1265              	SEGGER_RTT_Write:
 1266              	.LFB9:
 665:.\utilities\src/segger_rtt.c **** 
 666:.\utilities\src/segger_rtt.c **** /*********************************************************************
 667:.\utilities\src/segger_rtt.c **** *
 668:.\utilities\src/segger_rtt.c **** *       SEGGER_RTT_Write
 669:.\utilities\src/segger_rtt.c **** *
 670:.\utilities\src/segger_rtt.c **** *  Function description
 671:.\utilities\src/segger_rtt.c **** *    Stores a specified number of characters in SEGGER RTT
 672:.\utilities\src/segger_rtt.c **** *    control block which is then read by the host.
 673:.\utilities\src/segger_rtt.c **** *
 674:.\utilities\src/segger_rtt.c **** *  Parameters
 675:.\utilities\src/segger_rtt.c **** *    BufferIndex  Index of "Up"-buffer to be used (e.g. 0 for "Terminal").
 676:.\utilities\src/segger_rtt.c **** *    pBuffer      Pointer to character array. Does not need to point to a \0 terminated string.
 677:.\utilities\src/segger_rtt.c **** *    NumBytes     Number of bytes to be stored in the SEGGER RTT control block.
 678:.\utilities\src/segger_rtt.c **** *
 679:.\utilities\src/segger_rtt.c **** *  Return value
 680:.\utilities\src/segger_rtt.c **** *    Number of bytes which have been stored in the "Up"-buffer.
 681:.\utilities\src/segger_rtt.c **** *
 682:.\utilities\src/segger_rtt.c **** *  Notes
 683:.\utilities\src/segger_rtt.c **** *    (1) If there is not enough space in the "Up"-buffer, remaining characters of pBuffer are dropp
 684:.\utilities\src/segger_rtt.c **** */
 685:.\utilities\src/segger_rtt.c **** unsigned SEGGER_RTT_Write(unsigned BufferIndex, const void* pBuffer, unsigned NumBytes) {
 1267              		.loc 1 685 0
 1268              		.cfi_startproc
 1269              		@ args = 0, pretend = 0, frame = 0
 1270              		@ frame_needed = 0, uses_anonymous_args = 0
 1271              	.LVL137:
 1272 033c F8B5     		push	{r3, r4, r5, r6, r7, lr}	@
 1273              	.LCFI9:
 1274              		.cfi_def_cfa_offset 24
 1275              		.cfi_offset 3, -24
ARM GAS  C:\Users\claym\AppData\Local\Temp\ccb01mZK.s 			page 38


 1276              		.cfi_offset 4, -20
 1277              		.cfi_offset 5, -16
 1278              		.cfi_offset 6, -12
 1279              		.cfi_offset 7, -8
 1280              		.cfi_offset 14, -4
 1281              	@ .\utilities\src\segger_rtt.c:688:   INIT();
 686:.\utilities\src/segger_rtt.c ****   unsigned Status;
 687:.\utilities\src/segger_rtt.c ****   //
 688:.\utilities\src/segger_rtt.c ****   INIT();
 1282              		.loc 1 688 0
 1283 033e 0B4B     		ldr	r3, .L66	@ tmp116,
 1284              	@ .\utilities\src\segger_rtt.c:685: unsigned SEGGER_RTT_Write(unsigned BufferIndex, const void* pBu
 685:.\utilities\src/segger_rtt.c ****   unsigned Status;
 1285              		.loc 1 685 0
 1286 0340 0500     		movs	r5, r0	@ BufferIndex, BufferIndex
 1287              	@ .\utilities\src\segger_rtt.c:688:   INIT();
 1288              		.loc 1 688 0
 1289 0342 1B78     		ldrb	r3, [r3]	@ _SEGGER_RTT, _SEGGER_RTT
 1290              	@ .\utilities\src\segger_rtt.c:685: unsigned SEGGER_RTT_Write(unsigned BufferIndex, const void* pBu
 685:.\utilities\src/segger_rtt.c ****   unsigned Status;
 1291              		.loc 1 685 0
 1292 0344 0E00     		movs	r6, r1	@ pBuffer, pBuffer
 1293 0346 1700     		movs	r7, r2	@ NumBytes, NumBytes
 1294              	@ .\utilities\src\segger_rtt.c:688:   INIT();
 1295              		.loc 1 688 0
 1296 0348 002B     		cmp	r3, #0	@ _SEGGER_RTT,
 1297 034a 01D1     		bne	.L65	@,
 1298              	@ .\utilities\src\segger_rtt.c:688:   INIT();
 1299              		.loc 1 688 0 is_stmt 0 discriminator 1
 1300 034c FFF7ACFE 		bl	_DoInit	@
 1301              	.LVL138:
 1302              	.L65:
 1303              	.LBB4:
 1304              	@ .\utilities\src\segger_rtt.c:689:   SEGGER_RTT_LOCK();
 689:.\utilities\src/segger_rtt.c ****   SEGGER_RTT_LOCK();
 1305              		.loc 1 689 0 is_stmt 1
 1306              		.syntax divided
 1307              	@ 689 ".\utilities\src\segger_rtt.c" 1
 1308 0350 EFF31084 		mrs   r4, primask  	@ LockState
 1309 0354 0121     		mov   r1, $1     
 1310 0356 81F31088 		msr   primask, r1  
 1311              		
 1312              	@ 0 "" 2
 1313              	.LVL139:
 1314              	@ .\utilities\src\segger_rtt.c:693:   Status = SEGGER_RTT_WriteNoLock(BufferIndex, pBuffer, NumByte
 690:.\utilities\src/segger_rtt.c ****   //
 691:.\utilities\src/segger_rtt.c ****   // Call the non-locking write function
 692:.\utilities\src/segger_rtt.c ****   //
 693:.\utilities\src/segger_rtt.c ****   Status = SEGGER_RTT_WriteNoLock(BufferIndex, pBuffer, NumBytes);
 1315              		.loc 1 693 0
 1316              		.thumb
 1317              		.syntax unified
 1318 035a 3A00     		movs	r2, r7	@, NumBytes
 1319 035c 3100     		movs	r1, r6	@, pBuffer
 1320 035e 2800     		movs	r0, r5	@, BufferIndex
 1321 0360 FFF7FEFF 		bl	SEGGER_RTT_WriteNoLock	@
 1322              	.LVL140:
ARM GAS  C:\Users\claym\AppData\Local\Temp\ccb01mZK.s 			page 39


 1323              	@ .\utilities\src\segger_rtt.c:697:   SEGGER_RTT_UNLOCK();
 694:.\utilities\src/segger_rtt.c ****   //
 695:.\utilities\src/segger_rtt.c ****   // Finish up.
 696:.\utilities\src/segger_rtt.c ****   //
 697:.\utilities\src/segger_rtt.c ****   SEGGER_RTT_UNLOCK();
 1324              		.loc 1 697 0
 1325              		.syntax divided
 1326              	@ 697 ".\utilities\src\segger_rtt.c" 1
 1327 0364 84F31088 		msr   primask, r4  	@ LockState
 1328              		
 1329              	@ 0 "" 2
 1330              		.thumb
 1331              		.syntax unified
 1332              	.LBE4:
 1333              	@ .\utilities\src\segger_rtt.c:700: }
 698:.\utilities\src/segger_rtt.c ****   //
 699:.\utilities\src/segger_rtt.c ****   return Status;
 700:.\utilities\src/segger_rtt.c **** }
 1334              		.loc 1 700 0
 1335              		@ sp needed	@
 1336              	.LVL141:
 1337              	.LVL142:
 1338              	.LVL143:
 1339              	.LVL144:
 1340 0368 F8BD     		pop	{r3, r4, r5, r6, r7, pc}
 1341              	.L67:
 1342 036a C046     		.align	2
 1343              	.L66:
 1344 036c 00000000 		.word	_SEGGER_RTT
 1345              		.cfi_endproc
 1346              	.LFE9:
 1347              		.size	SEGGER_RTT_Write, .-SEGGER_RTT_Write
 1348              		.align	1
 1349              		.global	SEGGER_RTT_WriteString
 1350              		.syntax unified
 1351              		.code	16
 1352              		.thumb_func
 1353              		.fpu softvfp
 1354              		.type	SEGGER_RTT_WriteString, %function
 1355              	SEGGER_RTT_WriteString:
 1356              	.LFB10:
 701:.\utilities\src/segger_rtt.c **** 
 702:.\utilities\src/segger_rtt.c **** /*********************************************************************
 703:.\utilities\src/segger_rtt.c **** *
 704:.\utilities\src/segger_rtt.c **** *       SEGGER_RTT_WriteString
 705:.\utilities\src/segger_rtt.c **** *
 706:.\utilities\src/segger_rtt.c **** *  Function description
 707:.\utilities\src/segger_rtt.c **** *    Stores string in SEGGER RTT control block.
 708:.\utilities\src/segger_rtt.c **** *    This data is read by the host.
 709:.\utilities\src/segger_rtt.c **** *
 710:.\utilities\src/segger_rtt.c **** *  Parameters
 711:.\utilities\src/segger_rtt.c **** *    BufferIndex  Index of "Up"-buffer to be used (e.g. 0 for "Terminal").
 712:.\utilities\src/segger_rtt.c **** *    s            Pointer to string.
 713:.\utilities\src/segger_rtt.c **** *
 714:.\utilities\src/segger_rtt.c **** *  Return value
 715:.\utilities\src/segger_rtt.c **** *    Number of bytes which have been stored in the "Up"-buffer.
 716:.\utilities\src/segger_rtt.c **** *
ARM GAS  C:\Users\claym\AppData\Local\Temp\ccb01mZK.s 			page 40


 717:.\utilities\src/segger_rtt.c **** *  Notes
 718:.\utilities\src/segger_rtt.c **** *    (1) If there is not enough space in the "Up"-buffer, depending on configuration,
 719:.\utilities\src/segger_rtt.c **** *        remaining characters may be dropped or RTT module waits until there is more space in the b
 720:.\utilities\src/segger_rtt.c **** *    (2) String passed to this function has to be \0 terminated
 721:.\utilities\src/segger_rtt.c **** *    (3) \0 termination character is *not* stored in RTT buffer
 722:.\utilities\src/segger_rtt.c **** */
 723:.\utilities\src/segger_rtt.c **** unsigned SEGGER_RTT_WriteString(unsigned BufferIndex, const char* s) {
 1357              		.loc 1 723 0
 1358              		.cfi_startproc
 1359              		@ args = 0, pretend = 0, frame = 0
 1360              		@ frame_needed = 0, uses_anonymous_args = 0
 1361              	.LVL145:
 1362 0370 70B5     		push	{r4, r5, r6, lr}	@
 1363              	.LCFI10:
 1364              		.cfi_def_cfa_offset 16
 1365              		.cfi_offset 4, -16
 1366              		.cfi_offset 5, -12
 1367              		.cfi_offset 6, -8
 1368              		.cfi_offset 14, -4
 1369              	@ .\utilities\src\segger_rtt.c:723: unsigned SEGGER_RTT_WriteString(unsigned BufferIndex, const cha
 1370              		.loc 1 723 0
 1371 0372 0500     		movs	r5, r0	@ BufferIndex, BufferIndex
 1372              	@ .\utilities\src\segger_rtt.c:726:   Len = STRLEN(s);
 724:.\utilities\src/segger_rtt.c ****   unsigned Len;
 725:.\utilities\src/segger_rtt.c **** 
 726:.\utilities\src/segger_rtt.c ****   Len = STRLEN(s);
 1373              		.loc 1 726 0
 1374 0374 0800     		movs	r0, r1	@, s
 1375              	.LVL146:
 1376              	@ .\utilities\src\segger_rtt.c:723: unsigned SEGGER_RTT_WriteString(unsigned BufferIndex, const cha
 723:.\utilities\src/segger_rtt.c ****   unsigned Len;
 1377              		.loc 1 723 0
 1378 0376 0C00     		movs	r4, r1	@ s, s
 1379              	@ .\utilities\src\segger_rtt.c:726:   Len = STRLEN(s);
 1380              		.loc 1 726 0
 1381 0378 FFF7FEFF 		bl	strlen	@
 1382              	.LVL147:
 1383              	@ .\utilities\src\segger_rtt.c:727:   return SEGGER_RTT_Write(BufferIndex, s, Len);
 727:.\utilities\src/segger_rtt.c ****   return SEGGER_RTT_Write(BufferIndex, s, Len);
 1384              		.loc 1 727 0
 1385 037c 2100     		movs	r1, r4	@, s
 1386              	@ .\utilities\src\segger_rtt.c:726:   Len = STRLEN(s);
 726:.\utilities\src/segger_rtt.c ****   return SEGGER_RTT_Write(BufferIndex, s, Len);
 1387              		.loc 1 726 0
 1388 037e 0200     		movs	r2, r0	@ tmp114,
 1389              	.LVL148:
 1390              	@ .\utilities\src\segger_rtt.c:727:   return SEGGER_RTT_Write(BufferIndex, s, Len);
 1391              		.loc 1 727 0
 1392 0380 2800     		movs	r0, r5	@, BufferIndex
 1393              	.LVL149:
 1394 0382 FFF7FEFF 		bl	SEGGER_RTT_Write	@
 1395              	.LVL150:
 1396              	@ .\utilities\src\segger_rtt.c:728: }
 728:.\utilities\src/segger_rtt.c **** }
 1397              		.loc 1 728 0
 1398              		@ sp needed	@
 1399              	.LVL151:
ARM GAS  C:\Users\claym\AppData\Local\Temp\ccb01mZK.s 			page 41


 1400              	.LVL152:
 1401 0386 70BD     		pop	{r4, r5, r6, pc}
 1402              		.cfi_endproc
 1403              	.LFE10:
 1404              		.size	SEGGER_RTT_WriteString, .-SEGGER_RTT_WriteString
 1405              		.align	1
 1406              		.global	SEGGER_RTT_GetKey
 1407              		.syntax unified
 1408              		.code	16
 1409              		.thumb_func
 1410              		.fpu softvfp
 1411              		.type	SEGGER_RTT_GetKey, %function
 1412              	SEGGER_RTT_GetKey:
 1413              	.LFB11:
 729:.\utilities\src/segger_rtt.c **** 
 730:.\utilities\src/segger_rtt.c **** /*********************************************************************
 731:.\utilities\src/segger_rtt.c **** *
 732:.\utilities\src/segger_rtt.c **** *       SEGGER_RTT_GetKey
 733:.\utilities\src/segger_rtt.c **** *
 734:.\utilities\src/segger_rtt.c **** *  Function description
 735:.\utilities\src/segger_rtt.c **** *    Reads one character from the SEGGER RTT buffer.
 736:.\utilities\src/segger_rtt.c **** *    Host has previously stored data there.
 737:.\utilities\src/segger_rtt.c **** *
 738:.\utilities\src/segger_rtt.c **** *  Return value
 739:.\utilities\src/segger_rtt.c **** *    <  0 -   No character available (buffer empty).
 740:.\utilities\src/segger_rtt.c **** *    >= 0 -   Character which has been read. (Possible values: 0 - 255)
 741:.\utilities\src/segger_rtt.c **** *
 742:.\utilities\src/segger_rtt.c **** *  Notes
 743:.\utilities\src/segger_rtt.c **** *    (1) This function is only specified for accesses to RTT buffer 0.
 744:.\utilities\src/segger_rtt.c **** */
 745:.\utilities\src/segger_rtt.c **** int SEGGER_RTT_GetKey(void) {
 1414              		.loc 1 745 0
 1415              		.cfi_startproc
 1416              		@ args = 0, pretend = 0, frame = 8
 1417              		@ frame_needed = 0, uses_anonymous_args = 0
 1418 0388 13B5     		push	{r0, r1, r4, lr}	@
 1419              	.LCFI11:
 1420              		.cfi_def_cfa_offset 16
 1421              		.cfi_offset 0, -16
 1422              		.cfi_offset 1, -12
 1423              		.cfi_offset 4, -8
 1424              		.cfi_offset 14, -4
 1425              	@ .\utilities\src\segger_rtt.c:749:   r = (int)SEGGER_RTT_Read(0u, &c, 1u);
 746:.\utilities\src/segger_rtt.c ****   char c;
 747:.\utilities\src/segger_rtt.c ****   int r;
 748:.\utilities\src/segger_rtt.c **** 
 749:.\utilities\src/segger_rtt.c ****   r = (int)SEGGER_RTT_Read(0u, &c, 1u);
 1426              		.loc 1 749 0
 1427 038a 6B46     		mov	r3, sp	@ tmp117,
 1428 038c DC1D     		adds	r4, r3, #7	@ tmp113, tmp117,
 1429 038e 0122     		movs	r2, #1	@,
 1430 0390 2100     		movs	r1, r4	@, tmp113
 1431 0392 0020     		movs	r0, #0	@,
 1432 0394 FFF7FEFF 		bl	SEGGER_RTT_Read	@
 1433              	.LVL153:
 1434              	@ .\utilities\src\segger_rtt.c:750:   if (r == 1) {
 750:.\utilities\src/segger_rtt.c ****   if (r == 1) {
ARM GAS  C:\Users\claym\AppData\Local\Temp\ccb01mZK.s 			page 42


 1435              		.loc 1 750 0
 1436 0398 0128     		cmp	r0, #1	@ _1,
 1437 039a 01D1     		bne	.L71	@,
 1438              	@ .\utilities\src\segger_rtt.c:751:     r = (int)(unsigned char)c;
 751:.\utilities\src/segger_rtt.c ****     r = (int)(unsigned char)c;
 1439              		.loc 1 751 0
 1440 039c 2078     		ldrb	r0, [r4]	@ <retval>, c
 1441              	.LVL154:
 1442              	.L69:
 1443              	@ .\utilities\src\segger_rtt.c:756: }
 752:.\utilities\src/segger_rtt.c ****   } else {
 753:.\utilities\src/segger_rtt.c ****     r = -1;
 754:.\utilities\src/segger_rtt.c ****   }
 755:.\utilities\src/segger_rtt.c ****   return r;
 756:.\utilities\src/segger_rtt.c **** }
 1444              		.loc 1 756 0
 1445              		@ sp needed	@
 1446 039e 16BD     		pop	{r1, r2, r4, pc}
 1447              	.LVL155:
 1448              	.L71:
 1449              	@ .\utilities\src\segger_rtt.c:753:     r = -1;
 753:.\utilities\src/segger_rtt.c ****   }
 1450              		.loc 1 753 0
 1451 03a0 0120     		movs	r0, #1	@ <retval>,
 1452              	.LVL156:
 1453 03a2 4042     		rsbs	r0, r0, #0	@ <retval>, <retval>
 1454              	.LVL157:
 1455              	@ .\utilities\src\segger_rtt.c:755:   return r;
 755:.\utilities\src/segger_rtt.c **** }
 1456              		.loc 1 755 0
 1457 03a4 FBE7     		b	.L69	@
 1458              		.cfi_endproc
 1459              	.LFE11:
 1460              		.size	SEGGER_RTT_GetKey, .-SEGGER_RTT_GetKey
 1461              		.align	1
 1462              		.global	SEGGER_RTT_WaitKey
 1463              		.syntax unified
 1464              		.code	16
 1465              		.thumb_func
 1466              		.fpu softvfp
 1467              		.type	SEGGER_RTT_WaitKey, %function
 1468              	SEGGER_RTT_WaitKey:
 1469              	.LFB12:
 757:.\utilities\src/segger_rtt.c **** 
 758:.\utilities\src/segger_rtt.c **** /*********************************************************************
 759:.\utilities\src/segger_rtt.c **** *
 760:.\utilities\src/segger_rtt.c **** *       SEGGER_RTT_WaitKey
 761:.\utilities\src/segger_rtt.c **** *
 762:.\utilities\src/segger_rtt.c **** *  Function description
 763:.\utilities\src/segger_rtt.c **** *    Waits until at least one character is avaible in the SEGGER RTT buffer.
 764:.\utilities\src/segger_rtt.c **** *    Once a character is available, it is read and this function returns.
 765:.\utilities\src/segger_rtt.c **** *
 766:.\utilities\src/segger_rtt.c **** *  Return value
 767:.\utilities\src/segger_rtt.c **** *    >=0 -   Character which has been read.
 768:.\utilities\src/segger_rtt.c **** *
 769:.\utilities\src/segger_rtt.c **** *  Notes
 770:.\utilities\src/segger_rtt.c **** *    (1) This function is only specified for accesses to RTT buffer 0
ARM GAS  C:\Users\claym\AppData\Local\Temp\ccb01mZK.s 			page 43


 771:.\utilities\src/segger_rtt.c **** *    (2) This function is blocking if no character is present in RTT buffer
 772:.\utilities\src/segger_rtt.c **** */
 773:.\utilities\src/segger_rtt.c **** int SEGGER_RTT_WaitKey(void) {
 1470              		.loc 1 773 0
 1471              		.cfi_startproc
 1472              		@ args = 0, pretend = 0, frame = 0
 1473              		@ frame_needed = 0, uses_anonymous_args = 0
 1474 03a6 10B5     		push	{r4, lr}	@
 1475              	.LCFI12:
 1476              		.cfi_def_cfa_offset 8
 1477              		.cfi_offset 4, -8
 1478              		.cfi_offset 14, -4
 1479              	.L73:
 1480              	@ .\utilities\src\segger_rtt.c:777:     r = SEGGER_RTT_GetKey();
 774:.\utilities\src/segger_rtt.c ****   int r;
 775:.\utilities\src/segger_rtt.c **** 
 776:.\utilities\src/segger_rtt.c ****   do {
 777:.\utilities\src/segger_rtt.c ****     r = SEGGER_RTT_GetKey();
 1481              		.loc 1 777 0 discriminator 1
 1482 03a8 FFF7FEFF 		bl	SEGGER_RTT_GetKey	@
 1483              	.LVL158:
 1484              	@ .\utilities\src\segger_rtt.c:778:   } while (r < 0);
 778:.\utilities\src/segger_rtt.c ****   } while (r < 0);
 1485              		.loc 1 778 0 discriminator 1
 1486 03ac 0028     		cmp	r0, #0	@ <retval>,
 1487 03ae FBDB     		blt	.L73	@,
 1488              	@ .\utilities\src\segger_rtt.c:780: }
 779:.\utilities\src/segger_rtt.c ****   return r;
 780:.\utilities\src/segger_rtt.c **** }
 1489              		.loc 1 780 0
 1490              		@ sp needed	@
 1491 03b0 10BD     		pop	{r4, pc}
 1492              		.cfi_endproc
 1493              	.LFE12:
 1494              		.size	SEGGER_RTT_WaitKey, .-SEGGER_RTT_WaitKey
 1495              		.align	1
 1496              		.global	SEGGER_RTT_HasKey
 1497              		.syntax unified
 1498              		.code	16
 1499              		.thumb_func
 1500              		.fpu softvfp
 1501              		.type	SEGGER_RTT_HasKey, %function
 1502              	SEGGER_RTT_HasKey:
 1503              	.LFB13:
 781:.\utilities\src/segger_rtt.c **** 
 782:.\utilities\src/segger_rtt.c **** /*********************************************************************
 783:.\utilities\src/segger_rtt.c **** *
 784:.\utilities\src/segger_rtt.c **** *       SEGGER_RTT_HasKey
 785:.\utilities\src/segger_rtt.c **** *
 786:.\utilities\src/segger_rtt.c **** *  Function description
 787:.\utilities\src/segger_rtt.c **** *    Checks if at least one character for reading is available in the SEGGER RTT buffer.
 788:.\utilities\src/segger_rtt.c **** *
 789:.\utilities\src/segger_rtt.c **** *  Return value
 790:.\utilities\src/segger_rtt.c **** *    == 0 -     No characters are available to read.
 791:.\utilities\src/segger_rtt.c **** *    == 1 -     At least one character is available.
 792:.\utilities\src/segger_rtt.c **** *
 793:.\utilities\src/segger_rtt.c **** *  Notes
ARM GAS  C:\Users\claym\AppData\Local\Temp\ccb01mZK.s 			page 44


 794:.\utilities\src/segger_rtt.c **** *    (1) This function is only specified for accesses to RTT buffer 0
 795:.\utilities\src/segger_rtt.c **** */
 796:.\utilities\src/segger_rtt.c **** int SEGGER_RTT_HasKey(void) {
 1504              		.loc 1 796 0
 1505              		.cfi_startproc
 1506              		@ args = 0, pretend = 0, frame = 0
 1507              		@ frame_needed = 0, uses_anonymous_args = 0
 1508 03b2 10B5     		push	{r4, lr}	@
 1509              	.LCFI13:
 1510              		.cfi_def_cfa_offset 8
 1511              		.cfi_offset 4, -8
 1512              		.cfi_offset 14, -4
 1513              	@ .\utilities\src\segger_rtt.c:800:   INIT();
 797:.\utilities\src/segger_rtt.c ****   unsigned RdOff;
 798:.\utilities\src/segger_rtt.c ****   int r;
 799:.\utilities\src/segger_rtt.c **** 
 800:.\utilities\src/segger_rtt.c ****   INIT();
 1514              		.loc 1 800 0
 1515 03b4 054C     		ldr	r4, .L77	@ tmp115,
 1516 03b6 2378     		ldrb	r3, [r4]	@ _SEGGER_RTT, _SEGGER_RTT
 1517 03b8 002B     		cmp	r3, #0	@ _SEGGER_RTT,
 1518 03ba 01D1     		bne	.L76	@,
 1519              	@ .\utilities\src\segger_rtt.c:800:   INIT();
 1520              		.loc 1 800 0 is_stmt 0 discriminator 1
 1521 03bc FFF774FE 		bl	_DoInit	@
 1522              	.LVL159:
 1523              	.L76:
 1524              	@ .\utilities\src\segger_rtt.c:802:   if (RdOff != _SEGGER_RTT.aDown[0].WrOff) {
 801:.\utilities\src/segger_rtt.c ****   RdOff = _SEGGER_RTT.aDown[0].RdOff;
 802:.\utilities\src/segger_rtt.c ****   if (RdOff != _SEGGER_RTT.aDown[0].WrOff) {
 1525              		.loc 1 802 0 is_stmt 1
 1526 03c0 E36E     		ldr	r3, [r4, #108]	@ _2, _SEGGER_RTT.aDown[0].WrOff
 1527              	.LVL160:
 1528 03c2 206F     		ldr	r0, [r4, #112]	@ _SEGGER_RTT.aDown[0].RdOff, _SEGGER_RTT.aDown[0].RdOff
 1529              	@ .\utilities\src\segger_rtt.c:808: }
 803:.\utilities\src/segger_rtt.c ****     r = 1;
 804:.\utilities\src/segger_rtt.c ****   } else {
 805:.\utilities\src/segger_rtt.c ****     r = 0;
 806:.\utilities\src/segger_rtt.c ****   }
 807:.\utilities\src/segger_rtt.c ****   return r;
 808:.\utilities\src/segger_rtt.c **** }
 1530              		.loc 1 808 0
 1531              		@ sp needed	@
 1532              	@ .\utilities\src\segger_rtt.c:802:   if (RdOff != _SEGGER_RTT.aDown[0].WrOff) {
 802:.\utilities\src/segger_rtt.c ****     r = 1;
 1533              		.loc 1 802 0
 1534 03c4 C01A     		subs	r0, r0, r3	@ tmp123, _SEGGER_RTT.aDown[0].RdOff, _2
 1535 03c6 431E     		subs	r3, r0, #1	@ tmp124, tmp123
 1536 03c8 9841     		sbcs	r0, r0, r3	@ tmp122, tmp123, tmp124
 1537              	.LVL161:
 1538              	@ .\utilities\src\segger_rtt.c:808: }
 1539              		.loc 1 808 0
 1540 03ca 10BD     		pop	{r4, pc}
 1541              	.L78:
 1542              		.align	2
 1543              	.L77:
 1544 03cc 00000000 		.word	_SEGGER_RTT
ARM GAS  C:\Users\claym\AppData\Local\Temp\ccb01mZK.s 			page 45


 1545              		.cfi_endproc
 1546              	.LFE13:
 1547              		.size	SEGGER_RTT_HasKey, .-SEGGER_RTT_HasKey
 1548              		.align	1
 1549              		.global	SEGGER_RTT_HasData
 1550              		.syntax unified
 1551              		.code	16
 1552              		.thumb_func
 1553              		.fpu softvfp
 1554              		.type	SEGGER_RTT_HasData, %function
 1555              	SEGGER_RTT_HasData:
 1556              	.LFB14:
 809:.\utilities\src/segger_rtt.c **** 
 810:.\utilities\src/segger_rtt.c **** /*********************************************************************
 811:.\utilities\src/segger_rtt.c **** *
 812:.\utilities\src/segger_rtt.c **** *       SEGGER_RTT_HasData
 813:.\utilities\src/segger_rtt.c **** *
 814:.\utilities\src/segger_rtt.c **** *  Function description
 815:.\utilities\src/segger_rtt.c **** *    Check if there is data from the host in the given buffer.
 816:.\utilities\src/segger_rtt.c **** *
 817:.\utilities\src/segger_rtt.c **** *  Return value:
 818:.\utilities\src/segger_rtt.c **** *  ==0:  No data
 819:.\utilities\src/segger_rtt.c **** *  !=0:  Data in buffer
 820:.\utilities\src/segger_rtt.c **** *
 821:.\utilities\src/segger_rtt.c **** */
 822:.\utilities\src/segger_rtt.c **** unsigned SEGGER_RTT_HasData(unsigned BufferIndex) {
 1557              		.loc 1 822 0
 1558              		.cfi_startproc
 1559              		@ args = 0, pretend = 0, frame = 0
 1560              		@ frame_needed = 0, uses_anonymous_args = 0
 1561              		@ link register save eliminated.
 1562              	.LVL162:
 1563              	@ .\utilities\src\segger_rtt.c:827:   v = pRing->WrOff;
 823:.\utilities\src/segger_rtt.c ****   SEGGER_RTT_BUFFER_DOWN* pRing;
 824:.\utilities\src/segger_rtt.c ****   unsigned                v;
 825:.\utilities\src/segger_rtt.c **** 
 826:.\utilities\src/segger_rtt.c ****   pRing = &_SEGGER_RTT.aDown[BufferIndex];
 827:.\utilities\src/segger_rtt.c ****   v = pRing->WrOff;
 1564              		.loc 1 827 0
 1565 03d0 1823     		movs	r3, #24	@ tmp115,
 1566 03d2 4343     		muls	r3, r0	@ tmp116, BufferIndex
 1567 03d4 0248     		ldr	r0, .L80	@ tmp114,
 1568              	.LVL163:
 1569              	@ .\utilities\src\segger_rtt.c:829: }
 828:.\utilities\src/segger_rtt.c ****   return v - pRing->RdOff;
 829:.\utilities\src/segger_rtt.c **** }
 1570              		.loc 1 829 0
 1571              		@ sp needed	@
 1572              	@ .\utilities\src\segger_rtt.c:827:   v = pRing->WrOff;
 827:.\utilities\src/segger_rtt.c ****   return v - pRing->RdOff;
 1573              		.loc 1 827 0
 1574 03d6 C018     		adds	r0, r0, r3	@ tmp117, tmp114, tmp116
 1575 03d8 C36E     		ldr	r3, [r0, #108]	@ v, MEM[(struct SEGGER_RTT_BUFFER_DOWN *)&_SEGGER_RTT].aDown[BufferIndex_2(D)]
 1576              	.LVL164:
 1577              	@ .\utilities\src\segger_rtt.c:828:   return v - pRing->RdOff;
 828:.\utilities\src/segger_rtt.c ****   return v - pRing->RdOff;
 1578              		.loc 1 828 0
ARM GAS  C:\Users\claym\AppData\Local\Temp\ccb01mZK.s 			page 46


 1579 03da 006F     		ldr	r0, [r0, #112]	@ MEM[(struct SEGGER_RTT_BUFFER_DOWN *)&_SEGGER_RTT].aDown[BufferIndex_2(D)].Rd
 1580 03dc 181A     		subs	r0, r3, r0	@ tmp119, v, MEM[(struct SEGGER_RTT_BUFFER_DOWN *)&_SEGGER_RTT].aDown[BufferIndex_
 1581              	@ .\utilities\src\segger_rtt.c:829: }
 1582              		.loc 1 829 0
 1583 03de 7047     		bx	lr
 1584              	.L81:
 1585              		.align	2
 1586              	.L80:
 1587 03e0 00000000 		.word	_SEGGER_RTT
 1588              		.cfi_endproc
 1589              	.LFE14:
 1590              		.size	SEGGER_RTT_HasData, .-SEGGER_RTT_HasData
 1591              		.align	1
 1592              		.global	SEGGER_RTT_AllocDownBuffer
 1593              		.syntax unified
 1594              		.code	16
 1595              		.thumb_func
 1596              		.fpu softvfp
 1597              		.type	SEGGER_RTT_AllocDownBuffer, %function
 1598              	SEGGER_RTT_AllocDownBuffer:
 1599              	.LFB15:
 830:.\utilities\src/segger_rtt.c **** 
 831:.\utilities\src/segger_rtt.c **** /*********************************************************************
 832:.\utilities\src/segger_rtt.c **** *
 833:.\utilities\src/segger_rtt.c **** *       SEGGER_RTT_AllocDownBuffer
 834:.\utilities\src/segger_rtt.c **** *
 835:.\utilities\src/segger_rtt.c **** *  Function description
 836:.\utilities\src/segger_rtt.c **** *    Run-time configuration of the next down-buffer (H->T).
 837:.\utilities\src/segger_rtt.c **** *    The next buffer, which is not used yet is configured.
 838:.\utilities\src/segger_rtt.c **** *    This includes: Buffer address, size, name, flags, ...
 839:.\utilities\src/segger_rtt.c **** *
 840:.\utilities\src/segger_rtt.c **** *  Parameters
 841:.\utilities\src/segger_rtt.c **** *    sName        Pointer to a constant name string.
 842:.\utilities\src/segger_rtt.c **** *    pBuffer      Pointer to a buffer to be used.
 843:.\utilities\src/segger_rtt.c **** *    BufferSize   Size of the buffer.
 844:.\utilities\src/segger_rtt.c **** *    Flags        Operating modes. Define behavior if buffer is full (not enough space for entire m
 845:.\utilities\src/segger_rtt.c **** *
 846:.\utilities\src/segger_rtt.c **** *  Return value
 847:.\utilities\src/segger_rtt.c **** *    >= 0 - O.K. Buffer Index
 848:.\utilities\src/segger_rtt.c **** *     < 0 - Error
 849:.\utilities\src/segger_rtt.c **** */
 850:.\utilities\src/segger_rtt.c **** int SEGGER_RTT_AllocDownBuffer(const char* sName, void* pBuffer, unsigned BufferSize, unsigned Flag
 1600              		.loc 1 850 0
 1601              		.cfi_startproc
 1602              		@ args = 0, pretend = 0, frame = 8
 1603              		@ frame_needed = 0, uses_anonymous_args = 0
 1604              	.LVL165:
 1605 03e4 F7B5     		push	{r0, r1, r2, r4, r5, r6, r7, lr}	@
 1606              	.LCFI14:
 1607              		.cfi_def_cfa_offset 32
 1608              		.cfi_offset 0, -32
 1609              		.cfi_offset 1, -28
 1610              		.cfi_offset 2, -24
 1611              		.cfi_offset 4, -20
 1612              		.cfi_offset 5, -16
 1613              		.cfi_offset 6, -12
 1614              		.cfi_offset 7, -8
ARM GAS  C:\Users\claym\AppData\Local\Temp\ccb01mZK.s 			page 47


 1615              		.cfi_offset 14, -4
 1616              	@ .\utilities\src\segger_rtt.c:853:   INIT();
 851:.\utilities\src/segger_rtt.c ****   int BufferIndex;
 852:.\utilities\src/segger_rtt.c **** 
 853:.\utilities\src/segger_rtt.c ****   INIT();
 1617              		.loc 1 853 0
 1618 03e6 164E     		ldr	r6, .L89	@ tmp146,
 1619              	@ .\utilities\src\segger_rtt.c:850: int SEGGER_RTT_AllocDownBuffer(const char* sName, void* pBuffer
 850:.\utilities\src/segger_rtt.c ****   int BufferIndex;
 1620              		.loc 1 850 0
 1621 03e8 0193     		str	r3, [sp, #4]	@ Flags, %sfp
 1622              	@ .\utilities\src\segger_rtt.c:853:   INIT();
 1623              		.loc 1 853 0
 1624 03ea 3378     		ldrb	r3, [r6]	@ _SEGGER_RTT, _SEGGER_RTT
 1625              	.LVL166:
 1626              	@ .\utilities\src\segger_rtt.c:850: int SEGGER_RTT_AllocDownBuffer(const char* sName, void* pBuffer
 850:.\utilities\src/segger_rtt.c ****   int BufferIndex;
 1627              		.loc 1 850 0
 1628 03ec 0500     		movs	r5, r0	@ sName, sName
 1629 03ee 0C00     		movs	r4, r1	@ pBuffer, pBuffer
 1630 03f0 0092     		str	r2, [sp]	@ BufferSize, %sfp
 1631              	@ .\utilities\src\segger_rtt.c:853:   INIT();
 1632              		.loc 1 853 0
 1633 03f2 002B     		cmp	r3, #0	@ _SEGGER_RTT,
 1634 03f4 01D1     		bne	.L83	@,
 1635              	@ .\utilities\src\segger_rtt.c:853:   INIT();
 1636              		.loc 1 853 0 is_stmt 0 discriminator 1
 1637 03f6 FFF757FE 		bl	_DoInit	@
 1638              	.LVL167:
 1639              	.L83:
 1640              	.LBB5:
 1641              	@ .\utilities\src\segger_rtt.c:854:   SEGGER_RTT_LOCK();
 854:.\utilities\src/segger_rtt.c ****   SEGGER_RTT_LOCK();
 1642              		.loc 1 854 0 is_stmt 1
 1643              		.syntax divided
 1644              	@ 854 ".\utilities\src\segger_rtt.c" 1
 1645 03fa EFF31087 		mrs   r7, primask  	@ LockState
 1646 03fe 0121     		mov   r1, $1     
 1647 0400 81F31088 		msr   primask, r1  
 1648              		
 1649              	@ 0 "" 2
 1650              	.LVL168:
 1651              	@ .\utilities\src\segger_rtt.c:857:     if (_SEGGER_RTT.aDown[BufferIndex].pBuffer == NULL) {
 855:.\utilities\src/segger_rtt.c ****   BufferIndex = 0;
 856:.\utilities\src/segger_rtt.c ****   do {
 857:.\utilities\src/segger_rtt.c ****     if (_SEGGER_RTT.aDown[BufferIndex].pBuffer == NULL) {
 1652              		.loc 1 857 0
 1653              		.thumb
 1654              		.syntax unified
 1655 0404 0E4B     		ldr	r3, .L89	@ tmp153,
 1656              	@ .\utilities\src\segger_rtt.c:861:   } while (BufferIndex < _SEGGER_RTT.MaxNumDownBuffers);
 858:.\utilities\src/segger_rtt.c ****       break;
 859:.\utilities\src/segger_rtt.c ****     }
 860:.\utilities\src/segger_rtt.c ****     BufferIndex++;
 861:.\utilities\src/segger_rtt.c ****   } while (BufferIndex < _SEGGER_RTT.MaxNumDownBuffers);
 1657              		.loc 1 861 0
 1658 0406 7169     		ldr	r1, [r6, #20]	@ _3, _SEGGER_RTT.MaxNumDownBuffers
ARM GAS  C:\Users\claym\AppData\Local\Temp\ccb01mZK.s 			page 48


 1659              	@ .\utilities\src\segger_rtt.c:855:   BufferIndex = 0;
 855:.\utilities\src/segger_rtt.c ****   BufferIndex = 0;
 1660              		.loc 1 855 0
 1661 0408 0020     		movs	r0, #0	@ <retval>,
 1662              	@ .\utilities\src\segger_rtt.c:857:     if (_SEGGER_RTT.aDown[BufferIndex].pBuffer == NULL) {
 857:.\utilities\src/segger_rtt.c ****       break;
 1663              		.loc 1 857 0
 1664 040a 1826     		movs	r6, #24	@ tmp150,
 1665 040c 9C46     		mov	ip, r3	@ tmp153, tmp153
 1666              	.LVL169:
 1667              	.L85:
 1668 040e 3300     		movs	r3, r6	@ tmp151, tmp150
 1669 0410 4343     		muls	r3, r0	@ tmp151, <retval>
 1670 0412 6344     		add	r3, r3, ip	@ tmp152, tmp153
 1671 0414 5A6E     		ldr	r2, [r3, #100]	@ MEM[base: _27, offset: 100B], MEM[base: _27, offset: 100B]
 1672 0416 002A     		cmp	r2, #0	@ MEM[base: _27, offset: 100B],
 1673 0418 05D0     		beq	.L84	@,
 1674              	@ .\utilities\src\segger_rtt.c:860:     BufferIndex++;
 860:.\utilities\src/segger_rtt.c ****   } while (BufferIndex < _SEGGER_RTT.MaxNumDownBuffers);
 1675              		.loc 1 860 0
 1676 041a 0130     		adds	r0, r0, #1	@ <retval>,
 1677              	.LVL170:
 1678              	@ .\utilities\src\segger_rtt.c:861:   } while (BufferIndex < _SEGGER_RTT.MaxNumDownBuffers);
 1679              		.loc 1 861 0
 1680 041c 8142     		cmp	r1, r0	@ _3, <retval>
 1681 041e F6DC     		bgt	.L85	@,
 1682              	.L87:
 1683              	@ .\utilities\src\segger_rtt.c:870:     BufferIndex = -1;
 862:.\utilities\src/segger_rtt.c ****   if (BufferIndex < _SEGGER_RTT.MaxNumDownBuffers) {
 863:.\utilities\src/segger_rtt.c ****     _SEGGER_RTT.aDown[BufferIndex].sName        = sName;
 864:.\utilities\src/segger_rtt.c ****     _SEGGER_RTT.aDown[BufferIndex].pBuffer      = pBuffer;
 865:.\utilities\src/segger_rtt.c ****     _SEGGER_RTT.aDown[BufferIndex].SizeOfBuffer = BufferSize;
 866:.\utilities\src/segger_rtt.c ****     _SEGGER_RTT.aDown[BufferIndex].RdOff        = 0u;
 867:.\utilities\src/segger_rtt.c ****     _SEGGER_RTT.aDown[BufferIndex].WrOff        = 0u;
 868:.\utilities\src/segger_rtt.c ****     _SEGGER_RTT.aDown[BufferIndex].Flags        = Flags;
 869:.\utilities\src/segger_rtt.c ****   } else {
 870:.\utilities\src/segger_rtt.c ****     BufferIndex = -1;
 1684              		.loc 1 870 0
 1685 0420 0120     		movs	r0, #1	@ <retval>,
 1686              	.LVL171:
 1687 0422 4042     		rsbs	r0, r0, #0	@ <retval>, <retval>
 1688 0424 09E0     		b	.L86	@
 1689              	.LVL172:
 1690              	.L84:
 1691              	@ .\utilities\src\segger_rtt.c:862:   if (BufferIndex < _SEGGER_RTT.MaxNumDownBuffers) {
 862:.\utilities\src/segger_rtt.c ****   if (BufferIndex < _SEGGER_RTT.MaxNumDownBuffers) {
 1692              		.loc 1 862 0
 1693 0426 8142     		cmp	r1, r0	@ _3, <retval>
 1694 0428 FADD     		ble	.L87	@,
 1695              	@ .\utilities\src\segger_rtt.c:865:     _SEGGER_RTT.aDown[BufferIndex].SizeOfBuffer = BufferSize;
 865:.\utilities\src/segger_rtt.c ****     _SEGGER_RTT.aDown[BufferIndex].RdOff        = 0u;
 1696              		.loc 1 865 0
 1697 042a 0099     		ldr	r1, [sp]	@ BufferSize, %sfp
 1698              	@ .\utilities\src\segger_rtt.c:866:     _SEGGER_RTT.aDown[BufferIndex].RdOff        = 0u;
 866:.\utilities\src/segger_rtt.c ****     _SEGGER_RTT.aDown[BufferIndex].WrOff        = 0u;
 1699              		.loc 1 866 0
 1700 042c 1A67     		str	r2, [r3, #112]	@ MEM[base: _27, offset: 100B], _SEGGER_RTT.aDown[BufferIndex_5].RdOff
ARM GAS  C:\Users\claym\AppData\Local\Temp\ccb01mZK.s 			page 49


 1701              	@ .\utilities\src\segger_rtt.c:867:     _SEGGER_RTT.aDown[BufferIndex].WrOff        = 0u;
 867:.\utilities\src/segger_rtt.c ****     _SEGGER_RTT.aDown[BufferIndex].Flags        = Flags;
 1702              		.loc 1 867 0
 1703 042e DA66     		str	r2, [r3, #108]	@ MEM[base: _27, offset: 100B], _SEGGER_RTT.aDown[BufferIndex_5].WrOff
 1704              	@ .\utilities\src\segger_rtt.c:868:     _SEGGER_RTT.aDown[BufferIndex].Flags        = Flags;
 868:.\utilities\src/segger_rtt.c ****   } else {
 1705              		.loc 1 868 0
 1706 0430 019A     		ldr	r2, [sp, #4]	@ Flags, %sfp
 1707              	@ .\utilities\src\segger_rtt.c:863:     _SEGGER_RTT.aDown[BufferIndex].sName        = sName;
 863:.\utilities\src/segger_rtt.c ****     _SEGGER_RTT.aDown[BufferIndex].pBuffer      = pBuffer;
 1708              		.loc 1 863 0
 1709 0432 1D66     		str	r5, [r3, #96]	@ sName, _SEGGER_RTT.aDown[BufferIndex_5].sName
 1710              	@ .\utilities\src\segger_rtt.c:864:     _SEGGER_RTT.aDown[BufferIndex].pBuffer      = pBuffer;
 864:.\utilities\src/segger_rtt.c ****     _SEGGER_RTT.aDown[BufferIndex].SizeOfBuffer = BufferSize;
 1711              		.loc 1 864 0
 1712 0434 5C66     		str	r4, [r3, #100]	@ pBuffer, _SEGGER_RTT.aDown[BufferIndex_5].pBuffer
 1713              	@ .\utilities\src\segger_rtt.c:865:     _SEGGER_RTT.aDown[BufferIndex].SizeOfBuffer = BufferSize;
 865:.\utilities\src/segger_rtt.c ****     _SEGGER_RTT.aDown[BufferIndex].RdOff        = 0u;
 1714              		.loc 1 865 0
 1715 0436 9966     		str	r1, [r3, #104]	@ BufferSize, _SEGGER_RTT.aDown[BufferIndex_5].SizeOfBuffer
 1716              	@ .\utilities\src\segger_rtt.c:868:     _SEGGER_RTT.aDown[BufferIndex].Flags        = Flags;
 868:.\utilities\src/segger_rtt.c ****   } else {
 1717              		.loc 1 868 0
 1718 0438 5A67     		str	r2, [r3, #116]	@ Flags, _SEGGER_RTT.aDown[BufferIndex_5].Flags
 1719              	.LVL173:
 1720              	.L86:
 1721              	@ .\utilities\src\segger_rtt.c:872:   SEGGER_RTT_UNLOCK();
 871:.\utilities\src/segger_rtt.c ****   }
 872:.\utilities\src/segger_rtt.c ****   SEGGER_RTT_UNLOCK();
 1722              		.loc 1 872 0
 1723              		.syntax divided
 1724              	@ 872 ".\utilities\src\segger_rtt.c" 1
 1725 043a 87F31088 		msr   primask, r7  	@ LockState
 1726              		
 1727              	@ 0 "" 2
 1728              		.thumb
 1729              		.syntax unified
 1730              	.LBE5:
 1731              	@ .\utilities\src\segger_rtt.c:874: }
 873:.\utilities\src/segger_rtt.c ****   return BufferIndex;
 874:.\utilities\src/segger_rtt.c **** }
 1732              		.loc 1 874 0
 1733              		@ sp needed	@
 1734              	.LVL174:
 1735              	.LVL175:
 1736              	.LVL176:
 1737 043e FEBD     		pop	{r1, r2, r3, r4, r5, r6, r7, pc}
 1738              	.L90:
 1739              		.align	2
 1740              	.L89:
 1741 0440 00000000 		.word	_SEGGER_RTT
 1742              		.cfi_endproc
 1743              	.LFE15:
 1744              		.size	SEGGER_RTT_AllocDownBuffer, .-SEGGER_RTT_AllocDownBuffer
 1745              		.align	1
 1746              		.global	SEGGER_RTT_AllocUpBuffer
 1747              		.syntax unified
ARM GAS  C:\Users\claym\AppData\Local\Temp\ccb01mZK.s 			page 50


 1748              		.code	16
 1749              		.thumb_func
 1750              		.fpu softvfp
 1751              		.type	SEGGER_RTT_AllocUpBuffer, %function
 1752              	SEGGER_RTT_AllocUpBuffer:
 1753              	.LFB16:
 875:.\utilities\src/segger_rtt.c **** 
 876:.\utilities\src/segger_rtt.c **** /*********************************************************************
 877:.\utilities\src/segger_rtt.c **** *
 878:.\utilities\src/segger_rtt.c **** *       SEGGER_RTT_AllocUpBuffer
 879:.\utilities\src/segger_rtt.c **** *
 880:.\utilities\src/segger_rtt.c **** *  Function description
 881:.\utilities\src/segger_rtt.c **** *    Run-time configuration of the next up-buffer (T->H).
 882:.\utilities\src/segger_rtt.c **** *    The next buffer, which is not used yet is configured.
 883:.\utilities\src/segger_rtt.c **** *    This includes: Buffer address, size, name, flags, ...
 884:.\utilities\src/segger_rtt.c **** *
 885:.\utilities\src/segger_rtt.c **** *  Parameters
 886:.\utilities\src/segger_rtt.c **** *    sName        Pointer to a constant name string.
 887:.\utilities\src/segger_rtt.c **** *    pBuffer      Pointer to a buffer to be used.
 888:.\utilities\src/segger_rtt.c **** *    BufferSize   Size of the buffer.
 889:.\utilities\src/segger_rtt.c **** *    Flags        Operating modes. Define behavior if buffer is full (not enough space for entire m
 890:.\utilities\src/segger_rtt.c **** *
 891:.\utilities\src/segger_rtt.c **** *  Return value
 892:.\utilities\src/segger_rtt.c **** *    >= 0 - O.K. Buffer Index
 893:.\utilities\src/segger_rtt.c **** *     < 0 - Error
 894:.\utilities\src/segger_rtt.c **** */
 895:.\utilities\src/segger_rtt.c **** int SEGGER_RTT_AllocUpBuffer(const char* sName, void* pBuffer, unsigned BufferSize, unsigned Flags)
 1754              		.loc 1 895 0
 1755              		.cfi_startproc
 1756              		@ args = 0, pretend = 0, frame = 16
 1757              		@ frame_needed = 0, uses_anonymous_args = 0
 1758              	.LVL177:
 1759 0444 F0B5     		push	{r4, r5, r6, r7, lr}	@
 1760              	.LCFI15:
 1761              		.cfi_def_cfa_offset 20
 1762              		.cfi_offset 4, -20
 1763              		.cfi_offset 5, -16
 1764              		.cfi_offset 6, -12
 1765              		.cfi_offset 7, -8
 1766              		.cfi_offset 14, -4
 1767              	@ .\utilities\src\segger_rtt.c:898:   INIT();
 896:.\utilities\src/segger_rtt.c ****   int BufferIndex;
 897:.\utilities\src/segger_rtt.c **** 
 898:.\utilities\src/segger_rtt.c ****   INIT();
 1768              		.loc 1 898 0
 1769 0446 194E     		ldr	r6, .L98	@ tmp122,
 1770              	@ .\utilities\src\segger_rtt.c:895: int SEGGER_RTT_AllocUpBuffer(const char* sName, void* pBuffer, 
 895:.\utilities\src/segger_rtt.c ****   int BufferIndex;
 1771              		.loc 1 895 0
 1772 0448 85B0     		sub	sp, sp, #20	@,,
 1773              	.LCFI16:
 1774              		.cfi_def_cfa_offset 40
 1775              	@ .\utilities\src\segger_rtt.c:895: int SEGGER_RTT_AllocUpBuffer(const char* sName, void* pBuffer, 
 895:.\utilities\src/segger_rtt.c ****   int BufferIndex;
 1776              		.loc 1 895 0
 1777 044a 0393     		str	r3, [sp, #12]	@ Flags, %sfp
 1778              	@ .\utilities\src\segger_rtt.c:898:   INIT();
ARM GAS  C:\Users\claym\AppData\Local\Temp\ccb01mZK.s 			page 51


 1779              		.loc 1 898 0
 1780 044c 3378     		ldrb	r3, [r6]	@ _SEGGER_RTT, _SEGGER_RTT
 1781              	.LVL178:
 1782              	@ .\utilities\src\segger_rtt.c:895: int SEGGER_RTT_AllocUpBuffer(const char* sName, void* pBuffer, 
 895:.\utilities\src/segger_rtt.c ****   int BufferIndex;
 1783              		.loc 1 895 0
 1784 044e 0500     		movs	r5, r0	@ sName, sName
 1785 0450 0191     		str	r1, [sp, #4]	@ pBuffer, %sfp
 1786 0452 0292     		str	r2, [sp, #8]	@ BufferSize, %sfp
 1787              	@ .\utilities\src\segger_rtt.c:898:   INIT();
 1788              		.loc 1 898 0
 1789 0454 002B     		cmp	r3, #0	@ _SEGGER_RTT,
 1790 0456 01D1     		bne	.L92	@,
 1791              	@ .\utilities\src\segger_rtt.c:898:   INIT();
 1792              		.loc 1 898 0 is_stmt 0 discriminator 1
 1793 0458 FFF726FE 		bl	_DoInit	@
 1794              	.LVL179:
 1795              	.L92:
 1796              	.LBB6:
 1797              	@ .\utilities\src\segger_rtt.c:899:   SEGGER_RTT_LOCK();
 899:.\utilities\src/segger_rtt.c ****   SEGGER_RTT_LOCK();
 1798              		.loc 1 899 0 is_stmt 1
 1799              		.syntax divided
 1800              	@ 899 ".\utilities\src\segger_rtt.c" 1
 1801 045c EFF31087 		mrs   r7, primask  	@ LockState
 1802 0460 0121     		mov   r1, $1     
 1803 0462 81F31088 		msr   primask, r1  
 1804              		
 1805              	@ 0 "" 2
 1806              	.LVL180:
 1807              	@ .\utilities\src\segger_rtt.c:906:   } while (BufferIndex < _SEGGER_RTT.MaxNumUpBuffers);
 900:.\utilities\src/segger_rtt.c ****   BufferIndex = 0;
 901:.\utilities\src/segger_rtt.c ****   do {
 902:.\utilities\src/segger_rtt.c ****     if (_SEGGER_RTT.aUp[BufferIndex].pBuffer == NULL) {
 903:.\utilities\src/segger_rtt.c ****       break;
 904:.\utilities\src/segger_rtt.c ****     }
 905:.\utilities\src/segger_rtt.c ****     BufferIndex++;
 906:.\utilities\src/segger_rtt.c ****   } while (BufferIndex < _SEGGER_RTT.MaxNumUpBuffers);
 1808              		.loc 1 906 0
 1809              		.thumb
 1810              		.syntax unified
 1811 0466 3369     		ldr	r3, [r6, #16]	@ _3, _SEGGER_RTT.MaxNumUpBuffers
 1812              	@ .\utilities\src\segger_rtt.c:900:   BufferIndex = 0;
 900:.\utilities\src/segger_rtt.c ****   BufferIndex = 0;
 1813              		.loc 1 900 0
 1814 0468 0020     		movs	r0, #0	@ <retval>,
 1815              	@ .\utilities\src\segger_rtt.c:906:   } while (BufferIndex < _SEGGER_RTT.MaxNumUpBuffers);
 1816              		.loc 1 906 0
 1817 046a 9C46     		mov	ip, r3	@ _3, _3
 1818              	@ .\utilities\src\segger_rtt.c:902:     if (_SEGGER_RTT.aUp[BufferIndex].pBuffer == NULL) {
 902:.\utilities\src/segger_rtt.c ****       break;
 1819              		.loc 1 902 0
 1820 046c 0F4A     		ldr	r2, .L98	@ tmp129,
 1821              	.LVL181:
 1822              	.L94:
 1823 046e 1823     		movs	r3, #24	@ tmp127,
 1824 0470 4343     		muls	r3, r0	@ tmp127, <retval>
ARM GAS  C:\Users\claym\AppData\Local\Temp\ccb01mZK.s 			page 52


 1825 0472 9B18     		adds	r3, r3, r2	@ tmp128, tmp127, tmp129
 1826 0474 DE69     		ldr	r6, [r3, #28]	@ MEM[base: _27, offset: 28B], MEM[base: _27, offset: 28B]
 1827 0476 002E     		cmp	r6, #0	@ MEM[base: _27, offset: 28B],
 1828 0478 05D0     		beq	.L93	@,
 1829              	@ .\utilities\src\segger_rtt.c:905:     BufferIndex++;
 905:.\utilities\src/segger_rtt.c ****   } while (BufferIndex < _SEGGER_RTT.MaxNumUpBuffers);
 1830              		.loc 1 905 0
 1831 047a 0130     		adds	r0, r0, #1	@ <retval>,
 1832              	.LVL182:
 1833              	@ .\utilities\src\segger_rtt.c:906:   } while (BufferIndex < _SEGGER_RTT.MaxNumUpBuffers);
 1834              		.loc 1 906 0
 1835 047c 8445     		cmp	ip, r0	@ _3, <retval>
 1836 047e F6DC     		bgt	.L94	@,
 1837              	.L96:
 1838              	@ .\utilities\src\segger_rtt.c:915:     BufferIndex = -1;
 907:.\utilities\src/segger_rtt.c ****   if (BufferIndex < _SEGGER_RTT.MaxNumUpBuffers) {
 908:.\utilities\src/segger_rtt.c ****     _SEGGER_RTT.aUp[BufferIndex].sName        = sName;
 909:.\utilities\src/segger_rtt.c ****     _SEGGER_RTT.aUp[BufferIndex].pBuffer      = pBuffer;
 910:.\utilities\src/segger_rtt.c ****     _SEGGER_RTT.aUp[BufferIndex].SizeOfBuffer = BufferSize;
 911:.\utilities\src/segger_rtt.c ****     _SEGGER_RTT.aUp[BufferIndex].RdOff        = 0u;
 912:.\utilities\src/segger_rtt.c ****     _SEGGER_RTT.aUp[BufferIndex].WrOff        = 0u;
 913:.\utilities\src/segger_rtt.c ****     _SEGGER_RTT.aUp[BufferIndex].Flags        = Flags;
 914:.\utilities\src/segger_rtt.c ****   } else {
 915:.\utilities\src/segger_rtt.c ****     BufferIndex = -1;
 1839              		.loc 1 915 0
 1840 0480 0120     		movs	r0, #1	@ <retval>,
 1841              	.LVL183:
 1842 0482 4042     		rsbs	r0, r0, #0	@ <retval>, <retval>
 1843 0484 0EE0     		b	.L95	@
 1844              	.LVL184:
 1845              	.L93:
 1846              	@ .\utilities\src\segger_rtt.c:907:   if (BufferIndex < _SEGGER_RTT.MaxNumUpBuffers) {
 907:.\utilities\src/segger_rtt.c ****   if (BufferIndex < _SEGGER_RTT.MaxNumUpBuffers) {
 1847              		.loc 1 907 0
 1848 0486 8445     		cmp	ip, r0	@ _3, <retval>
 1849 0488 FADD     		ble	.L96	@,
 1850              	@ .\utilities\src\segger_rtt.c:908:     _SEGGER_RTT.aUp[BufferIndex].sName        = sName;
 908:.\utilities\src/segger_rtt.c ****     _SEGGER_RTT.aUp[BufferIndex].pBuffer      = pBuffer;
 1851              		.loc 1 908 0
 1852 048a 1824     		movs	r4, #24	@ tmp173,
 1853 048c 411C     		adds	r1, r0, #1	@ tmp132, <retval>,
 1854 048e 6143     		muls	r1, r4	@ tmp134, tmp173
 1855 0490 8D50     		str	r5, [r1, r2]	@ sName, _SEGGER_RTT.aUp[BufferIndex_5].sName
 1856              	@ .\utilities\src\segger_rtt.c:909:     _SEGGER_RTT.aUp[BufferIndex].pBuffer      = pBuffer;
 909:.\utilities\src/segger_rtt.c ****     _SEGGER_RTT.aUp[BufferIndex].SizeOfBuffer = BufferSize;
 1857              		.loc 1 909 0
 1858 0492 5118     		adds	r1, r2, r1	@ tmp139, tmp129, tmp134
 1859 0494 019A     		ldr	r2, [sp, #4]	@ pBuffer, %sfp
 1860              	@ .\utilities\src\segger_rtt.c:911:     _SEGGER_RTT.aUp[BufferIndex].RdOff        = 0u;
 911:.\utilities\src/segger_rtt.c ****     _SEGGER_RTT.aUp[BufferIndex].WrOff        = 0u;
 1861              		.loc 1 911 0
 1862 0496 9E62     		str	r6, [r3, #40]	@ MEM[base: _27, offset: 28B], _SEGGER_RTT.aUp[BufferIndex_5].RdOff
 1863              	@ .\utilities\src\segger_rtt.c:909:     _SEGGER_RTT.aUp[BufferIndex].pBuffer      = pBuffer;
 909:.\utilities\src/segger_rtt.c ****     _SEGGER_RTT.aUp[BufferIndex].SizeOfBuffer = BufferSize;
 1864              		.loc 1 909 0
 1865 0498 4A60     		str	r2, [r1, #4]	@ pBuffer, _SEGGER_RTT.aUp[BufferIndex_5].pBuffer
 1866              	@ .\utilities\src\segger_rtt.c:910:     _SEGGER_RTT.aUp[BufferIndex].SizeOfBuffer = BufferSize;
ARM GAS  C:\Users\claym\AppData\Local\Temp\ccb01mZK.s 			page 53


 910:.\utilities\src/segger_rtt.c ****     _SEGGER_RTT.aUp[BufferIndex].RdOff        = 0u;
 1867              		.loc 1 910 0
 1868 049a 029A     		ldr	r2, [sp, #8]	@ BufferSize, %sfp
 1869              	@ .\utilities\src\segger_rtt.c:912:     _SEGGER_RTT.aUp[BufferIndex].WrOff        = 0u;
 912:.\utilities\src/segger_rtt.c ****     _SEGGER_RTT.aUp[BufferIndex].Flags        = Flags;
 1870              		.loc 1 912 0
 1871 049c 5E62     		str	r6, [r3, #36]	@ MEM[base: _27, offset: 28B], _SEGGER_RTT.aUp[BufferIndex_5].WrOff
 1872              	@ .\utilities\src\segger_rtt.c:910:     _SEGGER_RTT.aUp[BufferIndex].SizeOfBuffer = BufferSize;
 910:.\utilities\src/segger_rtt.c ****     _SEGGER_RTT.aUp[BufferIndex].RdOff        = 0u;
 1873              		.loc 1 910 0
 1874 049e 1A62     		str	r2, [r3, #32]	@ BufferSize, _SEGGER_RTT.aUp[BufferIndex_5].SizeOfBuffer
 1875              	@ .\utilities\src\segger_rtt.c:913:     _SEGGER_RTT.aUp[BufferIndex].Flags        = Flags;
 913:.\utilities\src/segger_rtt.c ****   } else {
 1876              		.loc 1 913 0
 1877 04a0 039A     		ldr	r2, [sp, #12]	@ Flags, %sfp
 1878 04a2 DA62     		str	r2, [r3, #44]	@ Flags, _SEGGER_RTT.aUp[BufferIndex_5].Flags
 1879              	.LVL185:
 1880              	.L95:
 1881              	@ .\utilities\src\segger_rtt.c:917:   SEGGER_RTT_UNLOCK();
 916:.\utilities\src/segger_rtt.c ****   }
 917:.\utilities\src/segger_rtt.c ****   SEGGER_RTT_UNLOCK();
 1882              		.loc 1 917 0
 1883              		.syntax divided
 1884              	@ 917 ".\utilities\src\segger_rtt.c" 1
 1885 04a4 87F31088 		msr   primask, r7  	@ LockState
 1886              		
 1887              	@ 0 "" 2
 1888              		.thumb
 1889              		.syntax unified
 1890              	.LBE6:
 1891              	@ .\utilities\src\segger_rtt.c:919: }
 918:.\utilities\src/segger_rtt.c ****   return BufferIndex;
 919:.\utilities\src/segger_rtt.c **** }
 1892              		.loc 1 919 0
 1893 04a8 05B0     		add	sp, sp, #20	@,,
 1894              		@ sp needed	@
 1895              	.LVL186:
 1896              	.LVL187:
 1897 04aa F0BD     		pop	{r4, r5, r6, r7, pc}
 1898              	.L99:
 1899              		.align	2
 1900              	.L98:
 1901 04ac 00000000 		.word	_SEGGER_RTT
 1902              		.cfi_endproc
 1903              	.LFE16:
 1904              		.size	SEGGER_RTT_AllocUpBuffer, .-SEGGER_RTT_AllocUpBuffer
 1905              		.align	1
 1906              		.global	SEGGER_RTT_ConfigUpBuffer
 1907              		.syntax unified
 1908              		.code	16
 1909              		.thumb_func
 1910              		.fpu softvfp
 1911              		.type	SEGGER_RTT_ConfigUpBuffer, %function
 1912              	SEGGER_RTT_ConfigUpBuffer:
 1913              	.LFB17:
 920:.\utilities\src/segger_rtt.c **** 
 921:.\utilities\src/segger_rtt.c **** /*********************************************************************
ARM GAS  C:\Users\claym\AppData\Local\Temp\ccb01mZK.s 			page 54


 922:.\utilities\src/segger_rtt.c **** *
 923:.\utilities\src/segger_rtt.c **** *       SEGGER_RTT_ConfigUpBuffer
 924:.\utilities\src/segger_rtt.c **** *
 925:.\utilities\src/segger_rtt.c **** *  Function description
 926:.\utilities\src/segger_rtt.c **** *    Run-time configuration of a specific up-buffer (T->H).
 927:.\utilities\src/segger_rtt.c **** *    Buffer to be configured is specified by index.
 928:.\utilities\src/segger_rtt.c **** *    This includes: Buffer address, size, name, flags, ...
 929:.\utilities\src/segger_rtt.c **** *
 930:.\utilities\src/segger_rtt.c **** *  Parameters
 931:.\utilities\src/segger_rtt.c **** *    BufferIndex  Index of the buffer to configure.
 932:.\utilities\src/segger_rtt.c **** *    sName        Pointer to a constant name string.
 933:.\utilities\src/segger_rtt.c **** *    pBuffer      Pointer to a buffer to be used.
 934:.\utilities\src/segger_rtt.c **** *    BufferSize   Size of the buffer.
 935:.\utilities\src/segger_rtt.c **** *    Flags        Operating modes. Define behavior if buffer is full (not enough space for entire m
 936:.\utilities\src/segger_rtt.c **** *
 937:.\utilities\src/segger_rtt.c **** *  Return value
 938:.\utilities\src/segger_rtt.c **** *    >= 0 - O.K.
 939:.\utilities\src/segger_rtt.c **** *     < 0 - Error
 940:.\utilities\src/segger_rtt.c **** */
 941:.\utilities\src/segger_rtt.c **** int SEGGER_RTT_ConfigUpBuffer(unsigned BufferIndex, const char* sName, void* pBuffer, unsigned Buff
 1914              		.loc 1 941 0
 1915              		.cfi_startproc
 1916              		@ args = 4, pretend = 0, frame = 8
 1917              		@ frame_needed = 0, uses_anonymous_args = 0
 1918              	.LVL188:
 1919 04b0 F7B5     		push	{r0, r1, r2, r4, r5, r6, r7, lr}	@
 1920              	.LCFI17:
 1921              		.cfi_def_cfa_offset 32
 1922              		.cfi_offset 0, -32
 1923              		.cfi_offset 1, -28
 1924              		.cfi_offset 2, -24
 1925              		.cfi_offset 4, -20
 1926              		.cfi_offset 5, -16
 1927              		.cfi_offset 6, -12
 1928              		.cfi_offset 7, -8
 1929              		.cfi_offset 14, -4
 1930              	@ .\utilities\src\segger_rtt.c:944:   INIT();
 942:.\utilities\src/segger_rtt.c ****   int r;
 943:.\utilities\src/segger_rtt.c **** 
 944:.\utilities\src/segger_rtt.c ****   INIT();
 1931              		.loc 1 944 0
 1932 04b2 164C     		ldr	r4, .L108	@ tmp120,
 1933              	@ .\utilities\src\segger_rtt.c:941: int SEGGER_RTT_ConfigUpBuffer(unsigned BufferIndex, const char*
 941:.\utilities\src/segger_rtt.c ****   int r;
 1934              		.loc 1 941 0
 1935 04b4 0193     		str	r3, [sp, #4]	@ BufferSize, %sfp
 1936              	@ .\utilities\src\segger_rtt.c:944:   INIT();
 1937              		.loc 1 944 0
 1938 04b6 2378     		ldrb	r3, [r4]	@ _SEGGER_RTT, _SEGGER_RTT
 1939              	.LVL189:
 1940              	@ .\utilities\src\segger_rtt.c:941: int SEGGER_RTT_ConfigUpBuffer(unsigned BufferIndex, const char*
 941:.\utilities\src/segger_rtt.c ****   int r;
 1941              		.loc 1 941 0
 1942 04b8 0500     		movs	r5, r0	@ BufferIndex, BufferIndex
 1943 04ba 0F00     		movs	r7, r1	@ sName, sName
 1944 04bc 1600     		movs	r6, r2	@ pBuffer, pBuffer
 1945              	@ .\utilities\src\segger_rtt.c:944:   INIT();
ARM GAS  C:\Users\claym\AppData\Local\Temp\ccb01mZK.s 			page 55


 1946              		.loc 1 944 0
 1947 04be 002B     		cmp	r3, #0	@ _SEGGER_RTT,
 1948 04c0 01D1     		bne	.L101	@,
 1949              	@ .\utilities\src\segger_rtt.c:944:   INIT();
 1950              		.loc 1 944 0 is_stmt 0 discriminator 1
 1951 04c2 FFF7F1FD 		bl	_DoInit	@
 1952              	.LVL190:
 1953              	.L101:
 1954              	@ .\utilities\src\segger_rtt.c:945:   if (BufferIndex < (unsigned)_SEGGER_RTT.MaxNumUpBuffers) {
 945:.\utilities\src/segger_rtt.c ****   if (BufferIndex < (unsigned)_SEGGER_RTT.MaxNumUpBuffers) {
 1955              		.loc 1 945 0 is_stmt 1
 1956 04c6 2369     		ldr	r3, [r4, #16]	@ tmp160, _SEGGER_RTT.MaxNumUpBuffers
 1957 04c8 AB42     		cmp	r3, r5	@ tmp160, BufferIndex
 1958 04ca 1CD9     		bls	.L104	@,
 1959              	.LBB7:
 1960              	@ .\utilities\src\segger_rtt.c:946:     SEGGER_RTT_LOCK();
 946:.\utilities\src/segger_rtt.c ****     SEGGER_RTT_LOCK();
 1961              		.loc 1 946 0
 1962              		.syntax divided
 1963              	@ 946 ".\utilities\src\segger_rtt.c" 1
 1964 04cc EFF31082 		mrs   r2, primask  	@ LockState
 1965 04d0 0121     		mov   r1, $1     
 1966 04d2 81F31088 		msr   primask, r1  
 1967              		
 1968              	@ 0 "" 2
 1969              	.LVL191:
 1970              	@ .\utilities\src\segger_rtt.c:947:     if (BufferIndex > 0u) {
 947:.\utilities\src/segger_rtt.c ****     if (BufferIndex > 0u) {
 1971              		.loc 1 947 0
 1972              		.thumb
 1973              		.syntax unified
 1974 04d6 002D     		cmp	r5, #0	@ BufferIndex,
 1975 04d8 0CD0     		beq	.L103	@,
 1976              	@ .\utilities\src\segger_rtt.c:948:       _SEGGER_RTT.aUp[BufferIndex].sName        = sName;
 948:.\utilities\src/segger_rtt.c ****       _SEGGER_RTT.aUp[BufferIndex].sName        = sName;
 1977              		.loc 1 948 0
 1978 04da 1823     		movs	r3, #24	@ tmp127,
 1979 04dc 691C     		adds	r1, r5, #1	@ tmp126, BufferIndex,
 1980 04de 5943     		muls	r1, r3	@ tmp128, tmp127
 1981              	@ .\utilities\src\segger_rtt.c:950:       _SEGGER_RTT.aUp[BufferIndex].SizeOfBuffer = BufferSize;
 949:.\utilities\src/segger_rtt.c ****       _SEGGER_RTT.aUp[BufferIndex].pBuffer      = pBuffer;
 950:.\utilities\src/segger_rtt.c ****       _SEGGER_RTT.aUp[BufferIndex].SizeOfBuffer = BufferSize;
 1982              		.loc 1 950 0
 1983 04e0 6B43     		muls	r3, r5	@ tmp137, BufferIndex
 1984              	@ .\utilities\src\segger_rtt.c:948:       _SEGGER_RTT.aUp[BufferIndex].sName        = sName;
 948:.\utilities\src/segger_rtt.c ****       _SEGGER_RTT.aUp[BufferIndex].sName        = sName;
 1985              		.loc 1 948 0
 1986 04e2 6750     		str	r7, [r4, r1]	@ sName, _SEGGER_RTT.aUp[BufferIndex_10(D)].sName
 1987              	@ .\utilities\src\segger_rtt.c:949:       _SEGGER_RTT.aUp[BufferIndex].pBuffer      = pBuffer;
 949:.\utilities\src/segger_rtt.c ****       _SEGGER_RTT.aUp[BufferIndex].pBuffer      = pBuffer;
 1988              		.loc 1 949 0
 1989 04e4 6118     		adds	r1, r4, r1	@ tmp133, tmp120, tmp128
 1990 04e6 4E60     		str	r6, [r1, #4]	@ pBuffer, _SEGGER_RTT.aUp[BufferIndex_10(D)].pBuffer
 1991              	@ .\utilities\src\segger_rtt.c:950:       _SEGGER_RTT.aUp[BufferIndex].SizeOfBuffer = BufferSize;
 1992              		.loc 1 950 0
 1993 04e8 0199     		ldr	r1, [sp, #4]	@ BufferSize, %sfp
 1994 04ea E318     		adds	r3, r4, r3	@ tmp138, tmp120, tmp137
ARM GAS  C:\Users\claym\AppData\Local\Temp\ccb01mZK.s 			page 56


 1995 04ec 1962     		str	r1, [r3, #32]	@ BufferSize, _SEGGER_RTT.aUp[BufferIndex_10(D)].SizeOfBuffer
 1996              	@ .\utilities\src\segger_rtt.c:951:       _SEGGER_RTT.aUp[BufferIndex].RdOff        = 0u;
 951:.\utilities\src/segger_rtt.c ****       _SEGGER_RTT.aUp[BufferIndex].RdOff        = 0u;
 1997              		.loc 1 951 0
 1998 04ee 0021     		movs	r1, #0	@ tmp145,
 1999 04f0 9962     		str	r1, [r3, #40]	@ tmp145, _SEGGER_RTT.aUp[BufferIndex_10(D)].RdOff
 2000              	@ .\utilities\src\segger_rtt.c:952:       _SEGGER_RTT.aUp[BufferIndex].WrOff        = 0u;
 952:.\utilities\src/segger_rtt.c ****       _SEGGER_RTT.aUp[BufferIndex].WrOff        = 0u;
 2001              		.loc 1 952 0
 2002 04f2 5962     		str	r1, [r3, #36]	@ tmp145, _SEGGER_RTT.aUp[BufferIndex_10(D)].WrOff
 2003              	.L103:
 2004              	@ .\utilities\src\segger_rtt.c:954:     _SEGGER_RTT.aUp[BufferIndex].Flags          = Flags;
 953:.\utilities\src/segger_rtt.c ****     }
 954:.\utilities\src/segger_rtt.c ****     _SEGGER_RTT.aUp[BufferIndex].Flags          = Flags;
 2005              		.loc 1 954 0
 2006 04f4 1823     		movs	r3, #24	@ tmp153,
 2007 04f6 5D43     		muls	r5, r3	@ tmp154, tmp153
 2008              	.LVL192:
 2009 04f8 089B     		ldr	r3, [sp, #32]	@ tmp163, Flags
 2010 04fa 6419     		adds	r4, r4, r5	@ tmp155, tmp120, tmp154
 2011 04fc E362     		str	r3, [r4, #44]	@ tmp163, _SEGGER_RTT.aUp[BufferIndex_10(D)].Flags
 2012              	@ .\utilities\src\segger_rtt.c:955:     SEGGER_RTT_UNLOCK();
 955:.\utilities\src/segger_rtt.c ****     SEGGER_RTT_UNLOCK();
 2013              		.loc 1 955 0
 2014              		.syntax divided
 2015              	@ 955 ".\utilities\src\segger_rtt.c" 1
 2016 04fe 82F31088 		msr   primask, r2  	@ LockState
 2017              		
 2018              	@ 0 "" 2
 2019              	.LVL193:
 2020              		.thumb
 2021              		.syntax unified
 2022              	.LBE7:
 2023              	@ .\utilities\src\segger_rtt.c:956:     r =  0;
 956:.\utilities\src/segger_rtt.c ****     r =  0;
 2024              		.loc 1 956 0
 2025 0502 0020     		movs	r0, #0	@ <retval>,
 2026              	.LVL194:
 2027              	.L100:
 2028              	@ .\utilities\src\segger_rtt.c:961: }
 957:.\utilities\src/segger_rtt.c ****   } else {
 958:.\utilities\src/segger_rtt.c ****     r = -1;
 959:.\utilities\src/segger_rtt.c ****   }
 960:.\utilities\src/segger_rtt.c ****   return r;
 961:.\utilities\src/segger_rtt.c **** }
 2029              		.loc 1 961 0
 2030              		@ sp needed	@
 2031              	.LVL195:
 2032              	.LVL196:
 2033 0504 FEBD     		pop	{r1, r2, r3, r4, r5, r6, r7, pc}
 2034              	.LVL197:
 2035              	.L104:
 2036              	@ .\utilities\src\segger_rtt.c:958:     r = -1;
 958:.\utilities\src/segger_rtt.c ****   }
 2037              		.loc 1 958 0
 2038 0506 0120     		movs	r0, #1	@ <retval>,
 2039 0508 4042     		rsbs	r0, r0, #0	@ <retval>, <retval>
ARM GAS  C:\Users\claym\AppData\Local\Temp\ccb01mZK.s 			page 57


 2040              	.LVL198:
 2041              	@ .\utilities\src\segger_rtt.c:960:   return r;
 960:.\utilities\src/segger_rtt.c **** }
 2042              		.loc 1 960 0
 2043 050a FBE7     		b	.L100	@
 2044              	.L109:
 2045              		.align	2
 2046              	.L108:
 2047 050c 00000000 		.word	_SEGGER_RTT
 2048              		.cfi_endproc
 2049              	.LFE17:
 2050              		.size	SEGGER_RTT_ConfigUpBuffer, .-SEGGER_RTT_ConfigUpBuffer
 2051              		.align	1
 2052              		.global	SEGGER_RTT_ConfigDownBuffer
 2053              		.syntax unified
 2054              		.code	16
 2055              		.thumb_func
 2056              		.fpu softvfp
 2057              		.type	SEGGER_RTT_ConfigDownBuffer, %function
 2058              	SEGGER_RTT_ConfigDownBuffer:
 2059              	.LFB18:
 962:.\utilities\src/segger_rtt.c **** 
 963:.\utilities\src/segger_rtt.c **** /*********************************************************************
 964:.\utilities\src/segger_rtt.c **** *
 965:.\utilities\src/segger_rtt.c **** *       SEGGER_RTT_ConfigDownBuffer
 966:.\utilities\src/segger_rtt.c **** *
 967:.\utilities\src/segger_rtt.c **** *  Function description
 968:.\utilities\src/segger_rtt.c **** *    Run-time configuration of a specific down-buffer (H->T).
 969:.\utilities\src/segger_rtt.c **** *    Buffer to be configured is specified by index.
 970:.\utilities\src/segger_rtt.c **** *    This includes: Buffer address, size, name, flags, ...
 971:.\utilities\src/segger_rtt.c **** *
 972:.\utilities\src/segger_rtt.c **** *  Parameters
 973:.\utilities\src/segger_rtt.c **** *    BufferIndex  Index of the buffer to configure.
 974:.\utilities\src/segger_rtt.c **** *    sName        Pointer to a constant name string.
 975:.\utilities\src/segger_rtt.c **** *    pBuffer      Pointer to a buffer to be used.
 976:.\utilities\src/segger_rtt.c **** *    BufferSize   Size of the buffer.
 977:.\utilities\src/segger_rtt.c **** *    Flags        Operating modes. Define behavior if buffer is full (not enough space for entire m
 978:.\utilities\src/segger_rtt.c **** *
 979:.\utilities\src/segger_rtt.c **** *  Return value
 980:.\utilities\src/segger_rtt.c **** *    >= 0  O.K.
 981:.\utilities\src/segger_rtt.c **** *     < 0  Error
 982:.\utilities\src/segger_rtt.c **** */
 983:.\utilities\src/segger_rtt.c **** int SEGGER_RTT_ConfigDownBuffer(unsigned BufferIndex, const char* sName, void* pBuffer, unsigned Bu
 2060              		.loc 1 983 0
 2061              		.cfi_startproc
 2062              		@ args = 4, pretend = 0, frame = 8
 2063              		@ frame_needed = 0, uses_anonymous_args = 0
 2064              	.LVL199:
 2065 0510 F7B5     		push	{r0, r1, r2, r4, r5, r6, r7, lr}	@
 2066              	.LCFI18:
 2067              		.cfi_def_cfa_offset 32
 2068              		.cfi_offset 0, -32
 2069              		.cfi_offset 1, -28
 2070              		.cfi_offset 2, -24
 2071              		.cfi_offset 4, -20
 2072              		.cfi_offset 5, -16
 2073              		.cfi_offset 6, -12
ARM GAS  C:\Users\claym\AppData\Local\Temp\ccb01mZK.s 			page 58


 2074              		.cfi_offset 7, -8
 2075              		.cfi_offset 14, -4
 2076              	@ .\utilities\src\segger_rtt.c:986:   INIT();
 984:.\utilities\src/segger_rtt.c ****   int r;
 985:.\utilities\src/segger_rtt.c **** 
 986:.\utilities\src/segger_rtt.c ****   INIT();
 2077              		.loc 1 986 0
 2078 0512 154C     		ldr	r4, .L118	@ tmp120,
 2079              	@ .\utilities\src\segger_rtt.c:983: int SEGGER_RTT_ConfigDownBuffer(unsigned BufferIndex, const cha
 983:.\utilities\src/segger_rtt.c ****   int r;
 2080              		.loc 1 983 0
 2081 0514 0193     		str	r3, [sp, #4]	@ BufferSize, %sfp
 2082              	@ .\utilities\src\segger_rtt.c:986:   INIT();
 2083              		.loc 1 986 0
 2084 0516 2378     		ldrb	r3, [r4]	@ _SEGGER_RTT, _SEGGER_RTT
 2085              	.LVL200:
 2086              	@ .\utilities\src\segger_rtt.c:983: int SEGGER_RTT_ConfigDownBuffer(unsigned BufferIndex, const cha
 983:.\utilities\src/segger_rtt.c ****   int r;
 2087              		.loc 1 983 0
 2088 0518 0500     		movs	r5, r0	@ BufferIndex, BufferIndex
 2089 051a 0F00     		movs	r7, r1	@ sName, sName
 2090 051c 1600     		movs	r6, r2	@ pBuffer, pBuffer
 2091              	@ .\utilities\src\segger_rtt.c:986:   INIT();
 2092              		.loc 1 986 0
 2093 051e 002B     		cmp	r3, #0	@ _SEGGER_RTT,
 2094 0520 01D1     		bne	.L111	@,
 2095              	@ .\utilities\src\segger_rtt.c:986:   INIT();
 2096              		.loc 1 986 0 is_stmt 0 discriminator 1
 2097 0522 FFF7C1FD 		bl	_DoInit	@
 2098              	.LVL201:
 2099              	.L111:
 2100              	@ .\utilities\src\segger_rtt.c:987:   if (BufferIndex < (unsigned)_SEGGER_RTT.MaxNumDownBuffers) {
 987:.\utilities\src/segger_rtt.c ****   if (BufferIndex < (unsigned)_SEGGER_RTT.MaxNumDownBuffers) {
 2101              		.loc 1 987 0 is_stmt 1
 2102 0526 6369     		ldr	r3, [r4, #20]	@ tmp160, _SEGGER_RTT.MaxNumDownBuffers
 2103 0528 AB42     		cmp	r3, r5	@ tmp160, BufferIndex
 2104 052a 19D9     		bls	.L114	@,
 2105              	.LBB8:
 2106              	@ .\utilities\src\segger_rtt.c:988:     SEGGER_RTT_LOCK();
 988:.\utilities\src/segger_rtt.c ****     SEGGER_RTT_LOCK();
 2107              		.loc 1 988 0
 2108              		.syntax divided
 2109              	@ 988 ".\utilities\src\segger_rtt.c" 1
 2110 052c EFF31082 		mrs   r2, primask  	@ LockState
 2111 0530 0121     		mov   r1, $1     
 2112 0532 81F31088 		msr   primask, r1  
 2113              		
 2114              	@ 0 "" 2
 2115              	.LVL202:
 2116              	@ .\utilities\src\segger_rtt.c:989:     if (BufferIndex > 0u) {
 989:.\utilities\src/segger_rtt.c ****     if (BufferIndex > 0u) {
 2117              		.loc 1 989 0
 2118              		.thumb
 2119              		.syntax unified
 2120 0536 002D     		cmp	r5, #0	@ BufferIndex,
 2121 0538 09D0     		beq	.L113	@,
 2122              	@ .\utilities\src\segger_rtt.c:990:       _SEGGER_RTT.aDown[BufferIndex].sName        = sName;
ARM GAS  C:\Users\claym\AppData\Local\Temp\ccb01mZK.s 			page 59


 990:.\utilities\src/segger_rtt.c ****       _SEGGER_RTT.aDown[BufferIndex].sName        = sName;
 2123              		.loc 1 990 0
 2124 053a 1823     		movs	r3, #24	@ tmp126,
 2125 053c 6B43     		muls	r3, r5	@ tmp127, BufferIndex
 2126              	@ .\utilities\src\segger_rtt.c:992:       _SEGGER_RTT.aDown[BufferIndex].SizeOfBuffer = BufferSize;
 991:.\utilities\src/segger_rtt.c ****       _SEGGER_RTT.aDown[BufferIndex].pBuffer      = pBuffer;
 992:.\utilities\src/segger_rtt.c ****       _SEGGER_RTT.aDown[BufferIndex].SizeOfBuffer = BufferSize;
 2127              		.loc 1 992 0
 2128 053e 0199     		ldr	r1, [sp, #4]	@ BufferSize, %sfp
 2129              	@ .\utilities\src\segger_rtt.c:990:       _SEGGER_RTT.aDown[BufferIndex].sName        = sName;
 990:.\utilities\src/segger_rtt.c ****       _SEGGER_RTT.aDown[BufferIndex].sName        = sName;
 2130              		.loc 1 990 0
 2131 0540 E318     		adds	r3, r4, r3	@ tmp128, tmp120, tmp127
 2132              	@ .\utilities\src\segger_rtt.c:992:       _SEGGER_RTT.aDown[BufferIndex].SizeOfBuffer = BufferSize;
 2133              		.loc 1 992 0
 2134 0542 9966     		str	r1, [r3, #104]	@ BufferSize, _SEGGER_RTT.aDown[BufferIndex_10(D)].SizeOfBuffer
 2135              	@ .\utilities\src\segger_rtt.c:993:       _SEGGER_RTT.aDown[BufferIndex].RdOff        = 0u;
 993:.\utilities\src/segger_rtt.c ****       _SEGGER_RTT.aDown[BufferIndex].RdOff        = 0u;
 2136              		.loc 1 993 0
 2137 0544 0021     		movs	r1, #0	@ tmp145,
 2138              	@ .\utilities\src\segger_rtt.c:990:       _SEGGER_RTT.aDown[BufferIndex].sName        = sName;
 990:.\utilities\src/segger_rtt.c ****       _SEGGER_RTT.aDown[BufferIndex].sName        = sName;
 2139              		.loc 1 990 0
 2140 0546 1F66     		str	r7, [r3, #96]	@ sName, _SEGGER_RTT.aDown[BufferIndex_10(D)].sName
 2141              	@ .\utilities\src\segger_rtt.c:991:       _SEGGER_RTT.aDown[BufferIndex].pBuffer      = pBuffer;
 991:.\utilities\src/segger_rtt.c ****       _SEGGER_RTT.aDown[BufferIndex].pBuffer      = pBuffer;
 2142              		.loc 1 991 0
 2143 0548 5E66     		str	r6, [r3, #100]	@ pBuffer, _SEGGER_RTT.aDown[BufferIndex_10(D)].pBuffer
 2144              	@ .\utilities\src\segger_rtt.c:993:       _SEGGER_RTT.aDown[BufferIndex].RdOff        = 0u;
 2145              		.loc 1 993 0
 2146 054a 1967     		str	r1, [r3, #112]	@ tmp145, _SEGGER_RTT.aDown[BufferIndex_10(D)].RdOff
 2147              	@ .\utilities\src\segger_rtt.c:994:       _SEGGER_RTT.aDown[BufferIndex].WrOff        = 0u;
 994:.\utilities\src/segger_rtt.c ****       _SEGGER_RTT.aDown[BufferIndex].WrOff        = 0u;
 2148              		.loc 1 994 0
 2149 054c D966     		str	r1, [r3, #108]	@ tmp145, _SEGGER_RTT.aDown[BufferIndex_10(D)].WrOff
 2150              	.L113:
 2151              	@ .\utilities\src\segger_rtt.c:996:     _SEGGER_RTT.aDown[BufferIndex].Flags          = Flags;
 995:.\utilities\src/segger_rtt.c ****     }
 996:.\utilities\src/segger_rtt.c ****     _SEGGER_RTT.aDown[BufferIndex].Flags          = Flags;
 2152              		.loc 1 996 0
 2153 054e 1823     		movs	r3, #24	@ tmp153,
 2154 0550 5D43     		muls	r5, r3	@ tmp154, tmp153
 2155              	.LVL203:
 2156 0552 089B     		ldr	r3, [sp, #32]	@ tmp163, Flags
 2157 0554 6419     		adds	r4, r4, r5	@ tmp155, tmp120, tmp154
 2158 0556 6367     		str	r3, [r4, #116]	@ tmp163, _SEGGER_RTT.aDown[BufferIndex_10(D)].Flags
 2159              	@ .\utilities\src\segger_rtt.c:997:     SEGGER_RTT_UNLOCK();
 997:.\utilities\src/segger_rtt.c ****     SEGGER_RTT_UNLOCK();
 2160              		.loc 1 997 0
 2161              		.syntax divided
 2162              	@ 997 ".\utilities\src\segger_rtt.c" 1
 2163 0558 82F31088 		msr   primask, r2  	@ LockState
 2164              		
 2165              	@ 0 "" 2
 2166              	.LVL204:
 2167              		.thumb
 2168              		.syntax unified
ARM GAS  C:\Users\claym\AppData\Local\Temp\ccb01mZK.s 			page 60


 2169              	.LBE8:
 2170              	@ .\utilities\src\segger_rtt.c:998:     r =  0;
 998:.\utilities\src/segger_rtt.c ****     r =  0;
 2171              		.loc 1 998 0
 2172 055c 0020     		movs	r0, #0	@ <retval>,
 2173              	.LVL205:
 2174              	.L110:
 2175              	@ .\utilities\src\segger_rtt.c:1003: }
 999:.\utilities\src/segger_rtt.c ****   } else {
1000:.\utilities\src/segger_rtt.c ****     r = -1;
1001:.\utilities\src/segger_rtt.c ****   }
1002:.\utilities\src/segger_rtt.c ****   return r;
1003:.\utilities\src/segger_rtt.c **** }
 2176              		.loc 1 1003 0
 2177              		@ sp needed	@
 2178              	.LVL206:
 2179              	.LVL207:
 2180 055e FEBD     		pop	{r1, r2, r3, r4, r5, r6, r7, pc}
 2181              	.LVL208:
 2182              	.L114:
 2183              	@ .\utilities\src\segger_rtt.c:1000:     r = -1;
1000:.\utilities\src/segger_rtt.c ****   }
 2184              		.loc 1 1000 0
 2185 0560 0120     		movs	r0, #1	@ <retval>,
 2186 0562 4042     		rsbs	r0, r0, #0	@ <retval>, <retval>
 2187              	.LVL209:
 2188              	@ .\utilities\src\segger_rtt.c:1002:   return r;
1002:.\utilities\src/segger_rtt.c **** }
 2189              		.loc 1 1002 0
 2190 0564 FBE7     		b	.L110	@
 2191              	.L119:
 2192 0566 C046     		.align	2
 2193              	.L118:
 2194 0568 00000000 		.word	_SEGGER_RTT
 2195              		.cfi_endproc
 2196              	.LFE18:
 2197              		.size	SEGGER_RTT_ConfigDownBuffer, .-SEGGER_RTT_ConfigDownBuffer
 2198              		.align	1
 2199              		.global	SEGGER_RTT_SetNameUpBuffer
 2200              		.syntax unified
 2201              		.code	16
 2202              		.thumb_func
 2203              		.fpu softvfp
 2204              		.type	SEGGER_RTT_SetNameUpBuffer, %function
 2205              	SEGGER_RTT_SetNameUpBuffer:
 2206              	.LFB19:
1004:.\utilities\src/segger_rtt.c **** 
1005:.\utilities\src/segger_rtt.c **** /*********************************************************************
1006:.\utilities\src/segger_rtt.c **** *
1007:.\utilities\src/segger_rtt.c **** *       SEGGER_RTT_SetNameUpBuffer
1008:.\utilities\src/segger_rtt.c **** *
1009:.\utilities\src/segger_rtt.c **** *  Function description
1010:.\utilities\src/segger_rtt.c **** *    Run-time configuration of a specific up-buffer name (T->H).
1011:.\utilities\src/segger_rtt.c **** *    Buffer to be configured is specified by index.
1012:.\utilities\src/segger_rtt.c **** *
1013:.\utilities\src/segger_rtt.c **** *  Parameters
1014:.\utilities\src/segger_rtt.c **** *    BufferIndex  Index of the buffer to renamed.
ARM GAS  C:\Users\claym\AppData\Local\Temp\ccb01mZK.s 			page 61


1015:.\utilities\src/segger_rtt.c **** *    sName        Pointer to a constant name string.
1016:.\utilities\src/segger_rtt.c **** *
1017:.\utilities\src/segger_rtt.c **** *  Return value
1018:.\utilities\src/segger_rtt.c **** *    >= 0  O.K.
1019:.\utilities\src/segger_rtt.c **** *     < 0  Error
1020:.\utilities\src/segger_rtt.c **** */
1021:.\utilities\src/segger_rtt.c **** int SEGGER_RTT_SetNameUpBuffer(unsigned BufferIndex, const char* sName) {
 2207              		.loc 1 1021 0
 2208              		.cfi_startproc
 2209              		@ args = 0, pretend = 0, frame = 0
 2210              		@ frame_needed = 0, uses_anonymous_args = 0
 2211              	.LVL210:
 2212 056c 70B5     		push	{r4, r5, r6, lr}	@
 2213              	.LCFI19:
 2214              		.cfi_def_cfa_offset 16
 2215              		.cfi_offset 4, -16
 2216              		.cfi_offset 5, -12
 2217              		.cfi_offset 6, -8
 2218              		.cfi_offset 14, -4
 2219              	@ .\utilities\src\segger_rtt.c:1024:   INIT();
1022:.\utilities\src/segger_rtt.c ****   int r;
1023:.\utilities\src/segger_rtt.c **** 
1024:.\utilities\src/segger_rtt.c ****   INIT();
 2220              		.loc 1 1024 0
 2221 056e 0D4D     		ldr	r5, .L124	@ tmp117,
 2222              	@ .\utilities\src\segger_rtt.c:1021: int SEGGER_RTT_SetNameUpBuffer(unsigned BufferIndex, const cha
1021:.\utilities\src/segger_rtt.c ****   int r;
 2223              		.loc 1 1021 0
 2224 0570 0400     		movs	r4, r0	@ BufferIndex, BufferIndex
 2225              	@ .\utilities\src\segger_rtt.c:1024:   INIT();
 2226              		.loc 1 1024 0
 2227 0572 2B78     		ldrb	r3, [r5]	@ _SEGGER_RTT, _SEGGER_RTT
 2228              	@ .\utilities\src\segger_rtt.c:1021: int SEGGER_RTT_SetNameUpBuffer(unsigned BufferIndex, const cha
1021:.\utilities\src/segger_rtt.c ****   int r;
 2229              		.loc 1 1021 0
 2230 0574 0E00     		movs	r6, r1	@ sName, sName
 2231              	@ .\utilities\src\segger_rtt.c:1024:   INIT();
 2232              		.loc 1 1024 0
 2233 0576 002B     		cmp	r3, #0	@ _SEGGER_RTT,
 2234 0578 01D1     		bne	.L121	@,
 2235              	@ .\utilities\src\segger_rtt.c:1024:   INIT();
 2236              		.loc 1 1024 0 is_stmt 0 discriminator 1
 2237 057a FFF795FD 		bl	_DoInit	@
 2238              	.LVL211:
 2239              	.L121:
 2240              	@ .\utilities\src\segger_rtt.c:1025:   if (BufferIndex < (unsigned)_SEGGER_RTT.MaxNumUpBuffers) {
1025:.\utilities\src/segger_rtt.c ****   if (BufferIndex < (unsigned)_SEGGER_RTT.MaxNumUpBuffers) {
 2241              		.loc 1 1025 0 is_stmt 1
 2242 057e 2B69     		ldr	r3, [r5, #16]	@ tmp129, _SEGGER_RTT.MaxNumUpBuffers
 2243 0580 A342     		cmp	r3, r4	@ tmp129, BufferIndex
 2244 0582 0CD9     		bls	.L123	@,
 2245              	.LBB9:
 2246              	@ .\utilities\src\segger_rtt.c:1026:     SEGGER_RTT_LOCK();
1026:.\utilities\src/segger_rtt.c ****     SEGGER_RTT_LOCK();
 2247              		.loc 1 1026 0
 2248              		.syntax divided
 2249              	@ 1026 ".\utilities\src\segger_rtt.c" 1
ARM GAS  C:\Users\claym\AppData\Local\Temp\ccb01mZK.s 			page 62


 2250 0584 EFF31082 		mrs   r2, primask  	@ LockState
 2251 0588 0121     		mov   r1, $1     
 2252 058a 81F31088 		msr   primask, r1  
 2253              		
 2254              	@ 0 "" 2
 2255              	.LVL212:
 2256              	@ .\utilities\src\segger_rtt.c:1027:     _SEGGER_RTT.aUp[BufferIndex].sName = sName;
1027:.\utilities\src/segger_rtt.c ****     _SEGGER_RTT.aUp[BufferIndex].sName = sName;
 2257              		.loc 1 1027 0
 2258              		.thumb
 2259              		.syntax unified
 2260 058e 1823     		movs	r3, #24	@ tmp124,
 2261 0590 0134     		adds	r4, r4, #1	@ tmp123,
 2262              	.LVL213:
 2263 0592 5C43     		muls	r4, r3	@ tmp125, tmp124
 2264              	.LVL214:
 2265 0594 2E51     		str	r6, [r5, r4]	@ sName, _SEGGER_RTT.aUp[BufferIndex_9(D)].sName
 2266              	@ .\utilities\src\segger_rtt.c:1028:     SEGGER_RTT_UNLOCK();
1028:.\utilities\src/segger_rtt.c ****     SEGGER_RTT_UNLOCK();
 2267              		.loc 1 1028 0
 2268              		.syntax divided
 2269              	@ 1028 ".\utilities\src\segger_rtt.c" 1
 2270 0596 82F31088 		msr   primask, r2  	@ LockState
 2271              		
 2272              	@ 0 "" 2
 2273              	.LVL215:
 2274              		.thumb
 2275              		.syntax unified
 2276              	.LBE9:
 2277              	@ .\utilities\src\segger_rtt.c:1029:     r =  0;
1029:.\utilities\src/segger_rtt.c ****     r =  0;
 2278              		.loc 1 1029 0
 2279 059a 0020     		movs	r0, #0	@ <retval>,
 2280              	.LVL216:
 2281              	.L120:
 2282              	@ .\utilities\src\segger_rtt.c:1034: }
1030:.\utilities\src/segger_rtt.c ****   } else {
1031:.\utilities\src/segger_rtt.c ****     r = -1;
1032:.\utilities\src/segger_rtt.c ****   }
1033:.\utilities\src/segger_rtt.c ****   return r;
1034:.\utilities\src/segger_rtt.c **** }
 2283              		.loc 1 1034 0
 2284              		@ sp needed	@
 2285              	.LVL217:
 2286 059c 70BD     		pop	{r4, r5, r6, pc}
 2287              	.LVL218:
 2288              	.L123:
 2289              	@ .\utilities\src\segger_rtt.c:1031:     r = -1;
1031:.\utilities\src/segger_rtt.c ****   }
 2290              		.loc 1 1031 0
 2291 059e 0120     		movs	r0, #1	@ <retval>,
 2292 05a0 4042     		rsbs	r0, r0, #0	@ <retval>, <retval>
 2293              	.LVL219:
 2294              	@ .\utilities\src\segger_rtt.c:1033:   return r;
1033:.\utilities\src/segger_rtt.c **** }
 2295              		.loc 1 1033 0
 2296 05a2 FBE7     		b	.L120	@
ARM GAS  C:\Users\claym\AppData\Local\Temp\ccb01mZK.s 			page 63


 2297              	.L125:
 2298              		.align	2
 2299              	.L124:
 2300 05a4 00000000 		.word	_SEGGER_RTT
 2301              		.cfi_endproc
 2302              	.LFE19:
 2303              		.size	SEGGER_RTT_SetNameUpBuffer, .-SEGGER_RTT_SetNameUpBuffer
 2304              		.align	1
 2305              		.global	SEGGER_RTT_SetNameDownBuffer
 2306              		.syntax unified
 2307              		.code	16
 2308              		.thumb_func
 2309              		.fpu softvfp
 2310              		.type	SEGGER_RTT_SetNameDownBuffer, %function
 2311              	SEGGER_RTT_SetNameDownBuffer:
 2312              	.LFB20:
1035:.\utilities\src/segger_rtt.c **** 
1036:.\utilities\src/segger_rtt.c **** /*********************************************************************
1037:.\utilities\src/segger_rtt.c **** *
1038:.\utilities\src/segger_rtt.c **** *       SEGGER_RTT_SetNameDownBuffer
1039:.\utilities\src/segger_rtt.c **** *
1040:.\utilities\src/segger_rtt.c **** *  Function description
1041:.\utilities\src/segger_rtt.c **** *    Run-time configuration of a specific Down-buffer name (T->H).
1042:.\utilities\src/segger_rtt.c **** *    Buffer to be configured is specified by index.
1043:.\utilities\src/segger_rtt.c **** *
1044:.\utilities\src/segger_rtt.c **** *  Parameters
1045:.\utilities\src/segger_rtt.c **** *    BufferIndex  Index of the buffer to renamed.
1046:.\utilities\src/segger_rtt.c **** *    sName        Pointer to a constant name string.
1047:.\utilities\src/segger_rtt.c **** *
1048:.\utilities\src/segger_rtt.c **** *  Return value
1049:.\utilities\src/segger_rtt.c **** *    >= 0  O.K.
1050:.\utilities\src/segger_rtt.c **** *     < 0  Error
1051:.\utilities\src/segger_rtt.c **** */
1052:.\utilities\src/segger_rtt.c **** int SEGGER_RTT_SetNameDownBuffer(unsigned BufferIndex, const char* sName) {
 2313              		.loc 1 1052 0
 2314              		.cfi_startproc
 2315              		@ args = 0, pretend = 0, frame = 0
 2316              		@ frame_needed = 0, uses_anonymous_args = 0
 2317              	.LVL220:
 2318 05a8 70B5     		push	{r4, r5, r6, lr}	@
 2319              	.LCFI20:
 2320              		.cfi_def_cfa_offset 16
 2321              		.cfi_offset 4, -16
 2322              		.cfi_offset 5, -12
 2323              		.cfi_offset 6, -8
 2324              		.cfi_offset 14, -4
 2325              	@ .\utilities\src\segger_rtt.c:1055:   INIT();
1053:.\utilities\src/segger_rtt.c ****   int r;
1054:.\utilities\src/segger_rtt.c **** 
1055:.\utilities\src/segger_rtt.c ****   INIT();
 2326              		.loc 1 1055 0
 2327 05aa 0D4C     		ldr	r4, .L130	@ tmp117,
 2328              	@ .\utilities\src\segger_rtt.c:1052: int SEGGER_RTT_SetNameDownBuffer(unsigned BufferIndex, const c
1052:.\utilities\src/segger_rtt.c ****   int r;
 2329              		.loc 1 1052 0
 2330 05ac 0600     		movs	r6, r0	@ BufferIndex, BufferIndex
 2331              	@ .\utilities\src\segger_rtt.c:1055:   INIT();
ARM GAS  C:\Users\claym\AppData\Local\Temp\ccb01mZK.s 			page 64


 2332              		.loc 1 1055 0
 2333 05ae 2378     		ldrb	r3, [r4]	@ _SEGGER_RTT, _SEGGER_RTT
 2334              	@ .\utilities\src\segger_rtt.c:1052: int SEGGER_RTT_SetNameDownBuffer(unsigned BufferIndex, const c
1052:.\utilities\src/segger_rtt.c ****   int r;
 2335              		.loc 1 1052 0
 2336 05b0 0D00     		movs	r5, r1	@ sName, sName
 2337              	@ .\utilities\src\segger_rtt.c:1055:   INIT();
 2338              		.loc 1 1055 0
 2339 05b2 002B     		cmp	r3, #0	@ _SEGGER_RTT,
 2340 05b4 01D1     		bne	.L127	@,
 2341              	@ .\utilities\src\segger_rtt.c:1055:   INIT();
 2342              		.loc 1 1055 0 is_stmt 0 discriminator 1
 2343 05b6 FFF777FD 		bl	_DoInit	@
 2344              	.LVL221:
 2345              	.L127:
 2346              	@ .\utilities\src\segger_rtt.c:1056:   if (BufferIndex < (unsigned)_SEGGER_RTT.MaxNumDownBuffers) {
1056:.\utilities\src/segger_rtt.c ****   if (BufferIndex < (unsigned)_SEGGER_RTT.MaxNumDownBuffers) {
 2347              		.loc 1 1056 0 is_stmt 1
 2348 05ba 6369     		ldr	r3, [r4, #20]	@ tmp130, _SEGGER_RTT.MaxNumDownBuffers
 2349 05bc B342     		cmp	r3, r6	@ tmp130, BufferIndex
 2350 05be 0CD9     		bls	.L129	@,
 2351              	.LBB10:
 2352              	@ .\utilities\src\segger_rtt.c:1057:     SEGGER_RTT_LOCK();
1057:.\utilities\src/segger_rtt.c ****     SEGGER_RTT_LOCK();
 2353              		.loc 1 1057 0
 2354              		.syntax divided
 2355              	@ 1057 ".\utilities\src\segger_rtt.c" 1
 2356 05c0 EFF31083 		mrs   r3, primask  	@ LockState
 2357 05c4 0121     		mov   r1, $1     
 2358 05c6 81F31088 		msr   primask, r1  
 2359              		
 2360              	@ 0 "" 2
 2361              	.LVL222:
 2362              	@ .\utilities\src\segger_rtt.c:1058:     _SEGGER_RTT.aDown[BufferIndex].sName = sName;
1058:.\utilities\src/segger_rtt.c ****     _SEGGER_RTT.aDown[BufferIndex].sName = sName;
 2363              		.loc 1 1058 0
 2364              		.thumb
 2365              		.syntax unified
 2366 05ca 1820     		movs	r0, #24	@ tmp123,
 2367 05cc 7043     		muls	r0, r6	@ tmp124, BufferIndex
 2368 05ce 2418     		adds	r4, r4, r0	@ tmp125, tmp117, tmp124
 2369 05d0 2566     		str	r5, [r4, #96]	@ sName, _SEGGER_RTT.aDown[BufferIndex_9(D)].sName
 2370              	@ .\utilities\src\segger_rtt.c:1059:     SEGGER_RTT_UNLOCK();
1059:.\utilities\src/segger_rtt.c ****     SEGGER_RTT_UNLOCK();
 2371              		.loc 1 1059 0
 2372              		.syntax divided
 2373              	@ 1059 ".\utilities\src\segger_rtt.c" 1
 2374 05d2 83F31088 		msr   primask, r3  	@ LockState
 2375              		
 2376              	@ 0 "" 2
 2377              	.LVL223:
 2378              		.thumb
 2379              		.syntax unified
 2380              	.LBE10:
 2381              	@ .\utilities\src\segger_rtt.c:1060:     r =  0;
1060:.\utilities\src/segger_rtt.c ****     r =  0;
 2382              		.loc 1 1060 0
ARM GAS  C:\Users\claym\AppData\Local\Temp\ccb01mZK.s 			page 65


 2383 05d6 0020     		movs	r0, #0	@ <retval>,
 2384              	.LVL224:
 2385              	.L126:
 2386              	@ .\utilities\src\segger_rtt.c:1065: }
1061:.\utilities\src/segger_rtt.c ****   } else {
1062:.\utilities\src/segger_rtt.c ****     r = -1;
1063:.\utilities\src/segger_rtt.c ****   }
1064:.\utilities\src/segger_rtt.c ****   return r;
1065:.\utilities\src/segger_rtt.c **** }
 2387              		.loc 1 1065 0
 2388              		@ sp needed	@
 2389              	.LVL225:
 2390              	.LVL226:
 2391 05d8 70BD     		pop	{r4, r5, r6, pc}
 2392              	.LVL227:
 2393              	.L129:
 2394              	@ .\utilities\src\segger_rtt.c:1062:     r = -1;
1062:.\utilities\src/segger_rtt.c ****   }
 2395              		.loc 1 1062 0
 2396 05da 0120     		movs	r0, #1	@ <retval>,
 2397 05dc 4042     		rsbs	r0, r0, #0	@ <retval>, <retval>
 2398              	.LVL228:
 2399              	@ .\utilities\src\segger_rtt.c:1064:   return r;
1064:.\utilities\src/segger_rtt.c **** }
 2400              		.loc 1 1064 0
 2401 05de FBE7     		b	.L126	@
 2402              	.L131:
 2403              		.align	2
 2404              	.L130:
 2405 05e0 00000000 		.word	_SEGGER_RTT
 2406              		.cfi_endproc
 2407              	.LFE20:
 2408              		.size	SEGGER_RTT_SetNameDownBuffer, .-SEGGER_RTT_SetNameDownBuffer
 2409              		.align	1
 2410              		.global	SEGGER_RTT_Init
 2411              		.syntax unified
 2412              		.code	16
 2413              		.thumb_func
 2414              		.fpu softvfp
 2415              		.type	SEGGER_RTT_Init, %function
 2416              	SEGGER_RTT_Init:
 2417              	.LFB21:
1066:.\utilities\src/segger_rtt.c **** 
1067:.\utilities\src/segger_rtt.c **** /*********************************************************************
1068:.\utilities\src/segger_rtt.c **** *
1069:.\utilities\src/segger_rtt.c **** *       SEGGER_RTT_Init
1070:.\utilities\src/segger_rtt.c **** *
1071:.\utilities\src/segger_rtt.c **** *  Function description
1072:.\utilities\src/segger_rtt.c **** *    Initializes the RTT Control Block.
1073:.\utilities\src/segger_rtt.c **** *    Should be used in RAM targets, at start of the application.
1074:.\utilities\src/segger_rtt.c **** *
1075:.\utilities\src/segger_rtt.c **** */
1076:.\utilities\src/segger_rtt.c **** void SEGGER_RTT_Init (void) {
 2418              		.loc 1 1076 0
 2419              		.cfi_startproc
 2420              		@ args = 0, pretend = 0, frame = 0
 2421              		@ frame_needed = 0, uses_anonymous_args = 0
ARM GAS  C:\Users\claym\AppData\Local\Temp\ccb01mZK.s 			page 66


 2422              	@ .\utilities\src\segger_rtt.c:1077:   INIT();
1077:.\utilities\src/segger_rtt.c ****   INIT();
 2423              		.loc 1 1077 0
 2424 05e4 034B     		ldr	r3, .L134	@ tmp111,
 2425              	@ .\utilities\src\segger_rtt.c:1076: void SEGGER_RTT_Init (void) {
1076:.\utilities\src/segger_rtt.c ****   INIT();
 2426              		.loc 1 1076 0
 2427 05e6 10B5     		push	{r4, lr}	@
 2428              	.LCFI21:
 2429              		.cfi_def_cfa_offset 8
 2430              		.cfi_offset 4, -8
 2431              		.cfi_offset 14, -4
 2432              	@ .\utilities\src\segger_rtt.c:1077:   INIT();
 2433              		.loc 1 1077 0
 2434 05e8 1B78     		ldrb	r3, [r3]	@ _SEGGER_RTT, _SEGGER_RTT
 2435 05ea 002B     		cmp	r3, #0	@ _SEGGER_RTT,
 2436 05ec 01D1     		bne	.L132	@,
 2437              	@ .\utilities\src\segger_rtt.c:1077:   INIT();
 2438              		.loc 1 1077 0 is_stmt 0 discriminator 1
 2439 05ee FFF75BFD 		bl	_DoInit	@
 2440              	.LVL229:
 2441              	.L132:
 2442              	@ .\utilities\src\segger_rtt.c:1078: }
1078:.\utilities\src/segger_rtt.c **** }
 2443              		.loc 1 1078 0 is_stmt 1
 2444              		@ sp needed	@
 2445 05f2 10BD     		pop	{r4, pc}
 2446              	.L135:
 2447              		.align	2
 2448              	.L134:
 2449 05f4 00000000 		.word	_SEGGER_RTT
 2450              		.cfi_endproc
 2451              	.LFE21:
 2452              		.size	SEGGER_RTT_Init, .-SEGGER_RTT_Init
 2453              		.align	1
 2454              		.global	SEGGER_RTT_SetTerminal
 2455              		.syntax unified
 2456              		.code	16
 2457              		.thumb_func
 2458              		.fpu softvfp
 2459              		.type	SEGGER_RTT_SetTerminal, %function
 2460              	SEGGER_RTT_SetTerminal:
 2461              	.LFB22:
1079:.\utilities\src/segger_rtt.c **** 
1080:.\utilities\src/segger_rtt.c **** /*********************************************************************
1081:.\utilities\src/segger_rtt.c **** *
1082:.\utilities\src/segger_rtt.c **** *       SEGGER_RTT_SetTerminal
1083:.\utilities\src/segger_rtt.c **** *
1084:.\utilities\src/segger_rtt.c **** *  Function description
1085:.\utilities\src/segger_rtt.c **** *    Sets the terminal to be used for output on channel 0.
1086:.\utilities\src/segger_rtt.c **** *
1087:.\utilities\src/segger_rtt.c **** *  Parameters
1088:.\utilities\src/segger_rtt.c **** *    TerminalId  Index of the terminal.
1089:.\utilities\src/segger_rtt.c **** *
1090:.\utilities\src/segger_rtt.c **** *  Return value
1091:.\utilities\src/segger_rtt.c **** *    >= 0  O.K.
1092:.\utilities\src/segger_rtt.c **** *     < 0  Error (e.g. if RTT is configured for non-blocking mode and there was no space in the buf
ARM GAS  C:\Users\claym\AppData\Local\Temp\ccb01mZK.s 			page 67


1093:.\utilities\src/segger_rtt.c **** */
1094:.\utilities\src/segger_rtt.c **** int SEGGER_RTT_SetTerminal (char TerminalId) {
 2462              		.loc 1 1094 0
 2463              		.cfi_startproc
 2464              		@ args = 0, pretend = 0, frame = 8
 2465              		@ frame_needed = 0, uses_anonymous_args = 0
 2466              	.LVL230:
 2467 05f8 F7B5     		push	{r0, r1, r2, r4, r5, r6, r7, lr}	@
 2468              	.LCFI22:
 2469              		.cfi_def_cfa_offset 32
 2470              		.cfi_offset 0, -32
 2471              		.cfi_offset 1, -28
 2472              		.cfi_offset 2, -24
 2473              		.cfi_offset 4, -20
 2474              		.cfi_offset 5, -16
 2475              		.cfi_offset 6, -12
 2476              		.cfi_offset 7, -8
 2477              		.cfi_offset 14, -4
 2478              	@ .\utilities\src\segger_rtt.c:1100:   INIT();
1095:.\utilities\src/segger_rtt.c ****   char                  ac[2];
1096:.\utilities\src/segger_rtt.c ****   SEGGER_RTT_BUFFER_UP* pRing;
1097:.\utilities\src/segger_rtt.c ****   unsigned Avail;
1098:.\utilities\src/segger_rtt.c ****   int r;
1099:.\utilities\src/segger_rtt.c ****   //
1100:.\utilities\src/segger_rtt.c ****   INIT();
 2479              		.loc 1 1100 0
 2480 05fa 1C4F     		ldr	r7, .L144	@ tmp119,
 2481              	@ .\utilities\src\segger_rtt.c:1094: int SEGGER_RTT_SetTerminal (char TerminalId) {
1094:.\utilities\src/segger_rtt.c ****   char                  ac[2];
 2482              		.loc 1 1094 0
 2483 05fc 0500     		movs	r5, r0	@ TerminalId, TerminalId
 2484              	@ .\utilities\src\segger_rtt.c:1100:   INIT();
 2485              		.loc 1 1100 0
 2486 05fe 3B78     		ldrb	r3, [r7]	@ _SEGGER_RTT, _SEGGER_RTT
 2487 0600 002B     		cmp	r3, #0	@ _SEGGER_RTT,
 2488 0602 01D1     		bne	.L137	@,
 2489              	@ .\utilities\src\segger_rtt.c:1100:   INIT();
 2490              		.loc 1 1100 0 is_stmt 0 discriminator 1
 2491 0604 FFF750FD 		bl	_DoInit	@
 2492              	.LVL231:
 2493              	.L137:
 2494              	@ .\utilities\src\segger_rtt.c:1103:   ac[0] = 0xFFU;
1101:.\utilities\src/segger_rtt.c ****   //
1102:.\utilities\src/segger_rtt.c ****   r = 0;
1103:.\utilities\src/segger_rtt.c ****   ac[0] = 0xFFU;
 2495              		.loc 1 1103 0 is_stmt 1
 2496 0608 FF23     		movs	r3, #255	@ tmp122,
 2497 060a 01AC     		add	r4, sp, #4	@ tmp121,,
 2498 060c 2370     		strb	r3, [r4]	@ tmp122, ac
 2499              	@ .\utilities\src\segger_rtt.c:1104:   if ((unsigned char)TerminalId < (unsigned char)sizeof(_aTerm
1104:.\utilities\src/segger_rtt.c ****   if ((unsigned char)TerminalId < (unsigned char)sizeof(_aTerminalId)) { // We only support a certa
 2500              		.loc 1 1104 0
 2501 060e 0F2D     		cmp	r5, #15	@ TerminalId,
 2502 0610 29D8     		bhi	.L141	@,
 2503              	@ .\utilities\src\segger_rtt.c:1105:     ac[1] = _aTerminalId[(unsigned char)TerminalId];
1105:.\utilities\src/segger_rtt.c ****     ac[1] = _aTerminalId[(unsigned char)TerminalId];
 2504              		.loc 1 1105 0
ARM GAS  C:\Users\claym\AppData\Local\Temp\ccb01mZK.s 			page 68


 2505 0612 174B     		ldr	r3, .L144+4	@ tmp125,
 2506 0614 5B5D     		ldrb	r3, [r3, r5]	@ tmp126, _aTerminalId
 2507 0616 6370     		strb	r3, [r4, #1]	@ tmp126, ac
 2508              	.LVL232:
 2509              	.LBB11:
 2510              	@ .\utilities\src\segger_rtt.c:1107:     SEGGER_RTT_LOCK();    // Lock to make sure that no other t
1106:.\utilities\src/segger_rtt.c ****     pRing = &_SEGGER_RTT.aUp[0];    // Buffer 0 is always reserved for terminal I/O, so we can use 
1107:.\utilities\src/segger_rtt.c ****     SEGGER_RTT_LOCK();    // Lock to make sure that no other task is writing into buffer, while we 
 2511              		.loc 1 1107 0
 2512              		.syntax divided
 2513              	@ 1107 ".\utilities\src\segger_rtt.c" 1
 2514 0618 EFF31086 		mrs   r6, primask  	@ LockState
 2515 061c 0121     		mov   r1, $1     
 2516 061e 81F31088 		msr   primask, r1  
 2517              		
 2518              	@ 0 "" 2
 2519              	.LVL233:
 2520              	@ .\utilities\src\segger_rtt.c:1108:     if ((pRing->Flags & SEGGER_RTT_MODE_MASK) == SEGGER_RTT_MO
1108:.\utilities\src/segger_rtt.c ****     if ((pRing->Flags & SEGGER_RTT_MODE_MASK) == SEGGER_RTT_MODE_BLOCK_IF_FIFO_FULL) {
 2521              		.loc 1 1108 0
 2522              		.thumb
 2523              		.syntax unified
 2524 0622 0323     		movs	r3, #3	@ tmp132,
 2525 0624 FA6A     		ldr	r2, [r7, #44]	@ MEM[(struct SEGGER_RTT_BUFFER_UP *)&_SEGGER_RTT + 24B].Flags, MEM[(struct SEGG
 2526 0626 134F     		ldr	r7, .L144+8	@ tmp146,
 2527              	.LVL234:
 2528 0628 1A40     		ands	r2, r3	@ tmp130, tmp132
 2529 062a 022A     		cmp	r2, #2	@ tmp130,
 2530 062c 0AD1     		bne	.L139	@,
 2531              	@ .\utilities\src\segger_rtt.c:1109:       _ActiveTerminal = TerminalId;
1109:.\utilities\src/segger_rtt.c ****       _ActiveTerminal = TerminalId;
 2532              		.loc 1 1109 0
 2533 062e 124B     		ldr	r3, .L144+12	@ tmp133,
 2534              	@ .\utilities\src\segger_rtt.c:1110:       _WriteBlocking(pRing, ac, 2u);
1110:.\utilities\src/segger_rtt.c ****       _WriteBlocking(pRing, ac, 2u);
 2535              		.loc 1 1110 0
 2536 0630 2100     		movs	r1, r4	@, tmp121
 2537              	@ .\utilities\src\segger_rtt.c:1109:       _ActiveTerminal = TerminalId;
1109:.\utilities\src/segger_rtt.c ****       _ActiveTerminal = TerminalId;
 2538              		.loc 1 1109 0
 2539 0632 0133     		adds	r3, r3, #1	@ tmp134,
 2540              	@ .\utilities\src\segger_rtt.c:1110:       _WriteBlocking(pRing, ac, 2u);
 2541              		.loc 1 1110 0
 2542 0634 3800     		movs	r0, r7	@, tmp146
 2543              	@ .\utilities\src\segger_rtt.c:1109:       _ActiveTerminal = TerminalId;
1109:.\utilities\src/segger_rtt.c ****       _ActiveTerminal = TerminalId;
 2544              		.loc 1 1109 0
 2545 0636 DD77     		strb	r5, [r3, #31]	@ TerminalId, _ActiveTerminal
 2546              	@ .\utilities\src\segger_rtt.c:1110:       _WriteBlocking(pRing, ac, 2u);
 2547              		.loc 1 1110 0
 2548 0638 FFF709FD 		bl	_WriteBlocking	@
 2549              	.LVL235:
 2550              	.L143:
 2551              	.LBE11:
 2552              	@ .\utilities\src\segger_rtt.c:1102:   r = 0;
1102:.\utilities\src/segger_rtt.c ****   ac[0] = 0xFFU;
 2553              		.loc 1 1102 0
ARM GAS  C:\Users\claym\AppData\Local\Temp\ccb01mZK.s 			page 69


 2554 063c 0020     		movs	r0, #0	@ <retval>,
 2555              	.L140:
 2556              	.LVL236:
 2557              	.LBB12:
 2558              	@ .\utilities\src\segger_rtt.c:1120:     SEGGER_RTT_UNLOCK();
1111:.\utilities\src/segger_rtt.c ****     } else {                                                                            // Skipping
1112:.\utilities\src/segger_rtt.c ****       Avail = _GetAvailWriteSpace(pRing);
1113:.\utilities\src/segger_rtt.c ****       if (Avail >= 2) {
1114:.\utilities\src/segger_rtt.c ****         _ActiveTerminal = TerminalId;    // Only change active terminal in case of success
1115:.\utilities\src/segger_rtt.c ****         _WriteNoCheck(pRing, ac, 2u);
1116:.\utilities\src/segger_rtt.c ****       } else {
1117:.\utilities\src/segger_rtt.c ****         r = -1;
1118:.\utilities\src/segger_rtt.c ****       }
1119:.\utilities\src/segger_rtt.c ****     }
1120:.\utilities\src/segger_rtt.c ****     SEGGER_RTT_UNLOCK();
 2559              		.loc 1 1120 0
 2560              		.syntax divided
 2561              	@ 1120 ".\utilities\src\segger_rtt.c" 1
 2562 063e 86F31088 		msr   primask, r6  	@ LockState
 2563              		
 2564              	@ 0 "" 2
 2565              	.LVL237:
 2566              		.thumb
 2567              		.syntax unified
 2568              	.L136:
 2569              	.LBE12:
 2570              	@ .\utilities\src\segger_rtt.c:1125: }
1121:.\utilities\src/segger_rtt.c ****   } else {
1122:.\utilities\src/segger_rtt.c ****     r = -1;
1123:.\utilities\src/segger_rtt.c ****   }
1124:.\utilities\src/segger_rtt.c ****   return r;
1125:.\utilities\src/segger_rtt.c **** }
 2571              		.loc 1 1125 0
 2572              		@ sp needed	@
 2573 0642 FEBD     		pop	{r1, r2, r3, r4, r5, r6, r7, pc}
 2574              	.LVL238:
 2575              	.L139:
 2576              	.LBB13:
 2577              	@ .\utilities\src\segger_rtt.c:1112:       Avail = _GetAvailWriteSpace(pRing);
1112:.\utilities\src/segger_rtt.c ****       if (Avail >= 2) {
 2578              		.loc 1 1112 0
 2579 0644 3800     		movs	r0, r7	@, tmp146
 2580 0646 FFF7DBFC 		bl	_GetAvailWriteSpace	@
 2581              	.LVL239:
 2582              	@ .\utilities\src\segger_rtt.c:1113:       if (Avail >= 2) {
1113:.\utilities\src/segger_rtt.c ****         _ActiveTerminal = TerminalId;    // Only change active terminal in case of success
 2583              		.loc 1 1113 0
 2584 064a 0128     		cmp	r0, #1	@ Avail,
 2585 064c 08D9     		bls	.L142	@,
 2586              	@ .\utilities\src\segger_rtt.c:1114:         _ActiveTerminal = TerminalId;    // Only change active
1114:.\utilities\src/segger_rtt.c ****         _WriteNoCheck(pRing, ac, 2u);
 2587              		.loc 1 1114 0
 2588 064e 0A4B     		ldr	r3, .L144+12	@ tmp139,
 2589              	@ .\utilities\src\segger_rtt.c:1115:         _WriteNoCheck(pRing, ac, 2u);
1115:.\utilities\src/segger_rtt.c ****       } else {
 2590              		.loc 1 1115 0
 2591 0650 0222     		movs	r2, #2	@,
ARM GAS  C:\Users\claym\AppData\Local\Temp\ccb01mZK.s 			page 70


 2592              	@ .\utilities\src\segger_rtt.c:1114:         _ActiveTerminal = TerminalId;    // Only change active
1114:.\utilities\src/segger_rtt.c ****         _WriteNoCheck(pRing, ac, 2u);
 2593              		.loc 1 1114 0
 2594 0652 0133     		adds	r3, r3, #1	@ tmp140,
 2595              	@ .\utilities\src\segger_rtt.c:1115:         _WriteNoCheck(pRing, ac, 2u);
1115:.\utilities\src/segger_rtt.c ****       } else {
 2596              		.loc 1 1115 0
 2597 0654 2100     		movs	r1, r4	@, tmp121
 2598 0656 3800     		movs	r0, r7	@, tmp146
 2599              	.LVL240:
 2600              	@ .\utilities\src\segger_rtt.c:1114:         _ActiveTerminal = TerminalId;    // Only change active
1114:.\utilities\src/segger_rtt.c ****         _WriteNoCheck(pRing, ac, 2u);
 2601              		.loc 1 1114 0
 2602 0658 DD77     		strb	r5, [r3, #31]	@ TerminalId, _ActiveTerminal
 2603              	@ .\utilities\src\segger_rtt.c:1115:         _WriteNoCheck(pRing, ac, 2u);
1115:.\utilities\src/segger_rtt.c ****       } else {
 2604              		.loc 1 1115 0
 2605 065a FFF7DAFC 		bl	_WriteNoCheck	@
 2606              	.LVL241:
 2607 065e EDE7     		b	.L143	@
 2608              	.LVL242:
 2609              	.L142:
 2610              	@ .\utilities\src\segger_rtt.c:1117:         r = -1;
1117:.\utilities\src/segger_rtt.c ****       }
 2611              		.loc 1 1117 0
 2612 0660 0120     		movs	r0, #1	@ <retval>,
 2613              	.LVL243:
 2614 0662 4042     		rsbs	r0, r0, #0	@ <retval>, <retval>
 2615 0664 EBE7     		b	.L140	@
 2616              	.LVL244:
 2617              	.L141:
 2618              	.LBE13:
 2619              	@ .\utilities\src\segger_rtt.c:1122:     r = -1;
1122:.\utilities\src/segger_rtt.c ****   }
 2620              		.loc 1 1122 0
 2621 0666 0120     		movs	r0, #1	@ <retval>,
 2622 0668 4042     		rsbs	r0, r0, #0	@ <retval>, <retval>
 2623              	.LVL245:
 2624              	@ .\utilities\src\segger_rtt.c:1124:   return r;
1124:.\utilities\src/segger_rtt.c **** }
 2625              		.loc 1 1124 0
 2626 066a EAE7     		b	.L136	@
 2627              	.L145:
 2628              		.align	2
 2629              	.L144:
 2630 066c 00000000 		.word	_SEGGER_RTT
 2631 0670 00000000 		.word	.LANCHOR1
 2632 0674 18000000 		.word	_SEGGER_RTT+24
 2633 0678 00000000 		.word	.LANCHOR0
 2634              		.cfi_endproc
 2635              	.LFE22:
 2636              		.size	SEGGER_RTT_SetTerminal, .-SEGGER_RTT_SetTerminal
 2637              		.align	1
 2638              		.global	SEGGER_RTT_TerminalOut
 2639              		.syntax unified
 2640              		.code	16
 2641              		.thumb_func
ARM GAS  C:\Users\claym\AppData\Local\Temp\ccb01mZK.s 			page 71


 2642              		.fpu softvfp
 2643              		.type	SEGGER_RTT_TerminalOut, %function
 2644              	SEGGER_RTT_TerminalOut:
 2645              	.LFB23:
1126:.\utilities\src/segger_rtt.c **** 
1127:.\utilities\src/segger_rtt.c **** /*********************************************************************
1128:.\utilities\src/segger_rtt.c **** *
1129:.\utilities\src/segger_rtt.c **** *       SEGGER_RTT_TerminalOut
1130:.\utilities\src/segger_rtt.c **** *
1131:.\utilities\src/segger_rtt.c **** *  Function description
1132:.\utilities\src/segger_rtt.c **** *    Writes a string to the given terminal
1133:.\utilities\src/segger_rtt.c **** *     without changing the terminal for channel 0.
1134:.\utilities\src/segger_rtt.c **** *
1135:.\utilities\src/segger_rtt.c **** *  Parameters
1136:.\utilities\src/segger_rtt.c **** *    TerminalId   Index of the terminal.
1137:.\utilities\src/segger_rtt.c **** *    s            String to be printed on the terminal.
1138:.\utilities\src/segger_rtt.c **** *
1139:.\utilities\src/segger_rtt.c **** *  Return value
1140:.\utilities\src/segger_rtt.c **** *    >= 0 - Number of bytes written.
1141:.\utilities\src/segger_rtt.c **** *     < 0 - Error.
1142:.\utilities\src/segger_rtt.c **** *
1143:.\utilities\src/segger_rtt.c **** */
1144:.\utilities\src/segger_rtt.c **** int SEGGER_RTT_TerminalOut (char TerminalId, const char* s) {
 2646              		.loc 1 1144 0
 2647              		.cfi_startproc
 2648              		@ args = 0, pretend = 0, frame = 8
 2649              		@ frame_needed = 0, uses_anonymous_args = 0
 2650              	.LVL246:
 2651 067c F7B5     		push	{r0, r1, r2, r4, r5, r6, r7, lr}	@
 2652              	.LCFI23:
 2653              		.cfi_def_cfa_offset 32
 2654              		.cfi_offset 0, -32
 2655              		.cfi_offset 1, -28
 2656              		.cfi_offset 2, -24
 2657              		.cfi_offset 4, -20
 2658              		.cfi_offset 5, -16
 2659              		.cfi_offset 6, -12
 2660              		.cfi_offset 7, -8
 2661              		.cfi_offset 14, -4
 2662              	@ .\utilities\src\segger_rtt.c:1150:   INIT();
1145:.\utilities\src/segger_rtt.c ****   int                   Status;
1146:.\utilities\src/segger_rtt.c ****   unsigned              FragLen;
1147:.\utilities\src/segger_rtt.c ****   unsigned              Avail;
1148:.\utilities\src/segger_rtt.c ****   SEGGER_RTT_BUFFER_UP* pRing;
1149:.\utilities\src/segger_rtt.c ****   //
1150:.\utilities\src/segger_rtt.c ****   INIT();
 2663              		.loc 1 1150 0
 2664 067e 244C     		ldr	r4, .L160	@ tmp128,
 2665              	@ .\utilities\src\segger_rtt.c:1144: int SEGGER_RTT_TerminalOut (char TerminalId, const char* s) {
1144:.\utilities\src/segger_rtt.c ****   int                   Status;
 2666              		.loc 1 1144 0
 2667 0680 0700     		movs	r7, r0	@ TerminalId, TerminalId
 2668              	@ .\utilities\src\segger_rtt.c:1150:   INIT();
 2669              		.loc 1 1150 0
 2670 0682 2378     		ldrb	r3, [r4]	@ _SEGGER_RTT, _SEGGER_RTT
 2671              	@ .\utilities\src\segger_rtt.c:1144: int SEGGER_RTT_TerminalOut (char TerminalId, const char* s) {
1144:.\utilities\src/segger_rtt.c ****   int                   Status;
ARM GAS  C:\Users\claym\AppData\Local\Temp\ccb01mZK.s 			page 72


 2672              		.loc 1 1144 0
 2673 0684 0E00     		movs	r6, r1	@ s, s
 2674              	@ .\utilities\src\segger_rtt.c:1150:   INIT();
 2675              		.loc 1 1150 0
 2676 0686 002B     		cmp	r3, #0	@ _SEGGER_RTT,
 2677 0688 01D1     		bne	.L147	@,
 2678              	@ .\utilities\src\segger_rtt.c:1150:   INIT();
 2679              		.loc 1 1150 0 is_stmt 0 discriminator 1
 2680 068a FFF70DFD 		bl	_DoInit	@
 2681              	.LVL247:
 2682              	.L147:
 2683              	@ .\utilities\src\segger_rtt.c:1154:   if (TerminalId < (char)sizeof(_aTerminalId)) { // We only su
1151:.\utilities\src/segger_rtt.c ****   //
1152:.\utilities\src/segger_rtt.c ****   // Validate terminal ID.
1153:.\utilities\src/segger_rtt.c ****   //
1154:.\utilities\src/segger_rtt.c ****   if (TerminalId < (char)sizeof(_aTerminalId)) { // We only support a certain number of channels
 2684              		.loc 1 1154 0 is_stmt 1
 2685 068e 0F2F     		cmp	r7, #15	@ TerminalId,
 2686 0690 3BD8     		bhi	.L154	@,
 2687              	.LVL248:
 2688              	@ .\utilities\src\segger_rtt.c:1163:     FragLen = strlen(s);
1155:.\utilities\src/segger_rtt.c ****     //
1156:.\utilities\src/segger_rtt.c ****     // Get "to-host" ring buffer.
1157:.\utilities\src/segger_rtt.c ****     //
1158:.\utilities\src/segger_rtt.c ****     pRing = &_SEGGER_RTT.aUp[0];
1159:.\utilities\src/segger_rtt.c ****     //
1160:.\utilities\src/segger_rtt.c ****     // Need to be able to change terminal, write data, change back.
1161:.\utilities\src/segger_rtt.c ****     // Compute the fixed and variable sizes.
1162:.\utilities\src/segger_rtt.c ****     //
1163:.\utilities\src/segger_rtt.c ****     FragLen = strlen(s);
 2689              		.loc 1 1163 0
 2690 0692 3000     		movs	r0, r6	@, s
 2691 0694 FFF7FEFF 		bl	strlen	@
 2692              	.LVL249:
 2693 0698 0500     		movs	r5, r0	@ tmp130,
 2694              	.LVL250:
 2695              	.LBB14:
 2696              	@ .\utilities\src\segger_rtt.c:1167:     SEGGER_RTT_LOCK();
1164:.\utilities\src/segger_rtt.c ****     //
1165:.\utilities\src/segger_rtt.c ****     // How we output depends upon the mode...
1166:.\utilities\src/segger_rtt.c ****     //
1167:.\utilities\src/segger_rtt.c ****     SEGGER_RTT_LOCK();
 2697              		.loc 1 1167 0
 2698              		.syntax divided
 2699              	@ 1167 ".\utilities\src\segger_rtt.c" 1
 2700 069a EFF31083 		mrs   r3, primask  	@ LockState
 2701 069e 0121     		mov   r1, $1     
 2702 06a0 81F31088 		msr   primask, r1  
 2703              		
 2704              	@ 0 "" 2
 2705              	@ .\utilities\src\segger_rtt.c:1168:     Avail = _GetAvailWriteSpace(pRing);
1168:.\utilities\src/segger_rtt.c ****     Avail = _GetAvailWriteSpace(pRing);
 2706              		.loc 1 1168 0
 2707              		.thumb
 2708              		.syntax unified
 2709 06a4 1B48     		ldr	r0, .L160+4	@,
 2710              	.LVL251:
ARM GAS  C:\Users\claym\AppData\Local\Temp\ccb01mZK.s 			page 73


 2711              	@ .\utilities\src\segger_rtt.c:1167:     SEGGER_RTT_LOCK();
1167:.\utilities\src/segger_rtt.c ****     Avail = _GetAvailWriteSpace(pRing);
 2712              		.loc 1 1167 0
 2713 06a6 0193     		str	r3, [sp, #4]	@ LockState, %sfp
 2714              	.LVL252:
 2715              	@ .\utilities\src\segger_rtt.c:1168:     Avail = _GetAvailWriteSpace(pRing);
 2716              		.loc 1 1168 0
 2717 06a8 FFF7AAFC 		bl	_GetAvailWriteSpace	@
 2718              	.LVL253:
 2719              	@ .\utilities\src\segger_rtt.c:1169:     switch (pRing->Flags & SEGGER_RTT_MODE_MASK) {
1169:.\utilities\src/segger_rtt.c ****     switch (pRing->Flags & SEGGER_RTT_MODE_MASK) {
 2720              		.loc 1 1169 0
 2721 06ac 0323     		movs	r3, #3	@ tmp137,
 2722 06ae E46A     		ldr	r4, [r4, #44]	@ MEM[(struct SEGGER_RTT_BUFFER_UP *)&_SEGGER_RTT + 24B].Flags, MEM[(struct SEGG
 2723              	@ .\utilities\src\segger_rtt.c:1168:     Avail = _GetAvailWriteSpace(pRing);
1168:.\utilities\src/segger_rtt.c ****     Avail = _GetAvailWriteSpace(pRing);
 2724              		.loc 1 1168 0
 2725 06b0 0090     		str	r0, [sp]	@, %sfp
 2726              	.LVL254:
 2727              	@ .\utilities\src\segger_rtt.c:1169:     switch (pRing->Flags & SEGGER_RTT_MODE_MASK) {
 2728              		.loc 1 1169 0
 2729 06b2 1C40     		ands	r4, r3	@ tmp135, tmp137
 2730 06b4 012C     		cmp	r4, #1	@ tmp135,
 2731 06b6 0ED0     		beq	.L150	@,
 2732 06b8 002C     		cmp	r4, #0	@ tmp135,
 2733 06ba 04D0     		beq	.L151	@,
 2734 06bc 022C     		cmp	r4, #2	@ tmp135,
 2735 06be 06D0     		beq	.L152	@,
 2736              	.L157:
 2737              	@ .\utilities\src\segger_rtt.c:1190:         Status = -1;
1170:.\utilities\src/segger_rtt.c ****     case SEGGER_RTT_MODE_NO_BLOCK_SKIP:
1171:.\utilities\src/segger_rtt.c ****       //
1172:.\utilities\src/segger_rtt.c ****       // If we are in skip mode and there is no space for the whole
1173:.\utilities\src/segger_rtt.c ****       // of this output, don't bother switching terminals at all.
1174:.\utilities\src/segger_rtt.c ****       //
1175:.\utilities\src/segger_rtt.c ****       if (Avail < (FragLen + 4u)) {
1176:.\utilities\src/segger_rtt.c ****         Status = 0;
1177:.\utilities\src/segger_rtt.c ****       } else {
1178:.\utilities\src/segger_rtt.c ****         _PostTerminalSwitch(pRing, TerminalId);
1179:.\utilities\src/segger_rtt.c ****         Status = (int)_WriteBlocking(pRing, s, FragLen);
1180:.\utilities\src/segger_rtt.c ****         _PostTerminalSwitch(pRing, _ActiveTerminal);
1181:.\utilities\src/segger_rtt.c ****       }
1182:.\utilities\src/segger_rtt.c ****       break;
1183:.\utilities\src/segger_rtt.c ****     case SEGGER_RTT_MODE_NO_BLOCK_TRIM:
1184:.\utilities\src/segger_rtt.c ****       //
1185:.\utilities\src/segger_rtt.c ****       // If we are in trim mode and there is not enough space for everything,
1186:.\utilities\src/segger_rtt.c ****       // trim the output but always include the terminal switch.  If no room
1187:.\utilities\src/segger_rtt.c ****       // for terminal switch, skip that totally.
1188:.\utilities\src/segger_rtt.c ****       //
1189:.\utilities\src/segger_rtt.c ****       if (Avail < 4u) {
1190:.\utilities\src/segger_rtt.c ****         Status = -1;
 2738              		.loc 1 1190 0
 2739 06c0 0124     		movs	r4, #1	@ <retval>,
 2740 06c2 6442     		rsbs	r4, r4, #0	@ <retval>, <retval>
 2741 06c4 1CE0     		b	.L149	@
 2742              	.L151:
 2743              	@ .\utilities\src\segger_rtt.c:1175:       if (Avail < (FragLen + 4u)) {
ARM GAS  C:\Users\claym\AppData\Local\Temp\ccb01mZK.s 			page 74


1175:.\utilities\src/segger_rtt.c ****         Status = 0;
 2744              		.loc 1 1175 0
 2745 06c6 009A     		ldr	r2, [sp]	@ Avail, %sfp
 2746 06c8 2B1D     		adds	r3, r5, #4	@ tmp138, tmp130,
 2747 06ca 9342     		cmp	r3, r2	@ tmp138, Avail
 2748 06cc 18D8     		bhi	.L149	@,
 2749              	.L152:
 2750              	@ .\utilities\src\segger_rtt.c:1201:       _PostTerminalSwitch(pRing, TerminalId);
1191:.\utilities\src/segger_rtt.c ****       } else {
1192:.\utilities\src/segger_rtt.c ****         _PostTerminalSwitch(pRing, TerminalId);
1193:.\utilities\src/segger_rtt.c ****         Status = (int)_WriteBlocking(pRing, s, (FragLen < (Avail - 4u)) ? FragLen : (Avail - 4u));
1194:.\utilities\src/segger_rtt.c ****         _PostTerminalSwitch(pRing, _ActiveTerminal);
1195:.\utilities\src/segger_rtt.c ****       }
1196:.\utilities\src/segger_rtt.c ****       break;
1197:.\utilities\src/segger_rtt.c ****     case SEGGER_RTT_MODE_BLOCK_IF_FIFO_FULL:
1198:.\utilities\src/segger_rtt.c ****       //
1199:.\utilities\src/segger_rtt.c ****       // If we are in blocking mode, output everything.
1200:.\utilities\src/segger_rtt.c ****       //
1201:.\utilities\src/segger_rtt.c ****       _PostTerminalSwitch(pRing, TerminalId);
 2751              		.loc 1 1201 0
 2752 06ce 3800     		movs	r0, r7	@, TerminalId
 2753              	.LVL255:
 2754 06d0 FFF738FD 		bl	_PostTerminalSwitch.constprop.0	@
 2755              	.LVL256:
 2756 06d4 09E0     		b	.L159	@
 2757              	.LVL257:
 2758              	.L150:
 2759              	@ .\utilities\src\segger_rtt.c:1189:       if (Avail < 4u) {
1189:.\utilities\src/segger_rtt.c ****         Status = -1;
 2760              		.loc 1 1189 0
 2761 06d6 009B     		ldr	r3, [sp]	@ Avail, %sfp
 2762 06d8 032B     		cmp	r3, #3	@ Avail,
 2763 06da F1D9     		bls	.L157	@,
 2764              	@ .\utilities\src\segger_rtt.c:1192:         _PostTerminalSwitch(pRing, TerminalId);
1192:.\utilities\src/segger_rtt.c ****         Status = (int)_WriteBlocking(pRing, s, (FragLen < (Avail - 4u)) ? FragLen : (Avail - 4u));
 2765              		.loc 1 1192 0
 2766 06dc 3800     		movs	r0, r7	@, TerminalId
 2767              	.LVL258:
 2768 06de FFF731FD 		bl	_PostTerminalSwitch.constprop.0	@
 2769              	.LVL259:
 2770              	@ .\utilities\src\segger_rtt.c:1193:         Status = (int)_WriteBlocking(pRing, s, (FragLen < (Ava
1193:.\utilities\src/segger_rtt.c ****         _PostTerminalSwitch(pRing, _ActiveTerminal);
 2771              		.loc 1 1193 0
 2772 06e2 009A     		ldr	r2, [sp]	@ Avail, %sfp
 2773 06e4 043A     		subs	r2, r2, #4	@ Avail,
 2774 06e6 AA42     		cmp	r2, r5	@ FragLen, tmp130
 2775 06e8 00D9     		bls	.L153	@,
 2776              	.L159:
 2777 06ea 2A00     		movs	r2, r5	@ FragLen, tmp130
 2778              	.L153:
 2779 06ec 3100     		movs	r1, r6	@, s
 2780 06ee 0948     		ldr	r0, .L160+4	@,
 2781              	.LVL260:
 2782 06f0 FFF7ADFC 		bl	_WriteBlocking	@
 2783              	.LVL261:
 2784              	@ .\utilities\src\segger_rtt.c:1194:         _PostTerminalSwitch(pRing, _ActiveTerminal);
1194:.\utilities\src/segger_rtt.c ****       }
ARM GAS  C:\Users\claym\AppData\Local\Temp\ccb01mZK.s 			page 75


 2785              		.loc 1 1194 0
 2786 06f4 084B     		ldr	r3, .L160+8	@ tmp146,
 2787              	@ .\utilities\src\segger_rtt.c:1193:         Status = (int)_WriteBlocking(pRing, s, (FragLen < (Ava
1193:.\utilities\src/segger_rtt.c ****         _PostTerminalSwitch(pRing, _ActiveTerminal);
 2788              		.loc 1 1193 0
 2789 06f6 0400     		movs	r4, r0	@ <retval>,
 2790              	.LVL262:
 2791              	@ .\utilities\src\segger_rtt.c:1194:         _PostTerminalSwitch(pRing, _ActiveTerminal);
1194:.\utilities\src/segger_rtt.c ****       }
 2792              		.loc 1 1194 0
 2793 06f8 0133     		adds	r3, r3, #1	@ tmp147,
 2794 06fa D87F     		ldrb	r0, [r3, #31]	@ _ActiveTerminal, _ActiveTerminal
 2795              	.LVL263:
 2796 06fc FFF722FD 		bl	_PostTerminalSwitch.constprop.0	@
 2797              	.LVL264:
 2798              	.L149:
 2799              	@ .\utilities\src\segger_rtt.c:1212:     SEGGER_RTT_UNLOCK();
1202:.\utilities\src/segger_rtt.c ****       Status = (int)_WriteBlocking(pRing, s, FragLen);
