ARM GAS  C:\Users\claym\AppData\Local\Temp\ccb01mZK.s 			page 1


   1              		.cpu cortex-m0
   2              		.eabi_attribute 20, 1	@ Tag_ABI_FP_denormal
   3              		.eabi_attribute 21, 1	@ Tag_ABI_FP_exceptions
   4              		.eabi_attribute 23, 3	@ Tag_ABI_FP_number_model
   5              		.eabi_attribute 24, 1	@ Tag_ABI_align8_needed
   6              		.eabi_attribute 25, 1	@ Tag_ABI_align8_preserved
   7              		.eabi_attribute 26, 1	@ Tag_ABI_enum_size
   8              		.eabi_attribute 30, 4	@ Tag_ABI_optimization_goals
   9              		.eabi_attribute 34, 0	@ Tag_CPU_unaligned_access
  10              		.eabi_attribute 18, 4	@ Tag_ABI_PCS_wchar_t
  11              		.file	"segger_rtt.c"
  12              	@ GNU C11 (GNU Tools for Arm Embedded Processors 7-2017-q4-major) version 7.2.1 20170904 (release) 
  13              	@	compiled by GNU C version 5.3.1 20160211, GMP version 6.1.0, MPFR version 3.1.4, MPC version 1.0.
  14              	
  15              	@ GGC heuristics: --param ggc-min-expand=100 --param ggc-min-heapsize=131072
  16              	@ options passed:  -I . -I .\common\hdr -I .\driver\hdr -I .\utilities\hdr
  17              	@ -I .\inc -I .\driver\hdr -I .\hdr -imultilib thumb/v6-m
  18              	@ -iprefix c:\program files (x86)\gnu tools arm embedded\7 2017-q4-major\bin\../lib/gcc/arm-none-ea
  19              	@ -isysroot c:\program files (x86)\gnu tools arm embedded\7 2017-q4-major\bin\../arm-none-eabi
  20              	@ -D__USES_INITFINI__ -D RUN_FROM_FLASH=1 .\utilities\src\segger_rtt.c
  21              	@ -mcpu=cortex-m0 -mthumb -auxbase-strip .\utilities\src\segger_rtt.o
  22              	@ -gdwarf-2 -Os -Wall -Wstrict-prototypes -fomit-frame-pointer
  23              	@ -fverbose-asm
  24              	@ options enabled:  -faggressive-loop-optimizations -falign-jumps
  25              	@ -falign-labels -falign-loops -fauto-inc-dec -fbranch-count-reg
  26              	@ -fcaller-saves -fchkp-check-incomplete-type -fchkp-check-read
  27              	@ -fchkp-check-write -fchkp-instrument-calls -fchkp-narrow-bounds
  28              	@ -fchkp-optimize -fchkp-store-bounds -fchkp-use-static-bounds
  29              	@ -fchkp-use-static-const-bounds -fchkp-use-wrappers -fcode-hoisting
  30              	@ -fcombine-stack-adjustments -fcommon -fcompare-elim -fcprop-registers
  31              	@ -fcrossjumping -fcse-follow-jumps -fdefer-pop
  32              	@ -fdelete-null-pointer-checks -fdevirtualize -fdevirtualize-speculatively
  33              	@ -fdwarf2-cfi-asm -fearly-inlining -feliminate-unused-debug-types
  34              	@ -fexpensive-optimizations -fforward-propagate -ffp-int-builtin-inexact
  35              	@ -ffunction-cse -fgcse -fgcse-lm -fgnu-runtime -fgnu-unique
  36              	@ -fguess-branch-probability -fhoist-adjacent-loads -fident -fif-conversion
  37              	@ -fif-conversion2 -findirect-inlining -finline -finline-atomics
  38              	@ -finline-functions -finline-functions-called-once
  39              	@ -finline-small-functions -fipa-bit-cp -fipa-cp -fipa-icf
  40              	@ -fipa-icf-functions -fipa-icf-variables -fipa-profile -fipa-pure-const
  41              	@ -fipa-reference -fipa-sra -fipa-vrp -fira-hoist-pressure
  42              	@ -fira-share-save-slots -fira-share-spill-slots
  43              	@ -fisolate-erroneous-paths-dereference -fivopts -fkeep-static-consts
  44              	@ -fleading-underscore -flifetime-dse -flra-remat -flto-odr-type-merging
  45              	@ -fmath-errno -fmerge-constants -fmerge-debug-strings
  46              	@ -fmove-loop-invariants -fomit-frame-pointer -foptimize-sibling-calls
  47              	@ -fpartial-inlining -fpeephole -fpeephole2 -fplt -fprefetch-loop-arrays
  48              	@ -freg-struct-return -freorder-blocks -freorder-functions
  49              	@ -frerun-cse-after-loop -fsched-critical-path-heuristic
  50              	@ -fsched-dep-count-heuristic -fsched-group-heuristic -fsched-interblock
  51              	@ -fsched-last-insn-heuristic -fsched-pressure -fsched-rank-heuristic
  52              	@ -fsched-spec -fsched-spec-insn-heuristic -fsched-stalled-insns-dep
  53              	@ -fschedule-insns2 -fsection-anchors -fsemantic-interposition
  54              	@ -fshow-column -fshrink-wrap -fshrink-wrap-separate -fsigned-zeros
  55              	@ -fsplit-ivs-in-unroller -fsplit-wide-types -fssa-backprop -fssa-phiopt
  56              	@ -fstdarg-opt -fstore-merging -fstrict-aliasing -fstrict-overflow
  57              	@ -fstrict-volatile-bitfields -fsync-libcalls -fthread-jumps
ARM GAS  C:\Users\claym\AppData\Local\Temp\ccb01mZK.s 			page 2


  58              	@ -ftoplevel-reorder -ftrapping-math -ftree-bit-ccp -ftree-builtin-call-dce
  59              	@ -ftree-ccp -ftree-ch -ftree-coalesce-vars -ftree-copy-prop -ftree-cselim
  60              	@ -ftree-dce -ftree-dominator-opts -ftree-dse -ftree-forwprop -ftree-fre
  61              	@ -ftree-loop-if-convert -ftree-loop-im -ftree-loop-ivcanon
  62              	@ -ftree-loop-optimize -ftree-parallelize-loops= -ftree-phiprop -ftree-pre
  63              	@ -ftree-pta -ftree-reassoc -ftree-scev-cprop -ftree-sink -ftree-slsr
  64              	@ -ftree-sra -ftree-switch-conversion -ftree-tail-merge -ftree-ter
  65              	@ -ftree-vrp -funit-at-a-time -fvar-tracking -fvar-tracking-assignments
  66              	@ -fverbose-asm -fzero-initialized-in-bss -mlittle-endian
  67              	@ -mpic-data-is-text-relative -msched-prolog -mthumb
  68              	@ -mvectorize-with-neon-quad
  69              	
  70              		.text
  71              	.Ltext0:
  72              		.cfi_sections	.debug_frame
  73              		.align	1
  74              		.syntax unified
  75              		.code	16
  76              		.thumb_func
  77              		.fpu softvfp
  78              		.type	_GetAvailWriteSpace, %function
  79              	_GetAvailWriteSpace:
  80              	.LFB4:
  81              		.file 1 ".\\utilities\\src\\segger_rtt.c"
   1:.\utilities\src/segger_rtt.c **** /*********************************************************************
   2:.\utilities\src/segger_rtt.c **** *               SEGGER MICROCONTROLLER GmbH & Co. KG                 *
   3:.\utilities\src/segger_rtt.c **** *       Solutions for real time microcontroller applications         *
   4:.\utilities\src/segger_rtt.c **** **********************************************************************
   5:.\utilities\src/segger_rtt.c **** *                                                                    *
   6:.\utilities\src/segger_rtt.c **** *       (c) 2014 - 2016  SEGGER Microcontroller GmbH & Co. KG        *
   7:.\utilities\src/segger_rtt.c **** *                                                                    *
   8:.\utilities\src/segger_rtt.c **** *       www.segger.com     Support: support@segger.com               *
   9:.\utilities\src/segger_rtt.c **** *                                                                    *
  10:.\utilities\src/segger_rtt.c **** **********************************************************************
  11:.\utilities\src/segger_rtt.c **** *                                                                    *
  12:.\utilities\src/segger_rtt.c **** *       SEGGER RTT * Real Time Transfer for embedded targets         *
  13:.\utilities\src/segger_rtt.c **** *                                                                    *
  14:.\utilities\src/segger_rtt.c **** **********************************************************************
  15:.\utilities\src/segger_rtt.c **** *                                                                    *
  16:.\utilities\src/segger_rtt.c **** * All rights reserved.                                               *
  17:.\utilities\src/segger_rtt.c **** *                                                                    *
  18:.\utilities\src/segger_rtt.c **** * * This software may in its unmodified form be freely redistributed *
  19:.\utilities\src/segger_rtt.c **** *   in source form.                                                  *
  20:.\utilities\src/segger_rtt.c **** * * The source code may be modified, provided the source code        *
  21:.\utilities\src/segger_rtt.c **** *   retains the above copyright notice, this list of conditions and  *
  22:.\utilities\src/segger_rtt.c **** *   the following disclaimer.                                        *
  23:.\utilities\src/segger_rtt.c **** * * Modified versions of this software in source or linkable form    *
  24:.\utilities\src/segger_rtt.c **** *   may not be distributed without prior consent of SEGGER.          *
  25:.\utilities\src/segger_rtt.c **** * * This software may only be used for communication with SEGGER     *
  26:.\utilities\src/segger_rtt.c **** *   J-Link debug probes.                                             *
  27:.\utilities\src/segger_rtt.c **** *                                                                    *
  28:.\utilities\src/segger_rtt.c **** * THIS SOFTWARE IS PROVIDED BY THE COPYRIGHT HOLDERS AND             *
  29:.\utilities\src/segger_rtt.c **** * CONTRIBUTORS "AS IS" AND ANY EXPRESS OR IMPLIED WARRANTIES,        *
  30:.\utilities\src/segger_rtt.c **** * INCLUDING, BUT NOT LIMITED TO, THE IMPLIED WARRANTIES OF           *
  31:.\utilities\src/segger_rtt.c **** * MERCHANTABILITY AND FITNESS FOR A PARTICULAR PURPOSE ARE           *
  32:.\utilities\src/segger_rtt.c **** * DISCLAIMED. IN NO EVENT SHALL SEGGER Microcontroller BE LIABLE FOR *
  33:.\utilities\src/segger_rtt.c **** * ANY DIRECT, INDIRECT, INCIDENTAL, SPECIAL, EXEMPLARY, OR           *
ARM GAS  C:\Users\claym\AppData\Local\Temp\ccb01mZK.s 			page 3


  34:.\utilities\src/segger_rtt.c **** * CONSEQUENTIAL DAMAGES (INCLUDING, BUT NOT LIMITED TO, PROCUREMENT  *
  35:.\utilities\src/segger_rtt.c **** * OF SUBSTITUTE GOODS OR SERVICES; LOSS OF USE, DATA, OR PROFITS;    *
  36:.\utilities\src/segger_rtt.c **** * OR BUSINESS INTERRUPTION) HOWEVER CAUSED AND ON ANY THEORY OF      *
  37:.\utilities\src/segger_rtt.c **** * LIABILITY, WHETHER IN CONTRACT, STRICT LIABILITY, OR TORT          *
  38:.\utilities\src/segger_rtt.c **** * (INCLUDING NEGLIGENCE OR OTHERWISE) ARISING IN ANY WAY OUT OF THE  *
  39:.\utilities\src/segger_rtt.c **** * USE OF THIS SOFTWARE, EVEN IF ADVISED OF THE POSSIBILITY OF SUCH   *
  40:.\utilities\src/segger_rtt.c **** * DAMAGE.                                                            *
  41:.\utilities\src/segger_rtt.c **** *                                                                    *
  42:.\utilities\src/segger_rtt.c **** **********************************************************************
  43:.\utilities\src/segger_rtt.c **** *                                                                    *
  44:.\utilities\src/segger_rtt.c **** *       RTT version: 5.10p                                           *
  45:.\utilities\src/segger_rtt.c **** *                                                                    *
  46:.\utilities\src/segger_rtt.c **** **********************************************************************
  47:.\utilities\src/segger_rtt.c **** ---------------------------END-OF-HEADER------------------------------
  48:.\utilities\src/segger_rtt.c **** File    : SEGGER_RTT.c
  49:.\utilities\src/segger_rtt.c **** Purpose : Implementation of SEGGER real-time transfer (RTT) which
  50:.\utilities\src/segger_rtt.c ****           allows real-time communication on targets which support
  51:.\utilities\src/segger_rtt.c ****           debugger memory accesses while the CPU is running.
  52:.\utilities\src/segger_rtt.c **** 
  53:.\utilities\src/segger_rtt.c **** Additional information:
  54:.\utilities\src/segger_rtt.c ****           Type "int" is assumed to be 32-bits in size
  55:.\utilities\src/segger_rtt.c ****           H->T    Host to target communication
  56:.\utilities\src/segger_rtt.c ****           T->H    Target to host communication
  57:.\utilities\src/segger_rtt.c **** 
  58:.\utilities\src/segger_rtt.c ****           RTT channel 0 is always present and reserved for Terminal usage.
  59:.\utilities\src/segger_rtt.c ****           Name is fixed to "Terminal"
  60:.\utilities\src/segger_rtt.c **** 
  61:.\utilities\src/segger_rtt.c **** ----------------------------------------------------------------------
  62:.\utilities\src/segger_rtt.c **** */
  63:.\utilities\src/segger_rtt.c **** 
  64:.\utilities\src/segger_rtt.c **** #include "SEGGER_RTT.h"
  65:.\utilities\src/segger_rtt.c **** 
  66:.\utilities\src/segger_rtt.c **** #include <string.h>                 // for memcpy
  67:.\utilities\src/segger_rtt.c **** 
  68:.\utilities\src/segger_rtt.c **** /*********************************************************************
  69:.\utilities\src/segger_rtt.c **** *
  70:.\utilities\src/segger_rtt.c **** *       Configuration, default values
  71:.\utilities\src/segger_rtt.c **** *
  72:.\utilities\src/segger_rtt.c **** **********************************************************************
  73:.\utilities\src/segger_rtt.c **** */
  74:.\utilities\src/segger_rtt.c **** 
  75:.\utilities\src/segger_rtt.c **** #ifndef   BUFFER_SIZE_UP
  76:.\utilities\src/segger_rtt.c ****   #define BUFFER_SIZE_UP                                  1024  // Size of the buffer for terminal 
  77:.\utilities\src/segger_rtt.c **** #endif
  78:.\utilities\src/segger_rtt.c **** 
  79:.\utilities\src/segger_rtt.c **** #ifndef   BUFFER_SIZE_DOWN
  80:.\utilities\src/segger_rtt.c ****   #define BUFFER_SIZE_DOWN                                16    // Size of the buffer for terminal 
  81:.\utilities\src/segger_rtt.c **** #endif
  82:.\utilities\src/segger_rtt.c **** 
  83:.\utilities\src/segger_rtt.c **** #ifndef   SEGGER_RTT_MAX_NUM_UP_BUFFERS
  84:.\utilities\src/segger_rtt.c ****   #define SEGGER_RTT_MAX_NUM_UP_BUFFERS                    2    // Number of up-buffers (T->H) avai
  85:.\utilities\src/segger_rtt.c **** #endif
  86:.\utilities\src/segger_rtt.c **** 
  87:.\utilities\src/segger_rtt.c **** #ifndef   SEGGER_RTT_MAX_NUM_DOWN_BUFFERS
  88:.\utilities\src/segger_rtt.c ****   #define SEGGER_RTT_MAX_NUM_DOWN_BUFFERS                  2    // Number of down-buffers (H->T) av
  89:.\utilities\src/segger_rtt.c **** #endif
  90:.\utilities\src/segger_rtt.c **** 
ARM GAS  C:\Users\claym\AppData\Local\Temp\ccb01mZK.s 			page 4


  91:.\utilities\src/segger_rtt.c **** #ifndef   SEGGER_RTT_MODE_DEFAULT
  92:.\utilities\src/segger_rtt.c ****   #define SEGGER_RTT_MODE_DEFAULT                         SEGGER_RTT_MODE_NO_BLOCK_SKIP
  93:.\utilities\src/segger_rtt.c **** #endif
  94:.\utilities\src/segger_rtt.c **** 
  95:.\utilities\src/segger_rtt.c **** #ifndef   SEGGER_RTT_LOCK
  96:.\utilities\src/segger_rtt.c ****   #define SEGGER_RTT_LOCK()
  97:.\utilities\src/segger_rtt.c **** #endif
  98:.\utilities\src/segger_rtt.c **** 
  99:.\utilities\src/segger_rtt.c **** #ifndef   SEGGER_RTT_UNLOCK
 100:.\utilities\src/segger_rtt.c ****   #define SEGGER_RTT_UNLOCK()
 101:.\utilities\src/segger_rtt.c **** #endif
 102:.\utilities\src/segger_rtt.c **** 
 103:.\utilities\src/segger_rtt.c **** #ifndef   STRLEN
 104:.\utilities\src/segger_rtt.c ****   #define STRLEN(a)                                       strlen((a))
 105:.\utilities\src/segger_rtt.c **** #endif
 106:.\utilities\src/segger_rtt.c **** 
 107:.\utilities\src/segger_rtt.c **** #ifndef   MEMCPY
 108:.\utilities\src/segger_rtt.c ****   #define MEMCPY(pDest, pSrc, NumBytes)                   memcpy((pDest), (pSrc), (NumBytes))
 109:.\utilities\src/segger_rtt.c **** #endif
 110:.\utilities\src/segger_rtt.c **** 
 111:.\utilities\src/segger_rtt.c **** #ifndef   MIN
 112:.\utilities\src/segger_rtt.c ****   #define MIN(a, b)         (((a) < (b)) ? (a) : (b))
 113:.\utilities\src/segger_rtt.c **** #endif
 114:.\utilities\src/segger_rtt.c **** 
 115:.\utilities\src/segger_rtt.c **** #ifndef   MAX
 116:.\utilities\src/segger_rtt.c ****   #define MAX(a, b)         (((a) > (b)) ? (a) : (b))
 117:.\utilities\src/segger_rtt.c **** #endif
 118:.\utilities\src/segger_rtt.c **** //
 119:.\utilities\src/segger_rtt.c **** // For some environments, NULL may not be defined until certain headers are included
 120:.\utilities\src/segger_rtt.c **** //
 121:.\utilities\src/segger_rtt.c **** #ifndef NULL
 122:.\utilities\src/segger_rtt.c ****   #define NULL 0
 123:.\utilities\src/segger_rtt.c **** #endif
 124:.\utilities\src/segger_rtt.c **** 
 125:.\utilities\src/segger_rtt.c **** /*********************************************************************
 126:.\utilities\src/segger_rtt.c **** *
 127:.\utilities\src/segger_rtt.c **** *       Static const data
 128:.\utilities\src/segger_rtt.c **** *
 129:.\utilities\src/segger_rtt.c **** **********************************************************************
 130:.\utilities\src/segger_rtt.c **** */
 131:.\utilities\src/segger_rtt.c **** 
 132:.\utilities\src/segger_rtt.c **** static unsigned char _aTerminalId[16] = { '0', '1', '2', '3', '4', '5', '6', '7', '8', '9', 'A', 'B
 133:.\utilities\src/segger_rtt.c **** 
 134:.\utilities\src/segger_rtt.c **** /*********************************************************************
 135:.\utilities\src/segger_rtt.c **** *
 136:.\utilities\src/segger_rtt.c **** *       Static data
 137:.\utilities\src/segger_rtt.c **** *
 138:.\utilities\src/segger_rtt.c **** **********************************************************************
 139:.\utilities\src/segger_rtt.c **** */
 140:.\utilities\src/segger_rtt.c **** //
 141:.\utilities\src/segger_rtt.c **** // Allocate buffers for channel 0
 142:.\utilities\src/segger_rtt.c **** //
 143:.\utilities\src/segger_rtt.c **** static char _acUpBuffer  [BUFFER_SIZE_UP];
 144:.\utilities\src/segger_rtt.c **** static char _acDownBuffer[BUFFER_SIZE_DOWN];
 145:.\utilities\src/segger_rtt.c **** static char _scopeUpBuffer[BUFFER_SIZE_UP*2]; 
 146:.\utilities\src/segger_rtt.c **** static char _scopeDownBuffer[BUFFER_SIZE_DOWN]; 
 147:.\utilities\src/segger_rtt.c **** //
ARM GAS  C:\Users\claym\AppData\Local\Temp\ccb01mZK.s 			page 5


 148:.\utilities\src/segger_rtt.c **** // Initialize SEGGER Real-time-Terminal control block (CB)
 149:.\utilities\src/segger_rtt.c **** //
 150:.\utilities\src/segger_rtt.c **** #ifdef __GNUC__
 151:.\utilities\src/segger_rtt.c **** SEGGER_RTT_CB _SEGGER_RTT __attribute__((section(".RTTSection"))); 
 152:.\utilities\src/segger_rtt.c **** #else
 153:.\utilities\src/segger_rtt.c **** SEGGER_RTT_CB _SEGGER_RTT __attribute__((section(".ARM.__at_0x10007000"), zero_init));
 154:.\utilities\src/segger_rtt.c **** #endif 
 155:.\utilities\src/segger_rtt.c **** static char _ActiveTerminal;
 156:.\utilities\src/segger_rtt.c **** 
 157:.\utilities\src/segger_rtt.c **** /*********************************************************************
 158:.\utilities\src/segger_rtt.c **** *
 159:.\utilities\src/segger_rtt.c **** *       Static functions
 160:.\utilities\src/segger_rtt.c **** *
 161:.\utilities\src/segger_rtt.c **** **********************************************************************
 162:.\utilities\src/segger_rtt.c **** */
 163:.\utilities\src/segger_rtt.c **** 
 164:.\utilities\src/segger_rtt.c **** /*********************************************************************
 165:.\utilities\src/segger_rtt.c **** *
 166:.\utilities\src/segger_rtt.c **** *       _DoInit()
 167:.\utilities\src/segger_rtt.c **** *
 168:.\utilities\src/segger_rtt.c **** *  Function description
 169:.\utilities\src/segger_rtt.c **** *    Initializes the control block an buffers.
 170:.\utilities\src/segger_rtt.c **** *    May only be called via INIT() to avoid overriding settings.
 171:.\utilities\src/segger_rtt.c **** *
 172:.\utilities\src/segger_rtt.c **** */
 173:.\utilities\src/segger_rtt.c **** #define INIT()  do {                                            \
 174:.\utilities\src/segger_rtt.c ****                   if (_SEGGER_RTT.acID[0] == '\0') { _DoInit(); }  \
 175:.\utilities\src/segger_rtt.c ****                 } while (0)
 176:.\utilities\src/segger_rtt.c **** static void _DoInit(void) {
 177:.\utilities\src/segger_rtt.c ****   SEGGER_RTT_CB* p;
 178:.\utilities\src/segger_rtt.c ****   //
 179:.\utilities\src/segger_rtt.c ****   // Initialize control block
 180:.\utilities\src/segger_rtt.c ****   //
 181:.\utilities\src/segger_rtt.c ****   p = &_SEGGER_RTT;
 182:.\utilities\src/segger_rtt.c ****   p->MaxNumUpBuffers    = SEGGER_RTT_MAX_NUM_UP_BUFFERS;
 183:.\utilities\src/segger_rtt.c ****   p->MaxNumDownBuffers  = SEGGER_RTT_MAX_NUM_DOWN_BUFFERS;
 184:.\utilities\src/segger_rtt.c ****   //
 185:.\utilities\src/segger_rtt.c ****   // Initialize up buffer 0
 186:.\utilities\src/segger_rtt.c ****   //
 187:.\utilities\src/segger_rtt.c ****   p->aUp[0].sName         = "Terminal";
 188:.\utilities\src/segger_rtt.c ****   p->aUp[0].pBuffer       = _acUpBuffer;
 189:.\utilities\src/segger_rtt.c ****   p->aUp[0].SizeOfBuffer  = sizeof(_acUpBuffer);
 190:.\utilities\src/segger_rtt.c ****   p->aUp[0].RdOff         = 0u;
 191:.\utilities\src/segger_rtt.c ****   p->aUp[0].WrOff         = 0u;
 192:.\utilities\src/segger_rtt.c ****   p->aUp[0].Flags         = SEGGER_RTT_MODE_DEFAULT;
 193:.\utilities\src/segger_rtt.c ****   //
 194:.\utilities\src/segger_rtt.c ****   // Initialize down buffer 0
 195:.\utilities\src/segger_rtt.c ****   //
 196:.\utilities\src/segger_rtt.c ****   p->aDown[0].sName         = "Terminal";
 197:.\utilities\src/segger_rtt.c ****   p->aDown[0].pBuffer       = _acDownBuffer;
 198:.\utilities\src/segger_rtt.c ****   p->aDown[0].SizeOfBuffer  = sizeof(_acDownBuffer);
 199:.\utilities\src/segger_rtt.c ****   p->aDown[0].RdOff         = 0u;
 200:.\utilities\src/segger_rtt.c ****   p->aDown[0].WrOff         = 0u;
 201:.\utilities\src/segger_rtt.c ****   p->aDown[0].Flags         = SEGGER_RTT_MODE_DEFAULT;
 202:.\utilities\src/segger_rtt.c **** 	
 203:.\utilities\src/segger_rtt.c **** 	p->aUp[1].sName						= "JScope_u1"; 
 204:.\utilities\src/segger_rtt.c **** 	p->aUp[1].pBuffer					= (char *)_scopeUpBuffer; 
ARM GAS  C:\Users\claym\AppData\Local\Temp\ccb01mZK.s 			page 6


 205:.\utilities\src/segger_rtt.c **** 	p->aUp[1].SizeOfBuffer  	= sizeof(_scopeUpBuffer);
 206:.\utilities\src/segger_rtt.c ****   p->aUp[1].RdOff         	= 0u;
 207:.\utilities\src/segger_rtt.c ****   p->aUp[1].WrOff         	= 0u;
 208:.\utilities\src/segger_rtt.c ****   p->aUp[1].Flags         	= SEGGER_RTT_MODE_DEFAULT;
 209:.\utilities\src/segger_rtt.c **** 	
 210:.\utilities\src/segger_rtt.c **** 	p->aDown[1].sName						= "JScope_u1"; 
 211:.\utilities\src/segger_rtt.c **** 	p->aDown[1].pBuffer					= (char *)_scopeDownBuffer; 
 212:.\utilities\src/segger_rtt.c **** 	p->aDown[1].SizeOfBuffer  	= sizeof(_scopeDownBuffer);
 213:.\utilities\src/segger_rtt.c ****   p->aDown[1].RdOff         	= 0u;
 214:.\utilities\src/segger_rtt.c ****   p->aDown[1].WrOff         	= 0u;
 215:.\utilities\src/segger_rtt.c ****   p->aDown[1].Flags         	= SEGGER_RTT_MODE_DEFAULT;
 216:.\utilities\src/segger_rtt.c ****   //
 217:.\utilities\src/segger_rtt.c ****   // Finish initialization of the control block.
 218:.\utilities\src/segger_rtt.c ****   // Copy Id string in three steps to make sure "SEGGER RTT" is not found
 219:.\utilities\src/segger_rtt.c ****   // in initializer memory (usually flash) by J-Link
 220:.\utilities\src/segger_rtt.c ****   //
 221:.\utilities\src/segger_rtt.c ****   strcpy(&p->acID[7], "RTT");
 222:.\utilities\src/segger_rtt.c ****   strcpy(&p->acID[0], "SEGGER");
 223:.\utilities\src/segger_rtt.c ****   p->acID[6] = ' ';
 224:.\utilities\src/segger_rtt.c **** }
 225:.\utilities\src/segger_rtt.c **** 
 226:.\utilities\src/segger_rtt.c **** /*********************************************************************
 227:.\utilities\src/segger_rtt.c **** *
 228:.\utilities\src/segger_rtt.c **** *       _WriteBlocking()
 229:.\utilities\src/segger_rtt.c **** *
 230:.\utilities\src/segger_rtt.c **** *  Function description
 231:.\utilities\src/segger_rtt.c **** *    Stores a specified number of characters in SEGGER RTT ring buffer
 232:.\utilities\src/segger_rtt.c **** *    and updates the associated write pointer which is periodically
 233:.\utilities\src/segger_rtt.c **** *    read by the host.
 234:.\utilities\src/segger_rtt.c **** *    The caller is responsible for managing the write chunk sizes as
 235:.\utilities\src/segger_rtt.c **** *    _WriteBlocking() will block until all data has been posted successfully.
 236:.\utilities\src/segger_rtt.c **** *
 237:.\utilities\src/segger_rtt.c **** *  Parameters
 238:.\utilities\src/segger_rtt.c **** *    pRing        Ring buffer to post to.
 239:.\utilities\src/segger_rtt.c **** *    pBuffer      Pointer to character array. Does not need to point to a \0 terminated string.
 240:.\utilities\src/segger_rtt.c **** *    NumBytes     Number of bytes to be stored in the SEGGER RTT control block.
 241:.\utilities\src/segger_rtt.c **** *
 242:.\utilities\src/segger_rtt.c **** *  Return value
 243:.\utilities\src/segger_rtt.c **** *    >= 0 - Number of bytes written into buffer.
 244:.\utilities\src/segger_rtt.c **** */
 245:.\utilities\src/segger_rtt.c **** static unsigned _WriteBlocking(SEGGER_RTT_BUFFER_UP* pRing, const char* pBuffer, unsigned NumBytes)
 246:.\utilities\src/segger_rtt.c ****   unsigned NumBytesToWrite;
 247:.\utilities\src/segger_rtt.c ****   unsigned NumBytesWritten;
 248:.\utilities\src/segger_rtt.c ****   unsigned RdOff;
 249:.\utilities\src/segger_rtt.c ****   unsigned WrOff;
 250:.\utilities\src/segger_rtt.c ****   //
 251:.\utilities\src/segger_rtt.c ****   // Write data to buffer and handle wrap-around if necessary
 252:.\utilities\src/segger_rtt.c ****   //
 253:.\utilities\src/segger_rtt.c ****   NumBytesWritten = 0u;
 254:.\utilities\src/segger_rtt.c ****   WrOff = pRing->WrOff;
 255:.\utilities\src/segger_rtt.c ****   do {
 256:.\utilities\src/segger_rtt.c ****     RdOff = pRing->RdOff;                         // May be changed by host (debug probe) in the me
 257:.\utilities\src/segger_rtt.c ****     if (RdOff > WrOff) {
 258:.\utilities\src/segger_rtt.c ****       NumBytesToWrite = RdOff - WrOff - 1u;
 259:.\utilities\src/segger_rtt.c ****     } else {
 260:.\utilities\src/segger_rtt.c ****       NumBytesToWrite = pRing->SizeOfBuffer - (WrOff - RdOff + 1u);
 261:.\utilities\src/segger_rtt.c ****     }
ARM GAS  C:\Users\claym\AppData\Local\Temp\ccb01mZK.s 			page 7


 262:.\utilities\src/segger_rtt.c ****     NumBytesToWrite = MIN(NumBytesToWrite, (pRing->SizeOfBuffer - WrOff));      // Number of bytes 
 263:.\utilities\src/segger_rtt.c ****     NumBytesToWrite = MIN(NumBytesToWrite, NumBytes);
 264:.\utilities\src/segger_rtt.c ****     memcpy(pRing->pBuffer + WrOff, pBuffer, NumBytesToWrite);
 265:.\utilities\src/segger_rtt.c ****     NumBytesWritten += NumBytesToWrite;
 266:.\utilities\src/segger_rtt.c ****     pBuffer         += NumBytesToWrite;
 267:.\utilities\src/segger_rtt.c ****     NumBytes        -= NumBytesToWrite;
 268:.\utilities\src/segger_rtt.c ****     WrOff           += NumBytesToWrite;
 269:.\utilities\src/segger_rtt.c ****     if (WrOff == pRing->SizeOfBuffer) {
 270:.\utilities\src/segger_rtt.c ****       WrOff = 0u;
 271:.\utilities\src/segger_rtt.c ****     }
 272:.\utilities\src/segger_rtt.c ****     pRing->WrOff = WrOff;
 273:.\utilities\src/segger_rtt.c ****   } while (NumBytes);
 274:.\utilities\src/segger_rtt.c ****   //
 275:.\utilities\src/segger_rtt.c ****   return NumBytesWritten;
 276:.\utilities\src/segger_rtt.c **** }
 277:.\utilities\src/segger_rtt.c **** 
 278:.\utilities\src/segger_rtt.c **** /*********************************************************************
 279:.\utilities\src/segger_rtt.c **** *
 280:.\utilities\src/segger_rtt.c **** *       _WriteNoCheck()
 281:.\utilities\src/segger_rtt.c **** *
 282:.\utilities\src/segger_rtt.c **** *  Function description
 283:.\utilities\src/segger_rtt.c **** *    Stores a specified number of characters in SEGGER RTT ring buffer
 284:.\utilities\src/segger_rtt.c **** *    and updates the associated write pointer which is periodically
 285:.\utilities\src/segger_rtt.c **** *    read by the host.
 286:.\utilities\src/segger_rtt.c **** *    It is callers responsibility to make sure data actually fits in buffer.
 287:.\utilities\src/segger_rtt.c **** *
 288:.\utilities\src/segger_rtt.c **** *  Parameters
 289:.\utilities\src/segger_rtt.c **** *    pRing        Ring buffer to post to.
 290:.\utilities\src/segger_rtt.c **** *    pBuffer      Pointer to character array. Does not need to point to a \0 terminated string.
 291:.\utilities\src/segger_rtt.c **** *    NumBytes     Number of bytes to be stored in the SEGGER RTT control block.
 292:.\utilities\src/segger_rtt.c **** *
 293:.\utilities\src/segger_rtt.c **** *  Notes
 294:.\utilities\src/segger_rtt.c **** *    (1) If there might not be enough space in the "Up"-buffer, call _WriteBlocking
 295:.\utilities\src/segger_rtt.c **** */
 296:.\utilities\src/segger_rtt.c **** static void _WriteNoCheck(SEGGER_RTT_BUFFER_UP* pRing, const char* pData, unsigned NumBytes) {
 297:.\utilities\src/segger_rtt.c ****   unsigned NumBytesAtOnce;
 298:.\utilities\src/segger_rtt.c ****   unsigned WrOff;
 299:.\utilities\src/segger_rtt.c ****   unsigned Rem;
 300:.\utilities\src/segger_rtt.c **** 
 301:.\utilities\src/segger_rtt.c ****   WrOff = pRing->WrOff;
 302:.\utilities\src/segger_rtt.c ****   Rem = pRing->SizeOfBuffer - WrOff;
 303:.\utilities\src/segger_rtt.c ****   if (Rem > NumBytes) {
 304:.\utilities\src/segger_rtt.c ****     //
 305:.\utilities\src/segger_rtt.c ****     // All data fits before wrap around
 306:.\utilities\src/segger_rtt.c ****     //
 307:.\utilities\src/segger_rtt.c ****     memcpy(pRing->pBuffer + WrOff, pData, NumBytes);
 308:.\utilities\src/segger_rtt.c ****     pRing->WrOff = WrOff + NumBytes;
 309:.\utilities\src/segger_rtt.c ****   } else {
 310:.\utilities\src/segger_rtt.c ****     //
 311:.\utilities\src/segger_rtt.c ****     // We reach the end of the buffer, so need to wrap around
 312:.\utilities\src/segger_rtt.c ****     //
 313:.\utilities\src/segger_rtt.c ****     NumBytesAtOnce = Rem;
 314:.\utilities\src/segger_rtt.c ****     memcpy(pRing->pBuffer + WrOff, pData, NumBytesAtOnce);
 315:.\utilities\src/segger_rtt.c ****     NumBytesAtOnce = NumBytes - Rem;
 316:.\utilities\src/segger_rtt.c ****     memcpy(pRing->pBuffer, pData + Rem, NumBytesAtOnce);
 317:.\utilities\src/segger_rtt.c ****     pRing->WrOff = NumBytesAtOnce;
 318:.\utilities\src/segger_rtt.c ****   }
ARM GAS  C:\Users\claym\AppData\Local\Temp\ccb01mZK.s 			page 8


 319:.\utilities\src/segger_rtt.c **** }
 320:.\utilities\src/segger_rtt.c **** 
 321:.\utilities\src/segger_rtt.c **** /*********************************************************************
 322:.\utilities\src/segger_rtt.c **** *
 323:.\utilities\src/segger_rtt.c **** *       _PostTerminalSwitch()
 324:.\utilities\src/segger_rtt.c **** *
 325:.\utilities\src/segger_rtt.c **** *  Function description
 326:.\utilities\src/segger_rtt.c **** *    Switch terminal to the given terminal ID.  It is the caller's
 327:.\utilities\src/segger_rtt.c **** *    responsibility to ensure the terminal ID is correct and there is
 328:.\utilities\src/segger_rtt.c **** *    enough space in the buffer for this to complete successfully.
 329:.\utilities\src/segger_rtt.c **** *
 330:.\utilities\src/segger_rtt.c **** *  Parameters
 331:.\utilities\src/segger_rtt.c **** *    pRing        Ring buffer to post to.
 332:.\utilities\src/segger_rtt.c **** *    TerminalId   Terminal ID to switch to.
 333:.\utilities\src/segger_rtt.c **** */
 334:.\utilities\src/segger_rtt.c **** static void _PostTerminalSwitch(SEGGER_RTT_BUFFER_UP* pRing, unsigned char TerminalId) {
 335:.\utilities\src/segger_rtt.c ****   char ac[2];
 336:.\utilities\src/segger_rtt.c **** 
 337:.\utilities\src/segger_rtt.c ****   ac[0] = 0xFFu;
 338:.\utilities\src/segger_rtt.c ****   ac[1] = _aTerminalId[TerminalId];  // Caller made already sure that TerminalId does not exceed ou
 339:.\utilities\src/segger_rtt.c ****   _WriteBlocking(pRing, ac, 2u);
 340:.\utilities\src/segger_rtt.c **** }
 341:.\utilities\src/segger_rtt.c **** 
 342:.\utilities\src/segger_rtt.c **** /*********************************************************************
 343:.\utilities\src/segger_rtt.c **** *
 344:.\utilities\src/segger_rtt.c **** *       _GetAvailWriteSpace()
 345:.\utilities\src/segger_rtt.c **** *
 346:.\utilities\src/segger_rtt.c **** *  Function description
 347:.\utilities\src/segger_rtt.c **** *    Returns the number of bytes that can be written to the ring
 348:.\utilities\src/segger_rtt.c **** *    buffer without blocking.
 349:.\utilities\src/segger_rtt.c **** *
 350:.\utilities\src/segger_rtt.c **** *  Parameters
 351:.\utilities\src/segger_rtt.c **** *    pRing        Ring buffer to check.
 352:.\utilities\src/segger_rtt.c **** *
 353:.\utilities\src/segger_rtt.c **** *  Return value
 354:.\utilities\src/segger_rtt.c **** *    Number of bytes that are free in the buffer.
 355:.\utilities\src/segger_rtt.c **** */
 356:.\utilities\src/segger_rtt.c **** static unsigned _GetAvailWriteSpace(SEGGER_RTT_BUFFER_UP* pRing) {
  82              		.loc 1 356 0
  83              		.cfi_startproc
  84              		@ args = 0, pretend = 0, frame = 0
  85              		@ frame_needed = 0, uses_anonymous_args = 0
  86              		@ link register save eliminated.
  87              	.LVL0:
  88              	@ .\utilities\src\segger_rtt.c:364:   RdOff = pRing->RdOff;
 357:.\utilities\src/segger_rtt.c ****   unsigned RdOff;
 358:.\utilities\src/segger_rtt.c ****   unsigned WrOff;
 359:.\utilities\src/segger_rtt.c ****   unsigned r;
 360:.\utilities\src/segger_rtt.c ****   //
 361:.\utilities\src/segger_rtt.c ****   // Avoid warnings regarding volatile access order.  It's not a problem
 362:.\utilities\src/segger_rtt.c ****   // in this case, but dampen compiler enthusiasm.
 363:.\utilities\src/segger_rtt.c ****   //
 364:.\utilities\src/segger_rtt.c ****   RdOff = pRing->RdOff;
  89              		.loc 1 364 0
  90 0000 0369     		ldr	r3, [r0, #16]	@ RdOff, pRing_7(D)->RdOff
  91              	.LVL1:
  92              	@ .\utilities\src\segger_rtt.c:365:   WrOff = pRing->WrOff;
ARM GAS  C:\Users\claym\AppData\Local\Temp\ccb01mZK.s 			page 9


 365:.\utilities\src/segger_rtt.c ****   WrOff = pRing->WrOff;
  93              		.loc 1 365 0
  94 0002 C268     		ldr	r2, [r0, #12]	@ WrOff, pRing_7(D)->WrOff
  95              	.LVL2:
  96              	@ .\utilities\src\segger_rtt.c:366:   if (RdOff <= WrOff) {
 366:.\utilities\src/segger_rtt.c ****   if (RdOff <= WrOff) {
  97              		.loc 1 366 0
  98 0004 9342     		cmp	r3, r2	@ RdOff, WrOff
  99 0006 01D8     		bhi	.L2	@,
 100              	@ .\utilities\src\segger_rtt.c:367:     r = pRing->SizeOfBuffer - 1u - WrOff + RdOff;
 367:.\utilities\src/segger_rtt.c ****     r = pRing->SizeOfBuffer - 1u - WrOff + RdOff;
 101              		.loc 1 367 0
 102 0008 8068     		ldr	r0, [r0, #8]	@ pRing_7(D)->SizeOfBuffer, pRing_7(D)->SizeOfBuffer
 103              	.LVL3:
 104 000a 1B18     		adds	r3, r3, r0	@ tmp118, RdOff, pRing_7(D)->SizeOfBuffer
 105              	.LVL4:
 106              	.L2:
 107              	@ .\utilities\src\segger_rtt.c:369:     r = RdOff - WrOff - 1u;
 368:.\utilities\src/segger_rtt.c ****   } else {
 369:.\utilities\src/segger_rtt.c ****     r = RdOff - WrOff - 1u;
 108              		.loc 1 369 0
 109 000c 013B     		subs	r3, r3, #1	@ tmp121,
 110 000e 981A     		subs	r0, r3, r2	@ <retval>, tmp121, WrOff
 111              	.LVL5:
 112              	@ .\utilities\src\segger_rtt.c:372: }
 370:.\utilities\src/segger_rtt.c ****   }
 371:.\utilities\src/segger_rtt.c ****   return r;
 372:.\utilities\src/segger_rtt.c **** }
 113              		.loc 1 372 0
 114              		@ sp needed	@
 115 0010 7047     		bx	lr
 116              		.cfi_endproc
 117              	.LFE4:
 118              		.size	_GetAvailWriteSpace, .-_GetAvailWriteSpace
 119              		.align	1
 120              		.syntax unified
 121              		.code	16
 122              		.thumb_func
 123              		.fpu softvfp
 124              		.type	_WriteNoCheck, %function
 125              	_WriteNoCheck:
 126              	.LFB2:
 296:.\utilities\src/segger_rtt.c ****   unsigned NumBytesAtOnce;
 127              		.loc 1 296 0
 128              		.cfi_startproc
 129              		@ args = 0, pretend = 0, frame = 8
 130              		@ frame_needed = 0, uses_anonymous_args = 0
 131              	.LVL6:
 132 0012 F7B5     		push	{r0, r1, r2, r4, r5, r6, r7, lr}	@
 133              	.LCFI0:
 134              		.cfi_def_cfa_offset 32
 135              		.cfi_offset 0, -32
 136              		.cfi_offset 1, -28
 137              		.cfi_offset 2, -24
 138              		.cfi_offset 4, -20
 139              		.cfi_offset 5, -16
 140              		.cfi_offset 6, -12
ARM GAS  C:\Users\claym\AppData\Local\Temp\ccb01mZK.s 			page 10


 141              		.cfi_offset 7, -8
 142              		.cfi_offset 14, -4
 143              	@ .\utilities\src\segger_rtt.c:301:   WrOff = pRing->WrOff;
 301:.\utilities\src/segger_rtt.c ****   Rem = pRing->SizeOfBuffer - WrOff;
 144              		.loc 1 301 0
 145 0014 C368     		ldr	r3, [r0, #12]	@ WrOff, pRing_11(D)->WrOff
 146              	@ .\utilities\src\segger_rtt.c:296: static void _WriteNoCheck(SEGGER_RTT_BUFFER_UP* pRing, const ch
 296:.\utilities\src/segger_rtt.c ****   unsigned NumBytesAtOnce;
 147              		.loc 1 296 0
 148 0016 1400     		movs	r4, r2	@ NumBytes, NumBytes
 149              	@ .\utilities\src\segger_rtt.c:301:   WrOff = pRing->WrOff;
 301:.\utilities\src/segger_rtt.c ****   Rem = pRing->SizeOfBuffer - WrOff;
 150              		.loc 1 301 0
 151 0018 0193     		str	r3, [sp, #4]	@ WrOff, %sfp
 152              	.LVL7:
 153              	@ .\utilities\src\segger_rtt.c:302:   Rem = pRing->SizeOfBuffer - WrOff;
 302:.\utilities\src/segger_rtt.c ****   if (Rem > NumBytes) {
 154              		.loc 1 302 0
 155 001a 019A     		ldr	r2, [sp, #4]	@ WrOff, %sfp
 156              	.LVL8:
 157 001c 8368     		ldr	r3, [r0, #8]	@ tmp143, pRing_11(D)->SizeOfBuffer
 158              	.LVL9:
 159              	@ .\utilities\src\segger_rtt.c:296: static void _WriteNoCheck(SEGGER_RTT_BUFFER_UP* pRing, const ch
 296:.\utilities\src/segger_rtt.c ****   unsigned NumBytesAtOnce;
 160              		.loc 1 296 0
 161 001e 0500     		movs	r5, r0	@ pRing, pRing
 162              	@ .\utilities\src\segger_rtt.c:302:   Rem = pRing->SizeOfBuffer - WrOff;
 302:.\utilities\src/segger_rtt.c ****   if (Rem > NumBytes) {
 163              		.loc 1 302 0
 164 0020 9E1A     		subs	r6, r3, r2	@ Rem, tmp143, WrOff
 165              	.LVL10:
 166 0022 4368     		ldr	r3, [r0, #4]	@ tmp145, pRing_11(D)->pBuffer
 167              	@ .\utilities\src\segger_rtt.c:296: static void _WriteNoCheck(SEGGER_RTT_BUFFER_UP* pRing, const ch
 296:.\utilities\src/segger_rtt.c ****   unsigned NumBytesAtOnce;
 168              		.loc 1 296 0
 169 0024 0F00     		movs	r7, r1	@ pData, pData
 170 0026 9818     		adds	r0, r3, r2	@ _23, tmp145, WrOff
 171              	.LVL11:
 172              	@ .\utilities\src\segger_rtt.c:303:   if (Rem > NumBytes) {
 303:.\utilities\src/segger_rtt.c ****     //
 173              		.loc 1 303 0
 174 0028 A642     		cmp	r6, r4	@ Rem, NumBytes
 175 002a 06D9     		bls	.L5	@,
 176              	@ .\utilities\src\segger_rtt.c:307:     memcpy(pRing->pBuffer + WrOff, pData, NumBytes);
 307:.\utilities\src/segger_rtt.c ****     pRing->WrOff = WrOff + NumBytes;
 177              		.loc 1 307 0
 178 002c 2200     		movs	r2, r4	@, NumBytes
 179              	.LVL12:
 180 002e FFF7FEFF 		bl	memcpy	@
 181              	.LVL13:
 182              	@ .\utilities\src\segger_rtt.c:308:     pRing->WrOff = WrOff + NumBytes;
 308:.\utilities\src/segger_rtt.c ****   } else {
 183              		.loc 1 308 0
 184 0032 019B     		ldr	r3, [sp, #4]	@ WrOff, %sfp
 185 0034 1C19     		adds	r4, r3, r4	@ tmp129, WrOff, NumBytes
 186              	.LVL14:
 187              	.L7:
ARM GAS  C:\Users\claym\AppData\Local\Temp\ccb01mZK.s 			page 11


 188              	@ .\utilities\src\segger_rtt.c:317:     pRing->WrOff = NumBytesAtOnce;
 317:.\utilities\src/segger_rtt.c ****   }
 189              		.loc 1 317 0
 190 0036 EC60     		str	r4, [r5, #12]	@ NumBytesAtOnce, pRing_11(D)->WrOff
 191              	@ .\utilities\src\segger_rtt.c:319: }
 319:.\utilities\src/segger_rtt.c **** 
 192              		.loc 1 319 0
 193              		@ sp needed	@
 194              	.LVL15:
 195              	.LVL16:
 196              	.LVL17:
 197 0038 F7BD     		pop	{r0, r1, r2, r4, r5, r6, r7, pc}
 198              	.LVL18:
 199              	.L5:
 200              	@ .\utilities\src\segger_rtt.c:314:     memcpy(pRing->pBuffer + WrOff, pData, NumBytesAtOnce);
 314:.\utilities\src/segger_rtt.c ****     NumBytesAtOnce = NumBytes - Rem;
 201              		.loc 1 314 0
 202 003a 3200     		movs	r2, r6	@, Rem
 203              	.LVL19:
 204              	@ .\utilities\src\segger_rtt.c:315:     NumBytesAtOnce = NumBytes - Rem;
 315:.\utilities\src/segger_rtt.c ****     memcpy(pRing->pBuffer, pData + Rem, NumBytesAtOnce);
 205              		.loc 1 315 0
 206 003c A41B     		subs	r4, r4, r6	@ NumBytesAtOnce, NumBytes, Rem
 207              	.LVL20:
 208              	@ .\utilities\src\segger_rtt.c:314:     memcpy(pRing->pBuffer + WrOff, pData, NumBytesAtOnce);
 314:.\utilities\src/segger_rtt.c ****     NumBytesAtOnce = NumBytes - Rem;
 209              		.loc 1 314 0
 210 003e FFF7FEFF 		bl	memcpy	@
 211              	.LVL21:
 212              	@ .\utilities\src\segger_rtt.c:316:     memcpy(pRing->pBuffer, pData + Rem, NumBytesAtOnce);
 316:.\utilities\src/segger_rtt.c ****     pRing->WrOff = NumBytesAtOnce;
 213              		.loc 1 316 0
 214 0042 B919     		adds	r1, r7, r6	@ tmp136, pData, Rem
 215 0044 2200     		movs	r2, r4	@, NumBytesAtOnce
 216 0046 6868     		ldr	r0, [r5, #4]	@, pRing_11(D)->pBuffer
 217 0048 FFF7FEFF 		bl	memcpy	@
 218              	.LVL22:
 219 004c F3E7     		b	.L7	@
 220              		.cfi_endproc
 221              	.LFE2:
 222              		.size	_WriteNoCheck, .-_WriteNoCheck
 223              		.align	1
 224              		.syntax unified
 225              		.code	16
 226              		.thumb_func
 227              		.fpu softvfp
 228              		.type	_WriteBlocking, %function
 229              	_WriteBlocking:
 230              	.LFB1:
 245:.\utilities\src/segger_rtt.c ****   unsigned NumBytesToWrite;
 231              		.loc 1 245 0
 232              		.cfi_startproc
 233              		@ args = 0, pretend = 0, frame = 8
 234              		@ frame_needed = 0, uses_anonymous_args = 0
 235              	.LVL23:
 236              	@ .\utilities\src\segger_rtt.c:253:   NumBytesWritten = 0u;
 253:.\utilities\src/segger_rtt.c ****   WrOff = pRing->WrOff;
ARM GAS  C:\Users\claym\AppData\Local\Temp\ccb01mZK.s 			page 12


 237              		.loc 1 253 0
 238 004e 0023     		movs	r3, #0	@ <retval>,
 239              	@ .\utilities\src\segger_rtt.c:245: static unsigned _WriteBlocking(SEGGER_RTT_BUFFER_UP* pRing, con
 245:.\utilities\src/segger_rtt.c ****   unsigned NumBytesToWrite;
 240              		.loc 1 245 0
 241 0050 F7B5     		push	{r0, r1, r2, r4, r5, r6, r7, lr}	@
 242              	.LCFI1:
 243              		.cfi_def_cfa_offset 32
 244              		.cfi_offset 0, -32
 245              		.cfi_offset 1, -28
 246              		.cfi_offset 2, -24
 247              		.cfi_offset 4, -20
 248              		.cfi_offset 5, -16
 249              		.cfi_offset 6, -12
 250              		.cfi_offset 7, -8
 251              		.cfi_offset 14, -4
 252              	@ .\utilities\src\segger_rtt.c:245: static unsigned _WriteBlocking(SEGGER_RTT_BUFFER_UP* pRing, con
 245:.\utilities\src/segger_rtt.c ****   unsigned NumBytesToWrite;
 253              		.loc 1 245 0
 254 0052 0600     		movs	r6, r0	@ pRing, pRing
 255 0054 1700     		movs	r7, r2	@ NumBytes, NumBytes
 256              	@ .\utilities\src\segger_rtt.c:254:   WrOff = pRing->WrOff;
 254:.\utilities\src/segger_rtt.c ****   do {
 257              		.loc 1 254 0
 258 0056 C568     		ldr	r5, [r0, #12]	@ WrOff, pRing_18(D)->WrOff
 259              	.LVL24:
 260              	@ .\utilities\src\segger_rtt.c:245: static unsigned _WriteBlocking(SEGGER_RTT_BUFFER_UP* pRing, con
 245:.\utilities\src/segger_rtt.c ****   unsigned NumBytesToWrite;
 261              		.loc 1 245 0
 262 0058 0191     		str	r1, [sp, #4]	@ pBuffer, %sfp
 263              	@ .\utilities\src\segger_rtt.c:253:   NumBytesWritten = 0u;
 253:.\utilities\src/segger_rtt.c ****   WrOff = pRing->WrOff;
 264              		.loc 1 253 0
 265 005a 0093     		str	r3, [sp]	@ <retval>, %sfp
 266              	.LVL25:
 267              	.L14:
 268              	@ .\utilities\src\segger_rtt.c:256:     RdOff = pRing->RdOff;                         // May be cha
 256:.\utilities\src/segger_rtt.c ****     if (RdOff > WrOff) {
 269              		.loc 1 256 0
 270 005c 3369     		ldr	r3, [r6, #16]	@ RdOff, pRing_18(D)->RdOff
 271              	.LVL26:
 272 005e B468     		ldr	r4, [r6, #8]	@ pretmp_36, pRing_18(D)->SizeOfBuffer
 273              	@ .\utilities\src\segger_rtt.c:257:     if (RdOff > WrOff) {
 257:.\utilities\src/segger_rtt.c ****       NumBytesToWrite = RdOff - WrOff - 1u;
 274              		.loc 1 257 0
 275 0060 9D42     		cmp	r5, r3	@ WrOff, RdOff
 276 0062 1FD2     		bcs	.L9	@,
 277              	.LVL27:
 278              	.L17:
 279              	@ .\utilities\src\segger_rtt.c:260:       NumBytesToWrite = pRing->SizeOfBuffer - (WrOff - RdOff + 
 260:.\utilities\src/segger_rtt.c ****     }
 280              		.loc 1 260 0
 281 0064 013B     		subs	r3, r3, #1	@ tmp129,
 282 0066 5B1B     		subs	r3, r3, r5	@ NumBytesToWrite, tmp129, WrOff
 283              	.LVL28:
 284              	@ .\utilities\src\segger_rtt.c:262:     NumBytesToWrite = MIN(NumBytesToWrite, (pRing->SizeOfBuffer
 262:.\utilities\src/segger_rtt.c ****     NumBytesToWrite = MIN(NumBytesToWrite, NumBytes);
ARM GAS  C:\Users\claym\AppData\Local\Temp\ccb01mZK.s 			page 13


 285              		.loc 1 262 0
 286 0068 641B     		subs	r4, r4, r5	@ NumBytes, pretmp_36, WrOff
 287              	.LVL29:
 288              	@ .\utilities\src\segger_rtt.c:263:     NumBytesToWrite = MIN(NumBytesToWrite, NumBytes);
 263:.\utilities\src/segger_rtt.c ****     memcpy(pRing->pBuffer + WrOff, pBuffer, NumBytesToWrite);
 289              		.loc 1 263 0
 290 006a BC42     		cmp	r4, r7	@ NumBytes, NumBytes
 291 006c 00D9     		bls	.L11	@,
 292 006e 3C00     		movs	r4, r7	@ NumBytes, NumBytes
 293              	.LVL30:
 294              	.L11:
 295 0070 9C42     		cmp	r4, r3	@ NumBytesToWrite, NumBytesToWrite
 296 0072 00D9     		bls	.L12	@,
 297 0074 1C00     		movs	r4, r3	@ NumBytesToWrite, NumBytesToWrite
 298              	.L12:
 299              	.LVL31:
 300              	@ .\utilities\src\segger_rtt.c:264:     memcpy(pRing->pBuffer + WrOff, pBuffer, NumBytesToWrite);
 264:.\utilities\src/segger_rtt.c ****     NumBytesWritten += NumBytesToWrite;
 301              		.loc 1 264 0
 302 0076 7368     		ldr	r3, [r6, #4]	@ tmp152, pRing_18(D)->pBuffer
 303 0078 2200     		movs	r2, r4	@, NumBytesToWrite
 304 007a 5819     		adds	r0, r3, r5	@ tmp132, tmp152, WrOff
 305 007c 0199     		ldr	r1, [sp, #4]	@, %sfp
 306 007e FFF7FEFF 		bl	memcpy	@
 307              	.LVL32:
 308              	@ .\utilities\src\segger_rtt.c:265:     NumBytesWritten += NumBytesToWrite;
 265:.\utilities\src/segger_rtt.c ****     pBuffer         += NumBytesToWrite;
 309              		.loc 1 265 0
 310 0082 009B     		ldr	r3, [sp]	@ <retval>, %sfp
 311              	@ .\utilities\src\segger_rtt.c:268:     WrOff           += NumBytesToWrite;
 268:.\utilities\src/segger_rtt.c ****     if (WrOff == pRing->SizeOfBuffer) {
 312              		.loc 1 268 0
 313 0084 2D19     		adds	r5, r5, r4	@ WrOff, WrOff, NumBytesToWrite
 314              	.LVL33:
 315              	@ .\utilities\src\segger_rtt.c:265:     NumBytesWritten += NumBytesToWrite;
 265:.\utilities\src/segger_rtt.c ****     pBuffer         += NumBytesToWrite;
 316              		.loc 1 265 0
 317 0086 1B19     		adds	r3, r3, r4	@ <retval>, <retval>, NumBytesToWrite
 318 0088 0093     		str	r3, [sp]	@ <retval>, %sfp
 319              	.LVL34:
 320              	@ .\utilities\src\segger_rtt.c:266:     pBuffer         += NumBytesToWrite;
 266:.\utilities\src/segger_rtt.c ****     NumBytes        -= NumBytesToWrite;
 321              		.loc 1 266 0
 322 008a 019B     		ldr	r3, [sp, #4]	@ pBuffer, %sfp
 323              	.LVL35:
 324              	@ .\utilities\src\segger_rtt.c:267:     NumBytes        -= NumBytesToWrite;
 267:.\utilities\src/segger_rtt.c ****     WrOff           += NumBytesToWrite;
 325              		.loc 1 267 0
 326 008c 3F1B     		subs	r7, r7, r4	@ NumBytes, NumBytes, NumBytesToWrite
 327              	.LVL36:
 328              	@ .\utilities\src\segger_rtt.c:266:     pBuffer         += NumBytesToWrite;
 266:.\utilities\src/segger_rtt.c ****     NumBytes        -= NumBytesToWrite;
 329              		.loc 1 266 0
 330 008e 1B19     		adds	r3, r3, r4	@ pBuffer, pBuffer, NumBytesToWrite
 331 0090 0193     		str	r3, [sp, #4]	@ pBuffer, %sfp
 332              	.LVL37:
 333              	@ .\utilities\src\segger_rtt.c:269:     if (WrOff == pRing->SizeOfBuffer) {
ARM GAS  C:\Users\claym\AppData\Local\Temp\ccb01mZK.s 			page 14


 269:.\utilities\src/segger_rtt.c ****       WrOff = 0u;
 334              		.loc 1 269 0
 335 0092 B368     		ldr	r3, [r6, #8]	@ tmp157, pRing_18(D)->SizeOfBuffer
 336              	.LVL38:
 337 0094 AB42     		cmp	r3, r5	@ tmp157, WrOff
 338 0096 00D1     		bne	.L13	@,
 339              	@ .\utilities\src\segger_rtt.c:270:       WrOff = 0u;
 270:.\utilities\src/segger_rtt.c ****     }
 340              		.loc 1 270 0
 341 0098 0025     		movs	r5, #0	@ WrOff,
 342              	.LVL39:
 343              	.L13:
 344              	@ .\utilities\src\segger_rtt.c:272:     pRing->WrOff = WrOff;
 272:.\utilities\src/segger_rtt.c ****   } while (NumBytes);
 345              		.loc 1 272 0
 346 009a F560     		str	r5, [r6, #12]	@ WrOff, pRing_18(D)->WrOff
 347              	@ .\utilities\src\segger_rtt.c:273:   } while (NumBytes);
 273:.\utilities\src/segger_rtt.c ****   //
 348              		.loc 1 273 0
 349 009c 002F     		cmp	r7, #0	@ NumBytes,
 350 009e DDD1     		bne	.L14	@,
 351              	@ .\utilities\src\segger_rtt.c:276: }
 276:.\utilities\src/segger_rtt.c **** 
 352              		.loc 1 276 0
 353 00a0 0098     		ldr	r0, [sp]	@, %sfp
 354              		@ sp needed	@
 355              	.LVL40:
 356              	.LVL41:
 357              	.LVL42:
 358              	.LVL43:
 359 00a2 FEBD     		pop	{r1, r2, r3, r4, r5, r6, r7, pc}
 360              	.LVL44:
 361              	.L9:
 362              	@ .\utilities\src\segger_rtt.c:260:       NumBytesToWrite = pRing->SizeOfBuffer - (WrOff - RdOff + 
 260:.\utilities\src/segger_rtt.c ****     }
 363              		.loc 1 260 0
 364 00a4 1B19     		adds	r3, r3, r4	@ tmp128, RdOff, pretmp_36
 365              	.LVL45:
 366 00a6 DDE7     		b	.L17	@
 367              		.cfi_endproc
 368              	.LFE1:
 369              		.size	_WriteBlocking, .-_WriteBlocking
 370              		.align	1
 371              		.syntax unified
 372              		.code	16
 373              		.thumb_func
 374              		.fpu softvfp
 375              		.type	_DoInit, %function
 376              	_DoInit:
 377              	.LFB0:
 176:.\utilities\src/segger_rtt.c ****   SEGGER_RTT_CB* p;
 378              		.loc 1 176 0
 379              		.cfi_startproc
 380              		@ args = 0, pretend = 0, frame = 0
 381              		@ frame_needed = 0, uses_anonymous_args = 0
 382              	.LVL46:
 383              	@ .\utilities\src\segger_rtt.c:182:   p->MaxNumUpBuffers    = SEGGER_RTT_MAX_NUM_UP_BUFFERS;
ARM GAS  C:\Users\claym\AppData\Local\Temp\ccb01mZK.s 			page 15


 182:.\utilities\src/segger_rtt.c ****   p->MaxNumDownBuffers  = SEGGER_RTT_MAX_NUM_DOWN_BUFFERS;
 384              		.loc 1 182 0
 385 00a8 0323     		movs	r3, #3	@ tmp111,
 386              	@ .\utilities\src\segger_rtt.c:176: static void _DoInit(void) {
 176:.\utilities\src/segger_rtt.c ****   SEGGER_RTT_CB* p;
 387              		.loc 1 176 0
 388 00aa 70B5     		push	{r4, r5, r6, lr}	@
 389              	.LCFI2:
 390              		.cfi_def_cfa_offset 16
 391              		.cfi_offset 4, -16
 392              		.cfi_offset 5, -12
 393              		.cfi_offset 6, -8
 394              		.cfi_offset 14, -4
 395              	@ .\utilities\src\segger_rtt.c:182:   p->MaxNumUpBuffers    = SEGGER_RTT_MAX_NUM_UP_BUFFERS;
 182:.\utilities\src/segger_rtt.c ****   p->MaxNumDownBuffers  = SEGGER_RTT_MAX_NUM_DOWN_BUFFERS;
 396              		.loc 1 182 0
 397 00ac 1C4C     		ldr	r4, .L19	@ tmp110,
 398              	@ .\utilities\src\segger_rtt.c:198:   p->aDown[0].SizeOfBuffer  = sizeof(_acDownBuffer);
 198:.\utilities\src/segger_rtt.c ****   p->aDown[0].RdOff         = 0u;
 399              		.loc 1 198 0
 400 00ae 1021     		movs	r1, #16	@ tmp131,
 401              	@ .\utilities\src\segger_rtt.c:182:   p->MaxNumUpBuffers    = SEGGER_RTT_MAX_NUM_UP_BUFFERS;
 182:.\utilities\src/segger_rtt.c ****   p->MaxNumDownBuffers  = SEGGER_RTT_MAX_NUM_DOWN_BUFFERS;
 402              		.loc 1 182 0
 403 00b0 2361     		str	r3, [r4, #16]	@ tmp111, _SEGGER_RTT.MaxNumUpBuffers
 404              	@ .\utilities\src\segger_rtt.c:183:   p->MaxNumDownBuffers  = SEGGER_RTT_MAX_NUM_DOWN_BUFFERS;
 183:.\utilities\src/segger_rtt.c ****   //
 405              		.loc 1 183 0
 406 00b2 6361     		str	r3, [r4, #20]	@ tmp111, _SEGGER_RTT.MaxNumDownBuffers
 407              	@ .\utilities\src\segger_rtt.c:188:   p->aUp[0].pBuffer       = _acUpBuffer;
 188:.\utilities\src/segger_rtt.c ****   p->aUp[0].SizeOfBuffer  = sizeof(_acUpBuffer);
 408              		.loc 1 188 0
 409 00b4 1B4B     		ldr	r3, .L19+4	@ tmp117,
 410              	@ .\utilities\src\segger_rtt.c:187:   p->aUp[0].sName         = "Terminal";
 187:.\utilities\src/segger_rtt.c ****   p->aUp[0].pBuffer       = _acUpBuffer;
 411              		.loc 1 187 0
 412 00b6 1C4A     		ldr	r2, .L19+8	@ tmp115,
 413              	@ .\utilities\src\segger_rtt.c:188:   p->aUp[0].pBuffer       = _acUpBuffer;
 188:.\utilities\src/segger_rtt.c ****   p->aUp[0].SizeOfBuffer  = sizeof(_acUpBuffer);
 414              		.loc 1 188 0
 415 00b8 E361     		str	r3, [r4, #28]	@ tmp117, _SEGGER_RTT.aUp[0].pBuffer
 416              	@ .\utilities\src\segger_rtt.c:189:   p->aUp[0].SizeOfBuffer  = sizeof(_acUpBuffer);
 189:.\utilities\src/segger_rtt.c ****   p->aUp[0].RdOff         = 0u;
 417              		.loc 1 189 0
 418 00ba 8023     		movs	r3, #128	@ tmp119,
 419              	@ .\utilities\src\segger_rtt.c:187:   p->aUp[0].sName         = "Terminal";
 187:.\utilities\src/segger_rtt.c ****   p->aUp[0].pBuffer       = _acUpBuffer;
 420              		.loc 1 187 0
 421 00bc A261     		str	r2, [r4, #24]	@ tmp115, _SEGGER_RTT.aUp[0].sName
 422              	@ .\utilities\src\segger_rtt.c:196:   p->aDown[0].sName         = "Terminal";
 196:.\utilities\src/segger_rtt.c ****   p->aDown[0].pBuffer       = _acDownBuffer;
 423              		.loc 1 196 0
 424 00be 2266     		str	r2, [r4, #96]	@ tmp115, _SEGGER_RTT.aDown[0].sName
 425              	@ .\utilities\src\segger_rtt.c:197:   p->aDown[0].pBuffer       = _acDownBuffer;
 197:.\utilities\src/segger_rtt.c ****   p->aDown[0].SizeOfBuffer  = sizeof(_acDownBuffer);
 426              		.loc 1 197 0
 427 00c0 1A4A     		ldr	r2, .L19+12	@ tmp129,
ARM GAS  C:\Users\claym\AppData\Local\Temp\ccb01mZK.s 			page 16


 428              	@ .\utilities\src\segger_rtt.c:189:   p->aUp[0].SizeOfBuffer  = sizeof(_acUpBuffer);
 189:.\utilities\src/segger_rtt.c ****   p->aUp[0].RdOff         = 0u;
 429              		.loc 1 189 0
 430 00c2 DB00     		lsls	r3, r3, #3	@ tmp119, tmp119,
 431              	@ .\utilities\src\segger_rtt.c:197:   p->aDown[0].pBuffer       = _acDownBuffer;
 197:.\utilities\src/segger_rtt.c ****   p->aDown[0].SizeOfBuffer  = sizeof(_acDownBuffer);
 432              		.loc 1 197 0
 433 00c4 6266     		str	r2, [r4, #100]	@ tmp129, _SEGGER_RTT.aDown[0].pBuffer
 434              	@ .\utilities\src\segger_rtt.c:211: 	p->aDown[1].pBuffer					= (char *)_scopeDownBuffer; 
 211:.\utilities\src/segger_rtt.c **** 	p->aDown[1].SizeOfBuffer  	= sizeof(_scopeDownBuffer);
 435              		.loc 1 211 0
 436 00c6 5218     		adds	r2, r2, r1	@ tmp154, tmp129,
 437 00c8 E267     		str	r2, [r4, #124]	@ tmp154, _SEGGER_RTT.aDown[1].pBuffer
 438              	@ .\utilities\src\segger_rtt.c:212: 	p->aDown[1].SizeOfBuffer  	= sizeof(_scopeDownBuffer);
 212:.\utilities\src/segger_rtt.c ****   p->aDown[1].RdOff         	= 0u;
 439              		.loc 1 212 0
 440 00ca 221D     		adds	r2, r4, #4	@ tmp156, tmp110,
 441 00cc D167     		str	r1, [r2, #124]	@ tmp131, _SEGGER_RTT.aDown[1].SizeOfBuffer
 442              	@ .\utilities\src\segger_rtt.c:213:   p->aDown[1].RdOff         	= 0u;
 213:.\utilities\src/segger_rtt.c ****   p->aDown[1].WrOff         	= 0u;
 443              		.loc 1 213 0
 444 00ce 2200     		movs	r2, r4	@ tmp159, tmp110
 445              	@ .\utilities\src\segger_rtt.c:189:   p->aUp[0].SizeOfBuffer  = sizeof(_acUpBuffer);
 189:.\utilities\src/segger_rtt.c ****   p->aUp[0].RdOff         = 0u;
 446              		.loc 1 189 0
 447 00d0 2362     		str	r3, [r4, #32]	@ tmp119, _SEGGER_RTT.aUp[0].SizeOfBuffer
 448              	@ .\utilities\src\segger_rtt.c:190:   p->aUp[0].RdOff         = 0u;
 190:.\utilities\src/segger_rtt.c ****   p->aUp[0].WrOff         = 0u;
 449              		.loc 1 190 0
 450 00d2 0023     		movs	r3, #0	@ tmp121,
 451              	@ .\utilities\src\segger_rtt.c:204: 	p->aUp[1].pBuffer					= (char *)_scopeUpBuffer; 
 204:.\utilities\src/segger_rtt.c **** 	p->aUp[1].SizeOfBuffer  	= sizeof(_scopeUpBuffer);
 452              		.loc 1 204 0
 453 00d4 164D     		ldr	r5, .L19+16	@ tmp141,
 454              	@ .\utilities\src\segger_rtt.c:213:   p->aDown[1].RdOff         	= 0u;
 213:.\utilities\src/segger_rtt.c ****   p->aDown[1].WrOff         	= 0u;
 455              		.loc 1 213 0
 456 00d6 0832     		adds	r2, r2, #8	@ tmp159,
 457              	@ .\utilities\src\segger_rtt.c:190:   p->aUp[0].RdOff         = 0u;
 190:.\utilities\src/segger_rtt.c ****   p->aUp[0].WrOff         = 0u;
 458              		.loc 1 190 0
 459 00d8 A362     		str	r3, [r4, #40]	@ tmp121, _SEGGER_RTT.aUp[0].RdOff
 460              	@ .\utilities\src\segger_rtt.c:198:   p->aDown[0].SizeOfBuffer  = sizeof(_acDownBuffer);
 198:.\utilities\src/segger_rtt.c ****   p->aDown[0].RdOff         = 0u;
 461              		.loc 1 198 0
 462 00da A166     		str	r1, [r4, #104]	@ tmp131, _SEGGER_RTT.aDown[0].SizeOfBuffer
 463              	@ .\utilities\src\segger_rtt.c:200:   p->aDown[0].WrOff         = 0u;
 200:.\utilities\src/segger_rtt.c ****   p->aDown[0].Flags         = SEGGER_RTT_MODE_DEFAULT;
 464              		.loc 1 200 0
 465 00dc E366     		str	r3, [r4, #108]	@ tmp121, _SEGGER_RTT.aDown[0].WrOff
 466              	@ .\utilities\src\segger_rtt.c:204: 	p->aUp[1].pBuffer					= (char *)_scopeUpBuffer; 
 204:.\utilities\src/segger_rtt.c **** 	p->aUp[1].SizeOfBuffer  	= sizeof(_scopeUpBuffer);
 467              		.loc 1 204 0
 468 00de 6563     		str	r5, [r4, #52]	@ tmp141, _SEGGER_RTT.aUp[1].pBuffer
 469              	@ .\utilities\src\segger_rtt.c:206:   p->aUp[1].RdOff         	= 0u;
 206:.\utilities\src/segger_rtt.c ****   p->aUp[1].WrOff         	= 0u;
 470              		.loc 1 206 0
ARM GAS  C:\Users\claym\AppData\Local\Temp\ccb01mZK.s 			page 17


 471 00e0 2364     		str	r3, [r4, #64]	@ tmp121, _SEGGER_RTT.aUp[1].RdOff
 472              	@ .\utilities\src\segger_rtt.c:213:   p->aDown[1].RdOff         	= 0u;
 213:.\utilities\src/segger_rtt.c ****   p->aDown[1].WrOff         	= 0u;
 473              		.loc 1 213 0
 474 00e2 2100     		movs	r1, r4	@ tmp161, tmp110
 475              	@ .\utilities\src\segger_rtt.c:214:   p->aDown[1].WrOff         	= 0u;
 214:.\utilities\src/segger_rtt.c ****   p->aDown[1].Flags         	= SEGGER_RTT_MODE_DEFAULT;
 476              		.loc 1 214 0
 477 00e4 D367     		str	r3, [r2, #124]	@ tmp121, _SEGGER_RTT.aDown[1].WrOff
 478              	@ .\utilities\src\segger_rtt.c:205: 	p->aUp[1].SizeOfBuffer  	= sizeof(_scopeUpBuffer);
 205:.\utilities\src/segger_rtt.c ****   p->aUp[1].RdOff         	= 0u;
 479              		.loc 1 205 0
 480 00e6 8025     		movs	r5, #128	@ tmp143,
 481              	@ .\utilities\src\segger_rtt.c:215:   p->aDown[1].Flags         	= SEGGER_RTT_MODE_DEFAULT;
 215:.\utilities\src/segger_rtt.c ****   //
 482              		.loc 1 215 0
 483 00e8 2200     		movs	r2, r4	@ tmp169, tmp110
 484              	@ .\utilities\src\segger_rtt.c:203: 	p->aUp[1].sName						= "JScope_u1"; 
 203:.\utilities\src/segger_rtt.c **** 	p->aUp[1].pBuffer					= (char *)_scopeUpBuffer; 
 485              		.loc 1 203 0
 486 00ea 1248     		ldr	r0, .L19+20	@ tmp139,
 487              	@ .\utilities\src\segger_rtt.c:215:   p->aDown[1].Flags         	= SEGGER_RTT_MODE_DEFAULT;
 215:.\utilities\src/segger_rtt.c ****   //
 488              		.loc 1 215 0
 489 00ec 8C32     		adds	r2, r2, #140	@ tmp169,
 490              	@ .\utilities\src\segger_rtt.c:205: 	p->aUp[1].SizeOfBuffer  	= sizeof(_scopeUpBuffer);
 205:.\utilities\src/segger_rtt.c ****   p->aUp[1].RdOff         	= 0u;
 491              		.loc 1 205 0
 492 00ee 2D01     		lsls	r5, r5, #4	@ tmp143, tmp143,
 493              	@ .\utilities\src\segger_rtt.c:213:   p->aDown[1].RdOff         	= 0u;
 213:.\utilities\src/segger_rtt.c ****   p->aDown[1].WrOff         	= 0u;
 494              		.loc 1 213 0
 495 00f0 8831     		adds	r1, r1, #136	@ tmp161,
 496              	@ .\utilities\src\segger_rtt.c:191:   p->aUp[0].WrOff         = 0u;
 191:.\utilities\src/segger_rtt.c ****   p->aUp[0].Flags         = SEGGER_RTT_MODE_DEFAULT;
 497              		.loc 1 191 0
 498 00f2 6362     		str	r3, [r4, #36]	@ tmp121, _SEGGER_RTT.aUp[0].WrOff
 499              	@ .\utilities\src\segger_rtt.c:192:   p->aUp[0].Flags         = SEGGER_RTT_MODE_DEFAULT;
 192:.\utilities\src/segger_rtt.c ****   //
 500              		.loc 1 192 0
 501 00f4 E362     		str	r3, [r4, #44]	@ tmp121, _SEGGER_RTT.aUp[0].Flags
 502              	@ .\utilities\src\segger_rtt.c:199:   p->aDown[0].RdOff         = 0u;
 199:.\utilities\src/segger_rtt.c ****   p->aDown[0].WrOff         = 0u;
 503              		.loc 1 199 0
 504 00f6 2367     		str	r3, [r4, #112]	@ tmp121, _SEGGER_RTT.aDown[0].RdOff
 505              	@ .\utilities\src\segger_rtt.c:201:   p->aDown[0].Flags         = SEGGER_RTT_MODE_DEFAULT;
 201:.\utilities\src/segger_rtt.c **** 	
 506              		.loc 1 201 0
 507 00f8 6367     		str	r3, [r4, #116]	@ tmp121, _SEGGER_RTT.aDown[0].Flags
 508              	@ .\utilities\src\segger_rtt.c:207:   p->aUp[1].WrOff         	= 0u;
 207:.\utilities\src/segger_rtt.c ****   p->aUp[1].Flags         	= SEGGER_RTT_MODE_DEFAULT;
 509              		.loc 1 207 0
 510 00fa E363     		str	r3, [r4, #60]	@ tmp121, _SEGGER_RTT.aUp[1].WrOff
 511              	@ .\utilities\src\segger_rtt.c:208:   p->aUp[1].Flags         	= SEGGER_RTT_MODE_DEFAULT;
 208:.\utilities\src/segger_rtt.c **** 	
 512              		.loc 1 208 0
 513 00fc 6364     		str	r3, [r4, #68]	@ tmp121, _SEGGER_RTT.aUp[1].Flags
ARM GAS  C:\Users\claym\AppData\Local\Temp\ccb01mZK.s 			page 18


 514              	@ .\utilities\src\segger_rtt.c:213:   p->aDown[1].RdOff         	= 0u;
 213:.\utilities\src/segger_rtt.c ****   p->aDown[1].WrOff         	= 0u;
 515              		.loc 1 213 0
 516 00fe 0B60     		str	r3, [r1]	@ tmp121, _SEGGER_RTT.aDown[1].RdOff
 517              	@ .\utilities\src\segger_rtt.c:203: 	p->aUp[1].sName						= "JScope_u1"; 
 203:.\utilities\src/segger_rtt.c **** 	p->aUp[1].pBuffer					= (char *)_scopeUpBuffer; 
 518              		.loc 1 203 0
 519 0100 2063     		str	r0, [r4, #48]	@ tmp139, _SEGGER_RTT.aUp[1].sName
 520              	@ .\utilities\src\segger_rtt.c:205: 	p->aUp[1].SizeOfBuffer  	= sizeof(_scopeUpBuffer);
 205:.\utilities\src/segger_rtt.c ****   p->aUp[1].RdOff         	= 0u;
 521              		.loc 1 205 0
 522 0102 A563     		str	r5, [r4, #56]	@ tmp143, _SEGGER_RTT.aUp[1].SizeOfBuffer
 523              	@ .\utilities\src\segger_rtt.c:210: 	p->aDown[1].sName						= "JScope_u1"; 
 210:.\utilities\src/segger_rtt.c **** 	p->aDown[1].pBuffer					= (char *)_scopeDownBuffer; 
 524              		.loc 1 210 0
 525 0104 A067     		str	r0, [r4, #120]	@ tmp139, _SEGGER_RTT.aDown[1].sName
 526              	@ .\utilities\src\segger_rtt.c:215:   p->aDown[1].Flags         	= SEGGER_RTT_MODE_DEFAULT;
 215:.\utilities\src/segger_rtt.c ****   //
 527              		.loc 1 215 0
 528 0106 1360     		str	r3, [r2]	@ tmp121, _SEGGER_RTT.aDown[1].Flags
 529              	@ .\utilities\src\segger_rtt.c:221:   strcpy(&p->acID[7], "RTT");
 221:.\utilities\src/segger_rtt.c ****   strcpy(&p->acID[0], "SEGGER");
 530              		.loc 1 221 0
 531 0108 0B49     		ldr	r1, .L19+24	@,
 532 010a 0C48     		ldr	r0, .L19+28	@,
 533 010c FFF7FEFF 		bl	strcpy	@
 534              	.LVL47:
 535              	@ .\utilities\src\segger_rtt.c:222:   strcpy(&p->acID[0], "SEGGER");
 222:.\utilities\src/segger_rtt.c ****   p->acID[6] = ' ';
 536              		.loc 1 222 0
 537 0110 0B49     		ldr	r1, .L19+32	@,
 538 0112 2000     		movs	r0, r4	@, tmp110
 539 0114 FFF7FEFF 		bl	strcpy	@
 540              	.LVL48:
 541              	@ .\utilities\src\segger_rtt.c:223:   p->acID[6] = ' ';
 223:.\utilities\src/segger_rtt.c **** }
 542              		.loc 1 223 0
 543 0118 2023     		movs	r3, #32	@ tmp176,
 544              	@ .\utilities\src\segger_rtt.c:224: }
 224:.\utilities\src/segger_rtt.c **** 
 545              		.loc 1 224 0
 546              		@ sp needed	@
 547              	@ .\utilities\src\segger_rtt.c:223:   p->acID[6] = ' ';
 223:.\utilities\src/segger_rtt.c **** }
 548              		.loc 1 223 0
 549 011a A371     		strb	r3, [r4, #6]	@ tmp176, _SEGGER_RTT.acID
 550              	@ .\utilities\src\segger_rtt.c:224: }
 224:.\utilities\src/segger_rtt.c **** 
 551              		.loc 1 224 0
 552 011c 70BD     		pop	{r4, r5, r6, pc}
 553              	.L20:
 554 011e C046     		.align	2
 555              	.L19:
 556 0120 00000000 		.word	_SEGGER_RTT
 557 0124 21080000 		.word	_acUpBuffer
 558 0128 00000000 		.word	.LC1
 559 012c 00000000 		.word	.LANCHOR0
ARM GAS  C:\Users\claym\AppData\Local\Temp\ccb01mZK.s 			page 19


 560 0130 21000000 		.word	_scopeUpBuffer
 561 0134 09000000 		.word	.LC5
 562 0138 13000000 		.word	.LC8
 563 013c 07000000 		.word	_SEGGER_RTT+7
 564 0140 17000000 		.word	.LC11
 565              		.cfi_endproc
 566              	.LFE0:
 567              		.size	_DoInit, .-_DoInit
 568              		.align	1
 569              		.syntax unified
 570              		.code	16
 571              		.thumb_func
 572              		.fpu softvfp
 573              		.type	_PostTerminalSwitch.constprop.0, %function
 574              	_PostTerminalSwitch.constprop.0:
 575              	.LFB24:
 334:.\utilities\src/segger_rtt.c ****   char ac[2];
 576              		.loc 1 334 0
 577              		.cfi_startproc
 578              		@ args = 0, pretend = 0, frame = 8
 579              		@ frame_needed = 0, uses_anonymous_args = 0
 580              	.LVL49:
 581              	@ .\utilities\src\segger_rtt.c:337:   ac[0] = 0xFFu;
 337:.\utilities\src/segger_rtt.c ****   ac[1] = _aTerminalId[TerminalId];  // Caller made already sure that TerminalId does not exceed ou
 582              		.loc 1 337 0
 583 0144 FF23     		movs	r3, #255	@ tmp114,
 584              	@ .\utilities\src\segger_rtt.c:334: static void _PostTerminalSwitch(SEGGER_RTT_BUFFER_UP* pRing, un
 334:.\utilities\src/segger_rtt.c ****   char ac[2];
 585              		.loc 1 334 0
 586 0146 07B5     		push	{r0, r1, r2, lr}	@
 587              	.LCFI3:
 588              		.cfi_def_cfa_offset 16
 589              		.cfi_offset 0, -16
 590              		.cfi_offset 1, -12
 591              		.cfi_offset 2, -8
 592              		.cfi_offset 14, -4
 593              	@ .\utilities\src\segger_rtt.c:337:   ac[0] = 0xFFu;
 337:.\utilities\src/segger_rtt.c ****   ac[1] = _aTerminalId[TerminalId];  // Caller made already sure that TerminalId does not exceed ou
 594              		.loc 1 337 0
 595 0148 01A9     		add	r1, sp, #4	@ tmp113,,
 596 014a 0B70     		strb	r3, [r1]	@ tmp114, ac
 597              	@ .\utilities\src\segger_rtt.c:338:   ac[1] = _aTerminalId[TerminalId];  // Caller made already sur
 338:.\utilities\src/segger_rtt.c ****   _WriteBlocking(pRing, ac, 2u);
 598              		.loc 1 338 0
 599 014c 034B     		ldr	r3, .L22	@ tmp117,
 600              	@ .\utilities\src\segger_rtt.c:339:   _WriteBlocking(pRing, ac, 2u);
 339:.\utilities\src/segger_rtt.c **** }
 601              		.loc 1 339 0
 602 014e 0222     		movs	r2, #2	@,
 603              	@ .\utilities\src\segger_rtt.c:338:   ac[1] = _aTerminalId[TerminalId];  // Caller made already sur
 338:.\utilities\src/segger_rtt.c ****   _WriteBlocking(pRing, ac, 2u);
 604              		.loc 1 338 0
 605 0150 1B5C     		ldrb	r3, [r3, r0]	@ tmp118, _aTerminalId
 606              	@ .\utilities\src\segger_rtt.c:339:   _WriteBlocking(pRing, ac, 2u);
 339:.\utilities\src/segger_rtt.c **** }
 607              		.loc 1 339 0
 608 0152 0348     		ldr	r0, .L22+4	@,
ARM GAS  C:\Users\claym\AppData\Local\Temp\ccb01mZK.s 			page 20


 609              	.LVL50:
 610              	@ .\utilities\src\segger_rtt.c:338:   ac[1] = _aTerminalId[TerminalId];  // Caller made already sur
 338:.\utilities\src/segger_rtt.c ****   _WriteBlocking(pRing, ac, 2u);
 611              		.loc 1 338 0
 612 0154 4B70     		strb	r3, [r1, #1]	@ tmp118, ac
 613              	@ .\utilities\src\segger_rtt.c:340: }
 340:.\utilities\src/segger_rtt.c **** 
 614              		.loc 1 340 0
 615              		@ sp needed	@
 616              	@ .\utilities\src\segger_rtt.c:339:   _WriteBlocking(pRing, ac, 2u);
 339:.\utilities\src/segger_rtt.c **** }
 617              		.loc 1 339 0
 618 0156 FFF77AFF 		bl	_WriteBlocking	@
 619              	.LVL51:
 620              	@ .\utilities\src\segger_rtt.c:340: }
 340:.\utilities\src/segger_rtt.c **** 
 621              		.loc 1 340 0
 622 015a 07BD     		pop	{r0, r1, r2, pc}
 623              	.L23:
 624              		.align	2
 625              	.L22:
 626 015c 00000000 		.word	.LANCHOR1
 627 0160 18000000 		.word	_SEGGER_RTT+24
 628              		.cfi_endproc
 629              	.LFE24:
 630              		.size	_PostTerminalSwitch.constprop.0, .-_PostTerminalSwitch.constprop.0
 631              		.align	1
 632              		.global	SEGGER_RTT_ReadNoLock
 633              		.syntax unified
 634              		.code	16
 635              		.thumb_func
 636              		.fpu softvfp
 637              		.type	SEGGER_RTT_ReadNoLock, %function
 638              	SEGGER_RTT_ReadNoLock:
 639              	.LFB5:
 373:.\utilities\src/segger_rtt.c **** 
 374:.\utilities\src/segger_rtt.c **** /*********************************************************************
 375:.\utilities\src/segger_rtt.c **** *
 376:.\utilities\src/segger_rtt.c **** *       Public code
 377:.\utilities\src/segger_rtt.c **** *
 378:.\utilities\src/segger_rtt.c **** **********************************************************************
 379:.\utilities\src/segger_rtt.c **** */
 380:.\utilities\src/segger_rtt.c **** /*********************************************************************
 381:.\utilities\src/segger_rtt.c **** *
 382:.\utilities\src/segger_rtt.c **** *       SEGGER_RTT_ReadNoLock()
 383:.\utilities\src/segger_rtt.c **** *
 384:.\utilities\src/segger_rtt.c **** *  Function description
 385:.\utilities\src/segger_rtt.c **** *    Reads characters from SEGGER real-time-terminal control block
 386:.\utilities\src/segger_rtt.c **** *    which have been previously stored by the host.
 387:.\utilities\src/segger_rtt.c **** *    Do not lock against interrupts and multiple access.
 388:.\utilities\src/segger_rtt.c **** *
 389:.\utilities\src/segger_rtt.c **** *  Parameters
 390:.\utilities\src/segger_rtt.c **** *    BufferIndex  Index of Down-buffer to be used (e.g. 0 for "Terminal").
 391:.\utilities\src/segger_rtt.c **** *    pBuffer      Pointer to buffer provided by target application, to copy characters from RTT-dow
 392:.\utilities\src/segger_rtt.c **** *    BufferSize   Size of the target application buffer.
 393:.\utilities\src/segger_rtt.c **** *
 394:.\utilities\src/segger_rtt.c **** *  Return value
ARM GAS  C:\Users\claym\AppData\Local\Temp\ccb01mZK.s 			page 21


 395:.\utilities\src/segger_rtt.c **** *    Number of bytes that have been read.
 396:.\utilities\src/segger_rtt.c **** */
 397:.\utilities\src/segger_rtt.c **** unsigned SEGGER_RTT_ReadNoLock(unsigned BufferIndex, void* pData, unsigned BufferSize) {
 640              		.loc 1 397 0
 641              		.cfi_startproc
 642              		@ args = 0, pretend = 0, frame = 16
 643              		@ frame_needed = 0, uses_anonymous_args = 0
 644              	.LVL52:
 645 0164 F0B5     		push	{r4, r5, r6, r7, lr}	@
 646              	.LCFI4:
 647              		.cfi_def_cfa_offset 20
 648              		.cfi_offset 4, -20
 649              		.cfi_offset 5, -16
 650              		.cfi_offset 6, -12
 651              		.cfi_offset 7, -8
 652              		.cfi_offset 14, -4
 653              	@ .\utilities\src\segger_rtt.c:405:   INIT();
 398:.\utilities\src/segger_rtt.c ****   unsigned                NumBytesRem;
 399:.\utilities\src/segger_rtt.c ****   unsigned                NumBytesRead;
 400:.\utilities\src/segger_rtt.c ****   unsigned                RdOff;
 401:.\utilities\src/segger_rtt.c ****   unsigned                WrOff;
 402:.\utilities\src/segger_rtt.c ****   unsigned char*          pBuffer;
 403:.\utilities\src/segger_rtt.c ****   SEGGER_RTT_BUFFER_DOWN* pRing;
 404:.\utilities\src/segger_rtt.c ****   //
 405:.\utilities\src/segger_rtt.c ****   INIT();
 654              		.loc 1 405 0
 655 0166 274B     		ldr	r3, .L38	@ tmp196,
 656              	@ .\utilities\src\segger_rtt.c:397: unsigned SEGGER_RTT_ReadNoLock(unsigned BufferIndex, void* pDat
 397:.\utilities\src/segger_rtt.c ****   unsigned                NumBytesRem;
 657              		.loc 1 397 0
 658 0168 85B0     		sub	sp, sp, #20	@,,
 659              	.LCFI5:
 660              		.cfi_def_cfa_offset 40
 661              	@ .\utilities\src\segger_rtt.c:405:   INIT();
 662              		.loc 1 405 0
 663 016a 1B78     		ldrb	r3, [r3]	@ _SEGGER_RTT, _SEGGER_RTT
 664              	@ .\utilities\src\segger_rtt.c:397: unsigned SEGGER_RTT_ReadNoLock(unsigned BufferIndex, void* pDat
 397:.\utilities\src/segger_rtt.c ****   unsigned                NumBytesRem;
 665              		.loc 1 397 0
 666 016c 0190     		str	r0, [sp, #4]	@ BufferIndex, %sfp
 667 016e 0291     		str	r1, [sp, #8]	@ pData, %sfp
 668 0170 1500     		movs	r5, r2	@ BufferSize, BufferSize
 669              	@ .\utilities\src\segger_rtt.c:405:   INIT();
 670              		.loc 1 405 0
 671 0172 002B     		cmp	r3, #0	@ _SEGGER_RTT,
 672 0174 01D1     		bne	.L25	@,
 673              	@ .\utilities\src\segger_rtt.c:405:   INIT();
 674              		.loc 1 405 0 is_stmt 0 discriminator 1
 675 0176 FFF797FF 		bl	_DoInit	@
 676              	.LVL53:
 677              	.L25:
 678              	@ .\utilities\src\segger_rtt.c:408:   RdOff = pRing->RdOff;
 406:.\utilities\src/segger_rtt.c ****   pRing = &_SEGGER_RTT.aDown[BufferIndex];
 407:.\utilities\src/segger_rtt.c ****   pBuffer = (unsigned char*)pData;
 408:.\utilities\src/segger_rtt.c ****   RdOff = pRing->RdOff;
 679              		.loc 1 408 0 is_stmt 1
 680 017a 1823     		movs	r3, #24	@ tmp129,
ARM GAS  C:\Users\claym\AppData\Local\Temp\ccb01mZK.s 			page 22


 681 017c 019A     		ldr	r2, [sp, #4]	@ BufferIndex, %sfp
 682              	@ .\utilities\src\segger_rtt.c:410:   NumBytesRead = 0u;
 409:.\utilities\src/segger_rtt.c ****   WrOff = pRing->WrOff;
 410:.\utilities\src/segger_rtt.c ****   NumBytesRead = 0u;
 683              		.loc 1 410 0
 684 017e 0026     		movs	r6, #0	@ <retval>,
 685              	@ .\utilities\src\segger_rtt.c:408:   RdOff = pRing->RdOff;
 408:.\utilities\src/segger_rtt.c ****   WrOff = pRing->WrOff;
 686              		.loc 1 408 0
 687 0180 5343     		muls	r3, r2	@ tmp130, BufferIndex
 688 0182 204A     		ldr	r2, .L38	@ tmp198,
 689 0184 D318     		adds	r3, r2, r3	@ tmp131, tmp198, tmp130
 690              	@ .\utilities\src\segger_rtt.c:409:   WrOff = pRing->WrOff;
 409:.\utilities\src/segger_rtt.c ****   WrOff = pRing->WrOff;
 691              		.loc 1 409 0
 692 0186 DA6E     		ldr	r2, [r3, #108]	@ WrOff, MEM[(struct SEGGER_RTT_BUFFER_DOWN *)&_SEGGER_RTT].aDown[BufferIndex_2
 693              	@ .\utilities\src\segger_rtt.c:408:   RdOff = pRing->RdOff;
 408:.\utilities\src/segger_rtt.c ****   WrOff = pRing->WrOff;
 694              		.loc 1 408 0
 695 0188 1C6F     		ldr	r4, [r3, #112]	@ RdOff, MEM[(struct SEGGER_RTT_BUFFER_DOWN *)&_SEGGER_RTT].aDown[BufferIndex_2
 696              	.LVL54:
 697              	@ .\utilities\src\segger_rtt.c:409:   WrOff = pRing->WrOff;
 409:.\utilities\src/segger_rtt.c ****   WrOff = pRing->WrOff;
 698              		.loc 1 409 0
 699 018a 0392     		str	r2, [sp, #12]	@ WrOff, %sfp
 700              	.LVL55:
 701              	@ .\utilities\src\segger_rtt.c:414:   if (RdOff > WrOff) {
 411:.\utilities\src/segger_rtt.c ****   //
 412:.\utilities\src/segger_rtt.c ****   // Read from current read position to wrap-around of buffer, first
 413:.\utilities\src/segger_rtt.c ****   //
 414:.\utilities\src/segger_rtt.c ****   if (RdOff > WrOff) {
 702              		.loc 1 414 0
 703 018c 9442     		cmp	r4, r2	@ RdOff, WrOff
 704 018e 19D9     		bls	.L26	@,
 705              	@ .\utilities\src\segger_rtt.c:415:     NumBytesRem = pRing->SizeOfBuffer - RdOff;
 415:.\utilities\src/segger_rtt.c ****     NumBytesRem = pRing->SizeOfBuffer - RdOff;
 706              		.loc 1 415 0
 707 0190 9B6E     		ldr	r3, [r3, #104]	@ MEM[(struct SEGGER_RTT_BUFFER_DOWN *)&_SEGGER_RTT].aDown[BufferIndex_20(D)].S
 708              	@ .\utilities\src\segger_rtt.c:416:     NumBytesRem = MIN(NumBytesRem, BufferSize);
 416:.\utilities\src/segger_rtt.c ****     NumBytesRem = MIN(NumBytesRem, BufferSize);
 709              		.loc 1 416 0
 710 0192 2E00     		movs	r6, r5	@ <retval>, BufferSize
 711              	@ .\utilities\src\segger_rtt.c:415:     NumBytesRem = pRing->SizeOfBuffer - RdOff;
 415:.\utilities\src/segger_rtt.c ****     NumBytesRem = pRing->SizeOfBuffer - RdOff;
 712              		.loc 1 415 0
 713 0194 1B1B     		subs	r3, r3, r4	@ NumBytesRem, MEM[(struct SEGGER_RTT_BUFFER_DOWN *)&_SEGGER_RTT].aDown[BufferInde
 714              	.LVL56:
 715              	@ .\utilities\src\segger_rtt.c:416:     NumBytesRem = MIN(NumBytesRem, BufferSize);
 716              		.loc 1 416 0
 717 0196 9D42     		cmp	r5, r3	@ BufferSize, NumBytesRem
 718 0198 00D9     		bls	.L27	@,
 719 019a 1E00     		movs	r6, r3	@ <retval>, NumBytesRem
 720              	.L27:
 721              	.LVL57:
 722              	@ .\utilities\src\segger_rtt.c:417:     memcpy(pBuffer, pRing->pBuffer + RdOff, NumBytesRem);
 417:.\utilities\src/segger_rtt.c ****     memcpy(pBuffer, pRing->pBuffer + RdOff, NumBytesRem);
 723              		.loc 1 417 0
ARM GAS  C:\Users\claym\AppData\Local\Temp\ccb01mZK.s 			page 23


 724 019c 1827     		movs	r7, #24	@ tmp145,
 725 019e 019B     		ldr	r3, [sp, #4]	@ BufferIndex, %sfp
 726 01a0 3200     		movs	r2, r6	@, <retval>
 727              	.LVL58:
 728 01a2 5F43     		muls	r7, r3	@ tmp146, BufferIndex
 729 01a4 174B     		ldr	r3, .L38	@ tmp203,
 730 01a6 0298     		ldr	r0, [sp, #8]	@, %sfp
 731 01a8 DF19     		adds	r7, r3, r7	@ tmp147, tmp203, tmp146
 732 01aa 7B6E     		ldr	r3, [r7, #100]	@ tmp204, MEM[(struct SEGGER_RTT_BUFFER_DOWN *)&_SEGGER_RTT].aDown[BufferIndex_
 733              	@ .\utilities\src\segger_rtt.c:420:     BufferSize   -= NumBytesRem;
 418:.\utilities\src/segger_rtt.c ****     NumBytesRead += NumBytesRem;
 419:.\utilities\src/segger_rtt.c ****     pBuffer      += NumBytesRem;
 420:.\utilities\src/segger_rtt.c ****     BufferSize   -= NumBytesRem;
 734              		.loc 1 420 0
 735 01ac AD1B     		subs	r5, r5, r6	@ BufferSize, BufferSize, <retval>
 736              	.LVL59:
 737              	@ .\utilities\src\segger_rtt.c:417:     memcpy(pBuffer, pRing->pBuffer + RdOff, NumBytesRem);
 417:.\utilities\src/segger_rtt.c ****     memcpy(pBuffer, pRing->pBuffer + RdOff, NumBytesRem);
 738              		.loc 1 417 0
 739 01ae 1919     		adds	r1, r3, r4	@ tmp149, tmp204, RdOff
 740 01b0 FFF7FEFF 		bl	memcpy	@
 741              	.LVL60:
 742              	@ .\utilities\src\segger_rtt.c:419:     pBuffer      += NumBytesRem;
 419:.\utilities\src/segger_rtt.c ****     BufferSize   -= NumBytesRem;
 743              		.loc 1 419 0
 744 01b4 029B     		ldr	r3, [sp, #8]	@ pData, %sfp
 745              	@ .\utilities\src\segger_rtt.c:421:     RdOff        += NumBytesRem;
 421:.\utilities\src/segger_rtt.c ****     RdOff        += NumBytesRem;
 746              		.loc 1 421 0
 747 01b6 A419     		adds	r4, r4, r6	@ RdOff, RdOff, <retval>
 748              	.LVL61:
 749              	@ .\utilities\src\segger_rtt.c:419:     pBuffer      += NumBytesRem;
 419:.\utilities\src/segger_rtt.c ****     BufferSize   -= NumBytesRem;
 750              		.loc 1 419 0
 751 01b8 9B19     		adds	r3, r3, r6	@ pData, pData, <retval>
 752              	.LVL62:
 753 01ba 0293     		str	r3, [sp, #8]	@ pData, %sfp
 754              	.LVL63:
 755              	@ .\utilities\src\segger_rtt.c:425:     if (RdOff == pRing->SizeOfBuffer) {
 422:.\utilities\src/segger_rtt.c ****     //
 423:.\utilities\src/segger_rtt.c ****     // Handle wrap-around of buffer
 424:.\utilities\src/segger_rtt.c ****     //
 425:.\utilities\src/segger_rtt.c ****     if (RdOff == pRing->SizeOfBuffer) {
 756              		.loc 1 425 0
 757 01bc BB6E     		ldr	r3, [r7, #104]	@ MEM[(struct SEGGER_RTT_BUFFER_DOWN *)&_SEGGER_RTT].aDown[BufferIndex_20(D)].S
 758              	.LVL64:
 759 01be A342     		cmp	r3, r4	@ MEM[(struct SEGGER_RTT_BUFFER_DOWN *)&_SEGGER_RTT].aDown[BufferIndex_20(D)].SizeOfBuf
 760 01c0 00D1     		bne	.L26	@,
 761              	@ .\utilities\src\segger_rtt.c:426:       RdOff = 0u;
 426:.\utilities\src/segger_rtt.c ****       RdOff = 0u;
 762              		.loc 1 426 0
 763 01c2 0024     		movs	r4, #0	@ RdOff,
 764              	.LVL65:
 765              	.L26:
 766              	@ .\utilities\src\segger_rtt.c:432:   NumBytesRem = WrOff - RdOff;
 427:.\utilities\src/segger_rtt.c ****     }
 428:.\utilities\src/segger_rtt.c ****   }
ARM GAS  C:\Users\claym\AppData\Local\Temp\ccb01mZK.s 			page 24


 429:.\utilities\src/segger_rtt.c ****   //
 430:.\utilities\src/segger_rtt.c ****   // Read remaining items of buffer
 431:.\utilities\src/segger_rtt.c ****   //
 432:.\utilities\src/segger_rtt.c ****   NumBytesRem = WrOff - RdOff;
 767              		.loc 1 432 0
 768 01c4 039B     		ldr	r3, [sp, #12]	@ WrOff, %sfp
 769 01c6 1B1B     		subs	r3, r3, r4	@ NumBytesRem, WrOff, RdOff
 770              	.LVL66:
 771              	@ .\utilities\src\segger_rtt.c:433:   NumBytesRem = MIN(NumBytesRem, BufferSize);
 433:.\utilities\src/segger_rtt.c ****   NumBytesRem = MIN(NumBytesRem, BufferSize);
 772              		.loc 1 433 0
 773 01c8 9D42     		cmp	r5, r3	@ NumBytesRem, NumBytesRem
 774 01ca 00D9     		bls	.L28	@,
 775 01cc 1D00     		movs	r5, r3	@ NumBytesRem, NumBytesRem
 776              	.L28:
 777              	.LVL67:
 778              	@ .\utilities\src\segger_rtt.c:434:   if (NumBytesRem > 0u) {
 434:.\utilities\src/segger_rtt.c ****   if (NumBytesRem > 0u) {
 779              		.loc 1 434 0
 780 01ce 002D     		cmp	r5, #0	@ NumBytesRem,
 781 01d0 0CD0     		beq	.L29	@,
 782              	@ .\utilities\src\segger_rtt.c:435:     memcpy(pBuffer, pRing->pBuffer + RdOff, NumBytesRem);
 435:.\utilities\src/segger_rtt.c ****     memcpy(pBuffer, pRing->pBuffer + RdOff, NumBytesRem);
 783              		.loc 1 435 0
 784 01d2 1823     		movs	r3, #24	@ tmp163,
 785 01d4 019A     		ldr	r2, [sp, #4]	@ BufferIndex, %sfp
 786 01d6 0298     		ldr	r0, [sp, #8]	@, %sfp
 787 01d8 5343     		muls	r3, r2	@ tmp164, BufferIndex
 788 01da 0A4A     		ldr	r2, .L38	@ tmp209,
 789              	@ .\utilities\src\segger_rtt.c:436:     NumBytesRead += NumBytesRem;
 436:.\utilities\src/segger_rtt.c ****     NumBytesRead += NumBytesRem;
 790              		.loc 1 436 0
 791 01dc 7619     		adds	r6, r6, r5	@ <retval>, <retval>, NumBytesRem
 792              	.LVL68:
 793              	@ .\utilities\src\segger_rtt.c:435:     memcpy(pBuffer, pRing->pBuffer + RdOff, NumBytesRem);
 435:.\utilities\src/segger_rtt.c ****     memcpy(pBuffer, pRing->pBuffer + RdOff, NumBytesRem);
 794              		.loc 1 435 0
 795 01de D318     		adds	r3, r2, r3	@ tmp165, tmp209, tmp164
 796 01e0 596E     		ldr	r1, [r3, #100]	@ MEM[(struct SEGGER_RTT_BUFFER_DOWN *)&_SEGGER_RTT].aDown[BufferIndex_20(D)].p
 797 01e2 2A00     		movs	r2, r5	@, NumBytesRem
 798 01e4 0919     		adds	r1, r1, r4	@ tmp167, MEM[(struct SEGGER_RTT_BUFFER_DOWN *)&_SEGGER_RTT].aDown[BufferIndex_20(
 799 01e6 FFF7FEFF 		bl	memcpy	@
 800              	.LVL69:
 801              	@ .\utilities\src\segger_rtt.c:439:     RdOff        += NumBytesRem;
 437:.\utilities\src/segger_rtt.c ****     pBuffer      += NumBytesRem;
 438:.\utilities\src/segger_rtt.c ****     BufferSize   -= NumBytesRem;
 439:.\utilities\src/segger_rtt.c ****     RdOff        += NumBytesRem;
 802              		.loc 1 439 0
 803 01ea 6419     		adds	r4, r4, r5	@ RdOff, RdOff, NumBytesRem
 804              	.LVL70:
 805              	.L29:
 806              	@ .\utilities\src\segger_rtt.c:441:   if (NumBytesRead) {
 440:.\utilities\src/segger_rtt.c ****   }
 441:.\utilities\src/segger_rtt.c ****   if (NumBytesRead) {
 807              		.loc 1 441 0
 808 01ec 002E     		cmp	r6, #0	@ <retval>,
 809 01ee 05D0     		beq	.L24	@,
ARM GAS  C:\Users\claym\AppData\Local\Temp\ccb01mZK.s 			page 25


 810              	@ .\utilities\src\segger_rtt.c:442:     pRing->RdOff = RdOff;
 442:.\utilities\src/segger_rtt.c ****     pRing->RdOff = RdOff;
 811              		.loc 1 442 0
 812 01f0 1822     		movs	r2, #24	@ tmp175,
 813 01f2 019B     		ldr	r3, [sp, #4]	@ BufferIndex, %sfp
 814 01f4 5A43     		muls	r2, r3	@ tmp176, BufferIndex
 815 01f6 034B     		ldr	r3, .L38	@ tmp174,
 816 01f8 9B18     		adds	r3, r3, r2	@ tmp177, tmp174, tmp176
 817 01fa 1C67     		str	r4, [r3, #112]	@ RdOff, MEM[(struct SEGGER_RTT_BUFFER_DOWN *)&_SEGGER_RTT].aDown[BufferIndex_2
 818              	.L24:
 819              	@ .\utilities\src\segger_rtt.c:446: }
 443:.\utilities\src/segger_rtt.c ****   }
 444:.\utilities\src/segger_rtt.c ****   //
 445:.\utilities\src/segger_rtt.c ****   return NumBytesRead;
 446:.\utilities\src/segger_rtt.c **** }
 820              		.loc 1 446 0
 821 01fc 3000     		movs	r0, r6	@, <retval>
 822 01fe 05B0     		add	sp, sp, #20	@,,
 823              		@ sp needed	@
 824              	.LVL71:
 825              	.LVL72:
 826              	.LVL73:
 827 0200 F0BD     		pop	{r4, r5, r6, r7, pc}
 828              	.L39:
 829 0202 C046     		.align	2
 830              	.L38:
 831 0204 00000000 		.word	_SEGGER_RTT
 832              		.cfi_endproc
 833              	.LFE5:
 834              		.size	SEGGER_RTT_ReadNoLock, .-SEGGER_RTT_ReadNoLock
 835              		.align	1
 836              		.global	SEGGER_RTT_Read
 837              		.syntax unified
 838              		.code	16
 839              		.thumb_func
 840              		.fpu softvfp
 841              		.type	SEGGER_RTT_Read, %function
 842              	SEGGER_RTT_Read:
 843              	.LFB6:
 447:.\utilities\src/segger_rtt.c **** 
 448:.\utilities\src/segger_rtt.c **** /*********************************************************************
 449:.\utilities\src/segger_rtt.c **** *
 450:.\utilities\src/segger_rtt.c **** *       SEGGER_RTT_Read
 451:.\utilities\src/segger_rtt.c **** *
 452:.\utilities\src/segger_rtt.c **** *  Function description
 453:.\utilities\src/segger_rtt.c **** *    Reads characters from SEGGER real-time-terminal control block
 454:.\utilities\src/segger_rtt.c **** *    which have been previously stored by the host.
 455:.\utilities\src/segger_rtt.c **** *
 456:.\utilities\src/segger_rtt.c **** *  Parameters
 457:.\utilities\src/segger_rtt.c **** *    BufferIndex  Index of Down-buffer to be used (e.g. 0 for "Terminal").
 458:.\utilities\src/segger_rtt.c **** *    pBuffer      Pointer to buffer provided by target application, to copy characters from RTT-dow
 459:.\utilities\src/segger_rtt.c **** *    BufferSize   Size of the target application buffer.
 460:.\utilities\src/segger_rtt.c **** *
 461:.\utilities\src/segger_rtt.c **** *  Return value
 462:.\utilities\src/segger_rtt.c **** *    Number of bytes that have been read.
 463:.\utilities\src/segger_rtt.c **** */
 464:.\utilities\src/segger_rtt.c **** unsigned SEGGER_RTT_Read(unsigned BufferIndex, void* pBuffer, unsigned BufferSize) {
ARM GAS  C:\Users\claym\AppData\Local\Temp\ccb01mZK.s 			page 26


 844              		.loc 1 464 0
 845              		.cfi_startproc
 846              		@ args = 0, pretend = 0, frame = 0
 847              		@ frame_needed = 0, uses_anonymous_args = 0
 848              	.LVL74:
 849 0208 10B5     		push	{r4, lr}	@
 850              	.LCFI6:
 851              		.cfi_def_cfa_offset 8
 852              		.cfi_offset 4, -8
 853              		.cfi_offset 14, -4
 854              	@ .\utilities\src\segger_rtt.c:464: unsigned SEGGER_RTT_Read(unsigned BufferIndex, void* pBuffer, u
 855              		.loc 1 464 0
 856 020a 0B00     		movs	r3, r1	@ pBuffer, pBuffer
 857              	.LBB2:
 858              	@ .\utilities\src\segger_rtt.c:467:   SEGGER_RTT_LOCK();
 465:.\utilities\src/segger_rtt.c ****   unsigned NumBytesRead;
 466:.\utilities\src/segger_rtt.c ****   //
 467:.\utilities\src/segger_rtt.c ****   SEGGER_RTT_LOCK();
 859              		.loc 1 467 0
 860              		.syntax divided
 861              	@ 467 ".\utilities\src\segger_rtt.c" 1
 862 020c EFF31084 		mrs   r4, primask  	@ LockState
 863 0210 0121     		mov   r1, $1     
 864 0212 81F31088 		msr   primask, r1  
 865              		
 866              	@ 0 "" 2
 867              	.LVL75:
 868              	@ .\utilities\src\segger_rtt.c:471:   NumBytesRead = SEGGER_RTT_ReadNoLock(BufferIndex, pBuffer, Bu
 468:.\utilities\src/segger_rtt.c ****   //
 469:.\utilities\src/segger_rtt.c ****   // Call the non-locking read function
 470:.\utilities\src/segger_rtt.c ****   //
 471:.\utilities\src/segger_rtt.c ****   NumBytesRead = SEGGER_RTT_ReadNoLock(BufferIndex, pBuffer, BufferSize);
 869              		.loc 1 471 0
 870              		.thumb
 871              		.syntax unified
 872 0216 1900     		movs	r1, r3	@, pBuffer
 873 0218 FFF7FEFF 		bl	SEGGER_RTT_ReadNoLock	@
 874              	.LVL76:
 875              	@ .\utilities\src\segger_rtt.c:475:   SEGGER_RTT_UNLOCK();
 472:.\utilities\src/segger_rtt.c ****   //
 473:.\utilities\src/segger_rtt.c ****   // Finish up.
 474:.\utilities\src/segger_rtt.c ****   //
 475:.\utilities\src/segger_rtt.c ****   SEGGER_RTT_UNLOCK();
 876              		.loc 1 475 0
 877              		.syntax divided
 878              	@ 475 ".\utilities\src\segger_rtt.c" 1
 879 021c 84F31088 		msr   primask, r4  	@ LockState
 880              		
 881              	@ 0 "" 2
 882              		.thumb
 883              		.syntax unified
 884              	.LBE2:
 885              	@ .\utilities\src\segger_rtt.c:478: }
 476:.\utilities\src/segger_rtt.c ****   //
 477:.\utilities\src/segger_rtt.c ****   return NumBytesRead;
 478:.\utilities\src/segger_rtt.c **** }
 886              		.loc 1 478 0
ARM GAS  C:\Users\claym\AppData\Local\Temp\ccb01mZK.s 			page 27


 887              		@ sp needed	@
 888              	.LVL77:
 889 0220 10BD     		pop	{r4, pc}
 890              		.cfi_endproc
 891              	.LFE6:
 892              		.size	SEGGER_RTT_Read, .-SEGGER_RTT_Read
 893              		.align	1
 894              		.global	SEGGER_RTT_WriteSkipNoLock
 895              		.syntax unified
 896              		.code	16
 897              		.thumb_func
 898              		.fpu softvfp
 899              		.type	SEGGER_RTT_WriteSkipNoLock, %function
 900              	SEGGER_RTT_WriteSkipNoLock:
 901              	.LFB7:
 479:.\utilities\src/segger_rtt.c **** 
 480:.\utilities\src/segger_rtt.c **** /*********************************************************************
 481:.\utilities\src/segger_rtt.c **** *
 482:.\utilities\src/segger_rtt.c **** *       SEGGER_RTT_WriteSkipNoLock
 483:.\utilities\src/segger_rtt.c **** *
 484:.\utilities\src/segger_rtt.c **** *  Function description
 485:.\utilities\src/segger_rtt.c **** *    Stores a specified number of characters in SEGGER RTT
 486:.\utilities\src/segger_rtt.c **** *    control block which is then read by the host.
 487:.\utilities\src/segger_rtt.c **** *    SEGGER_RTT_WriteSkipNoLock does not lock the application and
 488:.\utilities\src/segger_rtt.c **** *    skips all data, if the data does not fit into the buffer.
 489:.\utilities\src/segger_rtt.c **** *
 490:.\utilities\src/segger_rtt.c **** *  Parameters
 491:.\utilities\src/segger_rtt.c **** *    BufferIndex  Index of "Up"-buffer to be used (e.g. 0 for "Terminal").
 492:.\utilities\src/segger_rtt.c **** *    pBuffer      Pointer to character array. Does not need to point to a \0 terminated string.
 493:.\utilities\src/segger_rtt.c **** *    NumBytes     Number of bytes to be stored in the SEGGER RTT control block.
 494:.\utilities\src/segger_rtt.c **** *
 495:.\utilities\src/segger_rtt.c **** *  Return value
 496:.\utilities\src/segger_rtt.c **** *    Number of bytes which have been stored in the "Up"-buffer.
 497:.\utilities\src/segger_rtt.c **** *
 498:.\utilities\src/segger_rtt.c **** *  Notes
 499:.\utilities\src/segger_rtt.c **** *    (1) If there is not enough space in the "Up"-buffer, all data is dropped.
 500:.\utilities\src/segger_rtt.c **** *    (2) For performance reasons this function does not call Init()
 501:.\utilities\src/segger_rtt.c **** *        and may only be called after RTT has been initialized.
 502:.\utilities\src/segger_rtt.c **** *        Either by calling SEGGER_RTT_Init() or calling another RTT API function first.
 503:.\utilities\src/segger_rtt.c **** */
 504:.\utilities\src/segger_rtt.c **** unsigned SEGGER_RTT_WriteSkipNoLock(unsigned BufferIndex, const void* pBuffer, unsigned NumBytes) {
 902              		.loc 1 504 0
 903              		.cfi_startproc
 904              		@ args = 0, pretend = 0, frame = 8
 905              		@ frame_needed = 0, uses_anonymous_args = 0
 906              	.LVL78:
 907 0222 F7B5     		push	{r0, r1, r2, r4, r5, r6, r7, lr}	@
 908              	.LCFI7:
 909              		.cfi_def_cfa_offset 32
 910              		.cfi_offset 0, -32
 911              		.cfi_offset 1, -28
 912              		.cfi_offset 2, -24
 913              		.cfi_offset 4, -20
 914              		.cfi_offset 5, -16
 915              		.cfi_offset 6, -12
 916              		.cfi_offset 7, -8
 917              		.cfi_offset 14, -4
ARM GAS  C:\Users\claym\AppData\Local\Temp\ccb01mZK.s 			page 28


 918              	.LVL79:
 919              	@ .\utilities\src\segger_rtt.c:517:   RdOff = pRing->RdOff;
 505:.\utilities\src/segger_rtt.c ****   const char*           pData;
 506:.\utilities\src/segger_rtt.c ****   SEGGER_RTT_BUFFER_UP* pRing;
 507:.\utilities\src/segger_rtt.c ****   unsigned              Avail;
 508:.\utilities\src/segger_rtt.c ****   unsigned              RdOff;
 509:.\utilities\src/segger_rtt.c ****   unsigned              WrOff;
 510:.\utilities\src/segger_rtt.c ****   unsigned              Rem;
 511:.\utilities\src/segger_rtt.c **** 
 512:.\utilities\src/segger_rtt.c ****   pData = (const char *)pBuffer;
 513:.\utilities\src/segger_rtt.c ****   //
 514:.\utilities\src/segger_rtt.c ****   // Get "to-host" ring buffer and copy some elements into local variables.
 515:.\utilities\src/segger_rtt.c ****   //
 516:.\utilities\src/segger_rtt.c ****   pRing = &_SEGGER_RTT.aUp[BufferIndex];
 517:.\utilities\src/segger_rtt.c ****   RdOff = pRing->RdOff;
 920              		.loc 1 517 0
 921 0224 1826     		movs	r6, #24	@ tmp161,
 922 0226 3700     		movs	r7, r6	@ tmp162, tmp161
 923 0228 4743     		muls	r7, r0	@ tmp162, BufferIndex
 924              	@ .\utilities\src\segger_rtt.c:504: unsigned SEGGER_RTT_WriteSkipNoLock(unsigned BufferIndex, const
 504:.\utilities\src/segger_rtt.c ****   const char*           pData;
 925              		.loc 1 504 0
 926 022a 0191     		str	r1, [sp, #4]	@ pBuffer, %sfp
 927              	.LVL80:
 928              	@ .\utilities\src\segger_rtt.c:517:   RdOff = pRing->RdOff;
 929              		.loc 1 517 0
 930 022c 2749     		ldr	r1, .L52	@ tmp160,
 931              	.LVL81:
 932              	@ .\utilities\src\segger_rtt.c:504: unsigned SEGGER_RTT_WriteSkipNoLock(unsigned BufferIndex, const
 504:.\utilities\src/segger_rtt.c ****   const char*           pData;
 933              		.loc 1 504 0
 934 022e 1500     		movs	r5, r2	@ NumBytes, NumBytes
 935              	@ .\utilities\src\segger_rtt.c:517:   RdOff = pRing->RdOff;
 936              		.loc 1 517 0
 937 0230 CF19     		adds	r7, r1, r7	@ tmp163, tmp160, tmp162
 938 0232 BA6A     		ldr	r2, [r7, #40]	@ RdOff, MEM[(struct SEGGER_RTT_BUFFER_UP *)&_SEGGER_RTT].aUp[BufferIndex_25(D)]
 939              	.LVL82:
 940              	@ .\utilities\src\segger_rtt.c:518:   WrOff = pRing->WrOff;
 518:.\utilities\src/segger_rtt.c ****   WrOff = pRing->WrOff;
 941              		.loc 1 518 0
 942 0234 7C6A     		ldr	r4, [r7, #36]	@ WrOff, MEM[(struct SEGGER_RTT_BUFFER_UP *)&_SEGGER_RTT].aUp[BufferIndex_25(D)]
 943              	.LVL83:
 944              	@ .\utilities\src\segger_rtt.c:504: unsigned SEGGER_RTT_WriteSkipNoLock(unsigned BufferIndex, const
 504:.\utilities\src/segger_rtt.c ****   const char*           pData;
 945              		.loc 1 504 0
 946 0236 0300     		movs	r3, r0	@ BufferIndex, BufferIndex
 947              	@ .\utilities\src\segger_rtt.c:532:   if (RdOff <= WrOff) {
 519:.\utilities\src/segger_rtt.c ****   //
 520:.\utilities\src/segger_rtt.c ****   // Handle the most common cases fastest.
 521:.\utilities\src/segger_rtt.c ****   // Which is:
 522:.\utilities\src/segger_rtt.c ****   //    RdOff <= WrOff -> Space until wrap around is free.
 523:.\utilities\src/segger_rtt.c ****   //  AND
 524:.\utilities\src/segger_rtt.c ****   //    WrOff + NumBytes < SizeOfBuffer -> No Wrap around necessary.
 525:.\utilities\src/segger_rtt.c ****   //
 526:.\utilities\src/segger_rtt.c ****   //  OR
 527:.\utilities\src/segger_rtt.c ****   //
 528:.\utilities\src/segger_rtt.c ****   //    RdOff > WrOff -> Space until RdOff - 1 is free.
ARM GAS  C:\Users\claym\AppData\Local\Temp\ccb01mZK.s 			page 29


 529:.\utilities\src/segger_rtt.c ****   //  AND
 530:.\utilities\src/segger_rtt.c ****   //    WrOff + NumBytes < RdOff -> Data fits into buffer
 531:.\utilities\src/segger_rtt.c ****   //
 532:.\utilities\src/segger_rtt.c ****   if (RdOff <= WrOff) {
 948              		.loc 1 532 0
 949 0238 A242     		cmp	r2, r4	@ RdOff, WrOff
 950 023a 3CD8     		bhi	.L42	@,
 951              	@ .\utilities\src\segger_rtt.c:536:     Avail = pRing->SizeOfBuffer - 1u - WrOff ;
 533:.\utilities\src/segger_rtt.c ****     //
 534:.\utilities\src/segger_rtt.c ****     // Get space until WrOff will be at wrap around.
 535:.\utilities\src/segger_rtt.c ****     //
 536:.\utilities\src/segger_rtt.c ****     Avail = pRing->SizeOfBuffer - 1u - WrOff ;
 952              		.loc 1 536 0
 953 023c 386A     		ldr	r0, [r7, #32]	@ tmp256, MEM[(struct SEGGER_RTT_BUFFER_UP *)&_SEGGER_RTT].aUp[BufferIndex_25(D)
 954              	.LVL84:
 955 023e 001B     		subs	r0, r0, r4	@ _2, tmp256, WrOff
 956 0240 0090     		str	r0, [sp]	@ _2, %sfp
 957 0242 0138     		subs	r0, r0, #1	@ Avail,
 958              	.LVL85:
 959              	@ .\utilities\src\segger_rtt.c:537:     if (Avail >= NumBytes) {
 537:.\utilities\src/segger_rtt.c ****     if (Avail >= NumBytes) {
 960              		.loc 1 537 0
 961 0244 8542     		cmp	r5, r0	@ NumBytes, Avail
 962 0246 12D8     		bhi	.L43	@,
 963              	.LBB3:
 964              	@ .\utilities\src\segger_rtt.c:541:       WrOff += NumBytes;
 538:.\utilities\src/segger_rtt.c **** #if 1 // memcpy() is good for large amounts of data, but the overhead is too big for small amounts.
 539:.\utilities\src/segger_rtt.c ****       char* pDst;
 540:.\utilities\src/segger_rtt.c ****       pDst = pRing->pBuffer + WrOff;
 541:.\utilities\src/segger_rtt.c ****       WrOff += NumBytes;
 965              		.loc 1 541 0
 966 0248 0022     		movs	r2, #0	@ ivtmp.46,
 967              	.LVL86:
 968              	@ .\utilities\src\segger_rtt.c:540:       pDst = pRing->pBuffer + WrOff;
 540:.\utilities\src/segger_rtt.c ****       WrOff += NumBytes;
 969              		.loc 1 540 0
 970 024a 581C     		adds	r0, r3, #1	@ tmp177, BufferIndex,
 971              	.LVL87:
 972 024c 4643     		muls	r6, r0	@ tmp179, tmp177
 973 024e 8E19     		adds	r6, r1, r6	@ tmp180, tmp160, tmp179
 974              	.LVL88:
 975 0250 7068     		ldr	r0, [r6, #4]	@ MEM[(struct SEGGER_RTT_BUFFER_UP *)&_SEGGER_RTT].aUp[BufferIndex_25(D)].pBuffer
 976 0252 0019     		adds	r0, r0, r4	@ pDst, MEM[(struct SEGGER_RTT_BUFFER_UP *)&_SEGGER_RTT].aUp[BufferIndex_25(D)].pB
 977              	.LVL89:
 978              	@ .\utilities\src\segger_rtt.c:541:       WrOff += NumBytes;
 979              		.loc 1 541 0
 980 0254 6419     		adds	r4, r4, r5	@ WrOff, WrOff, NumBytes
 981              	.LVL90:
 982              	.L44:
 983              	@ .\utilities\src\segger_rtt.c:543:         *pDst++ = *pData++;
 542:.\utilities\src/segger_rtt.c ****       do {
 543:.\utilities\src/segger_rtt.c ****         *pDst++ = *pData++;
 984              		.loc 1 543 0 discriminator 1
 985 0256 019E     		ldr	r6, [sp, #4]	@ pBuffer, %sfp
 986 0258 B65C     		ldrb	r6, [r6, r2]	@ _4, MEM[base: pBuffer_24(D), index: ivtmp.46_9, offset: 0B]
 987 025a 8654     		strb	r6, [r0, r2]	@ _4, MEM[base: pDst_40, index: ivtmp.46_9, offset: 0B]
 988              	.LVL91:
ARM GAS  C:\Users\claym\AppData\Local\Temp\ccb01mZK.s 			page 30


 989 025c 0132     		adds	r2, r2, #1	@ ivtmp.46,
 990              	.LVL92:
 991              	@ .\utilities\src\segger_rtt.c:544:       } while (--NumBytes);
 544:.\utilities\src/segger_rtt.c ****       } while (--NumBytes);
 992              		.loc 1 544 0 discriminator 1
 993 025e AA42     		cmp	r2, r5	@ ivtmp.46, NumBytes
 994 0260 F9D1     		bne	.L44	@,
 995              	@ .\utilities\src\segger_rtt.c:545:       pRing->WrOff = WrOff + NumBytes;
 545:.\utilities\src/segger_rtt.c ****       pRing->WrOff = WrOff + NumBytes;
 996              		.loc 1 545 0
 997 0262 1826     		movs	r6, #24	@ tmp185,
 998 0264 5E43     		muls	r6, r3	@ tmp186, BufferIndex
 999 0266 8E19     		adds	r6, r1, r6	@ tmp187, tmp160, tmp186
 1000 0268 7462     		str	r4, [r6, #36]	@ WrOff, MEM[(struct SEGGER_RTT_BUFFER_UP *)&_SEGGER_RTT].aUp[BufferIndex_25(D)]
 1001              	.LVL93:
 1002              	.L50:
 1003              	.LBE3:
 1004              	@ .\utilities\src\segger_rtt.c:582:       return 1;
 546:.\utilities\src/segger_rtt.c **** #else
 547:.\utilities\src/segger_rtt.c ****       memcpy(pRing->pBuffer + WrOff, pData, NumBytes);
 548:.\utilities\src/segger_rtt.c ****       pRing->WrOff = WrOff + NumBytes;
 549:.\utilities\src/segger_rtt.c **** #endif
 550:.\utilities\src/segger_rtt.c ****       return 1;
 551:.\utilities\src/segger_rtt.c ****     }
 552:.\utilities\src/segger_rtt.c ****     //
 553:.\utilities\src/segger_rtt.c ****     // If data did not fit into space until wrap around calculate complete space in buffer.
 554:.\utilities\src/segger_rtt.c ****     //
 555:.\utilities\src/segger_rtt.c ****     Avail += RdOff;
 556:.\utilities\src/segger_rtt.c ****     //
 557:.\utilities\src/segger_rtt.c ****     // If there is still no space for the whole of this output, don't bother.
 558:.\utilities\src/segger_rtt.c ****     //
 559:.\utilities\src/segger_rtt.c ****     if (Avail >= NumBytes) {
 560:.\utilities\src/segger_rtt.c ****       //
 561:.\utilities\src/segger_rtt.c ****       //  OK, we have enough space in buffer. Copy in one or 2 chunks
 562:.\utilities\src/segger_rtt.c ****       //
 563:.\utilities\src/segger_rtt.c ****       Rem = pRing->SizeOfBuffer - WrOff;      // Space until end of buffer
 564:.\utilities\src/segger_rtt.c ****       if (Rem > NumBytes) {
 565:.\utilities\src/segger_rtt.c ****         memcpy(pRing->pBuffer + WrOff, pData, NumBytes);
 566:.\utilities\src/segger_rtt.c ****         pRing->WrOff = WrOff + NumBytes;
 567:.\utilities\src/segger_rtt.c ****       } else {
 568:.\utilities\src/segger_rtt.c ****         //
 569:.\utilities\src/segger_rtt.c ****         // We reach the end of the buffer, so need to wrap around
 570:.\utilities\src/segger_rtt.c ****         //
 571:.\utilities\src/segger_rtt.c ****         memcpy(pRing->pBuffer + WrOff, pData, Rem);
 572:.\utilities\src/segger_rtt.c ****         memcpy(pRing->pBuffer, pData + Rem, NumBytes - Rem);
 573:.\utilities\src/segger_rtt.c ****         pRing->WrOff = NumBytes - Rem;
 574:.\utilities\src/segger_rtt.c ****       }
 575:.\utilities\src/segger_rtt.c ****       return 1;
 576:.\utilities\src/segger_rtt.c ****     }
 577:.\utilities\src/segger_rtt.c ****   } else {
 578:.\utilities\src/segger_rtt.c ****     Avail = RdOff - WrOff - 1u;
 579:.\utilities\src/segger_rtt.c ****     if (Avail >= NumBytes) {
 580:.\utilities\src/segger_rtt.c ****       memcpy(pRing->pBuffer + WrOff, pData, NumBytes);
 581:.\utilities\src/segger_rtt.c ****       pRing->WrOff = WrOff + NumBytes;
 582:.\utilities\src/segger_rtt.c ****       return 1;
 1005              		.loc 1 582 0
 1006 026a 0120     		movs	r0, #1	@ <retval>,
ARM GAS  C:\Users\claym\AppData\Local\Temp\ccb01mZK.s 			page 31


 1007              	.L41:
 1008              	@ .\utilities\src\segger_rtt.c:589: }
 583:.\utilities\src/segger_rtt.c ****     }
 584:.\utilities\src/segger_rtt.c ****   }
 585:.\utilities\src/segger_rtt.c ****   //
 586:.\utilities\src/segger_rtt.c ****   // If we reach this point no data has been written
 587:.\utilities\src/segger_rtt.c ****   //
 588:.\utilities\src/segger_rtt.c ****   return 0;
 589:.\utilities\src/segger_rtt.c **** }
 1009              		.loc 1 589 0
 1010              		@ sp needed	@
 1011 026c FEBD     		pop	{r1, r2, r3, r4, r5, r6, r7, pc}
 1012              	.LVL94:
 1013              	.L43:
 1014              	@ .\utilities\src\segger_rtt.c:555:     Avail += RdOff;
 555:.\utilities\src/segger_rtt.c ****     //
 1015              		.loc 1 555 0
 1016 026e 1218     		adds	r2, r2, r0	@ Avail, RdOff, Avail
 1017              	.LVL95:
 1018              	@ .\utilities\src\segger_rtt.c:588:   return 0;
 588:.\utilities\src/segger_rtt.c **** }
 1019              		.loc 1 588 0
 1020 0270 0020     		movs	r0, #0	@ <retval>,
 1021              	@ .\utilities\src\segger_rtt.c:559:     if (Avail >= NumBytes) {
 559:.\utilities\src/segger_rtt.c ****       //
 1022              		.loc 1 559 0
 1023 0272 9542     		cmp	r5, r2	@ NumBytes, Avail
 1024 0274 FAD8     		bhi	.L41	@,
 1025              	.LVL96:
 1026 0276 0133     		adds	r3, r3, #1	@ tmp191,
 1027              	.LVL97:
 1028 0278 5E43     		muls	r6, r3	@ tmp193, tmp191
 1029 027a 8E19     		adds	r6, r1, r6	@ tmp194, tmp160, tmp193
 1030 027c 7368     		ldr	r3, [r6, #4]	@ tmp259, MEM[(struct SEGGER_RTT_BUFFER_UP *)&_SEGGER_RTT].aUp[BufferIndex_25(D)]
 1031              	.LVL98:
 1032 027e 1819     		adds	r0, r3, r4	@ _14, tmp259, WrOff
 1033              	@ .\utilities\src\segger_rtt.c:564:       if (Rem > NumBytes) {
 564:.\utilities\src/segger_rtt.c ****         memcpy(pRing->pBuffer + WrOff, pData, NumBytes);
 1034              		.loc 1 564 0
 1035 0280 009B     		ldr	r3, [sp]	@ _2, %sfp
 1036 0282 AB42     		cmp	r3, r5	@ _2, NumBytes
 1037 0284 06D9     		bls	.L46	@,
 1038              	.LVL99:
 1039              	.L51:
 1040              	@ .\utilities\src\segger_rtt.c:580:       memcpy(pRing->pBuffer + WrOff, pData, NumBytes);
 580:.\utilities\src/segger_rtt.c ****       pRing->WrOff = WrOff + NumBytes;
 1041              		.loc 1 580 0
 1042 0286 2A00     		movs	r2, r5	@, NumBytes
 1043 0288 0199     		ldr	r1, [sp, #4]	@, %sfp
 1044              	@ .\utilities\src\segger_rtt.c:581:       pRing->WrOff = WrOff + NumBytes;
 581:.\utilities\src/segger_rtt.c ****       return 1;
 1045              		.loc 1 581 0
 1046 028a 6419     		adds	r4, r4, r5	@ tmp251, WrOff, NumBytes
 1047              	.LVL100:
 1048              	@ .\utilities\src\segger_rtt.c:580:       memcpy(pRing->pBuffer + WrOff, pData, NumBytes);
 580:.\utilities\src/segger_rtt.c ****       pRing->WrOff = WrOff + NumBytes;
 1049              		.loc 1 580 0
ARM GAS  C:\Users\claym\AppData\Local\Temp\ccb01mZK.s 			page 32


 1050 028c FFF7FEFF 		bl	memcpy	@
 1051              	.LVL101:
 1052              	@ .\utilities\src\segger_rtt.c:581:       pRing->WrOff = WrOff + NumBytes;
 581:.\utilities\src/segger_rtt.c ****       return 1;
 1053              		.loc 1 581 0
 1054 0290 7C62     		str	r4, [r7, #36]	@ tmp251, MEM[(struct SEGGER_RTT_BUFFER_UP *)&_SEGGER_RTT].aUp[BufferIndex_25(D)
 1055 0292 EAE7     		b	.L50	@
 1056              	.LVL102:
 1057              	.L46:
 1058              	@ .\utilities\src\segger_rtt.c:571:         memcpy(pRing->pBuffer + WrOff, pData, Rem);
 571:.\utilities\src/segger_rtt.c ****         memcpy(pRing->pBuffer, pData + Rem, NumBytes - Rem);
 1059              		.loc 1 571 0
 1060 0294 009A     		ldr	r2, [sp]	@, %sfp
 1061              	.LVL103:
 1062 0296 0199     		ldr	r1, [sp, #4]	@, %sfp
 1063 0298 FFF7FEFF 		bl	memcpy	@
 1064              	.LVL104:
 1065              	@ .\utilities\src\segger_rtt.c:572:         memcpy(pRing->pBuffer, pData + Rem, NumBytes - Rem);
 572:.\utilities\src/segger_rtt.c ****         pRing->WrOff = NumBytes - Rem;
 1066              		.loc 1 572 0
 1067 029c 009A     		ldr	r2, [sp]	@ _2, %sfp
 1068 029e 009B     		ldr	r3, [sp]	@ _2, %sfp
 1069 02a0 9446     		mov	ip, r2	@ _2, _2
 1070 02a2 ED1A     		subs	r5, r5, r3	@ _13, NumBytes, _2
 1071              	.LVL105:
 1072 02a4 019B     		ldr	r3, [sp, #4]	@ pBuffer, %sfp
 1073 02a6 7068     		ldr	r0, [r6, #4]	@ MEM[(struct SEGGER_RTT_BUFFER_UP *)&_SEGGER_RTT].aUp[BufferIndex_25(D)].pBuffer
 1074 02a8 6344     		add	r3, r3, ip	@ pBuffer, _2
 1075 02aa 1900     		movs	r1, r3	@ tmp220, pBuffer
 1076 02ac 2A00     		movs	r2, r5	@, _13
 1077 02ae FFF7FEFF 		bl	memcpy	@
 1078              	.LVL106:
 1079              	@ .\utilities\src\segger_rtt.c:573:         pRing->WrOff = NumBytes - Rem;
 573:.\utilities\src/segger_rtt.c ****       }
 1080              		.loc 1 573 0
 1081 02b2 7D62     		str	r5, [r7, #36]	@ _13, MEM[(struct SEGGER_RTT_BUFFER_UP *)&_SEGGER_RTT].aUp[BufferIndex_25(D)].W
 1082 02b4 D9E7     		b	.L50	@
 1083              	.LVL107:
 1084              	.L42:
 1085              	@ .\utilities\src\segger_rtt.c:578:     Avail = RdOff - WrOff - 1u;
 578:.\utilities\src/segger_rtt.c ****     if (Avail >= NumBytes) {
 1086              		.loc 1 578 0
 1087 02b6 013A     		subs	r2, r2, #1	@ tmp231,
 1088              	.LVL108:
 1089 02b8 121B     		subs	r2, r2, r4	@ Avail, tmp231, WrOff
 1090              	.LVL109:
 1091              	@ .\utilities\src\segger_rtt.c:588:   return 0;
 588:.\utilities\src/segger_rtt.c **** }
 1092              		.loc 1 588 0
 1093 02ba 0020     		movs	r0, #0	@ <retval>,
 1094              	.LVL110:
 1095              	@ .\utilities\src\segger_rtt.c:579:     if (Avail >= NumBytes) {
 579:.\utilities\src/segger_rtt.c ****       memcpy(pRing->pBuffer + WrOff, pData, NumBytes);
 1096              		.loc 1 579 0
 1097 02bc AA42     		cmp	r2, r5	@ Avail, NumBytes
 1098 02be D5D3     		bcc	.L41	@,
 1099              	@ .\utilities\src\segger_rtt.c:580:       memcpy(pRing->pBuffer + WrOff, pData, NumBytes);
ARM GAS  C:\Users\claym\AppData\Local\Temp\ccb01mZK.s 			page 33


 580:.\utilities\src/segger_rtt.c ****       pRing->WrOff = WrOff + NumBytes;
 1100              		.loc 1 580 0
 1101 02c0 0133     		adds	r3, r3, #1	@ tmp234,
 1102              	.LVL111:
 1103 02c2 5E43     		muls	r6, r3	@ tmp236, tmp234
 1104 02c4 8E19     		adds	r6, r1, r6	@ tmp237, tmp160, tmp236
 1105 02c6 7068     		ldr	r0, [r6, #4]	@ MEM[(struct SEGGER_RTT_BUFFER_UP *)&_SEGGER_RTT].aUp[BufferIndex_25(D)].pBuffer
 1106 02c8 0019     		adds	r0, r0, r4	@ tmp239, MEM[(struct SEGGER_RTT_BUFFER_UP *)&_SEGGER_RTT].aUp[BufferIndex_25(D)].
 1107 02ca DCE7     		b	.L51	@
 1108              	.L53:
 1109              		.align	2
 1110              	.L52:
 1111 02cc 00000000 		.word	_SEGGER_RTT
 1112              		.cfi_endproc
 1113              	.LFE7:
 1114              		.size	SEGGER_RTT_WriteSkipNoLock, .-SEGGER_RTT_WriteSkipNoLock
 1115              		.align	1
 1116              		.global	SEGGER_RTT_WriteNoLock
 1117              		.syntax unified
 1118              		.code	16
 1119              		.thumb_func
 1120              		.fpu softvfp
 1121              		.type	SEGGER_RTT_WriteNoLock, %function
 1122              	SEGGER_RTT_WriteNoLock:
 1123              	.LFB8:
 590:.\utilities\src/segger_rtt.c **** 
 591:.\utilities\src/segger_rtt.c **** /*********************************************************************
 592:.\utilities\src/segger_rtt.c **** *
 593:.\utilities\src/segger_rtt.c **** *       SEGGER_RTT_WriteNoLock
 594:.\utilities\src/segger_rtt.c **** *
 595:.\utilities\src/segger_rtt.c **** *  Function description
 596:.\utilities\src/segger_rtt.c **** *    Stores a specified number of characters in SEGGER RTT
 597:.\utilities\src/segger_rtt.c **** *    control block which is then read by the host.
 598:.\utilities\src/segger_rtt.c **** *    SEGGER_RTT_WriteNoLock does not lock the application.
 599:.\utilities\src/segger_rtt.c **** *
 600:.\utilities\src/segger_rtt.c **** *  Parameters
 601:.\utilities\src/segger_rtt.c **** *    BufferIndex  Index of "Up"-buffer to be used (e.g. 0 for "Terminal").
 602:.\utilities\src/segger_rtt.c **** *    pBuffer      Pointer to character array. Does not need to point to a \0 terminated string.
 603:.\utilities\src/segger_rtt.c **** *    NumBytes     Number of bytes to be stored in the SEGGER RTT control block.
 604:.\utilities\src/segger_rtt.c **** *
 605:.\utilities\src/segger_rtt.c **** *  Return value
 606:.\utilities\src/segger_rtt.c **** *    Number of bytes which have been stored in the "Up"-buffer.
 607:.\utilities\src/segger_rtt.c **** *
 608:.\utilities\src/segger_rtt.c **** *  Notes
 609:.\utilities\src/segger_rtt.c **** *    (1) If there is not enough space in the "Up"-buffer, remaining characters of pBuffer are dropp
 610:.\utilities\src/segger_rtt.c **** *    (2) For performance reasons this function does not call Init()
 611:.\utilities\src/segger_rtt.c **** *        and may only be called after RTT has been initialized.
 612:.\utilities\src/segger_rtt.c **** *        Either by calling SEGGER_RTT_Init() or calling another RTT API function first.
 613:.\utilities\src/segger_rtt.c **** */
 614:.\utilities\src/segger_rtt.c **** unsigned SEGGER_RTT_WriteNoLock(unsigned BufferIndex, const void* pBuffer, unsigned NumBytes) {
 1124              		.loc 1 614 0
 1125              		.cfi_startproc
 1126              		@ args = 0, pretend = 0, frame = 0
 1127              		@ frame_needed = 0, uses_anonymous_args = 0
 1128              	.LVL112:
 1129 02d0 F8B5     		push	{r3, r4, r5, r6, r7, lr}	@
 1130              	.LCFI8:
ARM GAS  C:\Users\claym\AppData\Local\Temp\ccb01mZK.s 			page 34


 1131              		.cfi_def_cfa_offset 24
 1132              		.cfi_offset 3, -24
 1133              		.cfi_offset 4, -20
 1134              		.cfi_offset 5, -16
 1135              		.cfi_offset 6, -12
 1136              		.cfi_offset 7, -8
 1137              		.cfi_offset 14, -4
 1138              	@ .\utilities\src\segger_rtt.c:614: unsigned SEGGER_RTT_WriteNoLock(unsigned BufferIndex, const voi
 1139              		.loc 1 614 0
 1140 02d2 1600     		movs	r6, r2	@ NumBytes, NumBytes
 1141              	@ .\utilities\src\segger_rtt.c:624:   pRing = &_SEGGER_RTT.aUp[BufferIndex];
 615:.\utilities\src/segger_rtt.c ****   unsigned              Status;
 616:.\utilities\src/segger_rtt.c ****   unsigned              Avail;
 617:.\utilities\src/segger_rtt.c ****   const char*           pData;
 618:.\utilities\src/segger_rtt.c ****   SEGGER_RTT_BUFFER_UP* pRing;
 619:.\utilities\src/segger_rtt.c **** 
 620:.\utilities\src/segger_rtt.c ****   pData = (const char *)pBuffer;
 621:.\utilities\src/segger_rtt.c ****   //
 622:.\utilities\src/segger_rtt.c ****   // Get "to-host" ring buffer.
 623:.\utilities\src/segger_rtt.c ****   //
 624:.\utilities\src/segger_rtt.c ****   pRing = &_SEGGER_RTT.aUp[BufferIndex];
 1142              		.loc 1 624 0
 1143 02d4 1822     		movs	r2, #24	@ tmp120,
 1144              	.LVL113:
 1145 02d6 451C     		adds	r5, r0, #1	@ tmp119, BufferIndex,
 1146 02d8 5543     		muls	r5, r2	@ tmp121, tmp120
 1147              	@ .\utilities\src\segger_rtt.c:628:   switch (pRing->Flags) {
 625:.\utilities\src/segger_rtt.c ****   //
 626:.\utilities\src/segger_rtt.c ****   // How we output depends upon the mode...
 627:.\utilities\src/segger_rtt.c ****   //
 628:.\utilities\src/segger_rtt.c ****   switch (pRing->Flags) {
 1148              		.loc 1 628 0
 1149 02da 4243     		muls	r2, r0	@ tmp125, BufferIndex
 1150              	@ .\utilities\src\segger_rtt.c:624:   pRing = &_SEGGER_RTT.aUp[BufferIndex];
 624:.\utilities\src/segger_rtt.c ****   //
 1151              		.loc 1 624 0
 1152 02dc 164B     		ldr	r3, .L62	@ tmp122,
 1153              	@ .\utilities\src\segger_rtt.c:614: unsigned SEGGER_RTT_WriteNoLock(unsigned BufferIndex, const voi
 614:.\utilities\src/segger_rtt.c ****   unsigned              Status;
 1154              		.loc 1 614 0
 1155 02de 0F00     		movs	r7, r1	@ pBuffer, pBuffer
 1156              	@ .\utilities\src\segger_rtt.c:624:   pRing = &_SEGGER_RTT.aUp[BufferIndex];
 624:.\utilities\src/segger_rtt.c ****   //
 1157              		.loc 1 624 0
 1158 02e0 ED18     		adds	r5, r5, r3	@ pRing, tmp121, tmp122
 1159              	.LVL114:
 1160              	@ .\utilities\src\segger_rtt.c:628:   switch (pRing->Flags) {
 1161              		.loc 1 628 0
 1162 02e2 9B18     		adds	r3, r3, r2	@ tmp126, tmp122, tmp125
 1163 02e4 DC6A     		ldr	r4, [r3, #44]	@ <retval>, MEM[(struct SEGGER_RTT_BUFFER_UP *)&_SEGGER_RTT].aUp[BufferIndex_5(D
 1164 02e6 012C     		cmp	r4, #1	@ <retval>,
 1165 02e8 12D0     		beq	.L56	@,
 1166 02ea 002C     		cmp	r4, #0	@ <retval>,
 1167 02ec 03D0     		beq	.L57	@,
 1168 02ee 022C     		cmp	r4, #2	@ <retval>,
 1169 02f0 1BD0     		beq	.L58	@,
 1170              	@ .\utilities\src\segger_rtt.c:657:     Status = 0u;
ARM GAS  C:\Users\claym\AppData\Local\Temp\ccb01mZK.s 			page 35


 629:.\utilities\src/segger_rtt.c ****   case SEGGER_RTT_MODE_NO_BLOCK_SKIP:
 630:.\utilities\src/segger_rtt.c ****     //
 631:.\utilities\src/segger_rtt.c ****     // If we are in skip mode and there is no space for the whole
 632:.\utilities\src/segger_rtt.c ****     // of this output, don't bother.
 633:.\utilities\src/segger_rtt.c ****     //
 634:.\utilities\src/segger_rtt.c ****     Avail = _GetAvailWriteSpace(pRing);
 635:.\utilities\src/segger_rtt.c ****     if (Avail < NumBytes) {
 636:.\utilities\src/segger_rtt.c ****       Status = 0u;
 637:.\utilities\src/segger_rtt.c ****     } else {
 638:.\utilities\src/segger_rtt.c ****       Status = NumBytes;
 639:.\utilities\src/segger_rtt.c ****       _WriteNoCheck(pRing, pData, NumBytes);
 640:.\utilities\src/segger_rtt.c ****     }
 641:.\utilities\src/segger_rtt.c ****     break;
 642:.\utilities\src/segger_rtt.c ****   case SEGGER_RTT_MODE_NO_BLOCK_TRIM:
 643:.\utilities\src/segger_rtt.c ****     //
 644:.\utilities\src/segger_rtt.c ****     // If we are in trim mode, trim to what we can output without blocking.
 645:.\utilities\src/segger_rtt.c ****     //
 646:.\utilities\src/segger_rtt.c ****     Avail = _GetAvailWriteSpace(pRing);
 647:.\utilities\src/segger_rtt.c ****     Status = Avail < NumBytes ? Avail : NumBytes;
 648:.\utilities\src/segger_rtt.c ****     _WriteNoCheck(pRing, pData, Status);
 649:.\utilities\src/segger_rtt.c ****     break;
 650:.\utilities\src/segger_rtt.c ****   case SEGGER_RTT_MODE_BLOCK_IF_FIFO_FULL:
 651:.\utilities\src/segger_rtt.c ****     //
 652:.\utilities\src/segger_rtt.c ****     // If we are in blocking mode, output everything.
 653:.\utilities\src/segger_rtt.c ****     //
 654:.\utilities\src/segger_rtt.c ****     Status = _WriteBlocking(pRing, pData, NumBytes);
 655:.\utilities\src/segger_rtt.c ****     break;
 656:.\utilities\src/segger_rtt.c ****   default:
 657:.\utilities\src/segger_rtt.c ****     Status = 0u;
 1171              		.loc 1 657 0
 1172 02f2 0024     		movs	r4, #0	@ <retval>,
 1173              	.LVL115:
 1174              	@ .\utilities\src\segger_rtt.c:663:   return Status;
 658:.\utilities\src/segger_rtt.c ****     break;
 659:.\utilities\src/segger_rtt.c ****   }
 660:.\utilities\src/segger_rtt.c ****   //
 661:.\utilities\src/segger_rtt.c ****   // Finish up.
 662:.\utilities\src/segger_rtt.c ****   //
 663:.\utilities\src/segger_rtt.c ****   return Status;
 1175              		.loc 1 663 0
 1176 02f4 0AE0     		b	.L54	@
 1177              	.LVL116:
 1178              	.L57:
 1179              	@ .\utilities\src\segger_rtt.c:634:     Avail = _GetAvailWriteSpace(pRing);
 634:.\utilities\src/segger_rtt.c ****     if (Avail < NumBytes) {
 1180              		.loc 1 634 0
 1181 02f6 2800     		movs	r0, r5	@, pRing
 1182              	.LVL117:
 1183 02f8 FFF782FE 		bl	_GetAvailWriteSpace	@
 1184              	.LVL118:
 1185              	@ .\utilities\src\segger_rtt.c:635:     if (Avail < NumBytes) {
 635:.\utilities\src/segger_rtt.c ****       Status = 0u;
 1186              		.loc 1 635 0
 1187 02fc 8642     		cmp	r6, r0	@ NumBytes, Avail
 1188 02fe 05D8     		bhi	.L54	@,
 1189              	.LVL119:
 1190              	@ .\utilities\src\segger_rtt.c:639:       _WriteNoCheck(pRing, pData, NumBytes);
ARM GAS  C:\Users\claym\AppData\Local\Temp\ccb01mZK.s 			page 36


 639:.\utilities\src/segger_rtt.c ****     }
 1191              		.loc 1 639 0
 1192 0300 3200     		movs	r2, r6	@, NumBytes
 1193 0302 3900     		movs	r1, r7	@, pBuffer
 1194 0304 2800     		movs	r0, r5	@, pRing
 1195              	.LVL120:
 1196 0306 FFF784FE 		bl	_WriteNoCheck	@
 1197              	.LVL121:
 1198 030a 3400     		movs	r4, r6	@ <retval>, NumBytes
 1199              	.LVL122:
 1200              	.L54:
 1201              	@ .\utilities\src\segger_rtt.c:664: }
 664:.\utilities\src/segger_rtt.c **** }
 1202              		.loc 1 664 0
 1203 030c 2000     		movs	r0, r4	@, <retval>
 1204              		@ sp needed	@
 1205              	.LVL123:
 1206              	.LVL124:
 1207              	.LVL125:
 1208 030e F8BD     		pop	{r3, r4, r5, r6, r7, pc}
 1209              	.LVL126:
 1210              	.L56:
 1211              	@ .\utilities\src\segger_rtt.c:646:     Avail = _GetAvailWriteSpace(pRing);
 646:.\utilities\src/segger_rtt.c ****     Status = Avail < NumBytes ? Avail : NumBytes;
 1212              		.loc 1 646 0
 1213 0310 2800     		movs	r0, r5	@, pRing
 1214              	.LVL127:
 1215 0312 FFF775FE 		bl	_GetAvailWriteSpace	@
 1216              	.LVL128:
 1217              	@ .\utilities\src\segger_rtt.c:647:     Status = Avail < NumBytes ? Avail : NumBytes;
 647:.\utilities\src/segger_rtt.c ****     _WriteNoCheck(pRing, pData, Status);
 1218              		.loc 1 647 0
 1219 0316 3400     		movs	r4, r6	@ <retval>, NumBytes
 1220 0318 8642     		cmp	r6, r0	@ <retval>, Avail
 1221 031a 00D9     		bls	.L59	@,
 1222              	.LVL129:
 1223 031c 0400     		movs	r4, r0	@ <retval>, Avail
 1224              	.LVL130:
 1225              	.L59:
 1226              	@ .\utilities\src\segger_rtt.c:648:     _WriteNoCheck(pRing, pData, Status);
 648:.\utilities\src/segger_rtt.c ****     break;
 1227              		.loc 1 648 0
 1228 031e 2200     		movs	r2, r4	@, <retval>
 1229 0320 3900     		movs	r1, r7	@, pBuffer
 1230 0322 2800     		movs	r0, r5	@, pRing
 1231              	.LVL131:
 1232 0324 FFF775FE 		bl	_WriteNoCheck	@
 1233              	.LVL132:
 1234              	@ .\utilities\src\segger_rtt.c:649:     break;
 649:.\utilities\src/segger_rtt.c ****   case SEGGER_RTT_MODE_BLOCK_IF_FIFO_FULL:
 1235              		.loc 1 649 0
 1236 0328 F0E7     		b	.L54	@
 1237              	.LVL133:
 1238              	.L58:
 1239              	@ .\utilities\src\segger_rtt.c:654:     Status = _WriteBlocking(pRing, pData, NumBytes);
 654:.\utilities\src/segger_rtt.c ****     break;
 1240              		.loc 1 654 0
ARM GAS  C:\Users\claym\AppData\Local\Temp\ccb01mZK.s 			page 37


 1241 032a 3200     		movs	r2, r6	@, NumBytes
 1242 032c 2800     		movs	r0, r5	@, pRing
 1243              	.LVL134:
 1244 032e FFF78EFE 		bl	_WriteBlocking	@
 1245              	.LVL135:
 1246 0332 0400     		movs	r4, r0	@ <retval>,
 1247              	.LVL136:
 1248              	@ .\utilities\src\segger_rtt.c:655:     break;
 655:.\utilities\src/segger_rtt.c ****   default:
 1249              		.loc 1 655 0
 1250 0334 EAE7     		b	.L54	@
 1251              	.L63:
 1252 0336 C046     		.align	2
 1253              	.L62:
 1254 0338 00000000 		.word	_SEGGER_RTT
 1255              		.cfi_endproc
 1256              	.LFE8:
 1257              		.size	SEGGER_RTT_WriteNoLock, .-SEGGER_RTT_WriteNoLock
 1258              		.align	1
 1259              		.global	SEGGER_RTT_Write
 1260              		.syntax unified
 1261              		.code	16
 1262              		.thumb_func
 1263              		.fpu softvfp
 1264              		.type	SEGGER_RTT_Write, %function
 1265              	SEGGER_RTT_Write:
 1266              	.LFB9:
 665:.\utilities\src/segger_rtt.c **** 
 666:.\utilities\src/segger_rtt.c **** /*********************************************************************
 667:.\utilities\src/segger_rtt.c **** *
 668:.\utilities\src/segger_rtt.c **** *       SEGGER_RTT_Write
 669:.\utilities\src/segger_rtt.c **** *
 670:.\utilities\src/segger_rtt.c **** *  Function description
 671:.\utilities\src/segger_rtt.c **** *    Stores a specified number of characters in SEGGER RTT
 672:.\utilities\src/segger_rtt.c **** *    control block which is then read by the host.
 673:.\utilities\src/segger_rtt.c **** *
 674:.\utilities\src/segger_rtt.c **** *  Parameters
 675:.\utilities\src/segger_rtt.c **** *    BufferIndex  Index of "Up"-buffer to be used (e.g. 0 for "Terminal").
 676:.\utilities\src/segger_rtt.c **** *    pBuffer      Pointer to character array. Does not need to point to a \0 terminated string.
 677:.\utilities\src/segger_rtt.c **** *    NumBytes     Number of bytes to be stored in the SEGGER RTT control block.
 678:.\utilities\src/segger_rtt.c **** *
 679:.\utilities\src/segger_rtt.c **** *  Return value
 680:.\utilities\src/segger_rtt.c **** *    Number of bytes which have been stored in the "Up"-buffer.
 681:.\utilities\src/segger_rtt.c **** *
 682:.\utilities\src/segger_rtt.c **** *  Notes
 683:.\utilities\src/segger_rtt.c **** *    (1) If there is not enough space in the "Up"-buffer, remaining characters of pBuffer are dropp
 684:.\utilities\src/segger_rtt.c **** */
 685:.\utilities\src/segger_rtt.c **** unsigned SEGGER_RTT_Write(unsigned BufferIndex, const void* pBuffer, unsigned NumBytes) {
 1267              		.loc 1 685 0
 1268              		.cfi_startproc
 1269              		@ args = 0, pretend = 0, frame = 0
 1270              		@ frame_needed = 0, uses_anonymous_args = 0
 1271              	.LVL137:
 1272 033c F8B5     		push	{r3, r4, r5, r6, r7, lr}	@
 1273              	.LCFI9:
 1274              		.cfi_def_cfa_offset 24
 1275              		.cfi_offset 3, -24
ARM GAS  C:\Users\claym\AppData\Local\Temp\ccb01mZK.s 			page 38


 1276              		.cfi_offset 4, -20
 1277              		.cfi_offset 5, -16
 1278              		.cfi_offset 6, -12
 1279              		.cfi_offset 7, -8
 1280              		.cfi_offset 14, -4
 1281              	@ .\utilities\src\segger_rtt.c:688:   INIT();
 686:.\utilities\src/segger_rtt.c ****   unsigned Status;
 687:.\utilities\src/segger_rtt.c ****   //
 688:.\utilities\src/segger_rtt.c ****   INIT();
 1282              		.loc 1 688 0
 1283 033e 0B4B     		ldr	r3, .L66	@ tmp116,
 1284              	@ .\utilities\src\segger_rtt.c:685: unsigned SEGGER_RTT_Write(unsigned BufferIndex, const void* pBu
 685:.\utilities\src/segger_rtt.c ****   unsigned Status;
 1285              		.loc 1 685 0
 1286 0340 0500     		movs	r5, r0	@ BufferIndex, BufferIndex
 1287              	@ .\utilities\src\segger_rtt.c:688:   INIT();
 1288              		.loc 1 688 0
 1289 0342 1B78     		ldrb	r3, [r3]	@ _SEGGER_RTT, _SEGGER_RTT
 1290              	@ .\utilities\src\segger_rtt.c:685: unsigned SEGGER_RTT_Write(unsigned BufferIndex, const void* pBu
 685:.\utilities\src/segger_rtt.c ****   unsigned Status;
 1291              		.loc 1 685 0
 1292 0344 0E00     		movs	r6, r1	@ pBuffer, pBuffer
 1293 0346 1700     		movs	r7, r2	@ NumBytes, NumBytes
 1294              	@ .\utilities\src\segger_rtt.c:688:   INIT();
 1295              		.loc 1 688 0
 1296 0348 002B     		cmp	r3, #0	@ _SEGGER_RTT,
 1297 034a 01D1     		bne	.L65	@,
 1298              	@ .\utilities\src\segger_rtt.c:688:   INIT();
 1299              		.loc 1 688 0 is_stmt 0 discriminator 1
 1300 034c FFF7ACFE 		bl	_DoInit	@
 1301              	.LVL138:
 1302              	.L65:
 1303              	.LBB4:
 1304              	@ .\utilities\src\segger_rtt.c:689:   SEGGER_RTT_LOCK();
 689:.\utilities\src/segger_rtt.c ****   SEGGER_RTT_LOCK();
 1305              		.loc 1 689 0 is_stmt 1
 1306              		.syntax divided
 1307              	@ 689 ".\utilities\src\segger_rtt.c" 1
 1308 0350 EFF31084 		mrs   r4, primask  	@ LockState
 1309 0354 0121     		mov   r1, $1     
 1310 0356 81F31088 		msr   primask, r1  
 1311              		
 1312              	@ 0 "" 2
 1313              	.LVL139:
 1314              	@ .\utilities\src\segger_rtt.c:693:   Status = SEGGER_RTT_WriteNoLock(BufferIndex, pBuffer, NumByte
 690:.\utilities\src/segger_rtt.c ****   //
 691:.\utilities\src/segger_rtt.c ****   // Call the non-locking write function
 692:.\utilities\src/segger_rtt.c ****   //
 693:.\utilities\src/segger_rtt.c ****   Status = SEGGER_RTT_WriteNoLock(BufferIndex, pBuffer, NumBytes);
 1315              		.loc 1 693 0
 1316              		.thumb
 1317              		.syntax unified
 1318 035a 3A00     		movs	r2, r7	@, NumBytes
 1319 035c 3100     		movs	r1, r6	@, pBuffer
 1320 035e 2800     		movs	r0, r5	@, BufferIndex
 1321 0360 FFF7FEFF 		bl	SEGGER_RTT_WriteNoLock	@
 1322              	.LVL140:
ARM GAS  C:\Users\claym\AppData\Local\Temp\ccb01mZK.s 			page 39


 1323              	@ .\utilities\src\segger_rtt.c:697:   SEGGER_RTT_UNLOCK();
 694:.\utilities\src/segger_rtt.c ****   //
 695:.\utilities\src/segger_rtt.c ****   // Finish up.
 696:.\utilities\src/segger_rtt.c ****   //
 697:.\utilities\src/segger_rtt.c ****   SEGGER_RTT_UNLOCK();
 1324              		.loc 1 697 0
 1325              		.syntax divided
 1326              	@ 697 ".\utilities\src\segger_rtt.c" 1
 1327 0364 84F31088 		msr   primask, r4  	@ LockState
 1328              		
 1329              	@ 0 "" 2
 1330              		.thumb
 1331              		.syntax unified
 1332              	.LBE4:
 1333              	@ .\utilities\src\segger_rtt.c:700: }
 698:.\utilities\src/segger_rtt.c ****   //
 699:.\utilities\src/segger_rtt.c ****   return Status;
 700:.\utilities\src/segger_rtt.c **** }
 1334              		.loc 1 700 0
 1335              		@ sp needed	@
 1336              	.LVL141:
 1337              	.LVL142:
 1338              	.LVL143:
 1339              	.LVL144:
 1340 0368 F8BD     		pop	{r3, r4, r5, r6, r7, pc}
 1341              	.L67:
 1342 036a C046     		.align	2
 1343              	.L66:
 1344 036c 00000000 		.word	_SEGGER_RTT
 1345              		.cfi_endproc
 1346              	.LFE9:
 1347              		.size	SEGGER_RTT_Write, .-SEGGER_RTT_Write
 1348              		.align	1
 1349              		.global	SEGGER_RTT_WriteString
 1350              		.syntax unified
 1351              		.code	16
 1352              		.thumb_func
 1353              		.fpu softvfp
 1354              		.type	SEGGER_RTT_WriteString, %function
 1355              	SEGGER_RTT_WriteString:
 1356              	.LFB10:
 701:.\utilities\src/segger_rtt.c **** 
 702:.\utilities\src/segger_rtt.c **** /*********************************************************************
 703:.\utilities\src/segger_rtt.c **** *
 704:.\utilities\src/segger_rtt.c **** *       SEGGER_RTT_WriteString
 705:.\utilities\src/segger_rtt.c **** *
 706:.\utilities\src/segger_rtt.c **** *  Function description
 707:.\utilities\src/segger_rtt.c **** *    Stores string in SEGGER RTT control block.
 708:.\utilities\src/segger_rtt.c **** *    This data is read by the host.
 709:.\utilities\src/segger_rtt.c **** *
 710:.\utilities\src/segger_rtt.c **** *  Parameters
 711:.\utilities\src/segger_rtt.c **** *    BufferIndex  Index of "Up"-buffer to be used (e.g. 0 for "Terminal").
 712:.\utilities\src/segger_rtt.c **** *    s            Pointer to string.
 713:.\utilities\src/segger_rtt.c **** *
 714:.\utilities\src/segger_rtt.c **** *  Return value
 715:.\utilities\src/segger_rtt.c **** *    Number of bytes which have been stored in the "Up"-buffer.
 716:.\utilities\src/segger_rtt.c **** *
ARM GAS  C:\Users\claym\AppData\Local\Temp\ccb01mZK.s 			page 40


 717:.\utilities\src/segger_rtt.c **** *  Notes
 718:.\utilities\src/segger_rtt.c **** *    (1) If there is not enough space in the "Up"-buffer, depending on configuration,
 719:.\utilities\src/segger_rtt.c **** *        remaining characters may be dropped or RTT module waits until there is more space in the b
 720:.\utilities\src/segger_rtt.c **** *    (2) String passed to this function has to be \0 terminated
 721:.\utilities\src/segger_rtt.c **** *    (3) \0 termination character is *not* stored in RTT buffer
 722:.\utilities\src/segger_rtt.c **** */
 723:.\utilities\src/segger_rtt.c **** unsigned SEGGER_RTT_WriteString(unsigned BufferIndex, const char* s) {
 1357              		.loc 1 723 0
 1358              		.cfi_startproc
 1359              		@ args = 0, pretend = 0, frame = 0
 1360              		@ frame_needed = 0, uses_anonymous_args = 0
 1361              	.LVL145:
 1362 0370 70B5     		push	{r4, r5, r6, lr}	@
 1363              	.LCFI10:
 1364              		.cfi_def_cfa_offset 16
 1365              		.cfi_offset 4, -16
 1366              		.cfi_offset 5, -12
 1367              		.cfi_offset 6, -8
 1368              		.cfi_offset 14, -4
 1369              	@ .\utilities\src\segger_rtt.c:723: unsigned SEGGER_RTT_WriteString(unsigned BufferIndex, const cha
 1370              		.loc 1 723 0
 1371 0372 0500     		movs	r5, r0	@ BufferIndex, BufferIndex
 1372              	@ .\utilities\src\segger_rtt.c:726:   Len = STRLEN(s);
 724:.\utilities\src/segger_rtt.c ****   unsigned Len;
 725:.\utilities\src/segger_rtt.c **** 
 726:.\utilities\src/segger_rtt.c ****   Len = STRLEN(s);
 1373              		.loc 1 726 0
 1374 0374 0800     		movs	r0, r1	@, s
 1375              	.LVL146:
 1376              	@ .\utilities\src\segger_rtt.c:723: unsigned SEGGER_RTT_WriteString(unsigned BufferIndex, const cha
 723:.\utilities\src/segger_rtt.c ****   unsigned Len;
 1377              		.loc 1 723 0
 1378 0376 0C00     		movs	r4, r1	@ s, s
 1379              	@ .\utilities\src\segger_rtt.c:726:   Len = STRLEN(s);
 1380              		.loc 1 726 0
 1381 0378 FFF7FEFF 		bl	strlen	@
 1382              	.LVL147:
 1383              	@ .\utilities\src\segger_rtt.c:727:   return SEGGER_RTT_Write(BufferIndex, s, Len);
 727:.\utilities\src/segger_rtt.c ****   return SEGGER_RTT_Write(BufferIndex, s, Len);
 1384              		.loc 1 727 0
 1385 037c 2100     		movs	r1, r4	@, s
 1386              	@ .\utilities\src\segger_rtt.c:726:   Len = STRLEN(s);
 726:.\utilities\src/segger_rtt.c ****   return SEGGER_RTT_Write(BufferIndex, s, Len);
 1387              		.loc 1 726 0
 1388 037e 0200     		movs	r2, r0	@ tmp114,
 1389              	.LVL148:
 1390              	@ .\utilities\src\segger_rtt.c:727:   return SEGGER_RTT_Write(BufferIndex, s, Len);
 1391              		.loc 1 727 0
 1392 0380 2800     		movs	r0, r5	@, BufferIndex
 1393              	.LVL149:
 1394 0382 FFF7FEFF 		bl	SEGGER_RTT_Write	@
 1395              	.LVL150:
 1396              	@ .\utilities\src\segger_rtt.c:728: }
 728:.\utilities\src/segger_rtt.c **** }
 1397              		.loc 1 728 0
 1398              		@ sp needed	@
 1399              	.LVL151:
ARM GAS  C:\Users\claym\AppData\Local\Temp\ccb01mZK.s 			page 41


 1400              	.LVL152:
 1401 0386 70BD     		pop	{r4, r5, r6, pc}
 1402              		.cfi_endproc
 1403              	.LFE10:
 1404              		.size	SEGGER_RTT_WriteString, .-SEGGER_RTT_WriteString
 1405              		.align	1
 1406              		.global	SEGGER_RTT_GetKey
 1407              		.syntax unified
 1408              		.code	16
 1409              		.thumb_func
 1410              		.fpu softvfp
 1411              		.type	SEGGER_RTT_GetKey, %function
 1412              	SEGGER_RTT_GetKey:
 1413              	.LFB11:
 729:.\utilities\src/segger_rtt.c **** 
 730:.\utilities\src/segger_rtt.c **** /*********************************************************************
 731:.\utilities\src/segger_rtt.c **** *
 732:.\utilities\src/segger_rtt.c **** *       SEGGER_RTT_GetKey
 733:.\utilities\src/segger_rtt.c **** *
 734:.\utilities\src/segger_rtt.c **** *  Function description
 735:.\utilities\src/segger_rtt.c **** *    Reads one character from the SEGGER RTT buffer.
 736:.\utilities\src/segger_rtt.c **** *    Host has previously stored data there.
 737:.\utilities\src/segger_rtt.c **** *
 738:.\utilities\src/segger_rtt.c **** *  Return value
 739:.\utilities\src/segger_rtt.c **** *    <  0 -   No character available (buffer empty).
 740:.\utilities\src/segger_rtt.c **** *    >= 0 -   Character which has been read. (Possible values: 0 - 255)
 741:.\utilities\src/segger_rtt.c **** *
 742:.\utilities\src/segger_rtt.c **** *  Notes
 743:.\utilities\src/segger_rtt.c **** *    (1) This function is only specified for accesses to RTT buffer 0.
 744:.\utilities\src/segger_rtt.c **** */
 745:.\utilities\src/segger_rtt.c **** int SEGGER_RTT_GetKey(void) {
 1414              		.loc 1 745 0
 1415              		.cfi_startproc
 1416              		@ args = 0, pretend = 0, frame = 8
 1417              		@ frame_needed = 0, uses_anonymous_args = 0
 1418 0388 13B5     		push	{r0, r1, r4, lr}	@
 1419              	.LCFI11:
 1420              		.cfi_def_cfa_offset 16
 1421              		.cfi_offset 0, -16
 1422              		.cfi_offset 1, -12
 1423              		.cfi_offset 4, -8
 1424              		.cfi_offset 14, -4
 1425              	@ .\utilities\src\segger_rtt.c:749:   r = (int)SEGGER_RTT_Read(0u, &c, 1u);
 746:.\utilities\src/segger_rtt.c ****   char c;
 747:.\utilities\src/segger_rtt.c ****   int r;
 748:.\utilities\src/segger_rtt.c **** 
 749:.\utilities\src/segger_rtt.c ****   r = (int)SEGGER_RTT_Read(0u, &c, 1u);
 1426              		.loc 1 749 0
 1427 038a 6B46     		mov	r3, sp	@ tmp117,
 1428 038c DC1D     		adds	r4, r3, #7	@ tmp113, tmp117,
 1429 038e 0122     		movs	r2, #1	@,
 1430 0390 2100     		movs	r1, r4	@, tmp113
 1431 0392 0020     		movs	r0, #0	@,
 1432 0394 FFF7FEFF 		bl	SEGGER_RTT_Read	@
 1433              	.LVL153:
 1434              	@ .\utilities\src\segger_rtt.c:750:   if (r == 1) {
 750:.\utilities\src/segger_rtt.c ****   if (r == 1) {
ARM GAS  C:\Users\claym\AppData\Local\Temp\ccb01mZK.s 			page 42


 1435              		.loc 1 750 0
 1436 0398 0128     		cmp	r0, #1	@ _1,
 1437 039a 01D1     		bne	.L71	@,
 1438              	@ .\utilities\src\segger_rtt.c:751:     r = (int)(unsigned char)c;
 751:.\utilities\src/segger_rtt.c ****     r = (int)(unsigned char)c;
 1439              		.loc 1 751 0
 1440 039c 2078     		ldrb	r0, [r4]	@ <retval>, c
 1441              	.LVL154:
 1442              	.L69:
 1443              	@ .\utilities\src\segger_rtt.c:756: }
 752:.\utilities\src/segger_rtt.c ****   } else {
 753:.\utilities\src/segger_rtt.c ****     r = -1;
 754:.\utilities\src/segger_rtt.c ****   }
 755:.\utilities\src/segger_rtt.c ****   return r;
 756:.\utilities\src/segger_rtt.c **** }
 1444              		.loc 1 756 0
 1445              		@ sp needed	@
 1446 039e 16BD     		pop	{r1, r2, r4, pc}
 1447              	.LVL155:
 1448              	.L71:
 1449              	@ .\utilities\src\segger_rtt.c:753:     r = -1;
 753:.\utilities\src/segger_rtt.c ****   }
 1450              		.loc 1 753 0
 1451 03a0 0120     		movs	r0, #1	@ <retval>,
 1452              	.LVL156:
 1453 03a2 4042     		rsbs	r0, r0, #0	@ <retval>, <retval>
 1454              	.LVL157:
 1455              	@ .\utilities\src\segger_rtt.c:755:   return r;
 755:.\utilities\src/segger_rtt.c **** }
 1456              		.loc 1 755 0
 1457 03a4 FBE7     		b	.L69	@
 1458              		.cfi_endproc
 1459              	.LFE11:
 1460              		.size	SEGGER_RTT_GetKey, .-SEGGER_RTT_GetKey
 1461              		.align	1
 1462              		.global	SEGGER_RTT_WaitKey
 1463              		.syntax unified
 1464              		.code	16
 1465              		.thumb_func
 1466              		.fpu softvfp
 1467              		.type	SEGGER_RTT_WaitKey, %function
 1468              	SEGGER_RTT_WaitKey:
 1469              	.LFB12:
 757:.\utilities\src/segger_rtt.c **** 
 758:.\utilities\src/segger_rtt.c **** /*********************************************************************
 759:.\utilities\src/segger_rtt.c **** *
 760:.\utilities\src/segger_rtt.c **** *       SEGGER_RTT_WaitKey
 761:.\utilities\src/segger_rtt.c **** *
 762:.\utilities\src/segger_rtt.c **** *  Function description
 763:.\utilities\src/segger_rtt.c **** *    Waits until at least one character is avaible in the SEGGER RTT buffer.
 764:.\utilities\src/segger_rtt.c **** *    Once a character is available, it is read and this function returns.
 765:.\utilities\src/segger_rtt.c **** *
 766:.\utilities\src/segger_rtt.c **** *  Return value
 767:.\utilities\src/segger_rtt.c **** *    >=0 -   Character which has been read.
 768:.\utilities\src/segger_rtt.c **** *
 769:.\utilities\src/segger_rtt.c **** *  Notes
 770:.\utilities\src/segger_rtt.c **** *    (1) This function is only specified for accesses to RTT buffer 0
ARM GAS  C:\Users\claym\AppData\Local\Temp\ccb01mZK.s 			page 43


 771:.\utilities\src/segger_rtt.c **** *    (2) This function is blocking if no character is present in RTT buffer
 772:.\utilities\src/segger_rtt.c **** */
 773:.\utilities\src/segger_rtt.c **** int SEGGER_RTT_WaitKey(void) {
 1470              		.loc 1 773 0
 1471              		.cfi_startproc
 1472              		@ args = 0, pretend = 0, frame = 0
 1473              		@ frame_needed = 0, uses_anonymous_args = 0
 1474 03a6 10B5     		push	{r4, lr}	@
 1475              	.LCFI12:
 1476              		.cfi_def_cfa_offset 8
 1477              		.cfi_offset 4, -8
 1478              		.cfi_offset 14, -4
 1479              	.L73:
 1480              	@ .\utilities\src\segger_rtt.c:777:     r = SEGGER_RTT_GetKey();
 774:.\utilities\src/segger_rtt.c ****   int r;
 775:.\utilities\src/segger_rtt.c **** 
 776:.\utilities\src/segger_rtt.c ****   do {
 777:.\utilities\src/segger_rtt.c ****     r = SEGGER_RTT_GetKey();
 1481              		.loc 1 777 0 discriminator 1
 1482 03a8 FFF7FEFF 		bl	SEGGER_RTT_GetKey	@
 1483              	.LVL158:
 1484              	@ .\utilities\src\segger_rtt.c:778:   } while (r < 0);
 778:.\utilities\src/segger_rtt.c ****   } while (r < 0);
 1485              		.loc 1 778 0 discriminator 1
 1486 03ac 0028     		cmp	r0, #0	@ <retval>,
 1487 03ae FBDB     		blt	.L73	@,
 1488              	@ .\utilities\src\segger_rtt.c:780: }
 779:.\utilities\src/segger_rtt.c ****   return r;
 780:.\utilities\src/segger_rtt.c **** }
 1489              		.loc 1 780 0
 1490              		@ sp needed	@
 1491 03b0 10BD     		pop	{r4, pc}
 1492              		.cfi_endproc
 1493              	.LFE12:
 1494              		.size	SEGGER_RTT_WaitKey, .-SEGGER_RTT_WaitKey
 1495              		.align	1
 1496              		.global	SEGGER_RTT_HasKey
 1497              		.syntax unified
 1498              		.code	16
 1499              		.thumb_func
 1500              		.fpu softvfp
 1501              		.type	SEGGER_RTT_HasKey, %function
 1502              	SEGGER_RTT_HasKey:
 1503              	.LFB13:
 781:.\utilities\src/segger_rtt.c **** 
 782:.\utilities\src/segger_rtt.c **** /*********************************************************************
 783:.\utilities\src/segger_rtt.c **** *
 784:.\utilities\src/segger_rtt.c **** *       SEGGER_RTT_HasKey
 785:.\utilities\src/segger_rtt.c **** *
 786:.\utilities\src/segger_rtt.c **** *  Function description
 787:.\utilities\src/segger_rtt.c **** *    Checks if at least one character for reading is available in the SEGGER RTT buffer.
 788:.\utilities\src/segger_rtt.c **** *
 789:.\utilities\src/segger_rtt.c **** *  Return value
 790:.\utilities\src/segger_rtt.c **** *    == 0 -     No characters are available to read.
 791:.\utilities\src/segger_rtt.c **** *    == 1 -     At least one character is available.
 792:.\utilities\src/segger_rtt.c **** *
 793:.\utilities\src/segger_rtt.c **** *  Notes
ARM GAS  C:\Users\claym\AppData\Local\Temp\ccb01mZK.s 			page 44


 794:.\utilities\src/segger_rtt.c **** *    (1) This function is only specified for accesses to RTT buffer 0
 795:.\utilities\src/segger_rtt.c **** */
 796:.\utilities\src/segger_rtt.c **** int SEGGER_RTT_HasKey(void) {
 1504              		.loc 1 796 0
 1505              		.cfi_startproc
 1506              		@ args = 0, pretend = 0, frame = 0
 1507              		@ frame_needed = 0, uses_anonymous_args = 0
 1508 03b2 10B5     		push	{r4, lr}	@
 1509              	.LCFI13:
 1510              		.cfi_def_cfa_offset 8
 1511              		.cfi_offset 4, -8
 1512              		.cfi_offset 14, -4
 1513              	@ .\utilities\src\segger_rtt.c:800:   INIT();
 797:.\utilities\src/segger_rtt.c ****   unsigned RdOff;
 798:.\utilities\src/segger_rtt.c ****   int r;
 799:.\utilities\src/segger_rtt.c **** 
 800:.\utilities\src/segger_rtt.c ****   INIT();
 1514              		.loc 1 800 0
 1515 03b4 054C     		ldr	r4, .L77	@ tmp115,
 1516 03b6 2378     		ldrb	r3, [r4]	@ _SEGGER_RTT, _SEGGER_RTT
 1517 03b8 002B     		cmp	r3, #0	@ _SEGGER_RTT,
 1518 03ba 01D1     		bne	.L76	@,
 1519              	@ .\utilities\src\segger_rtt.c:800:   INIT();
 1520              		.loc 1 800 0 is_stmt 0 discriminator 1
 1521 03bc FFF774FE 		bl	_DoInit	@
 1522              	.LVL159:
 1523              	.L76:
 1524              	@ .\utilities\src\segger_rtt.c:802:   if (RdOff != _SEGGER_RTT.aDown[0].WrOff) {
 801:.\utilities\src/segger_rtt.c ****   RdOff = _SEGGER_RTT.aDown[0].RdOff;
 802:.\utilities\src/segger_rtt.c ****   if (RdOff != _SEGGER_RTT.aDown[0].WrOff) {
 1525              		.loc 1 802 0 is_stmt 1
 1526 03c0 E36E     		ldr	r3, [r4, #108]	@ _2, _SEGGER_RTT.aDown[0].WrOff
 1527              	.LVL160:
 1528 03c2 206F     		ldr	r0, [r4, #112]	@ _SEGGER_RTT.aDown[0].RdOff, _SEGGER_RTT.aDown[0].RdOff
 1529              	@ .\utilities\src\segger_rtt.c:808: }
 803:.\utilities\src/segger_rtt.c ****     r = 1;
 804:.\utilities\src/segger_rtt.c ****   } else {
 805:.\utilities\src/segger_rtt.c ****     r = 0;
 806:.\utilities\src/segger_rtt.c ****   }
 807:.\utilities\src/segger_rtt.c ****   return r;
 808:.\utilities\src/segger_rtt.c **** }
 1530              		.loc 1 808 0
 1531              		@ sp needed	@
 1532              	@ .\utilities\src\segger_rtt.c:802:   if (RdOff != _SEGGER_RTT.aDown[0].WrOff) {
 802:.\utilities\src/segger_rtt.c ****     r = 1;
 1533              		.loc 1 802 0
 1534 03c4 C01A     		subs	r0, r0, r3	@ tmp123, _SEGGER_RTT.aDown[0].RdOff, _2
 1535 03c6 431E     		subs	r3, r0, #1	@ tmp124, tmp123
 1536 03c8 9841     		sbcs	r0, r0, r3	@ tmp122, tmp123, tmp124
 1537              	.LVL161:
 1538              	@ .\utilities\src\segger_rtt.c:808: }
 1539              		.loc 1 808 0
 1540 03ca 10BD     		pop	{r4, pc}
 1541              	.L78:
 1542              		.align	2
 1543              	.L77:
 1544 03cc 00000000 		.word	_SEGGER_RTT
ARM GAS  C:\Users\claym\AppData\Local\Temp\ccb01mZK.s 			page 45


 1545              		.cfi_endproc
 1546              	.LFE13:
 1547              		.size	SEGGER_RTT_HasKey, .-SEGGER_RTT_HasKey
 1548              		.align	1
 1549              		.global	SEGGER_RTT_HasData
 1550              		.syntax unified
 1551              		.code	16
 1552              		.thumb_func
 1553              		.fpu softvfp
 1554              		.type	SEGGER_RTT_HasData, %function
 1555              	SEGGER_RTT_HasData:
 1556              	.LFB14:
 809:.\utilities\src/segger_rtt.c **** 
 810:.\utilities\src/segger_rtt.c **** /*********************************************************************
 811:.\utilities\src/segger_rtt.c **** *
 812:.\utilities\src/segger_rtt.c **** *       SEGGER_RTT_HasData
 813:.\utilities\src/segger_rtt.c **** *
 814:.\utilities\src/segger_rtt.c **** *  Function description
 815:.\utilities\src/segger_rtt.c **** *    Check if there is data from the host in the given buffer.
 816:.\utilities\src/segger_rtt.c **** *
 817:.\utilities\src/segger_rtt.c **** *  Return value:
 818:.\utilities\src/segger_rtt.c **** *  ==0:  No data
 819:.\utilities\src/segger_rtt.c **** *  !=0:  Data in buffer
 820:.\utilities\src/segger_rtt.c **** *
 821:.\utilities\src/segger_rtt.c **** */
 822:.\utilities\src/segger_rtt.c **** unsigned SEGGER_RTT_HasData(unsigned BufferIndex) {
 1557              		.loc 1 822 0
 1558              		.cfi_startproc
 1559              		@ args = 0, pretend = 0, frame = 0
 1560              		@ frame_needed = 0, uses_anonymous_args = 0
 1561              		@ link register save eliminated.
 1562              	.LVL162:
 1563              	@ .\utilities\src\segger_rtt.c:827:   v = pRing->WrOff;
 823:.\utilities\src/segger_rtt.c ****   SEGGER_RTT_BUFFER_DOWN* pRing;
 824:.\utilities\src/segger_rtt.c ****   unsigned                v;
 825:.\utilities\src/segger_rtt.c **** 
 826:.\utilities\src/segger_rtt.c ****   pRing = &_SEGGER_RTT.aDown[BufferIndex];
 827:.\utilities\src/segger_rtt.c ****   v = pRing->WrOff;
 1564              		.loc 1 827 0
 1565 03d0 1823     		movs	r3, #24	@ tmp115,
 1566 03d2 4343     		muls	r3, r0	@ tmp116, BufferIndex
 1567 03d4 0248     		ldr	r0, .L80	@ tmp114,
 1568              	.LVL163:
 1569              	@ .\utilities\src\segger_rtt.c:829: }
 828:.\utilities\src/segger_rtt.c ****   return v - pRing->RdOff;
 829:.\utilities\src/segger_rtt.c **** }
 1570              		.loc 1 829 0
 1571              		@ sp needed	@
 1572              	@ .\utilities\src\segger_rtt.c:827:   v = pRing->WrOff;
 827:.\utilities\src/segger_rtt.c ****   return v - pRing->RdOff;
 1573              		.loc 1 827 0
 1574 03d6 C018     		adds	r0, r0, r3	@ tmp117, tmp114, tmp116
 1575 03d8 C36E     		ldr	r3, [r0, #108]	@ v, MEM[(struct SEGGER_RTT_BUFFER_DOWN *)&_SEGGER_RTT].aDown[BufferIndex_2(D)]
 1576              	.LVL164:
 1577              	@ .\utilities\src\segger_rtt.c:828:   return v - pRing->RdOff;
 828:.\utilities\src/segger_rtt.c ****   return v - pRing->RdOff;
 1578              		.loc 1 828 0
ARM GAS  C:\Users\claym\AppData\Local\Temp\ccb01mZK.s 			page 46


 1579 03da 006F     		ldr	r0, [r0, #112]	@ MEM[(struct SEGGER_RTT_BUFFER_DOWN *)&_SEGGER_RTT].aDown[BufferIndex_2(D)].Rd
 1580 03dc 181A     		subs	r0, r3, r0	@ tmp119, v, MEM[(struct SEGGER_RTT_BUFFER_DOWN *)&_SEGGER_RTT].aDown[BufferIndex_
 1581              	@ .\utilities\src\segger_rtt.c:829: }
 1582              		.loc 1 829 0
 1583 03de 7047     		bx	lr
 1584              	.L81:
 1585              		.align	2
 1586              	.L80:
 1587 03e0 00000000 		.word	_SEGGER_RTT
 1588              		.cfi_endproc
 1589              	.LFE14:
 1590              		.size	SEGGER_RTT_HasData, .-SEGGER_RTT_HasData
 1591              		.align	1
 1592              		.global	SEGGER_RTT_AllocDownBuffer
 1593              		.syntax unified
 1594              		.code	16
 1595              		.thumb_func
 1596              		.fpu softvfp
 1597              		.type	SEGGER_RTT_AllocDownBuffer, %function
 1598              	SEGGER_RTT_AllocDownBuffer:
 1599              	.LFB15:
 830:.\utilities\src/segger_rtt.c **** 
 831:.\utilities\src/segger_rtt.c **** /*********************************************************************
 832:.\utilities\src/segger_rtt.c **** *
 833:.\utilities\src/segger_rtt.c **** *       SEGGER_RTT_AllocDownBuffer
 834:.\utilities\src/segger_rtt.c **** *
 835:.\utilities\src/segger_rtt.c **** *  Function description
 836:.\utilities\src/segger_rtt.c **** *    Run-time configuration of the next down-buffer (H->T).
 837:.\utilities\src/segger_rtt.c **** *    The next buffer, which is not used yet is configured.
 838:.\utilities\src/segger_rtt.c **** *    This includes: Buffer address, size, name, flags, ...
 839:.\utilities\src/segger_rtt.c **** *
 840:.\utilities\src/segger_rtt.c **** *  Parameters
 841:.\utilities\src/segger_rtt.c **** *    sName        Pointer to a constant name string.
 842:.\utilities\src/segger_rtt.c **** *    pBuffer      Pointer to a buffer to be used.
 843:.\utilities\src/segger_rtt.c **** *    BufferSize   Size of the buffer.
 844:.\utilities\src/segger_rtt.c **** *    Flags        Operating modes. Define behavior if buffer is full (not enough space for entire m
 845:.\utilities\src/segger_rtt.c **** *
 846:.\utilities\src/segger_rtt.c **** *  Return value
 847:.\utilities\src/segger_rtt.c **** *    >= 0 - O.K. Buffer Index
 848:.\utilities\src/segger_rtt.c **** *     < 0 - Error
 849:.\utilities\src/segger_rtt.c **** */
 850:.\utilities\src/segger_rtt.c **** int SEGGER_RTT_AllocDownBuffer(const char* sName, void* pBuffer, unsigned BufferSize, unsigned Flag
 1600              		.loc 1 850 0
 1601              		.cfi_startproc
 1602              		@ args = 0, pretend = 0, frame = 8
 1603              		@ frame_needed = 0, uses_anonymous_args = 0
 1604              	.LVL165:
 1605 03e4 F7B5     		push	{r0, r1, r2, r4, r5, r6, r7, lr}	@
 1606              	.LCFI14:
 1607              		.cfi_def_cfa_offset 32
 1608              		.cfi_offset 0, -32
 1609              		.cfi_offset 1, -28
 1610              		.cfi_offset 2, -24
 1611              		.cfi_offset 4, -20
 1612              		.cfi_offset 5, -16
 1613              		.cfi_offset 6, -12
 1614              		.cfi_offset 7, -8
ARM GAS  C:\Users\claym\AppData\Local\Temp\ccb01mZK.s 			page 47


 1615              		.cfi_offset 14, -4
 1616              	@ .\utilities\src\segger_rtt.c:853:   INIT();
 851:.\utilities\src/segger_rtt.c ****   int BufferIndex;
 852:.\utilities\src/segger_rtt.c **** 
 853:.\utilities\src/segger_rtt.c ****   INIT();
 1617              		.loc 1 853 0
 1618 03e6 164E     		ldr	r6, .L89	@ tmp146,
 1619              	@ .\utilities\src\segger_rtt.c:850: int SEGGER_RTT_AllocDownBuffer(const char* sName, void* pBuffer
 850:.\utilities\src/segger_rtt.c ****   int BufferIndex;
 1620              		.loc 1 850 0
 1621 03e8 0193     		str	r3, [sp, #4]	@ Flags, %sfp
 1622              	@ .\utilities\src\segger_rtt.c:853:   INIT();
 1623              		.loc 1 853 0
 1624 03ea 3378     		ldrb	r3, [r6]	@ _SEGGER_RTT, _SEGGER_RTT
 1625              	.LVL166:
 1626              	@ .\utilities\src\segger_rtt.c:850: int SEGGER_RTT_AllocDownBuffer(const char* sName, void* pBuffer
 850:.\utilities\src/segger_rtt.c ****   int BufferIndex;
 1627              		.loc 1 850 0
 1628 03ec 0500     		movs	r5, r0	@ sName, sName
 1629 03ee 0C00     		movs	r4, r1	@ pBuffer, pBuffer
 1630 03f0 0092     		str	r2, [sp]	@ BufferSize, %sfp
 1631              	@ .\utilities\src\segger_rtt.c:853:   INIT();
 1632              		.loc 1 853 0
 1633 03f2 002B     		cmp	r3, #0	@ _SEGGER_RTT,
 1634 03f4 01D1     		bne	.L83	@,
 1635              	@ .\utilities\src\segger_rtt.c:853:   INIT();
 1636              		.loc 1 853 0 is_stmt 0 discriminator 1
 1637 03f6 FFF757FE 		bl	_DoInit	@
 1638              	.LVL167:
 1639              	.L83:
 1640              	.LBB5:
 1641              	@ .\utilities\src\segger_rtt.c:854:   SEGGER_RTT_LOCK();
 854:.\utilities\src/segger_rtt.c ****   SEGGER_RTT_LOCK();
 1642              		.loc 1 854 0 is_stmt 1
 1643              		.syntax divided
 1644              	@ 854 ".\utilities\src\segger_rtt.c" 1
 1645 03fa EFF31087 		mrs   r7, primask  	@ LockState
 1646 03fe 0121     		mov   r1, $1     
 1647 0400 81F31088 		msr   primask, r1  
 1648              		
 1649              	@ 0 "" 2
 1650              	.LVL168:
 1651              	@ .\utilities\src\segger_rtt.c:857:     if (_SEGGER_RTT.aDown[BufferIndex].pBuffer == NULL) {
 855:.\utilities\src/segger_rtt.c ****   BufferIndex = 0;
 856:.\utilities\src/segger_rtt.c ****   do {
 857:.\utilities\src/segger_rtt.c ****     if (_SEGGER_RTT.aDown[BufferIndex].pBuffer == NULL) {
 1652              		.loc 1 857 0
 1653              		.thumb
 1654              		.syntax unified
 1655 0404 0E4B     		ldr	r3, .L89	@ tmp153,
 1656              	@ .\utilities\src\segger_rtt.c:861:   } while (BufferIndex < _SEGGER_RTT.MaxNumDownBuffers);
 858:.\utilities\src/segger_rtt.c ****       break;
 859:.\utilities\src/segger_rtt.c ****     }
 860:.\utilities\src/segger_rtt.c ****     BufferIndex++;
 861:.\utilities\src/segger_rtt.c ****   } while (BufferIndex < _SEGGER_RTT.MaxNumDownBuffers);
 1657              		.loc 1 861 0
 1658 0406 7169     		ldr	r1, [r6, #20]	@ _3, _SEGGER_RTT.MaxNumDownBuffers
ARM GAS  C:\Users\claym\AppData\Local\Temp\ccb01mZK.s 			page 48


 1659              	@ .\utilities\src\segger_rtt.c:855:   BufferIndex = 0;
 855:.\utilities\src/segger_rtt.c ****   BufferIndex = 0;
 1660              		.loc 1 855 0
 1661 0408 0020     		movs	r0, #0	@ <retval>,
 1662              	@ .\utilities\src\segger_rtt.c:857:     if (_SEGGER_RTT.aDown[BufferIndex].pBuffer == NULL) {
 857:.\utilities\src/segger_rtt.c ****       break;
 1663              		.loc 1 857 0
 1664 040a 1826     		movs	r6, #24	@ tmp150,
 1665 040c 9C46     		mov	ip, r3	@ tmp153, tmp153
 1666              	.LVL169:
 1667              	.L85:
 1668 040e 3300     		movs	r3, r6	@ tmp151, tmp150
 1669 0410 4343     		muls	r3, r0	@ tmp151, <retval>
 1670 0412 6344     		add	r3, r3, ip	@ tmp152, tmp153
 1671 0414 5A6E     		ldr	r2, [r3, #100]	@ MEM[base: _27, offset: 100B], MEM[base: _27, offset: 100B]
 1672 0416 002A     		cmp	r2, #0	@ MEM[base: _27, offset: 100B],
 1673 0418 05D0     		beq	.L84	@,
 1674              	@ .\utilities\src\segger_rtt.c:860:     BufferIndex++;
 860:.\utilities\src/segger_rtt.c ****   } while (BufferIndex < _SEGGER_RTT.MaxNumDownBuffers);
 1675              		.loc 1 860 0
 1676 041a 0130     		adds	r0, r0, #1	@ <retval>,
 1677              	.LVL170:
 1678              	@ .\utilities\src\segger_rtt.c:861:   } while (BufferIndex < _SEGGER_RTT.MaxNumDownBuffers);
 1679              		.loc 1 861 0
 1680 041c 8142     		cmp	r1, r0	@ _3, <retval>
 1681 041e F6DC     		bgt	.L85	@,
 1682              	.L87:
 1683              	@ .\utilities\src\segger_rtt.c:870:     BufferIndex = -1;
 862:.\utilities\src/segger_rtt.c ****   if (BufferIndex < _SEGGER_RTT.MaxNumDownBuffers) {
 863:.\utilities\src/segger_rtt.c ****     _SEGGER_RTT.aDown[BufferIndex].sName        = sName;
 864:.\utilities\src/segger_rtt.c ****     _SEGGER_RTT.aDown[BufferIndex].pBuffer      = pBuffer;
 865:.\utilities\src/segger_rtt.c ****     _SEGGER_RTT.aDown[BufferIndex].SizeOfBuffer = BufferSize;
 866:.\utilities\src/segger_rtt.c ****     _SEGGER_RTT.aDown[BufferIndex].RdOff        = 0u;
 867:.\utilities\src/segger_rtt.c ****     _SEGGER_RTT.aDown[BufferIndex].WrOff        = 0u;
 868:.\utilities\src/segger_rtt.c ****     _SEGGER_RTT.aDown[BufferIndex].Flags        = Flags;
 869:.\utilities\src/segger_rtt.c ****   } else {
 870:.\utilities\src/segger_rtt.c ****     BufferIndex = -1;
 1684              		.loc 1 870 0
 1685 0420 0120     		movs	r0, #1	@ <retval>,
 1686              	.LVL171:
 1687 0422 4042     		rsbs	r0, r0, #0	@ <retval>, <retval>
 1688 0424 09E0     		b	.L86	@
 1689              	.LVL172:
 1690              	.L84:
 1691              	@ .\utilities\src\segger_rtt.c:862:   if (BufferIndex < _SEGGER_RTT.MaxNumDownBuffers) {
 862:.\utilities\src/segger_rtt.c ****   if (BufferIndex < _SEGGER_RTT.MaxNumDownBuffers) {
 1692              		.loc 1 862 0
 1693 0426 8142     		cmp	r1, r0	@ _3, <retval>
 1694 0428 FADD     		ble	.L87	@,
 1695              	@ .\utilities\src\segger_rtt.c:865:     _SEGGER_RTT.aDown[BufferIndex].SizeOfBuffer = BufferSize;
 865:.\utilities\src/segger_rtt.c ****     _SEGGER_RTT.aDown[BufferIndex].RdOff        = 0u;
 1696              		.loc 1 865 0
 1697 042a 0099     		ldr	r1, [sp]	@ BufferSize, %sfp
 1698              	@ .\utilities\src\segger_rtt.c:866:     _SEGGER_RTT.aDown[BufferIndex].RdOff        = 0u;
 866:.\utilities\src/segger_rtt.c ****     _SEGGER_RTT.aDown[BufferIndex].WrOff        = 0u;
 1699              		.loc 1 866 0
 1700 042c 1A67     		str	r2, [r3, #112]	@ MEM[base: _27, offset: 100B], _SEGGER_RTT.aDown[BufferIndex_5].RdOff
ARM GAS  C:\Users\claym\AppData\Local\Temp\ccb01mZK.s 			page 49


 1701              	@ .\utilities\src\segger_rtt.c:867:     _SEGGER_RTT.aDown[BufferIndex].WrOff        = 0u;
 867:.\utilities\src/segger_rtt.c ****     _SEGGER_RTT.aDown[BufferIndex].Flags        = Flags;
 1702              		.loc 1 867 0
 1703 042e DA66     		str	r2, [r3, #108]	@ MEM[base: _27, offset: 100B], _SEGGER_RTT.aDown[BufferIndex_5].WrOff
 1704              	@ .\utilities\src\segger_rtt.c:868:     _SEGGER_RTT.aDown[BufferIndex].Flags        = Flags;
 868:.\utilities\src/segger_rtt.c ****   } else {
 1705              		.loc 1 868 0
 1706 0430 019A     		ldr	r2, [sp, #4]	@ Flags, %sfp
 1707              	@ .\utilities\src\segger_rtt.c:863:     _SEGGER_RTT.aDown[BufferIndex].sName        = sName;
 863:.\utilities\src/segger_rtt.c ****     _SEGGER_RTT.aDown[BufferIndex].pBuffer      = pBuffer;
 1708              		.loc 1 863 0
 1709 0432 1D66     		str	r5, [r3, #96]	@ sName, _SEGGER_RTT.aDown[BufferIndex_5].sName
 1710              	@ .\utilities\src\segger_rtt.c:864:     _SEGGER_RTT.aDown[BufferIndex].pBuffer      = pBuffer;
 864:.\utilities\src/segger_rtt.c ****     _SEGGER_RTT.aDown[BufferIndex].SizeOfBuffer = BufferSize;
 1711              		.loc 1 864 0
 1712 0434 5C66     		str	r4, [r3, #100]	@ pBuffer, _SEGGER_RTT.aDown[BufferIndex_5].pBuffer
 1713              	@ .\utilities\src\segger_rtt.c:865:     _SEGGER_RTT.aDown[BufferIndex].SizeOfBuffer = BufferSize;
 865:.\utilities\src/segger_rtt.c ****     _SEGGER_RTT.aDown[BufferIndex].RdOff        = 0u;
 1714              		.loc 1 865 0
 1715 0436 9966     		str	r1, [r3, #104]	@ BufferSize, _SEGGER_RTT.aDown[BufferIndex_5].SizeOfBuffer
 1716              	@ .\utilities\src\segger_rtt.c:868:     _SEGGER_RTT.aDown[BufferIndex].Flags        = Flags;
 868:.\utilities\src/segger_rtt.c ****   } else {
 1717              		.loc 1 868 0
 1718 0438 5A67     		str	r2, [r3, #116]	@ Flags, _SEGGER_RTT.aDown[BufferIndex_5].Flags
 1719              	.LVL173:
 1720              	.L86:
 1721              	@ .\utilities\src\segger_rtt.c:872:   SEGGER_RTT_UNLOCK();
 871:.\utilities\src/segger_rtt.c ****   }
 872:.\utilities\src/segger_rtt.c ****   SEGGER_RTT_UNLOCK();
 1722              		.loc 1 872 0
 1723              		.syntax divided
 1724              	@ 872 ".\utilities\src\segger_rtt.c" 1
 1725 043a 87F31088 		msr   primask, r7  	@ LockState
 1726              		
 1727              	@ 0 "" 2
 1728              		.thumb
 1729              		.syntax unified
 1730              	.LBE5:
 1731              	@ .\utilities\src\segger_rtt.c:874: }
 873:.\utilities\src/segger_rtt.c ****   return BufferIndex;
 874:.\utilities\src/segger_rtt.c **** }
 1732              		.loc 1 874 0
 1733              		@ sp needed	@
 1734              	.LVL174:
 1735              	.LVL175:
 1736              	.LVL176:
 1737 043e FEBD     		pop	{r1, r2, r3, r4, r5, r6, r7, pc}
 1738              	.L90:
 1739              		.align	2
 1740              	.L89:
 1741 0440 00000000 		.word	_SEGGER_RTT
 1742              		.cfi_endproc
 1743              	.LFE15:
 1744              		.size	SEGGER_RTT_AllocDownBuffer, .-SEGGER_RTT_AllocDownBuffer
 1745              		.align	1
 1746              		.global	SEGGER_RTT_AllocUpBuffer
 1747              		.syntax unified
ARM GAS  C:\Users\claym\AppData\Local\Temp\ccb01mZK.s 			page 50


 1748              		.code	16
 1749              		.thumb_func
 1750              		.fpu softvfp
 1751              		.type	SEGGER_RTT_AllocUpBuffer, %function
 1752              	SEGGER_RTT_AllocUpBuffer:
 1753              	.LFB16:
 875:.\utilities\src/segger_rtt.c **** 
 876:.\utilities\src/segger_rtt.c **** /*********************************************************************
 877:.\utilities\src/segger_rtt.c **** *
 878:.\utilities\src/segger_rtt.c **** *       SEGGER_RTT_AllocUpBuffer
 879:.\utilities\src/segger_rtt.c **** *
 880:.\utilities\src/segger_rtt.c **** *  Function description
 881:.\utilities\src/segger_rtt.c **** *    Run-time configuration of the next up-buffer (T->H).
 882:.\utilities\src/segger_rtt.c **** *    The next buffer, which is not used yet is configured.
 883:.\utilities\src/segger_rtt.c **** *    This includes: Buffer address, size, name, flags, ...
 884:.\utilities\src/segger_rtt.c **** *
 885:.\utilities\src/segger_rtt.c **** *  Parameters
 886:.\utilities\src/segger_rtt.c **** *    sName        Pointer to a constant name string.
 887:.\utilities\src/segger_rtt.c **** *    pBuffer      Pointer to a buffer to be used.
 888:.\utilities\src/segger_rtt.c **** *    BufferSize   Size of the buffer.
 889:.\utilities\src/segger_rtt.c **** *    Flags        Operating modes. Define behavior if buffer is full (not enough space for entire m
 890:.\utilities\src/segger_rtt.c **** *
 891:.\utilities\src/segger_rtt.c **** *  Return value
 892:.\utilities\src/segger_rtt.c **** *    >= 0 - O.K. Buffer Index
 893:.\utilities\src/segger_rtt.c **** *     < 0 - Error
 894:.\utilities\src/segger_rtt.c **** */
 895:.\utilities\src/segger_rtt.c **** int SEGGER_RTT_AllocUpBuffer(const char* sName, void* pBuffer, unsigned BufferSize, unsigned Flags)
 1754              		.loc 1 895 0
 1755              		.cfi_startproc
 1756              		@ args = 0, pretend = 0, frame = 16
 1757              		@ frame_needed = 0, uses_anonymous_args = 0
 1758              	.LVL177:
 1759 0444 F0B5     		push	{r4, r5, r6, r7, lr}	@
 1760              	.LCFI15:
 1761              		.cfi_def_cfa_offset 20
 1762              		.cfi_offset 4, -20
 1763              		.cfi_offset 5, -16
 1764              		.cfi_offset 6, -12
 1765              		.cfi_offset 7, -8
 1766              		.cfi_offset 14, -4
 1767              	@ .\utilities\src\segger_rtt.c:898:   INIT();
 896:.\utilities\src/segger_rtt.c ****   int BufferIndex;
 897:.\utilities\src/segger_rtt.c **** 
 898:.\utilities\src/segger_rtt.c ****   INIT();
 1768              		.loc 1 898 0
 1769 0446 194E     		ldr	r6, .L98	@ tmp122,
 1770              	@ .\utilities\src\segger_rtt.c:895: int SEGGER_RTT_AllocUpBuffer(const char* sName, void* pBuffer, 
 895:.\utilities\src/segger_rtt.c ****   int BufferIndex;
 1771              		.loc 1 895 0
 1772 0448 85B0     		sub	sp, sp, #20	@,,
 1773              	.LCFI16:
 1774              		.cfi_def_cfa_offset 40
 1775              	@ .\utilities\src\segger_rtt.c:895: int SEGGER_RTT_AllocUpBuffer(const char* sName, void* pBuffer, 
 895:.\utilities\src/segger_rtt.c ****   int BufferIndex;
 1776              		.loc 1 895 0
 1777 044a 0393     		str	r3, [sp, #12]	@ Flags, %sfp
 1778              	@ .\utilities\src\segger_rtt.c:898:   INIT();
ARM GAS  C:\Users\claym\AppData\Local\Temp\ccb01mZK.s 			page 51


 1779              		.loc 1 898 0
 1780 044c 3378     		ldrb	r3, [r6]	@ _SEGGER_RTT, _SEGGER_RTT
 1781              	.LVL178:
 1782              	@ .\utilities\src\segger_rtt.c:895: int SEGGER_RTT_AllocUpBuffer(const char* sName, void* pBuffer, 
 895:.\utilities\src/segger_rtt.c ****   int BufferIndex;
 1783              		.loc 1 895 0
 1784 044e 0500     		movs	r5, r0	@ sName, sName
 1785 0450 0191     		str	r1, [sp, #4]	@ pBuffer, %sfp
 1786 0452 0292     		str	r2, [sp, #8]	@ BufferSize, %sfp
 1787              	@ .\utilities\src\segger_rtt.c:898:   INIT();
 1788              		.loc 1 898 0
 1789 0454 002B     		cmp	r3, #0	@ _SEGGER_RTT,
 1790 0456 01D1     		bne	.L92	@,
 1791              	@ .\utilities\src\segger_rtt.c:898:   INIT();
 1792              		.loc 1 898 0 is_stmt 0 discriminator 1
 1793 0458 FFF726FE 		bl	_DoInit	@
 1794              	.LVL179:
 1795              	.L92:
 1796              	.LBB6:
 1797              	@ .\utilities\src\segger_rtt.c:899:   SEGGER_RTT_LOCK();
 899:.\utilities\src/segger_rtt.c ****   SEGGER_RTT_LOCK();
 1798              		.loc 1 899 0 is_stmt 1
 1799              		.syntax divided
 1800              	@ 899 ".\utilities\src\segger_rtt.c" 1
 1801 045c EFF31087 		mrs   r7, primask  	@ LockState
 1802 0460 0121     		mov   r1, $1     
 1803 0462 81F31088 		msr   primask, r1  
 1804              		
 1805              	@ 0 "" 2
 1806              	.LVL180:
 1807              	@ .\utilities\src\segger_rtt.c:906:   } while (BufferIndex < _SEGGER_RTT.MaxNumUpBuffers);
 900:.\utilities\src/segger_rtt.c ****   BufferIndex = 0;
 901:.\utilities\src/segger_rtt.c ****   do {
 902:.\utilities\src/segger_rtt.c ****     if (_SEGGER_RTT.aUp[BufferIndex].pBuffer == NULL) {
 903:.\utilities\src/segger_rtt.c ****       break;
 904:.\utilities\src/segger_rtt.c ****     }
 905:.\utilities\src/segger_rtt.c ****     BufferIndex++;
 906:.\utilities\src/segger_rtt.c ****   } while (BufferIndex < _SEGGER_RTT.MaxNumUpBuffers);
 1808              		.loc 1 906 0
 1809              		.thumb
 1810              		.syntax unified
 1811 0466 3369     		ldr	r3, [r6, #16]	@ _3, _SEGGER_RTT.MaxNumUpBuffers
 1812              	@ .\utilities\src\segger_rtt.c:900:   BufferIndex = 0;
 900:.\utilities\src/segger_rtt.c ****   BufferIndex = 0;
 1813              		.loc 1 900 0
 1814 0468 0020     		movs	r0, #0	@ <retval>,
 1815              	@ .\utilities\src\segger_rtt.c:906:   } while (BufferIndex < _SEGGER_RTT.MaxNumUpBuffers);
 1816              		.loc 1 906 0
 1817 046a 9C46     		mov	ip, r3	@ _3, _3
 1818              	@ .\utilities\src\segger_rtt.c:902:     if (_SEGGER_RTT.aUp[BufferIndex].pBuffer == NULL) {
 902:.\utilities\src/segger_rtt.c ****       break;
 1819              		.loc 1 902 0
 1820 046c 0F4A     		ldr	r2, .L98	@ tmp129,
 1821              	.LVL181:
 1822              	.L94:
 1823 046e 1823     		movs	r3, #24	@ tmp127,
 1824 0470 4343     		muls	r3, r0	@ tmp127, <retval>
ARM GAS  C:\Users\claym\AppData\Local\Temp\ccb01mZK.s 			page 52


 1825 0472 9B18     		adds	r3, r3, r2	@ tmp128, tmp127, tmp129
 1826 0474 DE69     		ldr	r6, [r3, #28]	@ MEM[base: _27, offset: 28B], MEM[base: _27, offset: 28B]
 1827 0476 002E     		cmp	r6, #0	@ MEM[base: _27, offset: 28B],
 1828 0478 05D0     		beq	.L93	@,
 1829              	@ .\utilities\src\segger_rtt.c:905:     BufferIndex++;
 905:.\utilities\src/segger_rtt.c ****   } while (BufferIndex < _SEGGER_RTT.MaxNumUpBuffers);
 1830              		.loc 1 905 0
 1831 047a 0130     		adds	r0, r0, #1	@ <retval>,
 1832              	.LVL182:
 1833              	@ .\utilities\src\segger_rtt.c:906:   } while (BufferIndex < _SEGGER_RTT.MaxNumUpBuffers);
 1834              		.loc 1 906 0
 1835 047c 8445     		cmp	ip, r0	@ _3, <retval>
 1836 047e F6DC     		bgt	.L94	@,
 1837              	.L96:
 1838              	@ .\utilities\src\segger_rtt.c:915:     BufferIndex = -1;
 907:.\utilities\src/segger_rtt.c ****   if (BufferIndex < _SEGGER_RTT.MaxNumUpBuffers) {
 908:.\utilities\src/segger_rtt.c ****     _SEGGER_RTT.aUp[BufferIndex].sName        = sName;
 909:.\utilities\src/segger_rtt.c ****     _SEGGER_RTT.aUp[BufferIndex].pBuffer      = pBuffer;
 910:.\utilities\src/segger_rtt.c ****     _SEGGER_RTT.aUp[BufferIndex].SizeOfBuffer = BufferSize;
 911:.\utilities\src/segger_rtt.c ****     _SEGGER_RTT.aUp[BufferIndex].RdOff        = 0u;
 912:.\utilities\src/segger_rtt.c ****     _SEGGER_RTT.aUp[BufferIndex].WrOff        = 0u;
 913:.\utilities\src/segger_rtt.c ****     _SEGGER_RTT.aUp[BufferIndex].Flags        = Flags;
 914:.\utilities\src/segger_rtt.c ****   } else {
 915:.\utilities\src/segger_rtt.c ****     BufferIndex = -1;
 1839              		.loc 1 915 0
 1840 0480 0120     		movs	r0, #1	@ <retval>,
 1841              	.LVL183:
 1842 0482 4042     		rsbs	r0, r0, #0	@ <retval>, <retval>
 1843 0484 0EE0     		b	.L95	@
 1844              	.LVL184:
 1845              	.L93:
 1846              	@ .\utilities\src\segger_rtt.c:907:   if (BufferIndex < _SEGGER_RTT.MaxNumUpBuffers) {
 907:.\utilities\src/segger_rtt.c ****   if (BufferIndex < _SEGGER_RTT.MaxNumUpBuffers) {
 1847              		.loc 1 907 0
 1848 0486 8445     		cmp	ip, r0	@ _3, <retval>
 1849 0488 FADD     		ble	.L96	@,
 1850              	@ .\utilities\src\segger_rtt.c:908:     _SEGGER_RTT.aUp[BufferIndex].sName        = sName;
 908:.\utilities\src/segger_rtt.c ****     _SEGGER_RTT.aUp[BufferIndex].pBuffer      = pBuffer;
 1851              		.loc 1 908 0
 1852 048a 1824     		movs	r4, #24	@ tmp173,
 1853 048c 411C     		adds	r1, r0, #1	@ tmp132, <retval>,
 1854 048e 6143     		muls	r1, r4	@ tmp134, tmp173
 1855 0490 8D50     		str	r5, [r1, r2]	@ sName, _SEGGER_RTT.aUp[BufferIndex_5].sName
 1856              	@ .\utilities\src\segger_rtt.c:909:     _SEGGER_RTT.aUp[BufferIndex].pBuffer      = pBuffer;
 909:.\utilities\src/segger_rtt.c ****     _SEGGER_RTT.aUp[BufferIndex].SizeOfBuffer = BufferSize;
 1857              		.loc 1 909 0
 1858 0492 5118     		adds	r1, r2, r1	@ tmp139, tmp129, tmp134
 1859 0494 019A     		ldr	r2, [sp, #4]	@ pBuffer, %sfp
 1860              	@ .\utilities\src\segger_rtt.c:911:     _SEGGER_RTT.aUp[BufferIndex].RdOff        = 0u;
 911:.\utilities\src/segger_rtt.c ****     _SEGGER_RTT.aUp[BufferIndex].WrOff        = 0u;
 1861              		.loc 1 911 0
 1862 0496 9E62     		str	r6, [r3, #40]	@ MEM[base: _27, offset: 28B], _SEGGER_RTT.aUp[BufferIndex_5].RdOff
 1863              	@ .\utilities\src\segger_rtt.c:909:     _SEGGER_RTT.aUp[BufferIndex].pBuffer      = pBuffer;
 909:.\utilities\src/segger_rtt.c ****     _SEGGER_RTT.aUp[BufferIndex].SizeOfBuffer = BufferSize;
 1864              		.loc 1 909 0
 1865 0498 4A60     		str	r2, [r1, #4]	@ pBuffer, _SEGGER_RTT.aUp[BufferIndex_5].pBuffer
 1866              	@ .\utilities\src\segger_rtt.c:910:     _SEGGER_RTT.aUp[BufferIndex].SizeOfBuffer = BufferSize;
ARM GAS  C:\Users\claym\AppData\Local\Temp\ccb01mZK.s 			page 53


 910:.\utilities\src/segger_rtt.c ****     _SEGGER_RTT.aUp[BufferIndex].RdOff        = 0u;
 1867              		.loc 1 910 0
 1868 049a 029A     		ldr	r2, [sp, #8]	@ BufferSize, %sfp
 1869              	@ .\utilities\src\segger_rtt.c:912:     _SEGGER_RTT.aUp[BufferIndex].WrOff        = 0u;
 912:.\utilities\src/segger_rtt.c ****     _SEGGER_RTT.aUp[BufferIndex].Flags        = Flags;
 1870              		.loc 1 912 0
 1871 049c 5E62     		str	r6, [r3, #36]	@ MEM[base: _27, offset: 28B], _SEGGER_RTT.aUp[BufferIndex_5].WrOff
 1872              	@ .\utilities\src\segger_rtt.c:910:     _SEGGER_RTT.aUp[BufferIndex].SizeOfBuffer = BufferSize;
 910:.\utilities\src/segger_rtt.c ****     _SEGGER_RTT.aUp[BufferIndex].RdOff        = 0u;
 1873              		.loc 1 910 0
 1874 049e 1A62     		str	r2, [r3, #32]	@ BufferSize, _SEGGER_RTT.aUp[BufferIndex_5].SizeOfBuffer
 1875              	@ .\utilities\src\segger_rtt.c:913:     _SEGGER_RTT.aUp[BufferIndex].Flags        = Flags;
 913:.\utilities\src/segger_rtt.c ****   } else {
 1876              		.loc 1 913 0
 1877 04a0 039A     		ldr	r2, [sp, #12]	@ Flags, %sfp
 1878 04a2 DA62     		str	r2, [r3, #44]	@ Flags, _SEGGER_RTT.aUp[BufferIndex_5].Flags
 1879              	.LVL185:
 1880              	.L95:
 1881              	@ .\utilities\src\segger_rtt.c:917:   SEGGER_RTT_UNLOCK();
 916:.\utilities\src/segger_rtt.c ****   }
 917:.\utilities\src/segger_rtt.c ****   SEGGER_RTT_UNLOCK();
 1882              		.loc 1 917 0
 1883              		.syntax divided
 1884              	@ 917 ".\utilities\src\segger_rtt.c" 1
 1885 04a4 87F31088 		msr   primask, r7  	@ LockState
 1886              		
 1887              	@ 0 "" 2
 1888              		.thumb
 1889              		.syntax unified
 1890              	.LBE6:
 1891              	@ .\utilities\src\segger_rtt.c:919: }
 918:.\utilities\src/segger_rtt.c ****   return BufferIndex;
 919:.\utilities\src/segger_rtt.c **** }
 1892              		.loc 1 919 0
 1893 04a8 05B0     		add	sp, sp, #20	@,,
 1894              		@ sp needed	@
 1895              	.LVL186:
 1896              	.LVL187:
 1897 04aa F0BD     		pop	{r4, r5, r6, r7, pc}
 1898              	.L99:
 1899              		.align	2
 1900              	.L98:
 1901 04ac 00000000 		.word	_SEGGER_RTT
 1902              		.cfi_endproc
 1903              	.LFE16:
 1904              		.size	SEGGER_RTT_AllocUpBuffer, .-SEGGER_RTT_AllocUpBuffer
 1905              		.align	1
 1906              		.global	SEGGER_RTT_ConfigUpBuffer
 1907              		.syntax unified
 1908              		.code	16
 1909              		.thumb_func
 1910              		.fpu softvfp
 1911              		.type	SEGGER_RTT_ConfigUpBuffer, %function
 1912              	SEGGER_RTT_ConfigUpBuffer:
 1913              	.LFB17:
 920:.\utilities\src/segger_rtt.c **** 
 921:.\utilities\src/segger_rtt.c **** /*********************************************************************
ARM GAS  C:\Users\claym\AppData\Local\Temp\ccb01mZK.s 			page 54


 922:.\utilities\src/segger_rtt.c **** *
 923:.\utilities\src/segger_rtt.c **** *       SEGGER_RTT_ConfigUpBuffer
 924:.\utilities\src/segger_rtt.c **** *
 925:.\utilities\src/segger_rtt.c **** *  Function description
 926:.\utilities\src/segger_rtt.c **** *    Run-time configuration of a specific up-buffer (T->H).
 927:.\utilities\src/segger_rtt.c **** *    Buffer to be configured is specified by index.
 928:.\utilities\src/segger_rtt.c **** *    This includes: Buffer address, size, name, flags, ...
 929:.\utilities\src/segger_rtt.c **** *
 930:.\utilities\src/segger_rtt.c **** *  Parameters
 931:.\utilities\src/segger_rtt.c **** *    BufferIndex  Index of the buffer to configure.
 932:.\utilities\src/segger_rtt.c **** *    sName        Pointer to a constant name string.
 933:.\utilities\src/segger_rtt.c **** *    pBuffer      Pointer to a buffer to be used.
 934:.\utilities\src/segger_rtt.c **** *    BufferSize   Size of the buffer.
 935:.\utilities\src/segger_rtt.c **** *    Flags        Operating modes. Define behavior if buffer is full (not enough space for entire m
 936:.\utilities\src/segger_rtt.c **** *
 937:.\utilities\src/segger_rtt.c **** *  Return value
 938:.\utilities\src/segger_rtt.c **** *    >= 0 - O.K.
 939:.\utilities\src/segger_rtt.c **** *     < 0 - Error
 940:.\utilities\src/segger_rtt.c **** */
 941:.\utilities\src/segger_rtt.c **** int SEGGER_RTT_ConfigUpBuffer(unsigned BufferIndex, const char* sName, void* pBuffer, unsigned Buff
 1914              		.loc 1 941 0
 1915              		.cfi_startproc
 1916              		@ args = 4, pretend = 0, frame = 8
 1917              		@ frame_needed = 0, uses_anonymous_args = 0
 1918              	.LVL188:
 1919 04b0 F7B5     		push	{r0, r1, r2, r4, r5, r6, r7, lr}	@
 1920              	.LCFI17:
 1921              		.cfi_def_cfa_offset 32
 1922              		.cfi_offset 0, -32
 1923              		.cfi_offset 1, -28
 1924              		.cfi_offset 2, -24
 1925              		.cfi_offset 4, -20
 1926              		.cfi_offset 5, -16
 1927              		.cfi_offset 6, -12
 1928              		.cfi_offset 7, -8
 1929              		.cfi_offset 14, -4
 1930              	@ .\utilities\src\segger_rtt.c:944:   INIT();
 942:.\utilities\src/segger_rtt.c ****   int r;
 943:.\utilities\src/segger_rtt.c **** 
 944:.\utilities\src/segger_rtt.c ****   INIT();
 1931              		.loc 1 944 0
 1932 04b2 164C     		ldr	r4, .L108	@ tmp120,
 1933              	@ .\utilities\src\segger_rtt.c:941: int SEGGER_RTT_ConfigUpBuffer(unsigned BufferIndex, const char*
 941:.\utilities\src/segger_rtt.c ****   int r;
 1934              		.loc 1 941 0
 1935 04b4 0193     		str	r3, [sp, #4]	@ BufferSize, %sfp
 1936              	@ .\utilities\src\segger_rtt.c:944:   INIT();
 1937              		.loc 1 944 0
 1938 04b6 2378     		ldrb	r3, [r4]	@ _SEGGER_RTT, _SEGGER_RTT
 1939              	.LVL189:
 1940              	@ .\utilities\src\segger_rtt.c:941: int SEGGER_RTT_ConfigUpBuffer(unsigned BufferIndex, const char*
 941:.\utilities\src/segger_rtt.c ****   int r;
 1941              		.loc 1 941 0
 1942 04b8 0500     		movs	r5, r0	@ BufferIndex, BufferIndex
 1943 04ba 0F00     		movs	r7, r1	@ sName, sName
 1944 04bc 1600     		movs	r6, r2	@ pBuffer, pBuffer
 1945              	@ .\utilities\src\segger_rtt.c:944:   INIT();
ARM GAS  C:\Users\claym\AppData\Local\Temp\ccb01mZK.s 			page 55


 1946              		.loc 1 944 0
 1947 04be 002B     		cmp	r3, #0	@ _SEGGER_RTT,
 1948 04c0 01D1     		bne	.L101	@,
 1949              	@ .\utilities\src\segger_rtt.c:944:   INIT();
 1950              		.loc 1 944 0 is_stmt 0 discriminator 1
 1951 04c2 FFF7F1FD 		bl	_DoInit	@
 1952              	.LVL190:
 1953              	.L101:
 1954              	@ .\utilities\src\segger_rtt.c:945:   if (BufferIndex < (unsigned)_SEGGER_RTT.MaxNumUpBuffers) {
 945:.\utilities\src/segger_rtt.c ****   if (BufferIndex < (unsigned)_SEGGER_RTT.MaxNumUpBuffers) {
 1955              		.loc 1 945 0 is_stmt 1
 1956 04c6 2369     		ldr	r3, [r4, #16]	@ tmp160, _SEGGER_RTT.MaxNumUpBuffers
 1957 04c8 AB42     		cmp	r3, r5	@ tmp160, BufferIndex
 1958 04ca 1CD9     		bls	.L104	@,
 1959              	.LBB7:
 1960              	@ .\utilities\src\segger_rtt.c:946:     SEGGER_RTT_LOCK();
 946:.\utilities\src/segger_rtt.c ****     SEGGER_RTT_LOCK();
 1961              		.loc 1 946 0
 1962              		.syntax divided
 1963              	@ 946 ".\utilities\src\segger_rtt.c" 1
 1964 04cc EFF31082 		mrs   r2, primask  	@ LockState
 1965 04d0 0121     		mov   r1, $1     
 1966 04d2 81F31088 		msr   primask, r1  
 1967              		
 1968              	@ 0 "" 2
 1969              	.LVL191:
 1970              	@ .\utilities\src\segger_rtt.c:947:     if (BufferIndex > 0u) {
 947:.\utilities\src/segger_rtt.c ****     if (BufferIndex > 0u) {
 1971              		.loc 1 947 0
 1972              		.thumb
 1973              		.syntax unified
 1974 04d6 002D     		cmp	r5, #0	@ BufferIndex,
 1975 04d8 0CD0     		beq	.L103	@,
 1976              	@ .\utilities\src\segger_rtt.c:948:       _SEGGER_RTT.aUp[BufferIndex].sName        = sName;
 948:.\utilities\src/segger_rtt.c ****       _SEGGER_RTT.aUp[BufferIndex].sName        = sName;
 1977              		.loc 1 948 0
 1978 04da 1823     		movs	r3, #24	@ tmp127,
 1979 04dc 691C     		adds	r1, r5, #1	@ tmp126, BufferIndex,
 1980 04de 5943     		muls	r1, r3	@ tmp128, tmp127
 1981              	@ .\utilities\src\segger_rtt.c:950:       _SEGGER_RTT.aUp[BufferIndex].SizeOfBuffer = BufferSize;
 949:.\utilities\src/segger_rtt.c ****       _SEGGER_RTT.aUp[BufferIndex].pBuffer      = pBuffer;
 950:.\utilities\src/segger_rtt.c ****       _SEGGER_RTT.aUp[BufferIndex].SizeOfBuffer = BufferSize;
 1982              		.loc 1 950 0
 1983 04e0 6B43     		muls	r3, r5	@ tmp137, BufferIndex
 1984              	@ .\utilities\src\segger_rtt.c:948:       _SEGGER_RTT.aUp[BufferIndex].sName        = sName;
 948:.\utilities\src/segger_rtt.c ****       _SEGGER_RTT.aUp[BufferIndex].sName        = sName;
 1985              		.loc 1 948 0
 1986 04e2 6750     		str	r7, [r4, r1]	@ sName, _SEGGER_RTT.aUp[BufferIndex_10(D)].sName
 1987              	@ .\utilities\src\segger_rtt.c:949:       _SEGGER_RTT.aUp[BufferIndex].pBuffer      = pBuffer;
 949:.\utilities\src/segger_rtt.c ****       _SEGGER_RTT.aUp[BufferIndex].pBuffer      = pBuffer;
 1988              		.loc 1 949 0
 1989 04e4 6118     		adds	r1, r4, r1	@ tmp133, tmp120, tmp128
 1990 04e6 4E60     		str	r6, [r1, #4]	@ pBuffer, _SEGGER_RTT.aUp[BufferIndex_10(D)].pBuffer
 1991              	@ .\utilities\src\segger_rtt.c:950:       _SEGGER_RTT.aUp[BufferIndex].SizeOfBuffer = BufferSize;
 1992              		.loc 1 950 0
 1993 04e8 0199     		ldr	r1, [sp, #4]	@ BufferSize, %sfp
 1994 04ea E318     		adds	r3, r4, r3	@ tmp138, tmp120, tmp137
ARM GAS  C:\Users\claym\AppData\Local\Temp\ccb01mZK.s 			page 56


 1995 04ec 1962     		str	r1, [r3, #32]	@ BufferSize, _SEGGER_RTT.aUp[BufferIndex_10(D)].SizeOfBuffer
 1996              	@ .\utilities\src\segger_rtt.c:951:       _SEGGER_RTT.aUp[BufferIndex].RdOff        = 0u;
 951:.\utilities\src/segger_rtt.c ****       _SEGGER_RTT.aUp[BufferIndex].RdOff        = 0u;
 1997              		.loc 1 951 0
 1998 04ee 0021     		movs	r1, #0	@ tmp145,
 1999 04f0 9962     		str	r1, [r3, #40]	@ tmp145, _SEGGER_RTT.aUp[BufferIndex_10(D)].RdOff
 2000              	@ .\utilities\src\segger_rtt.c:952:       _SEGGER_RTT.aUp[BufferIndex].WrOff        = 0u;
 952:.\utilities\src/segger_rtt.c ****       _SEGGER_RTT.aUp[BufferIndex].WrOff        = 0u;
 2001              		.loc 1 952 0
 2002 04f2 5962     		str	r1, [r3, #36]	@ tmp145, _SEGGER_RTT.aUp[BufferIndex_10(D)].WrOff
 2003              	.L103:
 2004              	@ .\utilities\src\segger_rtt.c:954:     _SEGGER_RTT.aUp[BufferIndex].Flags          = Flags;
 953:.\utilities\src/segger_rtt.c ****     }
 954:.\utilities\src/segger_rtt.c ****     _SEGGER_RTT.aUp[BufferIndex].Flags          = Flags;
 2005              		.loc 1 954 0
 2006 04f4 1823     		movs	r3, #24	@ tmp153,
 2007 04f6 5D43     		muls	r5, r3	@ tmp154, tmp153
 2008              	.LVL192:
 2009 04f8 089B     		ldr	r3, [sp, #32]	@ tmp163, Flags
 2010 04fa 6419     		adds	r4, r4, r5	@ tmp155, tmp120, tmp154
 2011 04fc E362     		str	r3, [r4, #44]	@ tmp163, _SEGGER_RTT.aUp[BufferIndex_10(D)].Flags
 2012              	@ .\utilities\src\segger_rtt.c:955:     SEGGER_RTT_UNLOCK();
 955:.\utilities\src/segger_rtt.c ****     SEGGER_RTT_UNLOCK();
 2013              		.loc 1 955 0
 2014              		.syntax divided
 2015              	@ 955 ".\utilities\src\segger_rtt.c" 1
 2016 04fe 82F31088 		msr   primask, r2  	@ LockState
 2017              		
 2018              	@ 0 "" 2
 2019              	.LVL193:
 2020              		.thumb
 2021              		.syntax unified
 2022              	.LBE7:
 2023              	@ .\utilities\src\segger_rtt.c:956:     r =  0;
 956:.\utilities\src/segger_rtt.c ****     r =  0;
 2024              		.loc 1 956 0
 2025 0502 0020     		movs	r0, #0	@ <retval>,
 2026              	.LVL194:
 2027              	.L100:
 2028              	@ .\utilities\src\segger_rtt.c:961: }
 957:.\utilities\src/segger_rtt.c ****   } else {
 958:.\utilities\src/segger_rtt.c ****     r = -1;
 959:.\utilities\src/segger_rtt.c ****   }
 960:.\utilities\src/segger_rtt.c ****   return r;
 961:.\utilities\src/segger_rtt.c **** }
 2029              		.loc 1 961 0
 2030              		@ sp needed	@
 2031              	.LVL195:
 2032              	.LVL196:
 2033 0504 FEBD     		pop	{r1, r2, r3, r4, r5, r6, r7, pc}
 2034              	.LVL197:
 2035              	.L104:
 2036              	@ .\utilities\src\segger_rtt.c:958:     r = -1;
 958:.\utilities\src/segger_rtt.c ****   }
 2037              		.loc 1 958 0
 2038 0506 0120     		movs	r0, #1	@ <retval>,
 2039 0508 4042     		rsbs	r0, r0, #0	@ <retval>, <retval>
ARM GAS  C:\Users\claym\AppData\Local\Temp\ccb01mZK.s 			page 57


 2040              	.LVL198:
 2041              	@ .\utilities\src\segger_rtt.c:960:   return r;
 960:.\utilities\src/segger_rtt.c **** }
 2042              		.loc 1 960 0
 2043 050a FBE7     		b	.L100	@
 2044              	.L109:
 2045              		.align	2
 2046              	.L108:
 2047 050c 00000000 		.word	_SEGGER_RTT
 2048              		.cfi_endproc
 2049              	.LFE17:
 2050              		.size	SEGGER_RTT_ConfigUpBuffer, .-SEGGER_RTT_ConfigUpBuffer
 2051              		.align	1
 2052              		.global	SEGGER_RTT_ConfigDownBuffer
 2053              		.syntax unified
 2054              		.code	16
 2055              		.thumb_func
 2056              		.fpu softvfp
 2057              		.type	SEGGER_RTT_ConfigDownBuffer, %function
 2058              	SEGGER_RTT_ConfigDownBuffer:
 2059              	.LFB18:
 962:.\utilities\src/segger_rtt.c **** 
 963:.\utilities\src/segger_rtt.c **** /*********************************************************************
 964:.\utilities\src/segger_rtt.c **** *
 965:.\utilities\src/segger_rtt.c **** *       SEGGER_RTT_ConfigDownBuffer
 966:.\utilities\src/segger_rtt.c **** *
 967:.\utilities\src/segger_rtt.c **** *  Function description
 968:.\utilities\src/segger_rtt.c **** *    Run-time configuration of a specific down-buffer (H->T).
 969:.\utilities\src/segger_rtt.c **** *    Buffer to be configured is specified by index.
 970:.\utilities\src/segger_rtt.c **** *    This includes: Buffer address, size, name, flags, ...
 971:.\utilities\src/segger_rtt.c **** *
 972:.\utilities\src/segger_rtt.c **** *  Parameters
 973:.\utilities\src/segger_rtt.c **** *    BufferIndex  Index of the buffer to configure.
 974:.\utilities\src/segger_rtt.c **** *    sName        Pointer to a constant name string.
 975:.\utilities\src/segger_rtt.c **** *    pBuffer      Pointer to a buffer to be used.
 976:.\utilities\src/segger_rtt.c **** *    BufferSize   Size of the buffer.
 977:.\utilities\src/segger_rtt.c **** *    Flags        Operating modes. Define behavior if buffer is full (not enough space for entire m
 978:.\utilities\src/segger_rtt.c **** *
 979:.\utilities\src/segger_rtt.c **** *  Return value
 980:.\utilities\src/segger_rtt.c **** *    >= 0  O.K.
 981:.\utilities\src/segger_rtt.c **** *     < 0  Error
 982:.\utilities\src/segger_rtt.c **** */
 983:.\utilities\src/segger_rtt.c **** int SEGGER_RTT_ConfigDownBuffer(unsigned BufferIndex, const char* sName, void* pBuffer, unsigned Bu
 2060              		.loc 1 983 0
 2061              		.cfi_startproc
 2062              		@ args = 4, pretend = 0, frame = 8
 2063              		@ frame_needed = 0, uses_anonymous_args = 0
 2064              	.LVL199:
 2065 0510 F7B5     		push	{r0, r1, r2, r4, r5, r6, r7, lr}	@
 2066              	.LCFI18:
 2067              		.cfi_def_cfa_offset 32
 2068              		.cfi_offset 0, -32
 2069              		.cfi_offset 1, -28
 2070              		.cfi_offset 2, -24
 2071              		.cfi_offset 4, -20
 2072              		.cfi_offset 5, -16
 2073              		.cfi_offset 6, -12
ARM GAS  C:\Users\claym\AppData\Local\Temp\ccb01mZK.s 			page 58


 2074              		.cfi_offset 7, -8
 2075              		.cfi_offset 14, -4
 2076              	@ .\utilities\src\segger_rtt.c:986:   INIT();
 984:.\utilities\src/segger_rtt.c ****   int r;
 985:.\utilities\src/segger_rtt.c **** 
 986:.\utilities\src/segger_rtt.c ****   INIT();
 2077              		.loc 1 986 0
 2078 0512 154C     		ldr	r4, .L118	@ tmp120,
 2079              	@ .\utilities\src\segger_rtt.c:983: int SEGGER_RTT_ConfigDownBuffer(unsigned BufferIndex, const cha
 983:.\utilities\src/segger_rtt.c ****   int r;
 2080              		.loc 1 983 0
 2081 0514 0193     		str	r3, [sp, #4]	@ BufferSize, %sfp
 2082              	@ .\utilities\src\segger_rtt.c:986:   INIT();
 2083              		.loc 1 986 0
 2084 0516 2378     		ldrb	r3, [r4]	@ _SEGGER_RTT, _SEGGER_RTT
 2085              	.LVL200:
 2086              	@ .\utilities\src\segger_rtt.c:983: int SEGGER_RTT_ConfigDownBuffer(unsigned BufferIndex, const cha
 983:.\utilities\src/segger_rtt.c ****   int r;
 2087              		.loc 1 983 0
 2088 0518 0500     		movs	r5, r0	@ BufferIndex, BufferIndex
 2089 051a 0F00     		movs	r7, r1	@ sName, sName
 2090 051c 1600     		movs	r6, r2	@ pBuffer, pBuffer
 2091              	@ .\utilities\src\segger_rtt.c:986:   INIT();
 2092              		.loc 1 986 0
 2093 051e 002B     		cmp	r3, #0	@ _SEGGER_RTT,
 2094 0520 01D1     		bne	.L111	@,
 2095              	@ .\utilities\src\segger_rtt.c:986:   INIT();
 2096              		.loc 1 986 0 is_stmt 0 discriminator 1
 2097 0522 FFF7C1FD 		bl	_DoInit	@
 2098              	.LVL201:
 2099              	.L111:
 2100              	@ .\utilities\src\segger_rtt.c:987:   if (BufferIndex < (unsigned)_SEGGER_RTT.MaxNumDownBuffers) {
 987:.\utilities\src/segger_rtt.c ****   if (BufferIndex < (unsigned)_SEGGER_RTT.MaxNumDownBuffers) {
 2101              		.loc 1 987 0 is_stmt 1
 2102 0526 6369     		ldr	r3, [r4, #20]	@ tmp160, _SEGGER_RTT.MaxNumDownBuffers
 2103 0528 AB42     		cmp	r3, r5	@ tmp160, BufferIndex
 2104 052a 19D9     		bls	.L114	@,
 2105              	.LBB8:
 2106              	@ .\utilities\src\segger_rtt.c:988:     SEGGER_RTT_LOCK();
 988:.\utilities\src/segger_rtt.c ****     SEGGER_RTT_LOCK();
 2107              		.loc 1 988 0
 2108              		.syntax divided
 2109              	@ 988 ".\utilities\src\segger_rtt.c" 1
 2110 052c EFF31082 		mrs   r2, primask  	@ LockState
 2111 0530 0121     		mov   r1, $1     
 2112 0532 81F31088 		msr   primask, r1  
 2113              		
 2114              	@ 0 "" 2
 2115              	.LVL202:
 2116              	@ .\utilities\src\segger_rtt.c:989:     if (BufferIndex > 0u) {
 989:.\utilities\src/segger_rtt.c ****     if (BufferIndex > 0u) {
 2117              		.loc 1 989 0
 2118              		.thumb
 2119              		.syntax unified
 2120 0536 002D     		cmp	r5, #0	@ BufferIndex,
 2121 0538 09D0     		beq	.L113	@,
 2122              	@ .\utilities\src\segger_rtt.c:990:       _SEGGER_RTT.aDown[BufferIndex].sName        = sName;
ARM GAS  C:\Users\claym\AppData\Local\Temp\ccb01mZK.s 			page 59


 990:.\utilities\src/segger_rtt.c ****       _SEGGER_RTT.aDown[BufferIndex].sName        = sName;
 2123              		.loc 1 990 0
 2124 053a 1823     		movs	r3, #24	@ tmp126,
 2125 053c 6B43     		muls	r3, r5	@ tmp127, BufferIndex
 2126              	@ .\utilities\src\segger_rtt.c:992:       _SEGGER_RTT.aDown[BufferIndex].SizeOfBuffer = BufferSize;
 991:.\utilities\src/segger_rtt.c ****       _SEGGER_RTT.aDown[BufferIndex].pBuffer      = pBuffer;
 992:.\utilities\src/segger_rtt.c ****       _SEGGER_RTT.aDown[BufferIndex].SizeOfBuffer = BufferSize;
 2127              		.loc 1 992 0
 2128 053e 0199     		ldr	r1, [sp, #4]	@ BufferSize, %sfp
 2129              	@ .\utilities\src\segger_rtt.c:990:       _SEGGER_RTT.aDown[BufferIndex].sName        = sName;
 990:.\utilities\src/segger_rtt.c ****       _SEGGER_RTT.aDown[BufferIndex].sName        = sName;
 2130              		.loc 1 990 0
 2131 0540 E318     		adds	r3, r4, r3	@ tmp128, tmp120, tmp127
 2132              	@ .\utilities\src\segger_rtt.c:992:       _SEGGER_RTT.aDown[BufferIndex].SizeOfBuffer = BufferSize;
 2133              		.loc 1 992 0
 2134 0542 9966     		str	r1, [r3, #104]	@ BufferSize, _SEGGER_RTT.aDown[BufferIndex_10(D)].SizeOfBuffer
 2135              	@ .\utilities\src\segger_rtt.c:993:       _SEGGER_RTT.aDown[BufferIndex].RdOff        = 0u;
 993:.\utilities\src/segger_rtt.c ****       _SEGGER_RTT.aDown[BufferIndex].RdOff        = 0u;
 2136              		.loc 1 993 0
 2137 0544 0021     		movs	r1, #0	@ tmp145,
 2138              	@ .\utilities\src\segger_rtt.c:990:       _SEGGER_RTT.aDown[BufferIndex].sName        = sName;
 990:.\utilities\src/segger_rtt.c ****       _SEGGER_RTT.aDown[BufferIndex].sName        = sName;
 2139              		.loc 1 990 0
 2140 0546 1F66     		str	r7, [r3, #96]	@ sName, _SEGGER_RTT.aDown[BufferIndex_10(D)].sName
 2141              	@ .\utilities\src\segger_rtt.c:991:       _SEGGER_RTT.aDown[BufferIndex].pBuffer      = pBuffer;
 991:.\utilities\src/segger_rtt.c ****       _SEGGER_RTT.aDown[BufferIndex].pBuffer      = pBuffer;
 2142              		.loc 1 991 0
 2143 0548 5E66     		str	r6, [r3, #100]	@ pBuffer, _SEGGER_RTT.aDown[BufferIndex_10(D)].pBuffer
 2144              	@ .\utilities\src\segger_rtt.c:993:       _SEGGER_RTT.aDown[BufferIndex].RdOff        = 0u;
 2145              		.loc 1 993 0
 2146 054a 1967     		str	r1, [r3, #112]	@ tmp145, _SEGGER_RTT.aDown[BufferIndex_10(D)].RdOff
 2147              	@ .\utilities\src\segger_rtt.c:994:       _SEGGER_RTT.aDown[BufferIndex].WrOff        = 0u;
 994:.\utilities\src/segger_rtt.c ****       _SEGGER_RTT.aDown[BufferIndex].WrOff        = 0u;
 2148              		.loc 1 994 0
 2149 054c D966     		str	r1, [r3, #108]	@ tmp145, _SEGGER_RTT.aDown[BufferIndex_10(D)].WrOff
 2150              	.L113:
 2151              	@ .\utilities\src\segger_rtt.c:996:     _SEGGER_RTT.aDown[BufferIndex].Flags          = Flags;
 995:.\utilities\src/segger_rtt.c ****     }
 996:.\utilities\src/segger_rtt.c ****     _SEGGER_RTT.aDown[BufferIndex].Flags          = Flags;
 2152              		.loc 1 996 0
 2153 054e 1823     		movs	r3, #24	@ tmp153,
 2154 0550 5D43     		muls	r5, r3	@ tmp154, tmp153
 2155              	.LVL203:
 2156 0552 089B     		ldr	r3, [sp, #32]	@ tmp163, Flags
 2157 0554 6419     		adds	r4, r4, r5	@ tmp155, tmp120, tmp154
 2158 0556 6367     		str	r3, [r4, #116]	@ tmp163, _SEGGER_RTT.aDown[BufferIndex_10(D)].Flags
 2159              	@ .\utilities\src\segger_rtt.c:997:     SEGGER_RTT_UNLOCK();
 997:.\utilities\src/segger_rtt.c ****     SEGGER_RTT_UNLOCK();
 2160              		.loc 1 997 0
 2161              		.syntax divided
 2162              	@ 997 ".\utilities\src\segger_rtt.c" 1
 2163 0558 82F31088 		msr   primask, r2  	@ LockState
 2164              		
 2165              	@ 0 "" 2
 2166              	.LVL204:
 2167              		.thumb
 2168              		.syntax unified
ARM GAS  C:\Users\claym\AppData\Local\Temp\ccb01mZK.s 			page 60


 2169              	.LBE8:
 2170              	@ .\utilities\src\segger_rtt.c:998:     r =  0;
 998:.\utilities\src/segger_rtt.c ****     r =  0;
 2171              		.loc 1 998 0
 2172 055c 0020     		movs	r0, #0	@ <retval>,
 2173              	.LVL205:
 2174              	.L110:
 2175              	@ .\utilities\src\segger_rtt.c:1003: }
 999:.\utilities\src/segger_rtt.c ****   } else {
1000:.\utilities\src/segger_rtt.c ****     r = -1;
1001:.\utilities\src/segger_rtt.c ****   }
1002:.\utilities\src/segger_rtt.c ****   return r;
1003:.\utilities\src/segger_rtt.c **** }
 2176              		.loc 1 1003 0
 2177              		@ sp needed	@
 2178              	.LVL206:
 2179              	.LVL207:
 2180 055e FEBD     		pop	{r1, r2, r3, r4, r5, r6, r7, pc}
 2181              	.LVL208:
 2182              	.L114:
 2183              	@ .\utilities\src\segger_rtt.c:1000:     r = -1;
1000:.\utilities\src/segger_rtt.c ****   }
 2184              		.loc 1 1000 0
 2185 0560 0120     		movs	r0, #1	@ <retval>,
 2186 0562 4042     		rsbs	r0, r0, #0	@ <retval>, <retval>
 2187              	.LVL209:
 2188              	@ .\utilities\src\segger_rtt.c:1002:   return r;
1002:.\utilities\src/segger_rtt.c **** }
 2189              		.loc 1 1002 0
 2190 0564 FBE7     		b	.L110	@
 2191              	.L119:
 2192 0566 C046     		.align	2
 2193              	.L118:
 2194 0568 00000000 		.word	_SEGGER_RTT
 2195              		.cfi_endproc
 2196              	.LFE18:
 2197              		.size	SEGGER_RTT_ConfigDownBuffer, .-SEGGER_RTT_ConfigDownBuffer
 2198              		.align	1
 2199              		.global	SEGGER_RTT_SetNameUpBuffer
 2200              		.syntax unified
 2201              		.code	16
 2202              		.thumb_func
 2203              		.fpu softvfp
 2204              		.type	SEGGER_RTT_SetNameUpBuffer, %function
 2205              	SEGGER_RTT_SetNameUpBuffer:
 2206              	.LFB19:
1004:.\utilities\src/segger_rtt.c **** 
1005:.\utilities\src/segger_rtt.c **** /*********************************************************************
1006:.\utilities\src/segger_rtt.c **** *
1007:.\utilities\src/segger_rtt.c **** *       SEGGER_RTT_SetNameUpBuffer
1008:.\utilities\src/segger_rtt.c **** *
1009:.\utilities\src/segger_rtt.c **** *  Function description
1010:.\utilities\src/segger_rtt.c **** *    Run-time configuration of a specific up-buffer name (T->H).
1011:.\utilities\src/segger_rtt.c **** *    Buffer to be configured is specified by index.
1012:.\utilities\src/segger_rtt.c **** *
1013:.\utilities\src/segger_rtt.c **** *  Parameters
1014:.\utilities\src/segger_rtt.c **** *    BufferIndex  Index of the buffer to renamed.
ARM GAS  C:\Users\claym\AppData\Local\Temp\ccb01mZK.s 			page 61


1015:.\utilities\src/segger_rtt.c **** *    sName        Pointer to a constant name string.
1016:.\utilities\src/segger_rtt.c **** *
1017:.\utilities\src/segger_rtt.c **** *  Return value
1018:.\utilities\src/segger_rtt.c **** *    >= 0  O.K.
1019:.\utilities\src/segger_rtt.c **** *     < 0  Error
1020:.\utilities\src/segger_rtt.c **** */
1021:.\utilities\src/segger_rtt.c **** int SEGGER_RTT_SetNameUpBuffer(unsigned BufferIndex, const char* sName) {
 2207              		.loc 1 1021 0
 2208              		.cfi_startproc
 2209              		@ args = 0, pretend = 0, frame = 0
 2210              		@ frame_needed = 0, uses_anonymous_args = 0
 2211              	.LVL210:
 2212 056c 70B5     		push	{r4, r5, r6, lr}	@
 2213              	.LCFI19:
 2214              		.cfi_def_cfa_offset 16
 2215              		.cfi_offset 4, -16
 2216              		.cfi_offset 5, -12
 2217              		.cfi_offset 6, -8
 2218              		.cfi_offset 14, -4
 2219              	@ .\utilities\src\segger_rtt.c:1024:   INIT();
1022:.\utilities\src/segger_rtt.c ****   int r;
1023:.\utilities\src/segger_rtt.c **** 
1024:.\utilities\src/segger_rtt.c ****   INIT();
 2220              		.loc 1 1024 0
 2221 056e 0D4D     		ldr	r5, .L124	@ tmp117,
 2222              	@ .\utilities\src\segger_rtt.c:1021: int SEGGER_RTT_SetNameUpBuffer(unsigned BufferIndex, const cha
1021:.\utilities\src/segger_rtt.c ****   int r;
 2223              		.loc 1 1021 0
 2224 0570 0400     		movs	r4, r0	@ BufferIndex, BufferIndex
 2225              	@ .\utilities\src\segger_rtt.c:1024:   INIT();
 2226              		.loc 1 1024 0
 2227 0572 2B78     		ldrb	r3, [r5]	@ _SEGGER_RTT, _SEGGER_RTT
 2228              	@ .\utilities\src\segger_rtt.c:1021: int SEGGER_RTT_SetNameUpBuffer(unsigned BufferIndex, const cha
1021:.\utilities\src/segger_rtt.c ****   int r;
 2229              		.loc 1 1021 0
 2230 0574 0E00     		movs	r6, r1	@ sName, sName
 2231              	@ .\utilities\src\segger_rtt.c:1024:   INIT();
 2232              		.loc 1 1024 0
 2233 0576 002B     		cmp	r3, #0	@ _SEGGER_RTT,
 2234 0578 01D1     		bne	.L121	@,
 2235              	@ .\utilities\src\segger_rtt.c:1024:   INIT();
 2236              		.loc 1 1024 0 is_stmt 0 discriminator 1
 2237 057a FFF795FD 		bl	_DoInit	@
 2238              	.LVL211:
 2239              	.L121:
 2240              	@ .\utilities\src\segger_rtt.c:1025:   if (BufferIndex < (unsigned)_SEGGER_RTT.MaxNumUpBuffers) {
1025:.\utilities\src/segger_rtt.c ****   if (BufferIndex < (unsigned)_SEGGER_RTT.MaxNumUpBuffers) {
 2241              		.loc 1 1025 0 is_stmt 1
 2242 057e 2B69     		ldr	r3, [r5, #16]	@ tmp129, _SEGGER_RTT.MaxNumUpBuffers
 2243 0580 A342     		cmp	r3, r4	@ tmp129, BufferIndex
 2244 0582 0CD9     		bls	.L123	@,
 2245              	.LBB9:
 2246              	@ .\utilities\src\segger_rtt.c:1026:     SEGGER_RTT_LOCK();
1026:.\utilities\src/segger_rtt.c ****     SEGGER_RTT_LOCK();
 2247              		.loc 1 1026 0
 2248              		.syntax divided
 2249              	@ 1026 ".\utilities\src\segger_rtt.c" 1
ARM GAS  C:\Users\claym\AppData\Local\Temp\ccb01mZK.s 			page 62


 2250 0584 EFF31082 		mrs   r2, primask  	@ LockState
 2251 0588 0121     		mov   r1, $1     
 2252 058a 81F31088 		msr   primask, r1  
 2253              		
 2254              	@ 0 "" 2
 2255              	.LVL212:
 2256              	@ .\utilities\src\segger_rtt.c:1027:     _SEGGER_RTT.aUp[BufferIndex].sName = sName;
1027:.\utilities\src/segger_rtt.c ****     _SEGGER_RTT.aUp[BufferIndex].sName = sName;
 2257              		.loc 1 1027 0
 2258              		.thumb
 2259              		.syntax unified
 2260 058e 1823     		movs	r3, #24	@ tmp124,
 2261 0590 0134     		adds	r4, r4, #1	@ tmp123,
 2262              	.LVL213:
 2263 0592 5C43     		muls	r4, r3	@ tmp125, tmp124
 2264              	.LVL214:
 2265 0594 2E51     		str	r6, [r5, r4]	@ sName, _SEGGER_RTT.aUp[BufferIndex_9(D)].sName
 2266              	@ .\utilities\src\segger_rtt.c:1028:     SEGGER_RTT_UNLOCK();
1028:.\utilities\src/segger_rtt.c ****     SEGGER_RTT_UNLOCK();
 2267              		.loc 1 1028 0
 2268              		.syntax divided
 2269              	@ 1028 ".\utilities\src\segger_rtt.c" 1
 2270 0596 82F31088 		msr   primask, r2  	@ LockState
 2271              		
 2272              	@ 0 "" 2
 2273              	.LVL215:
 2274              		.thumb
 2275              		.syntax unified
 2276              	.LBE9:
 2277              	@ .\utilities\src\segger_rtt.c:1029:     r =  0;
1029:.\utilities\src/segger_rtt.c ****     r =  0;
 2278              		.loc 1 1029 0
 2279 059a 0020     		movs	r0, #0	@ <retval>,
 2280              	.LVL216:
 2281              	.L120:
 2282              	@ .\utilities\src\segger_rtt.c:1034: }
1030:.\utilities\src/segger_rtt.c ****   } else {
1031:.\utilities\src/segger_rtt.c ****     r = -1;
1032:.\utilities\src/segger_rtt.c ****   }
1033:.\utilities\src/segger_rtt.c ****   return r;
1034:.\utilities\src/segger_rtt.c **** }
 2283              		.loc 1 1034 0
 2284              		@ sp needed	@
 2285              	.LVL217:
 2286 059c 70BD     		pop	{r4, r5, r6, pc}
 2287              	.LVL218:
 2288              	.L123:
 2289              	@ .\utilities\src\segger_rtt.c:1031:     r = -1;
1031:.\utilities\src/segger_rtt.c ****   }
 2290              		.loc 1 1031 0
 2291 059e 0120     		movs	r0, #1	@ <retval>,
 2292 05a0 4042     		rsbs	r0, r0, #0	@ <retval>, <retval>
 2293              	.LVL219:
 2294              	@ .\utilities\src\segger_rtt.c:1033:   return r;
1033:.\utilities\src/segger_rtt.c **** }
 2295              		.loc 1 1033 0
 2296 05a2 FBE7     		b	.L120	@
ARM GAS  C:\Users\claym\AppData\Local\Temp\ccb01mZK.s 			page 63


 2297              	.L125:
 2298              		.align	2
 2299              	.L124:
 2300 05a4 00000000 		.word	_SEGGER_RTT
 2301              		.cfi_endproc
 2302              	.LFE19:
 2303              		.size	SEGGER_RTT_SetNameUpBuffer, .-SEGGER_RTT_SetNameUpBuffer
 2304              		.align	1
 2305              		.global	SEGGER_RTT_SetNameDownBuffer
 2306              		.syntax unified
 2307              		.code	16
 2308              		.thumb_func
 2309              		.fpu softvfp
 2310              		.type	SEGGER_RTT_SetNameDownBuffer, %function
 2311              	SEGGER_RTT_SetNameDownBuffer:
 2312              	.LFB20:
1035:.\utilities\src/segger_rtt.c **** 
1036:.\utilities\src/segger_rtt.c **** /*********************************************************************
1037:.\utilities\src/segger_rtt.c **** *
1038:.\utilities\src/segger_rtt.c **** *       SEGGER_RTT_SetNameDownBuffer
1039:.\utilities\src/segger_rtt.c **** *
1040:.\utilities\src/segger_rtt.c **** *  Function description
1041:.\utilities\src/segger_rtt.c **** *    Run-time configuration of a specific Down-buffer name (T->H).
1042:.\utilities\src/segger_rtt.c **** *    Buffer to be configured is specified by index.
1043:.\utilities\src/segger_rtt.c **** *
1044:.\utilities\src/segger_rtt.c **** *  Parameters
1045:.\utilities\src/segger_rtt.c **** *    BufferIndex  Index of the buffer to renamed.
1046:.\utilities\src/segger_rtt.c **** *    sName        Pointer to a constant name string.
1047:.\utilities\src/segger_rtt.c **** *
1048:.\utilities\src/segger_rtt.c **** *  Return value
1049:.\utilities\src/segger_rtt.c **** *    >= 0  O.K.
1050:.\utilities\src/segger_rtt.c **** *     < 0  Error
1051:.\utilities\src/segger_rtt.c **** */
1052:.\utilities\src/segger_rtt.c **** int SEGGER_RTT_SetNameDownBuffer(unsigned BufferIndex, const char* sName) {
 2313              		.loc 1 1052 0
 2314              		.cfi_startproc
 2315              		@ args = 0, pretend = 0, frame = 0
 2316              		@ frame_needed = 0, uses_anonymous_args = 0
 2317              	.LVL220:
 2318 05a8 70B5     		push	{r4, r5, r6, lr}	@
 2319              	.LCFI20:
 2320              		.cfi_def_cfa_offset 16
 2321              		.cfi_offset 4, -16
 2322              		.cfi_offset 5, -12
 2323              		.cfi_offset 6, -8
 2324              		.cfi_offset 14, -4
 2325              	@ .\utilities\src\segger_rtt.c:1055:   INIT();
1053:.\utilities\src/segger_rtt.c ****   int r;
1054:.\utilities\src/segger_rtt.c **** 
1055:.\utilities\src/segger_rtt.c ****   INIT();
 2326              		.loc 1 1055 0
 2327 05aa 0D4C     		ldr	r4, .L130	@ tmp117,
 2328              	@ .\utilities\src\segger_rtt.c:1052: int SEGGER_RTT_SetNameDownBuffer(unsigned BufferIndex, const c
1052:.\utilities\src/segger_rtt.c ****   int r;
 2329              		.loc 1 1052 0
 2330 05ac 0600     		movs	r6, r0	@ BufferIndex, BufferIndex
 2331              	@ .\utilities\src\segger_rtt.c:1055:   INIT();
ARM GAS  C:\Users\claym\AppData\Local\Temp\ccb01mZK.s 			page 64


 2332              		.loc 1 1055 0
 2333 05ae 2378     		ldrb	r3, [r4]	@ _SEGGER_RTT, _SEGGER_RTT
 2334              	@ .\utilities\src\segger_rtt.c:1052: int SEGGER_RTT_SetNameDownBuffer(unsigned BufferIndex, const c
1052:.\utilities\src/segger_rtt.c ****   int r;
 2335              		.loc 1 1052 0
 2336 05b0 0D00     		movs	r5, r1	@ sName, sName
 2337              	@ .\utilities\src\segger_rtt.c:1055:   INIT();
 2338              		.loc 1 1055 0
 2339 05b2 002B     		cmp	r3, #0	@ _SEGGER_RTT,
 2340 05b4 01D1     		bne	.L127	@,
 2341              	@ .\utilities\src\segger_rtt.c:1055:   INIT();
 2342              		.loc 1 1055 0 is_stmt 0 discriminator 1
 2343 05b6 FFF777FD 		bl	_DoInit	@
 2344              	.LVL221:
 2345              	.L127:
 2346              	@ .\utilities\src\segger_rtt.c:1056:   if (BufferIndex < (unsigned)_SEGGER_RTT.MaxNumDownBuffers) {
1056:.\utilities\src/segger_rtt.c ****   if (BufferIndex < (unsigned)_SEGGER_RTT.MaxNumDownBuffers) {
 2347              		.loc 1 1056 0 is_stmt 1
 2348 05ba 6369     		ldr	r3, [r4, #20]	@ tmp130, _SEGGER_RTT.MaxNumDownBuffers
 2349 05bc B342     		cmp	r3, r6	@ tmp130, BufferIndex
 2350 05be 0CD9     		bls	.L129	@,
 2351              	.LBB10:
 2352              	@ .\utilities\src\segger_rtt.c:1057:     SEGGER_RTT_LOCK();
1057:.\utilities\src/segger_rtt.c ****     SEGGER_RTT_LOCK();
 2353              		.loc 1 1057 0
 2354              		.syntax divided
 2355              	@ 1057 ".\utilities\src\segger_rtt.c" 1
 2356 05c0 EFF31083 		mrs   r3, primask  	@ LockState
 2357 05c4 0121     		mov   r1, $1     
 2358 05c6 81F31088 		msr   primask, r1  
 2359              		
 2360              	@ 0 "" 2
 2361              	.LVL222:
 2362              	@ .\utilities\src\segger_rtt.c:1058:     _SEGGER_RTT.aDown[BufferIndex].sName = sName;
1058:.\utilities\src/segger_rtt.c ****     _SEGGER_RTT.aDown[BufferIndex].sName = sName;
 2363              		.loc 1 1058 0
 2364              		.thumb
 2365              		.syntax unified
 2366 05ca 1820     		movs	r0, #24	@ tmp123,
 2367 05cc 7043     		muls	r0, r6	@ tmp124, BufferIndex
 2368 05ce 2418     		adds	r4, r4, r0	@ tmp125, tmp117, tmp124
 2369 05d0 2566     		str	r5, [r4, #96]	@ sName, _SEGGER_RTT.aDown[BufferIndex_9(D)].sName
 2370              	@ .\utilities\src\segger_rtt.c:1059:     SEGGER_RTT_UNLOCK();
1059:.\utilities\src/segger_rtt.c ****     SEGGER_RTT_UNLOCK();
 2371              		.loc 1 1059 0
 2372              		.syntax divided
 2373              	@ 1059 ".\utilities\src\segger_rtt.c" 1
 2374 05d2 83F31088 		msr   primask, r3  	@ LockState
 2375              		
 2376              	@ 0 "" 2
 2377              	.LVL223:
 2378              		.thumb
 2379              		.syntax unified
 2380              	.LBE10:
 2381              	@ .\utilities\src\segger_rtt.c:1060:     r =  0;
1060:.\utilities\src/segger_rtt.c ****     r =  0;
 2382              		.loc 1 1060 0
ARM GAS  C:\Users\claym\AppData\Local\Temp\ccb01mZK.s 			page 65


 2383 05d6 0020     		movs	r0, #0	@ <retval>,
 2384              	.LVL224:
 2385              	.L126:
 2386              	@ .\utilities\src\segger_rtt.c:1065: }
1061:.\utilities\src/segger_rtt.c ****   } else {
1062:.\utilities\src/segger_rtt.c ****     r = -1;
1063:.\utilities\src/segger_rtt.c ****   }
1064:.\utilities\src/segger_rtt.c ****   return r;
1065:.\utilities\src/segger_rtt.c **** }
 2387              		.loc 1 1065 0
 2388              		@ sp needed	@
 2389              	.LVL225:
 2390              	.LVL226:
 2391 05d8 70BD     		pop	{r4, r5, r6, pc}
 2392              	.LVL227:
 2393              	.L129:
 2394              	@ .\utilities\src\segger_rtt.c:1062:     r = -1;
1062:.\utilities\src/segger_rtt.c ****   }
 2395              		.loc 1 1062 0
 2396 05da 0120     		movs	r0, #1	@ <retval>,
 2397 05dc 4042     		rsbs	r0, r0, #0	@ <retval>, <retval>
 2398              	.LVL228:
 2399              	@ .\utilities\src\segger_rtt.c:1064:   return r;
1064:.\utilities\src/segger_rtt.c **** }
 2400              		.loc 1 1064 0
 2401 05de FBE7     		b	.L126	@
 2402              	.L131:
 2403              		.align	2
 2404              	.L130:
 2405 05e0 00000000 		.word	_SEGGER_RTT
 2406              		.cfi_endproc
 2407              	.LFE20:
 2408              		.size	SEGGER_RTT_SetNameDownBuffer, .-SEGGER_RTT_SetNameDownBuffer
 2409              		.align	1
 2410              		.global	SEGGER_RTT_Init
 2411              		.syntax unified
 2412              		.code	16
 2413              		.thumb_func
 2414              		.fpu softvfp
 2415              		.type	SEGGER_RTT_Init, %function
 2416              	SEGGER_RTT_Init:
 2417              	.LFB21:
1066:.\utilities\src/segger_rtt.c **** 
1067:.\utilities\src/segger_rtt.c **** /*********************************************************************
1068:.\utilities\src/segger_rtt.c **** *
1069:.\utilities\src/segger_rtt.c **** *       SEGGER_RTT_Init
1070:.\utilities\src/segger_rtt.c **** *
1071:.\utilities\src/segger_rtt.c **** *  Function description
1072:.\utilities\src/segger_rtt.c **** *    Initializes the RTT Control Block.
1073:.\utilities\src/segger_rtt.c **** *    Should be used in RAM targets, at start of the application.
1074:.\utilities\src/segger_rtt.c **** *
1075:.\utilities\src/segger_rtt.c **** */
1076:.\utilities\src/segger_rtt.c **** void SEGGER_RTT_Init (void) {
 2418              		.loc 1 1076 0
 2419              		.cfi_startproc
 2420              		@ args = 0, pretend = 0, frame = 0
 2421              		@ frame_needed = 0, uses_anonymous_args = 0
ARM GAS  C:\Users\claym\AppData\Local\Temp\ccb01mZK.s 			page 66


 2422              	@ .\utilities\src\segger_rtt.c:1077:   INIT();
1077:.\utilities\src/segger_rtt.c ****   INIT();
 2423              		.loc 1 1077 0
 2424 05e4 034B     		ldr	r3, .L134	@ tmp111,
 2425              	@ .\utilities\src\segger_rtt.c:1076: void SEGGER_RTT_Init (void) {
1076:.\utilities\src/segger_rtt.c ****   INIT();
 2426              		.loc 1 1076 0
 2427 05e6 10B5     		push	{r4, lr}	@
 2428              	.LCFI21:
 2429              		.cfi_def_cfa_offset 8
 2430              		.cfi_offset 4, -8
 2431              		.cfi_offset 14, -4
 2432              	@ .\utilities\src\segger_rtt.c:1077:   INIT();
 2433              		.loc 1 1077 0
 2434 05e8 1B78     		ldrb	r3, [r3]	@ _SEGGER_RTT, _SEGGER_RTT
 2435 05ea 002B     		cmp	r3, #0	@ _SEGGER_RTT,
 2436 05ec 01D1     		bne	.L132	@,
 2437              	@ .\utilities\src\segger_rtt.c:1077:   INIT();
 2438              		.loc 1 1077 0 is_stmt 0 discriminator 1
 2439 05ee FFF75BFD 		bl	_DoInit	@
 2440              	.LVL229:
 2441              	.L132:
 2442              	@ .\utilities\src\segger_rtt.c:1078: }
1078:.\utilities\src/segger_rtt.c **** }
 2443              		.loc 1 1078 0 is_stmt 1
 2444              		@ sp needed	@
 2445 05f2 10BD     		pop	{r4, pc}
 2446              	.L135:
 2447              		.align	2
 2448              	.L134:
 2449 05f4 00000000 		.word	_SEGGER_RTT
 2450              		.cfi_endproc
 2451              	.LFE21:
 2452              		.size	SEGGER_RTT_Init, .-SEGGER_RTT_Init
 2453              		.align	1
 2454              		.global	SEGGER_RTT_SetTerminal
 2455              		.syntax unified
 2456              		.code	16
 2457              		.thumb_func
 2458              		.fpu softvfp
 2459              		.type	SEGGER_RTT_SetTerminal, %function
 2460              	SEGGER_RTT_SetTerminal:
 2461              	.LFB22:
1079:.\utilities\src/segger_rtt.c **** 
1080:.\utilities\src/segger_rtt.c **** /*********************************************************************
1081:.\utilities\src/segger_rtt.c **** *
1082:.\utilities\src/segger_rtt.c **** *       SEGGER_RTT_SetTerminal
1083:.\utilities\src/segger_rtt.c **** *
1084:.\utilities\src/segger_rtt.c **** *  Function description
1085:.\utilities\src/segger_rtt.c **** *    Sets the terminal to be used for output on channel 0.
1086:.\utilities\src/segger_rtt.c **** *
1087:.\utilities\src/segger_rtt.c **** *  Parameters
1088:.\utilities\src/segger_rtt.c **** *    TerminalId  Index of the terminal.
1089:.\utilities\src/segger_rtt.c **** *
1090:.\utilities\src/segger_rtt.c **** *  Return value
1091:.\utilities\src/segger_rtt.c **** *    >= 0  O.K.
1092:.\utilities\src/segger_rtt.c **** *     < 0  Error (e.g. if RTT is configured for non-blocking mode and there was no space in the buf
ARM GAS  C:\Users\claym\AppData\Local\Temp\ccb01mZK.s 			page 67


1093:.\utilities\src/segger_rtt.c **** */
1094:.\utilities\src/segger_rtt.c **** int SEGGER_RTT_SetTerminal (char TerminalId) {
 2462              		.loc 1 1094 0
 2463              		.cfi_startproc
 2464              		@ args = 0, pretend = 0, frame = 8
 2465              		@ frame_needed = 0, uses_anonymous_args = 0
 2466              	.LVL230:
 2467 05f8 F7B5     		push	{r0, r1, r2, r4, r5, r6, r7, lr}	@
 2468              	.LCFI22:
 2469              		.cfi_def_cfa_offset 32
 2470              		.cfi_offset 0, -32
 2471              		.cfi_offset 1, -28
 2472              		.cfi_offset 2, -24
 2473              		.cfi_offset 4, -20
 2474              		.cfi_offset 5, -16
 2475              		.cfi_offset 6, -12
 2476              		.cfi_offset 7, -8
 2477              		.cfi_offset 14, -4
 2478              	@ .\utilities\src\segger_rtt.c:1100:   INIT();
1095:.\utilities\src/segger_rtt.c ****   char                  ac[2];
1096:.\utilities\src/segger_rtt.c ****   SEGGER_RTT_BUFFER_UP* pRing;
1097:.\utilities\src/segger_rtt.c ****   unsigned Avail;
1098:.\utilities\src/segger_rtt.c ****   int r;
1099:.\utilities\src/segger_rtt.c ****   //
1100:.\utilities\src/segger_rtt.c ****   INIT();
 2479              		.loc 1 1100 0
 2480 05fa 1C4F     		ldr	r7, .L144	@ tmp119,
 2481              	@ .\utilities\src\segger_rtt.c:1094: int SEGGER_RTT_SetTerminal (char TerminalId) {
1094:.\utilities\src/segger_rtt.c ****   char                  ac[2];
 2482              		.loc 1 1094 0
 2483 05fc 0500     		movs	r5, r0	@ TerminalId, TerminalId
 2484              	@ .\utilities\src\segger_rtt.c:1100:   INIT();
 2485              		.loc 1 1100 0
 2486 05fe 3B78     		ldrb	r3, [r7]	@ _SEGGER_RTT, _SEGGER_RTT
 2487 0600 002B     		cmp	r3, #0	@ _SEGGER_RTT,
 2488 0602 01D1     		bne	.L137	@,
 2489              	@ .\utilities\src\segger_rtt.c:1100:   INIT();
 2490              		.loc 1 1100 0 is_stmt 0 discriminator 1
 2491 0604 FFF750FD 		bl	_DoInit	@
 2492              	.LVL231:
 2493              	.L137:
 2494              	@ .\utilities\src\segger_rtt.c:1103:   ac[0] = 0xFFU;
1101:.\utilities\src/segger_rtt.c ****   //
1102:.\utilities\src/segger_rtt.c ****   r = 0;
1103:.\utilities\src/segger_rtt.c ****   ac[0] = 0xFFU;
 2495              		.loc 1 1103 0 is_stmt 1
 2496 0608 FF23     		movs	r3, #255	@ tmp122,
 2497 060a 01AC     		add	r4, sp, #4	@ tmp121,,
 2498 060c 2370     		strb	r3, [r4]	@ tmp122, ac
 2499              	@ .\utilities\src\segger_rtt.c:1104:   if ((unsigned char)TerminalId < (unsigned char)sizeof(_aTerm
1104:.\utilities\src/segger_rtt.c ****   if ((unsigned char)TerminalId < (unsigned char)sizeof(_aTerminalId)) { // We only support a certa
 2500              		.loc 1 1104 0
 2501 060e 0F2D     		cmp	r5, #15	@ TerminalId,
 2502 0610 29D8     		bhi	.L141	@,
 2503              	@ .\utilities\src\segger_rtt.c:1105:     ac[1] = _aTerminalId[(unsigned char)TerminalId];
1105:.\utilities\src/segger_rtt.c ****     ac[1] = _aTerminalId[(unsigned char)TerminalId];
 2504              		.loc 1 1105 0
ARM GAS  C:\Users\claym\AppData\Local\Temp\ccb01mZK.s 			page 68


 2505 0612 174B     		ldr	r3, .L144+4	@ tmp125,
 2506 0614 5B5D     		ldrb	r3, [r3, r5]	@ tmp126, _aTerminalId
 2507 0616 6370     		strb	r3, [r4, #1]	@ tmp126, ac
 2508              	.LVL232:
 2509              	.LBB11:
 2510              	@ .\utilities\src\segger_rtt.c:1107:     SEGGER_RTT_LOCK();    // Lock to make sure that no other t
1106:.\utilities\src/segger_rtt.c ****     pRing = &_SEGGER_RTT.aUp[0];    // Buffer 0 is always reserved for terminal I/O, so we can use 
1107:.\utilities\src/segger_rtt.c ****     SEGGER_RTT_LOCK();    // Lock to make sure that no other task is writing into buffer, while we 
 2511              		.loc 1 1107 0
 2512              		.syntax divided
 2513              	@ 1107 ".\utilities\src\segger_rtt.c" 1
 2514 0618 EFF31086 		mrs   r6, primask  	@ LockState
 2515 061c 0121     		mov   r1, $1     
 2516 061e 81F31088 		msr   primask, r1  
 2517              		
 2518              	@ 0 "" 2
 2519              	.LVL233:
 2520              	@ .\utilities\src\segger_rtt.c:1108:     if ((pRing->Flags & SEGGER_RTT_MODE_MASK) == SEGGER_RTT_MO
1108:.\utilities\src/segger_rtt.c ****     if ((pRing->Flags & SEGGER_RTT_MODE_MASK) == SEGGER_RTT_MODE_BLOCK_IF_FIFO_FULL) {
 2521              		.loc 1 1108 0
 2522              		.thumb
 2523              		.syntax unified
 2524 0622 0323     		movs	r3, #3	@ tmp132,
 2525 0624 FA6A     		ldr	r2, [r7, #44]	@ MEM[(struct SEGGER_RTT_BUFFER_UP *)&_SEGGER_RTT + 24B].Flags, MEM[(struct SEGG
 2526 0626 134F     		ldr	r7, .L144+8	@ tmp146,
 2527              	.LVL234:
 2528 0628 1A40     		ands	r2, r3	@ tmp130, tmp132
 2529 062a 022A     		cmp	r2, #2	@ tmp130,
 2530 062c 0AD1     		bne	.L139	@,
 2531              	@ .\utilities\src\segger_rtt.c:1109:       _ActiveTerminal = TerminalId;
1109:.\utilities\src/segger_rtt.c ****       _ActiveTerminal = TerminalId;
 2532              		.loc 1 1109 0
 2533 062e 124B     		ldr	r3, .L144+12	@ tmp133,
 2534              	@ .\utilities\src\segger_rtt.c:1110:       _WriteBlocking(pRing, ac, 2u);
1110:.\utilities\src/segger_rtt.c ****       _WriteBlocking(pRing, ac, 2u);
 2535              		.loc 1 1110 0
 2536 0630 2100     		movs	r1, r4	@, tmp121
 2537              	@ .\utilities\src\segger_rtt.c:1109:       _ActiveTerminal = TerminalId;
1109:.\utilities\src/segger_rtt.c ****       _ActiveTerminal = TerminalId;
 2538              		.loc 1 1109 0
 2539 0632 0133     		adds	r3, r3, #1	@ tmp134,
 2540              	@ .\utilities\src\segger_rtt.c:1110:       _WriteBlocking(pRing, ac, 2u);
 2541              		.loc 1 1110 0
 2542 0634 3800     		movs	r0, r7	@, tmp146
 2543              	@ .\utilities\src\segger_rtt.c:1109:       _ActiveTerminal = TerminalId;
1109:.\utilities\src/segger_rtt.c ****       _ActiveTerminal = TerminalId;
 2544              		.loc 1 1109 0
 2545 0636 DD77     		strb	r5, [r3, #31]	@ TerminalId, _ActiveTerminal
 2546              	@ .\utilities\src\segger_rtt.c:1110:       _WriteBlocking(pRing, ac, 2u);
 2547              		.loc 1 1110 0
 2548 0638 FFF709FD 		bl	_WriteBlocking	@
 2549              	.LVL235:
 2550              	.L143:
 2551              	.LBE11:
 2552              	@ .\utilities\src\segger_rtt.c:1102:   r = 0;
1102:.\utilities\src/segger_rtt.c ****   ac[0] = 0xFFU;
 2553              		.loc 1 1102 0
ARM GAS  C:\Users\claym\AppData\Local\Temp\ccb01mZK.s 			page 69


 2554 063c 0020     		movs	r0, #0	@ <retval>,
 2555              	.L140:
 2556              	.LVL236:
 2557              	.LBB12:
 2558              	@ .\utilities\src\segger_rtt.c:1120:     SEGGER_RTT_UNLOCK();
1111:.\utilities\src/segger_rtt.c ****     } else {                                                                            // Skipping
1112:.\utilities\src/segger_rtt.c ****       Avail = _GetAvailWriteSpace(pRing);
1113:.\utilities\src/segger_rtt.c ****       if (Avail >= 2) {
1114:.\utilities\src/segger_rtt.c ****         _ActiveTerminal = TerminalId;    // Only change active terminal in case of success
1115:.\utilities\src/segger_rtt.c ****         _WriteNoCheck(pRing, ac, 2u);
1116:.\utilities\src/segger_rtt.c ****       } else {
1117:.\utilities\src/segger_rtt.c ****         r = -1;
1118:.\utilities\src/segger_rtt.c ****       }
1119:.\utilities\src/segger_rtt.c ****     }
1120:.\utilities\src/segger_rtt.c ****     SEGGER_RTT_UNLOCK();
 2559              		.loc 1 1120 0
 2560              		.syntax divided
 2561              	@ 1120 ".\utilities\src\segger_rtt.c" 1
 2562 063e 86F31088 		msr   primask, r6  	@ LockState
 2563              		
 2564              	@ 0 "" 2
 2565              	.LVL237:
 2566              		.thumb
 2567              		.syntax unified
 2568              	.L136:
 2569              	.LBE12:
 2570              	@ .\utilities\src\segger_rtt.c:1125: }
1121:.\utilities\src/segger_rtt.c ****   } else {
1122:.\utilities\src/segger_rtt.c ****     r = -1;
1123:.\utilities\src/segger_rtt.c ****   }
1124:.\utilities\src/segger_rtt.c ****   return r;
1125:.\utilities\src/segger_rtt.c **** }
 2571              		.loc 1 1125 0
 2572              		@ sp needed	@
 2573 0642 FEBD     		pop	{r1, r2, r3, r4, r5, r6, r7, pc}
 2574              	.LVL238:
 2575              	.L139:
 2576              	.LBB13:
 2577              	@ .\utilities\src\segger_rtt.c:1112:       Avail = _GetAvailWriteSpace(pRing);
1112:.\utilities\src/segger_rtt.c ****       if (Avail >= 2) {
 2578              		.loc 1 1112 0
 2579 0644 3800     		movs	r0, r7	@, tmp146
 2580 0646 FFF7DBFC 		bl	_GetAvailWriteSpace	@
 2581              	.LVL239:
 2582              	@ .\utilities\src\segger_rtt.c:1113:       if (Avail >= 2) {
1113:.\utilities\src/segger_rtt.c ****         _ActiveTerminal = TerminalId;    // Only change active terminal in case of success
 2583              		.loc 1 1113 0
 2584 064a 0128     		cmp	r0, #1	@ Avail,
 2585 064c 08D9     		bls	.L142	@,
 2586              	@ .\utilities\src\segger_rtt.c:1114:         _ActiveTerminal = TerminalId;    // Only change active
1114:.\utilities\src/segger_rtt.c ****         _WriteNoCheck(pRing, ac, 2u);
 2587              		.loc 1 1114 0
 2588 064e 0A4B     		ldr	r3, .L144+12	@ tmp139,
 2589              	@ .\utilities\src\segger_rtt.c:1115:         _WriteNoCheck(pRing, ac, 2u);
1115:.\utilities\src/segger_rtt.c ****       } else {
 2590              		.loc 1 1115 0
 2591 0650 0222     		movs	r2, #2	@,
ARM GAS  C:\Users\claym\AppData\Local\Temp\ccb01mZK.s 			page 70


 2592              	@ .\utilities\src\segger_rtt.c:1114:         _ActiveTerminal = TerminalId;    // Only change active
1114:.\utilities\src/segger_rtt.c ****         _WriteNoCheck(pRing, ac, 2u);
 2593              		.loc 1 1114 0
 2594 0652 0133     		adds	r3, r3, #1	@ tmp140,
 2595              	@ .\utilities\src\segger_rtt.c:1115:         _WriteNoCheck(pRing, ac, 2u);
1115:.\utilities\src/segger_rtt.c ****       } else {
 2596              		.loc 1 1115 0
 2597 0654 2100     		movs	r1, r4	@, tmp121
 2598 0656 3800     		movs	r0, r7	@, tmp146
 2599              	.LVL240:
 2600              	@ .\utilities\src\segger_rtt.c:1114:         _ActiveTerminal = TerminalId;    // Only change active
1114:.\utilities\src/segger_rtt.c ****         _WriteNoCheck(pRing, ac, 2u);
 2601              		.loc 1 1114 0
 2602 0658 DD77     		strb	r5, [r3, #31]	@ TerminalId, _ActiveTerminal
 2603              	@ .\utilities\src\segger_rtt.c:1115:         _WriteNoCheck(pRing, ac, 2u);
1115:.\utilities\src/segger_rtt.c ****       } else {
 2604              		.loc 1 1115 0
 2605 065a FFF7DAFC 		bl	_WriteNoCheck	@
 2606              	.LVL241:
 2607 065e EDE7     		b	.L143	@
 2608              	.LVL242:
 2609              	.L142:
 2610              	@ .\utilities\src\segger_rtt.c:1117:         r = -1;
1117:.\utilities\src/segger_rtt.c ****       }
 2611              		.loc 1 1117 0
 2612 0660 0120     		movs	r0, #1	@ <retval>,
 2613              	.LVL243:
 2614 0662 4042     		rsbs	r0, r0, #0	@ <retval>, <retval>
 2615 0664 EBE7     		b	.L140	@
 2616              	.LVL244:
 2617              	.L141:
 2618              	.LBE13:
 2619              	@ .\utilities\src\segger_rtt.c:1122:     r = -1;
1122:.\utilities\src/segger_rtt.c ****   }
 2620              		.loc 1 1122 0
 2621 0666 0120     		movs	r0, #1	@ <retval>,
 2622 0668 4042     		rsbs	r0, r0, #0	@ <retval>, <retval>
 2623              	.LVL245:
 2624              	@ .\utilities\src\segger_rtt.c:1124:   return r;
1124:.\utilities\src/segger_rtt.c **** }
 2625              		.loc 1 1124 0
 2626 066a EAE7     		b	.L136	@
 2627              	.L145:
 2628              		.align	2
 2629              	.L144:
 2630 066c 00000000 		.word	_SEGGER_RTT
 2631 0670 00000000 		.word	.LANCHOR1
 2632 0674 18000000 		.word	_SEGGER_RTT+24
 2633 0678 00000000 		.word	.LANCHOR0
 2634              		.cfi_endproc
 2635              	.LFE22:
 2636              		.size	SEGGER_RTT_SetTerminal, .-SEGGER_RTT_SetTerminal
 2637              		.align	1
 2638              		.global	SEGGER_RTT_TerminalOut
 2639              		.syntax unified
 2640              		.code	16
 2641              		.thumb_func
ARM GAS  C:\Users\claym\AppData\Local\Temp\ccb01mZK.s 			page 71


 2642              		.fpu softvfp
 2643              		.type	SEGGER_RTT_TerminalOut, %function
 2644              	SEGGER_RTT_TerminalOut:
 2645              	.LFB23:
1126:.\utilities\src/segger_rtt.c **** 
1127:.\utilities\src/segger_rtt.c **** /*********************************************************************
1128:.\utilities\src/segger_rtt.c **** *
1129:.\utilities\src/segger_rtt.c **** *       SEGGER_RTT_TerminalOut
1130:.\utilities\src/segger_rtt.c **** *
1131:.\utilities\src/segger_rtt.c **** *  Function description
1132:.\utilities\src/segger_rtt.c **** *    Writes a string to the given terminal
1133:.\utilities\src/segger_rtt.c **** *     without changing the terminal for channel 0.
1134:.\utilities\src/segger_rtt.c **** *
1135:.\utilities\src/segger_rtt.c **** *  Parameters
1136:.\utilities\src/segger_rtt.c **** *    TerminalId   Index of the terminal.
1137:.\utilities\src/segger_rtt.c **** *    s            String to be printed on the terminal.
1138:.\utilities\src/segger_rtt.c **** *
1139:.\utilities\src/segger_rtt.c **** *  Return value
1140:.\utilities\src/segger_rtt.c **** *    >= 0 - Number of bytes written.
1141:.\utilities\src/segger_rtt.c **** *     < 0 - Error.
1142:.\utilities\src/segger_rtt.c **** *
1143:.\utilities\src/segger_rtt.c **** */
1144:.\utilities\src/segger_rtt.c **** int SEGGER_RTT_TerminalOut (char TerminalId, const char* s) {
 2646              		.loc 1 1144 0
 2647              		.cfi_startproc
 2648              		@ args = 0, pretend = 0, frame = 8
 2649              		@ frame_needed = 0, uses_anonymous_args = 0
 2650              	.LVL246:
 2651 067c F7B5     		push	{r0, r1, r2, r4, r5, r6, r7, lr}	@
 2652              	.LCFI23:
 2653              		.cfi_def_cfa_offset 32
 2654              		.cfi_offset 0, -32
 2655              		.cfi_offset 1, -28
 2656              		.cfi_offset 2, -24
 2657              		.cfi_offset 4, -20
 2658              		.cfi_offset 5, -16
 2659              		.cfi_offset 6, -12
 2660              		.cfi_offset 7, -8
 2661              		.cfi_offset 14, -4
 2662              	@ .\utilities\src\segger_rtt.c:1150:   INIT();
1145:.\utilities\src/segger_rtt.c ****   int                   Status;
1146:.\utilities\src/segger_rtt.c ****   unsigned              FragLen;
1147:.\utilities\src/segger_rtt.c ****   unsigned              Avail;
1148:.\utilities\src/segger_rtt.c ****   SEGGER_RTT_BUFFER_UP* pRing;
1149:.\utilities\src/segger_rtt.c ****   //
1150:.\utilities\src/segger_rtt.c ****   INIT();
 2663              		.loc 1 1150 0
 2664 067e 244C     		ldr	r4, .L160	@ tmp128,
 2665              	@ .\utilities\src\segger_rtt.c:1144: int SEGGER_RTT_TerminalOut (char TerminalId, const char* s) {
1144:.\utilities\src/segger_rtt.c ****   int                   Status;
 2666              		.loc 1 1144 0
 2667 0680 0700     		movs	r7, r0	@ TerminalId, TerminalId
 2668              	@ .\utilities\src\segger_rtt.c:1150:   INIT();
 2669              		.loc 1 1150 0
 2670 0682 2378     		ldrb	r3, [r4]	@ _SEGGER_RTT, _SEGGER_RTT
 2671              	@ .\utilities\src\segger_rtt.c:1144: int SEGGER_RTT_TerminalOut (char TerminalId, const char* s) {
1144:.\utilities\src/segger_rtt.c ****   int                   Status;
ARM GAS  C:\Users\claym\AppData\Local\Temp\ccb01mZK.s 			page 72


 2672              		.loc 1 1144 0
 2673 0684 0E00     		movs	r6, r1	@ s, s
 2674              	@ .\utilities\src\segger_rtt.c:1150:   INIT();
 2675              		.loc 1 1150 0
 2676 0686 002B     		cmp	r3, #0	@ _SEGGER_RTT,
 2677 0688 01D1     		bne	.L147	@,
 2678              	@ .\utilities\src\segger_rtt.c:1150:   INIT();
 2679              		.loc 1 1150 0 is_stmt 0 discriminator 1
 2680 068a FFF70DFD 		bl	_DoInit	@
 2681              	.LVL247:
 2682              	.L147:
 2683              	@ .\utilities\src\segger_rtt.c:1154:   if (TerminalId < (char)sizeof(_aTerminalId)) { // We only su
1151:.\utilities\src/segger_rtt.c ****   //
1152:.\utilities\src/segger_rtt.c ****   // Validate terminal ID.
1153:.\utilities\src/segger_rtt.c ****   //
1154:.\utilities\src/segger_rtt.c ****   if (TerminalId < (char)sizeof(_aTerminalId)) { // We only support a certain number of channels
 2684              		.loc 1 1154 0 is_stmt 1
 2685 068e 0F2F     		cmp	r7, #15	@ TerminalId,
 2686 0690 3BD8     		bhi	.L154	@,
 2687              	.LVL248:
 2688              	@ .\utilities\src\segger_rtt.c:1163:     FragLen = strlen(s);
1155:.\utilities\src/segger_rtt.c ****     //
1156:.\utilities\src/segger_rtt.c ****     // Get "to-host" ring buffer.
1157:.\utilities\src/segger_rtt.c ****     //
1158:.\utilities\src/segger_rtt.c ****     pRing = &_SEGGER_RTT.aUp[0];
1159:.\utilities\src/segger_rtt.c ****     //
1160:.\utilities\src/segger_rtt.c ****     // Need to be able to change terminal, write data, change back.
1161:.\utilities\src/segger_rtt.c ****     // Compute the fixed and variable sizes.
1162:.\utilities\src/segger_rtt.c ****     //
1163:.\utilities\src/segger_rtt.c ****     FragLen = strlen(s);
 2689              		.loc 1 1163 0
 2690 0692 3000     		movs	r0, r6	@, s
 2691 0694 FFF7FEFF 		bl	strlen	@
 2692              	.LVL249:
 2693 0698 0500     		movs	r5, r0	@ tmp130,
 2694              	.LVL250:
 2695              	.LBB14:
 2696              	@ .\utilities\src\segger_rtt.c:1167:     SEGGER_RTT_LOCK();
1164:.\utilities\src/segger_rtt.c ****     //
1165:.\utilities\src/segger_rtt.c ****     // How we output depends upon the mode...
1166:.\utilities\src/segger_rtt.c ****     //
1167:.\utilities\src/segger_rtt.c ****     SEGGER_RTT_LOCK();
 2697              		.loc 1 1167 0
 2698              		.syntax divided
 2699              	@ 1167 ".\utilities\src\segger_rtt.c" 1
 2700 069a EFF31083 		mrs   r3, primask  	@ LockState
 2701 069e 0121     		mov   r1, $1     
 2702 06a0 81F31088 		msr   primask, r1  
 2703              		
 2704              	@ 0 "" 2
 2705              	@ .\utilities\src\segger_rtt.c:1168:     Avail = _GetAvailWriteSpace(pRing);
1168:.\utilities\src/segger_rtt.c ****     Avail = _GetAvailWriteSpace(pRing);
 2706              		.loc 1 1168 0
 2707              		.thumb
 2708              		.syntax unified
 2709 06a4 1B48     		ldr	r0, .L160+4	@,
 2710              	.LVL251:
ARM GAS  C:\Users\claym\AppData\Local\Temp\ccb01mZK.s 			page 73


 2711              	@ .\utilities\src\segger_rtt.c:1167:     SEGGER_RTT_LOCK();
1167:.\utilities\src/segger_rtt.c ****     Avail = _GetAvailWriteSpace(pRing);
 2712              		.loc 1 1167 0
 2713 06a6 0193     		str	r3, [sp, #4]	@ LockState, %sfp
 2714              	.LVL252:
 2715              	@ .\utilities\src\segger_rtt.c:1168:     Avail = _GetAvailWriteSpace(pRing);
 2716              		.loc 1 1168 0
 2717 06a8 FFF7AAFC 		bl	_GetAvailWriteSpace	@
 2718              	.LVL253:
 2719              	@ .\utilities\src\segger_rtt.c:1169:     switch (pRing->Flags & SEGGER_RTT_MODE_MASK) {
1169:.\utilities\src/segger_rtt.c ****     switch (pRing->Flags & SEGGER_RTT_MODE_MASK) {
 2720              		.loc 1 1169 0
 2721 06ac 0323     		movs	r3, #3	@ tmp137,
 2722 06ae E46A     		ldr	r4, [r4, #44]	@ MEM[(struct SEGGER_RTT_BUFFER_UP *)&_SEGGER_RTT + 24B].Flags, MEM[(struct SEGG
 2723              	@ .\utilities\src\segger_rtt.c:1168:     Avail = _GetAvailWriteSpace(pRing);
1168:.\utilities\src/segger_rtt.c ****     Avail = _GetAvailWriteSpace(pRing);
 2724              		.loc 1 1168 0
 2725 06b0 0090     		str	r0, [sp]	@, %sfp
 2726              	.LVL254:
 2727              	@ .\utilities\src\segger_rtt.c:1169:     switch (pRing->Flags & SEGGER_RTT_MODE_MASK) {
 2728              		.loc 1 1169 0
 2729 06b2 1C40     		ands	r4, r3	@ tmp135, tmp137
 2730 06b4 012C     		cmp	r4, #1	@ tmp135,
 2731 06b6 0ED0     		beq	.L150	@,
 2732 06b8 002C     		cmp	r4, #0	@ tmp135,
 2733 06ba 04D0     		beq	.L151	@,
 2734 06bc 022C     		cmp	r4, #2	@ tmp135,
 2735 06be 06D0     		beq	.L152	@,
 2736              	.L157:
 2737              	@ .\utilities\src\segger_rtt.c:1190:         Status = -1;
1170:.\utilities\src/segger_rtt.c ****     case SEGGER_RTT_MODE_NO_BLOCK_SKIP:
1171:.\utilities\src/segger_rtt.c ****       //
1172:.\utilities\src/segger_rtt.c ****       // If we are in skip mode and there is no space for the whole
1173:.\utilities\src/segger_rtt.c ****       // of this output, don't bother switching terminals at all.
1174:.\utilities\src/segger_rtt.c ****       //
1175:.\utilities\src/segger_rtt.c ****       if (Avail < (FragLen + 4u)) {
1176:.\utilities\src/segger_rtt.c ****         Status = 0;
1177:.\utilities\src/segger_rtt.c ****       } else {
1178:.\utilities\src/segger_rtt.c ****         _PostTerminalSwitch(pRing, TerminalId);
1179:.\utilities\src/segger_rtt.c ****         Status = (int)_WriteBlocking(pRing, s, FragLen);
1180:.\utilities\src/segger_rtt.c ****         _PostTerminalSwitch(pRing, _ActiveTerminal);
1181:.\utilities\src/segger_rtt.c ****       }
1182:.\utilities\src/segger_rtt.c ****       break;
1183:.\utilities\src/segger_rtt.c ****     case SEGGER_RTT_MODE_NO_BLOCK_TRIM:
1184:.\utilities\src/segger_rtt.c ****       //
1185:.\utilities\src/segger_rtt.c ****       // If we are in trim mode and there is not enough space for everything,
1186:.\utilities\src/segger_rtt.c ****       // trim the output but always include the terminal switch.  If no room
1187:.\utilities\src/segger_rtt.c ****       // for terminal switch, skip that totally.
1188:.\utilities\src/segger_rtt.c ****       //
1189:.\utilities\src/segger_rtt.c ****       if (Avail < 4u) {
1190:.\utilities\src/segger_rtt.c ****         Status = -1;
 2738              		.loc 1 1190 0
 2739 06c0 0124     		movs	r4, #1	@ <retval>,
 2740 06c2 6442     		rsbs	r4, r4, #0	@ <retval>, <retval>
 2741 06c4 1CE0     		b	.L149	@
 2742              	.L151:
 2743              	@ .\utilities\src\segger_rtt.c:1175:       if (Avail < (FragLen + 4u)) {
ARM GAS  C:\Users\claym\AppData\Local\Temp\ccb01mZK.s 			page 74


1175:.\utilities\src/segger_rtt.c ****         Status = 0;
 2744              		.loc 1 1175 0
 2745 06c6 009A     		ldr	r2, [sp]	@ Avail, %sfp
 2746 06c8 2B1D     		adds	r3, r5, #4	@ tmp138, tmp130,
 2747 06ca 9342     		cmp	r3, r2	@ tmp138, Avail
 2748 06cc 18D8     		bhi	.L149	@,
 2749              	.L152:
 2750              	@ .\utilities\src\segger_rtt.c:1201:       _PostTerminalSwitch(pRing, TerminalId);
1191:.\utilities\src/segger_rtt.c ****       } else {
1192:.\utilities\src/segger_rtt.c ****         _PostTerminalSwitch(pRing, TerminalId);
1193:.\utilities\src/segger_rtt.c ****         Status = (int)_WriteBlocking(pRing, s, (FragLen < (Avail - 4u)) ? FragLen : (Avail - 4u));
1194:.\utilities\src/segger_rtt.c ****         _PostTerminalSwitch(pRing, _ActiveTerminal);
1195:.\utilities\src/segger_rtt.c ****       }
1196:.\utilities\src/segger_rtt.c ****       break;
1197:.\utilities\src/segger_rtt.c ****     case SEGGER_RTT_MODE_BLOCK_IF_FIFO_FULL:
1198:.\utilities\src/segger_rtt.c ****       //
1199:.\utilities\src/segger_rtt.c ****       // If we are in blocking mode, output everything.
1200:.\utilities\src/segger_rtt.c ****       //
1201:.\utilities\src/segger_rtt.c ****       _PostTerminalSwitch(pRing, TerminalId);
 2751              		.loc 1 1201 0
 2752 06ce 3800     		movs	r0, r7	@, TerminalId
 2753              	.LVL255:
 2754 06d0 FFF738FD 		bl	_PostTerminalSwitch.constprop.0	@
 2755              	.LVL256:
 2756 06d4 09E0     		b	.L159	@
 2757              	.LVL257:
 2758              	.L150:
 2759              	@ .\utilities\src\segger_rtt.c:1189:       if (Avail < 4u) {
1189:.\utilities\src/segger_rtt.c ****         Status = -1;
 2760              		.loc 1 1189 0
 2761 06d6 009B     		ldr	r3, [sp]	@ Avail, %sfp
 2762 06d8 032B     		cmp	r3, #3	@ Avail,
 2763 06da F1D9     		bls	.L157	@,
 2764              	@ .\utilities\src\segger_rtt.c:1192:         _PostTerminalSwitch(pRing, TerminalId);
1192:.\utilities\src/segger_rtt.c ****         Status = (int)_WriteBlocking(pRing, s, (FragLen < (Avail - 4u)) ? FragLen : (Avail - 4u));
 2765              		.loc 1 1192 0
 2766 06dc 3800     		movs	r0, r7	@, TerminalId
 2767              	.LVL258:
 2768 06de FFF731FD 		bl	_PostTerminalSwitch.constprop.0	@
 2769              	.LVL259:
 2770              	@ .\utilities\src\segger_rtt.c:1193:         Status = (int)_WriteBlocking(pRing, s, (FragLen < (Ava
1193:.\utilities\src/segger_rtt.c ****         _PostTerminalSwitch(pRing, _ActiveTerminal);
 2771              		.loc 1 1193 0
 2772 06e2 009A     		ldr	r2, [sp]	@ Avail, %sfp
 2773 06e4 043A     		subs	r2, r2, #4	@ Avail,
 2774 06e6 AA42     		cmp	r2, r5	@ FragLen, tmp130
 2775 06e8 00D9     		bls	.L153	@,
 2776              	.L159:
 2777 06ea 2A00     		movs	r2, r5	@ FragLen, tmp130
 2778              	.L153:
 2779 06ec 3100     		movs	r1, r6	@, s
 2780 06ee 0948     		ldr	r0, .L160+4	@,
 2781              	.LVL260:
 2782 06f0 FFF7ADFC 		bl	_WriteBlocking	@
 2783              	.LVL261:
 2784              	@ .\utilities\src\segger_rtt.c:1194:         _PostTerminalSwitch(pRing, _ActiveTerminal);
1194:.\utilities\src/segger_rtt.c ****       }
ARM GAS  C:\Users\claym\AppData\Local\Temp\ccb01mZK.s 			page 75


 2785              		.loc 1 1194 0
 2786 06f4 084B     		ldr	r3, .L160+8	@ tmp146,
 2787              	@ .\utilities\src\segger_rtt.c:1193:         Status = (int)_WriteBlocking(pRing, s, (FragLen < (Ava
1193:.\utilities\src/segger_rtt.c ****         _PostTerminalSwitch(pRing, _ActiveTerminal);
 2788              		.loc 1 1193 0
 2789 06f6 0400     		movs	r4, r0	@ <retval>,
 2790              	.LVL262:
 2791              	@ .\utilities\src\segger_rtt.c:1194:         _PostTerminalSwitch(pRing, _ActiveTerminal);
1194:.\utilities\src/segger_rtt.c ****       }
 2792              		.loc 1 1194 0
 2793 06f8 0133     		adds	r3, r3, #1	@ tmp147,
 2794 06fa D87F     		ldrb	r0, [r3, #31]	@ _ActiveTerminal, _ActiveTerminal
 2795              	.LVL263:
 2796 06fc FFF722FD 		bl	_PostTerminalSwitch.constprop.0	@
 2797              	.LVL264:
 2798              	.L149:
 2799              	@ .\utilities\src\segger_rtt.c:1212:     SEGGER_RTT_UNLOCK();
1202:.\utilities\src/segger_rtt.c ****       Status = (int)_WriteBlocking(pRing, s, FragLen);
1203:.\utilities\src/segger_rtt.c ****       _PostTerminalSwitch(pRing, _ActiveTerminal);
1204:.\utilities\src/segger_rtt.c ****       break;
1205:.\utilities\src/segger_rtt.c ****     default:
1206:.\utilities\src/segger_rtt.c ****       Status = -1;
1207:.\utilities\src/segger_rtt.c ****       break;
1208:.\utilities\src/segger_rtt.c ****     }
1209:.\utilities\src/segger_rtt.c ****     //
1210:.\utilities\src/segger_rtt.c ****     // Finish up.
1211:.\utilities\src/segger_rtt.c ****     //
1212:.\utilities\src/segger_rtt.c ****     SEGGER_RTT_UNLOCK();
 2800              		.loc 1 1212 0
 2801 0700 019B     		ldr	r3, [sp, #4]	@ LockState, %sfp
 2802              		.syntax divided
 2803              	@ 1212 ".\utilities\src\segger_rtt.c" 1
 2804 0702 83F31088 		msr   primask, r3  	@ LockState
 2805              		
 2806              	@ 0 "" 2
 2807              	.LVL265:
 2808              		.thumb
 2809              		.syntax unified
 2810              	.L146:
 2811              	.LBE14:
 2812              	@ .\utilities\src\segger_rtt.c:1217: }
1213:.\utilities\src/segger_rtt.c ****   } else {
1214:.\utilities\src/segger_rtt.c ****     Status = -1;
1215:.\utilities\src/segger_rtt.c ****   }
1216:.\utilities\src/segger_rtt.c ****   return Status;
1217:.\utilities\src/segger_rtt.c **** }
 2813              		.loc 1 1217 0
 2814 0706 2000     		movs	r0, r4	@, <retval>
 2815              		@ sp needed	@
 2816              	.LVL266:
 2817 0708 FEBD     		pop	{r1, r2, r3, r4, r5, r6, r7, pc}
 2818              	.LVL267:
 2819              	.L154:
 2820              	@ .\utilities\src\segger_rtt.c:1214:     Status = -1;
1214:.\utilities\src/segger_rtt.c ****   }
 2821              		.loc 1 1214 0
 2822 070a 0124     		movs	r4, #1	@ <retval>,
ARM GAS  C:\Users\claym\AppData\Local\Temp\ccb01mZK.s 			page 76


 2823 070c 6442     		rsbs	r4, r4, #0	@ <retval>, <retval>
 2824              	.LVL268:
 2825              	@ .\utilities\src\segger_rtt.c:1216:   return Status;
1216:.\utilities\src/segger_rtt.c **** }
 2826              		.loc 1 1216 0
 2827 070e FAE7     		b	.L146	@
 2828              	.L161:
 2829              		.align	2
 2830              	.L160:
 2831 0710 00000000 		.word	_SEGGER_RTT
 2832 0714 18000000 		.word	_SEGGER_RTT+24
 2833 0718 00000000 		.word	.LANCHOR0
 2834              		.cfi_endproc
 2835              	.LFE23:
 2836              		.size	SEGGER_RTT_TerminalOut, .-SEGGER_RTT_TerminalOut
 2837              		.global	_SEGGER_RTT
 2838              		.section	.rodata
 2839              		.set	.LANCHOR1,. + 0
 2840              		.type	_aTerminalId, %object
 2841              		.size	_aTerminalId, 16
 2842              	_aTerminalId:
 2843 0000 30       		.byte	48
 2844 0001 31       		.byte	49
 2845 0002 32       		.byte	50
 2846 0003 33       		.byte	51
 2847 0004 34       		.byte	52
 2848 0005 35       		.byte	53
 2849 0006 36       		.byte	54
 2850 0007 37       		.byte	55
 2851 0008 38       		.byte	56
 2852 0009 39       		.byte	57
 2853 000a 41       		.byte	65
 2854 000b 42       		.byte	66
 2855 000c 43       		.byte	67
 2856 000d 44       		.byte	68
 2857 000e 45       		.byte	69
 2858 000f 46       		.byte	70
 2859              		.bss
 2860              		.set	.LANCHOR0,. + 0
 2861              		.type	_acDownBuffer, %object
 2862              		.size	_acDownBuffer, 16
 2863              	_acDownBuffer:
 2864 0000 00000000 		.space	16
 2864      00000000 
 2864      00000000 
 2864      00000000 
 2865              		.type	_scopeDownBuffer, %object
 2866              		.size	_scopeDownBuffer, 16
 2867              	_scopeDownBuffer:
 2868 0010 00000000 		.space	16
 2868      00000000 
 2868      00000000 
 2868      00000000 
 2869              		.type	_ActiveTerminal, %object
 2870              		.size	_ActiveTerminal, 1
 2871              	_ActiveTerminal:
 2872 0020 00       		.space	1
ARM GAS  C:\Users\claym\AppData\Local\Temp\ccb01mZK.s 			page 77


 2873              		.type	_scopeUpBuffer, %object
 2874              		.size	_scopeUpBuffer, 2048
 2875              	_scopeUpBuffer:
 2876 0021 00000000 		.space	2048
 2876      00000000 
 2876      00000000 
 2876      00000000 
 2876      00000000 
 2877              		.type	_acUpBuffer, %object
 2878              		.size	_acUpBuffer, 1024
 2879              	_acUpBuffer:
 2880 0821 00000000 		.space	1024
 2880      00000000 
 2880      00000000 
 2880      00000000 
 2880      00000000 
 2881              		.section	.RTTSection,"aw",%progbits
 2882              		.align	2
 2883              		.type	_SEGGER_RTT, %object
 2884              		.size	_SEGGER_RTT, 168
 2885              	_SEGGER_RTT:
 2886 0000 00000000 		.space	168
 2886      00000000 
 2886      00000000 
 2886      00000000 
 2886      00000000 
 2887              		.section	.rodata.str1.1,"aMS",%progbits,1
 2888              	.LC1:
 2889 0000 5465726D 		.ascii	"Terminal\000"
 2889      696E616C 
 2889      00
 2890              	.LC5:
 2891 0009 4A53636F 		.ascii	"JScope_u1\000"
 2891      70655F75 
 2891      3100
 2892              	.LC8:
 2893 0013 52545400 		.ascii	"RTT\000"
 2894              	.LC11:
 2895 0017 53454747 		.ascii	"SEGGER\000"
 2895      455200
 2896              		.text
 2897              	.Letext0:
 2898              		.file 2 ".\\utilities\\hdr/SEGGER_RTT.h"
 2899              		.file 3 "c:\\program files (x86)\\gnu tools arm embedded\\7 2017-q4-major\\arm-none-eabi\\include\
 2900              		.file 4 "c:\\program files (x86)\\gnu tools arm embedded\\7 2017-q4-major\\arm-none-eabi\\include\
 2901              		.file 5 "c:\\program files (x86)\\gnu tools arm embedded\\7 2017-q4-major\\lib\\gcc\\arm-none-eabi
 2902              		.file 6 "c:\\program files (x86)\\gnu tools arm embedded\\7 2017-q4-major\\arm-none-eabi\\include\
 2903              		.file 7 "c:\\program files (x86)\\gnu tools arm embedded\\7 2017-q4-major\\arm-none-eabi\\include\
 2904              		.file 8 "<built-in>"
 2905              		.section	.debug_info,"",%progbits
 2906              	.Ldebug_info0:
 2907 0000 D9190000 		.4byte	0x19d9
 2908 0004 0200     		.2byte	0x2
 2909 0006 00000000 		.4byte	.Ldebug_abbrev0
 2910 000a 04       		.byte	0x4
 2911 000b 01       		.uleb128 0x1
 2912 000c A6010000 		.4byte	.LASF181
ARM GAS  C:\Users\claym\AppData\Local\Temp\ccb01mZK.s 			page 78


 2913 0010 0C       		.byte	0xc
 2914 0011 CE060000 		.4byte	.LASF182
 2915 0015 32010000 		.4byte	.LASF183
 2916 0019 00000000 		.4byte	.Ltext0
 2917 001d 1C070000 		.4byte	.Letext0
 2918 0021 00000000 		.4byte	.Ldebug_line0
 2919 0025 02       		.uleb128 0x2
 2920 0026 18       		.byte	0x18
 2921 0027 02       		.byte	0x2
 2922 0028 4E       		.byte	0x4e
 2923 0029 82000000 		.4byte	0x82
 2924 002d 03       		.uleb128 0x3
 2925 002e 7D040000 		.4byte	.LASF0
 2926 0032 02       		.byte	0x2
 2927 0033 4F       		.byte	0x4f
 2928 0034 82000000 		.4byte	0x82
 2929 0038 02       		.byte	0x2
 2930 0039 23       		.byte	0x23
 2931 003a 00       		.uleb128 0
 2932 003b 03       		.uleb128 0x3
 2933 003c 9E030000 		.4byte	.LASF1
 2934 0040 02       		.byte	0x2
 2935 0041 50       		.byte	0x50
 2936 0042 94000000 		.4byte	0x94
 2937 0046 02       		.byte	0x2
 2938 0047 23       		.byte	0x23
 2939 0048 04       		.uleb128 0x4
 2940 0049 03       		.uleb128 0x3
 2941 004a 74050000 		.4byte	.LASF2
 2942 004e 02       		.byte	0x2
 2943 004f 51       		.byte	0x51
 2944 0050 9A000000 		.4byte	0x9a
 2945 0054 02       		.byte	0x2
 2946 0055 23       		.byte	0x23
 2947 0056 08       		.uleb128 0x8
 2948 0057 03       		.uleb128 0x3
 2949 0058 6E080000 		.4byte	.LASF3
 2950 005c 02       		.byte	0x2
 2951 005d 52       		.byte	0x52
 2952 005e 9A000000 		.4byte	0x9a
 2953 0062 02       		.byte	0x2
 2954 0063 23       		.byte	0x23
 2955 0064 0C       		.uleb128 0xc
 2956 0065 03       		.uleb128 0x3
 2957 0066 43030000 		.4byte	.LASF4
 2958 006a 02       		.byte	0x2
 2959 006b 53       		.byte	0x53
 2960 006c A1000000 		.4byte	0xa1
 2961 0070 02       		.byte	0x2
 2962 0071 23       		.byte	0x23
 2963 0072 10       		.uleb128 0x10
 2964 0073 03       		.uleb128 0x3
 2965 0074 79070000 		.4byte	.LASF5
 2966 0078 02       		.byte	0x2
 2967 0079 54       		.byte	0x54
 2968 007a 9A000000 		.4byte	0x9a
 2969 007e 02       		.byte	0x2
ARM GAS  C:\Users\claym\AppData\Local\Temp\ccb01mZK.s 			page 79


 2970 007f 23       		.byte	0x23
 2971 0080 14       		.uleb128 0x14
 2972 0081 00       		.byte	0
 2973 0082 04       		.uleb128 0x4
 2974 0083 04       		.byte	0x4
 2975 0084 8F000000 		.4byte	0x8f
 2976 0088 05       		.uleb128 0x5
 2977 0089 01       		.byte	0x1
 2978 008a 08       		.byte	0x8
 2979 008b 41070000 		.4byte	.LASF6
 2980 008f 06       		.uleb128 0x6
 2981 0090 88000000 		.4byte	0x88
 2982 0094 04       		.uleb128 0x4
 2983 0095 04       		.byte	0x4
 2984 0096 88000000 		.4byte	0x88
 2985 009a 05       		.uleb128 0x5
 2986 009b 04       		.byte	0x4
 2987 009c 07       		.byte	0x7
 2988 009d 62030000 		.4byte	.LASF7
 2989 00a1 07       		.uleb128 0x7
 2990 00a2 9A000000 		.4byte	0x9a
 2991 00a6 08       		.uleb128 0x8
 2992 00a7 75000000 		.4byte	.LASF8
 2993 00ab 02       		.byte	0x2
 2994 00ac 55       		.byte	0x55
 2995 00ad 25000000 		.4byte	0x25
 2996 00b1 02       		.uleb128 0x2
 2997 00b2 18       		.byte	0x18
 2998 00b3 02       		.byte	0x2
 2999 00b4 5B       		.byte	0x5b
 3000 00b5 0E010000 		.4byte	0x10e
 3001 00b9 03       		.uleb128 0x3
 3002 00ba 7D040000 		.4byte	.LASF0
 3003 00be 02       		.byte	0x2
 3004 00bf 5C       		.byte	0x5c
 3005 00c0 82000000 		.4byte	0x82
 3006 00c4 02       		.byte	0x2
 3007 00c5 23       		.byte	0x23
 3008 00c6 00       		.uleb128 0
 3009 00c7 03       		.uleb128 0x3
 3010 00c8 9E030000 		.4byte	.LASF1
 3011 00cc 02       		.byte	0x2
 3012 00cd 5D       		.byte	0x5d
 3013 00ce 94000000 		.4byte	0x94
 3014 00d2 02       		.byte	0x2
 3015 00d3 23       		.byte	0x23
 3016 00d4 04       		.uleb128 0x4
 3017 00d5 03       		.uleb128 0x3
 3018 00d6 74050000 		.4byte	.LASF2
 3019 00da 02       		.byte	0x2
 3020 00db 5E       		.byte	0x5e
 3021 00dc 9A000000 		.4byte	0x9a
 3022 00e0 02       		.byte	0x2
 3023 00e1 23       		.byte	0x23
 3024 00e2 08       		.uleb128 0x8
 3025 00e3 03       		.uleb128 0x3
 3026 00e4 6E080000 		.4byte	.LASF3
ARM GAS  C:\Users\claym\AppData\Local\Temp\ccb01mZK.s 			page 80


 3027 00e8 02       		.byte	0x2
 3028 00e9 5F       		.byte	0x5f
 3029 00ea A1000000 		.4byte	0xa1
 3030 00ee 02       		.byte	0x2
 3031 00ef 23       		.byte	0x23
 3032 00f0 0C       		.uleb128 0xc
 3033 00f1 03       		.uleb128 0x3
 3034 00f2 43030000 		.4byte	.LASF4
 3035 00f6 02       		.byte	0x2
 3036 00f7 60       		.byte	0x60
 3037 00f8 9A000000 		.4byte	0x9a
 3038 00fc 02       		.byte	0x2
 3039 00fd 23       		.byte	0x23
 3040 00fe 10       		.uleb128 0x10
 3041 00ff 03       		.uleb128 0x3
 3042 0100 79070000 		.4byte	.LASF5
 3043 0104 02       		.byte	0x2
 3044 0105 61       		.byte	0x61
 3045 0106 9A000000 		.4byte	0x9a
 3046 010a 02       		.byte	0x2
 3047 010b 23       		.byte	0x23
 3048 010c 14       		.uleb128 0x14
 3049 010d 00       		.byte	0
 3050 010e 08       		.uleb128 0x8
 3051 010f B8000000 		.4byte	.LASF9
 3052 0113 02       		.byte	0x2
 3053 0114 62       		.byte	0x62
 3054 0115 B1000000 		.4byte	0xb1
 3055 0119 02       		.uleb128 0x2
 3056 011a A8       		.byte	0xa8
 3057 011b 02       		.byte	0x2
 3058 011c 69       		.byte	0x69
 3059 011d 68010000 		.4byte	0x168
 3060 0121 03       		.uleb128 0x3
 3061 0122 E5050000 		.4byte	.LASF10
 3062 0126 02       		.byte	0x2
 3063 0127 6A       		.byte	0x6a
 3064 0128 68010000 		.4byte	0x168
 3065 012c 02       		.byte	0x2
 3066 012d 23       		.byte	0x23
 3067 012e 00       		.uleb128 0
 3068 012f 03       		.uleb128 0x3
 3069 0130 BD030000 		.4byte	.LASF11
 3070 0134 02       		.byte	0x2
 3071 0135 6B       		.byte	0x6b
 3072 0136 78010000 		.4byte	0x178
 3073 013a 02       		.byte	0x2
 3074 013b 23       		.byte	0x23
 3075 013c 10       		.uleb128 0x10
 3076 013d 03       		.uleb128 0x3
 3077 013e 2B000000 		.4byte	.LASF12
 3078 0142 02       		.byte	0x2
 3079 0143 6C       		.byte	0x6c
 3080 0144 78010000 		.4byte	0x178
 3081 0148 02       		.byte	0x2
 3082 0149 23       		.byte	0x23
 3083 014a 14       		.uleb128 0x14
ARM GAS  C:\Users\claym\AppData\Local\Temp\ccb01mZK.s 			page 81


 3084 014b 09       		.uleb128 0x9
 3085 014c 61557000 		.ascii	"aUp\000"
 3086 0150 02       		.byte	0x2
 3087 0151 6D       		.byte	0x6d
 3088 0152 7F010000 		.4byte	0x17f
 3089 0156 02       		.byte	0x2
 3090 0157 23       		.byte	0x23
 3091 0158 18       		.uleb128 0x18
 3092 0159 03       		.uleb128 0x3
 3093 015a 10070000 		.4byte	.LASF13
 3094 015e 02       		.byte	0x2
 3095 015f 6E       		.byte	0x6e
 3096 0160 8F010000 		.4byte	0x18f
 3097 0164 02       		.byte	0x2
 3098 0165 23       		.byte	0x23
 3099 0166 60       		.uleb128 0x60
 3100 0167 00       		.byte	0
 3101 0168 0A       		.uleb128 0xa
 3102 0169 88000000 		.4byte	0x88
 3103 016d 78010000 		.4byte	0x178
 3104 0171 0B       		.uleb128 0xb
 3105 0172 9A000000 		.4byte	0x9a
 3106 0176 0F       		.byte	0xf
 3107 0177 00       		.byte	0
 3108 0178 0C       		.uleb128 0xc
 3109 0179 04       		.byte	0x4
 3110 017a 05       		.byte	0x5
 3111 017b 696E7400 		.ascii	"int\000"
 3112 017f 0A       		.uleb128 0xa
 3113 0180 A6000000 		.4byte	0xa6
 3114 0184 8F010000 		.4byte	0x18f
 3115 0188 0B       		.uleb128 0xb
 3116 0189 9A000000 		.4byte	0x9a
 3117 018d 02       		.byte	0x2
 3118 018e 00       		.byte	0
 3119 018f 0A       		.uleb128 0xa
 3120 0190 0E010000 		.4byte	0x10e
 3121 0194 9F010000 		.4byte	0x19f
 3122 0198 0B       		.uleb128 0xb
 3123 0199 9A000000 		.4byte	0x9a
 3124 019d 02       		.byte	0x2
 3125 019e 00       		.byte	0
 3126 019f 08       		.uleb128 0x8
 3127 01a0 A4040000 		.4byte	.LASF14
 3128 01a4 02       		.byte	0x2
 3129 01a5 6F       		.byte	0x6f
 3130 01a6 19010000 		.4byte	0x119
 3131 01aa 0D       		.uleb128 0xd
 3132 01ab 88020000 		.4byte	.LASF132
 3133 01af 02       		.byte	0x2
 3134 01b0 77       		.byte	0x77
 3135 01b1 9F010000 		.4byte	0x19f
 3136 01b5 01       		.byte	0x1
 3137 01b6 01       		.byte	0x1
 3138 01b7 05       		.uleb128 0x5
 3139 01b8 08       		.byte	0x8
 3140 01b9 05       		.byte	0x5
ARM GAS  C:\Users\claym\AppData\Local\Temp\ccb01mZK.s 			page 82


 3141 01ba 79010000 		.4byte	.LASF15
 3142 01be 05       		.uleb128 0x5
 3143 01bf 08       		.byte	0x8
 3144 01c0 04       		.byte	0x4
 3145 01c1 D2040000 		.4byte	.LASF16
 3146 01c5 05       		.uleb128 0x5
 3147 01c6 01       		.byte	0x1
 3148 01c7 06       		.byte	0x6
 3149 01c8 87010000 		.4byte	.LASF17
 3150 01cc 05       		.uleb128 0x5
 3151 01cd 01       		.byte	0x1
 3152 01ce 08       		.byte	0x8
 3153 01cf 03060000 		.4byte	.LASF18
 3154 01d3 05       		.uleb128 0x5
 3155 01d4 02       		.byte	0x2
 3156 01d5 05       		.byte	0x5
 3157 01d6 30060000 		.4byte	.LASF19
 3158 01da 05       		.uleb128 0x5
 3159 01db 02       		.byte	0x2
 3160 01dc 07       		.byte	0x7
 3161 01dd CD030000 		.4byte	.LASF20
 3162 01e1 05       		.uleb128 0x5
 3163 01e2 04       		.byte	0x4
 3164 01e3 05       		.byte	0x5
 3165 01e4 78020000 		.4byte	.LASF21
 3166 01e8 05       		.uleb128 0x5
 3167 01e9 04       		.byte	0x4
 3168 01ea 07       		.byte	0x7
 3169 01eb 86030000 		.4byte	.LASF22
 3170 01ef 05       		.uleb128 0x5
 3171 01f0 08       		.byte	0x8
 3172 01f1 07       		.byte	0x7
 3173 01f2 DD000000 		.4byte	.LASF23
 3174 01f6 08       		.uleb128 0x8
 3175 01f7 35040000 		.4byte	.LASF24
 3176 01fb 03       		.byte	0x3
 3177 01fc 22       		.byte	0x22
 3178 01fd 01020000 		.4byte	0x201
 3179 0201 04       		.uleb128 0x4
 3180 0202 04       		.byte	0x4
 3181 0203 07020000 		.4byte	0x207
 3182 0207 0E       		.uleb128 0xe
 3183 0208 09070000 		.4byte	.LASF130
 3184 020c 01       		.byte	0x1
 3185 020d 08       		.uleb128 0x8
 3186 020e 52050000 		.4byte	.LASF25
 3187 0212 04       		.byte	0x4
 3188 0213 2C       		.byte	0x2c
 3189 0214 E1010000 		.4byte	0x1e1
 3190 0218 08       		.uleb128 0x8
 3191 0219 32070000 		.4byte	.LASF26
 3192 021d 04       		.byte	0x4
 3193 021e 72       		.byte	0x72
 3194 021f E1010000 		.4byte	0x1e1
 3195 0223 0F       		.uleb128 0xf
 3196 0224 3D040000 		.4byte	.LASF27
 3197 0228 05       		.byte	0x5
ARM GAS  C:\Users\claym\AppData\Local\Temp\ccb01mZK.s 			page 83


 3198 0229 6501     		.2byte	0x165
 3199 022b 9A000000 		.4byte	0x9a
 3200 022f 10       		.uleb128 0x10
 3201 0230 04       		.byte	0x4
 3202 0231 04       		.byte	0x4
 3203 0232 A6       		.byte	0xa6
 3204 0233 4E020000 		.4byte	0x24e
 3205 0237 11       		.uleb128 0x11
 3206 0238 28040000 		.4byte	.LASF28
 3207 023c 04       		.byte	0x4
 3208 023d A8       		.byte	0xa8
 3209 023e 23020000 		.4byte	0x223
 3210 0242 11       		.uleb128 0x11
 3211 0243 6F030000 		.4byte	.LASF29
 3212 0247 04       		.byte	0x4
 3213 0248 A9       		.byte	0xa9
 3214 0249 4E020000 		.4byte	0x24e
 3215 024d 00       		.byte	0
 3216 024e 0A       		.uleb128 0xa
 3217 024f CC010000 		.4byte	0x1cc
 3218 0253 5E020000 		.4byte	0x25e
 3219 0257 0B       		.uleb128 0xb
 3220 0258 9A000000 		.4byte	0x9a
 3221 025c 03       		.byte	0x3
 3222 025d 00       		.byte	0
 3223 025e 02       		.uleb128 0x2
 3224 025f 08       		.byte	0x8
 3225 0260 04       		.byte	0x4
 3226 0261 A3       		.byte	0xa3
 3227 0262 83020000 		.4byte	0x283
 3228 0266 03       		.uleb128 0x3
 3229 0267 01070000 		.4byte	.LASF30
 3230 026b 04       		.byte	0x4
 3231 026c A5       		.byte	0xa5
 3232 026d 78010000 		.4byte	0x178
 3233 0271 02       		.byte	0x2
 3234 0272 23       		.byte	0x23
 3235 0273 00       		.uleb128 0
 3236 0274 03       		.uleb128 0x3
 3237 0275 A7070000 		.4byte	.LASF31
 3238 0279 04       		.byte	0x4
 3239 027a AA       		.byte	0xaa
 3240 027b 2F020000 		.4byte	0x22f
 3241 027f 02       		.byte	0x2
 3242 0280 23       		.byte	0x23
 3243 0281 04       		.uleb128 0x4
 3244 0282 00       		.byte	0
 3245 0283 08       		.uleb128 0x8
 3246 0284 58060000 		.4byte	.LASF32
 3247 0288 04       		.byte	0x4
 3248 0289 AB       		.byte	0xab
 3249 028a 5E020000 		.4byte	0x25e
 3250 028e 08       		.uleb128 0x8
 3251 028f 0B030000 		.4byte	.LASF33
 3252 0293 04       		.byte	0x4
 3253 0294 AF       		.byte	0xaf
 3254 0295 F6010000 		.4byte	0x1f6
ARM GAS  C:\Users\claym\AppData\Local\Temp\ccb01mZK.s 			page 84


 3255 0299 12       		.uleb128 0x12
 3256 029a 04       		.byte	0x4
 3257 029b 08       		.uleb128 0x8
 3258 029c BD070000 		.4byte	.LASF34
 3259 02a0 06       		.byte	0x6
 3260 02a1 16       		.byte	0x16
 3261 02a2 E8010000 		.4byte	0x1e8
 3262 02a6 13       		.uleb128 0x13
 3263 02a7 1C030000 		.4byte	.LASF39
 3264 02ab 18       		.byte	0x18
 3265 02ac 06       		.byte	0x6
 3266 02ad 2F       		.byte	0x2f
 3267 02ae 05030000 		.4byte	0x305
 3268 02b2 03       		.uleb128 0x3
 3269 02b3 85070000 		.4byte	.LASF35
 3270 02b7 06       		.byte	0x6
 3271 02b8 31       		.byte	0x31
 3272 02b9 05030000 		.4byte	0x305
 3273 02bd 02       		.byte	0x2
 3274 02be 23       		.byte	0x23
 3275 02bf 00       		.uleb128 0
 3276 02c0 09       		.uleb128 0x9
 3277 02c1 5F6B00   		.ascii	"_k\000"
 3278 02c4 06       		.byte	0x6
 3279 02c5 32       		.byte	0x32
 3280 02c6 78010000 		.4byte	0x178
 3281 02ca 02       		.byte	0x2
 3282 02cb 23       		.byte	0x23
 3283 02cc 04       		.uleb128 0x4
 3284 02cd 03       		.uleb128 0x3
 3285 02ce C6060000 		.4byte	.LASF36
 3286 02d2 06       		.byte	0x6
 3287 02d3 32       		.byte	0x32
 3288 02d4 78010000 		.4byte	0x178
 3289 02d8 02       		.byte	0x2
 3290 02d9 23       		.byte	0x23
 3291 02da 08       		.uleb128 0x8
 3292 02db 03       		.uleb128 0x3
 3293 02dc 05030000 		.4byte	.LASF37
 3294 02e0 06       		.byte	0x6
 3295 02e1 32       		.byte	0x32
 3296 02e2 78010000 		.4byte	0x178
 3297 02e6 02       		.byte	0x2
 3298 02e7 23       		.byte	0x23
 3299 02e8 0C       		.uleb128 0xc
 3300 02e9 03       		.uleb128 0x3
 3301 02ea 39080000 		.4byte	.LASF38
 3302 02ee 06       		.byte	0x6
 3303 02ef 32       		.byte	0x32
 3304 02f0 78010000 		.4byte	0x178
 3305 02f4 02       		.byte	0x2
 3306 02f5 23       		.byte	0x23
 3307 02f6 10       		.uleb128 0x10
 3308 02f7 09       		.uleb128 0x9
 3309 02f8 5F7800   		.ascii	"_x\000"
 3310 02fb 06       		.byte	0x6
 3311 02fc 33       		.byte	0x33
ARM GAS  C:\Users\claym\AppData\Local\Temp\ccb01mZK.s 			page 85


 3312 02fd 0B030000 		.4byte	0x30b
 3313 0301 02       		.byte	0x2
 3314 0302 23       		.byte	0x23
 3315 0303 14       		.uleb128 0x14
 3316 0304 00       		.byte	0
 3317 0305 04       		.uleb128 0x4
 3318 0306 04       		.byte	0x4
 3319 0307 A6020000 		.4byte	0x2a6
 3320 030b 0A       		.uleb128 0xa
 3321 030c 9B020000 		.4byte	0x29b
 3322 0310 1B030000 		.4byte	0x31b
 3323 0314 0B       		.uleb128 0xb
 3324 0315 9A000000 		.4byte	0x9a
 3325 0319 00       		.byte	0
 3326 031a 00       		.byte	0
 3327 031b 13       		.uleb128 0x13
 3328 031c 49030000 		.4byte	.LASF40
 3329 0320 24       		.byte	0x24
 3330 0321 06       		.byte	0x6
 3331 0322 37       		.byte	0x37
 3332 0323 A6030000 		.4byte	0x3a6
 3333 0327 03       		.uleb128 0x3
 3334 0328 70010000 		.4byte	.LASF41
 3335 032c 06       		.byte	0x6
 3336 032d 39       		.byte	0x39
 3337 032e 78010000 		.4byte	0x178
 3338 0332 02       		.byte	0x2
 3339 0333 23       		.byte	0x23
 3340 0334 00       		.uleb128 0
 3341 0335 03       		.uleb128 0x3
 3342 0336 46070000 		.4byte	.LASF42
 3343 033a 06       		.byte	0x6
 3344 033b 3A       		.byte	0x3a
 3345 033c 78010000 		.4byte	0x178
 3346 0340 02       		.byte	0x2
 3347 0341 23       		.byte	0x23
 3348 0342 04       		.uleb128 0x4
 3349 0343 03       		.uleb128 0x3
 3350 0344 30020000 		.4byte	.LASF43
 3351 0348 06       		.byte	0x6
 3352 0349 3B       		.byte	0x3b
 3353 034a 78010000 		.4byte	0x178
 3354 034e 02       		.byte	0x2
 3355 034f 23       		.byte	0x23
 3356 0350 08       		.uleb128 0x8
 3357 0351 03       		.uleb128 0x3
 3358 0352 FD080000 		.4byte	.LASF44
 3359 0356 06       		.byte	0x6
 3360 0357 3C       		.byte	0x3c
 3361 0358 78010000 		.4byte	0x178
 3362 035c 02       		.byte	0x2
 3363 035d 23       		.byte	0x23
 3364 035e 0C       		.uleb128 0xc
 3365 035f 03       		.uleb128 0x3
 3366 0360 36050000 		.4byte	.LASF45
 3367 0364 06       		.byte	0x6
 3368 0365 3D       		.byte	0x3d
ARM GAS  C:\Users\claym\AppData\Local\Temp\ccb01mZK.s 			page 86


 3369 0366 78010000 		.4byte	0x178
 3370 036a 02       		.byte	0x2
 3371 036b 23       		.byte	0x23
 3372 036c 10       		.uleb128 0x10
 3373 036d 03       		.uleb128 0x3
 3374 036e 9A040000 		.4byte	.LASF46
 3375 0372 06       		.byte	0x6
 3376 0373 3E       		.byte	0x3e
 3377 0374 78010000 		.4byte	0x178
 3378 0378 02       		.byte	0x2
 3379 0379 23       		.byte	0x23
 3380 037a 14       		.uleb128 0x14
 3381 037b 03       		.uleb128 0x3
 3382 037c 3E080000 		.4byte	.LASF47
 3383 0380 06       		.byte	0x6
 3384 0381 3F       		.byte	0x3f
 3385 0382 78010000 		.4byte	0x178
 3386 0386 02       		.byte	0x2
 3387 0387 23       		.byte	0x23
 3388 0388 18       		.uleb128 0x18
 3389 0389 03       		.uleb128 0x3
 3390 038a 3A060000 		.4byte	.LASF48
 3391 038e 06       		.byte	0x6
 3392 038f 40       		.byte	0x40
 3393 0390 78010000 		.4byte	0x178
 3394 0394 02       		.byte	0x2
 3395 0395 23       		.byte	0x23
 3396 0396 1C       		.uleb128 0x1c
 3397 0397 03       		.uleb128 0x3
 3398 0398 95080000 		.4byte	.LASF49
 3399 039c 06       		.byte	0x6
 3400 039d 41       		.byte	0x41
 3401 039e 78010000 		.4byte	0x178
 3402 03a2 02       		.byte	0x2
 3403 03a3 23       		.byte	0x23
 3404 03a4 20       		.uleb128 0x20
 3405 03a5 00       		.byte	0
 3406 03a6 14       		.uleb128 0x14
 3407 03a7 3F020000 		.4byte	.LASF50
 3408 03ab 0801     		.2byte	0x108
 3409 03ad 06       		.byte	0x6
 3410 03ae 4A       		.byte	0x4a
 3411 03af EF030000 		.4byte	0x3ef
 3412 03b3 03       		.uleb128 0x3
 3413 03b4 F8020000 		.4byte	.LASF51
 3414 03b8 06       		.byte	0x6
 3415 03b9 4B       		.byte	0x4b
 3416 03ba EF030000 		.4byte	0x3ef
 3417 03be 02       		.byte	0x2
 3418 03bf 23       		.byte	0x23
 3419 03c0 00       		.uleb128 0
 3420 03c1 03       		.uleb128 0x3
 3421 03c2 00000000 		.4byte	.LASF52
 3422 03c6 06       		.byte	0x6
 3423 03c7 4C       		.byte	0x4c
 3424 03c8 EF030000 		.4byte	0x3ef
 3425 03cc 03       		.byte	0x3
ARM GAS  C:\Users\claym\AppData\Local\Temp\ccb01mZK.s 			page 87


 3426 03cd 23       		.byte	0x23
 3427 03ce 8001     		.uleb128 0x80
 3428 03d0 03       		.uleb128 0x3
 3429 03d1 AF070000 		.4byte	.LASF53
 3430 03d5 06       		.byte	0x6
 3431 03d6 4E       		.byte	0x4e
 3432 03d7 9B020000 		.4byte	0x29b
 3433 03db 03       		.byte	0x3
 3434 03dc 23       		.byte	0x23
 3435 03dd 8002     		.uleb128 0x100
 3436 03df 03       		.uleb128 0x3
 3437 03e0 0C000000 		.4byte	.LASF54
 3438 03e4 06       		.byte	0x6
 3439 03e5 51       		.byte	0x51
 3440 03e6 9B020000 		.4byte	0x29b
 3441 03ea 03       		.byte	0x3
 3442 03eb 23       		.byte	0x23
 3443 03ec 8402     		.uleb128 0x104
 3444 03ee 00       		.byte	0
 3445 03ef 0A       		.uleb128 0xa
 3446 03f0 99020000 		.4byte	0x299
 3447 03f4 FF030000 		.4byte	0x3ff
 3448 03f8 0B       		.uleb128 0xb
 3449 03f9 9A000000 		.4byte	0x9a
 3450 03fd 1F       		.byte	0x1f
 3451 03fe 00       		.byte	0
 3452 03ff 14       		.uleb128 0x14
 3453 0400 3F050000 		.4byte	.LASF55
 3454 0404 9001     		.2byte	0x190
 3455 0406 06       		.byte	0x6
 3456 0407 5D       		.byte	0x5d
 3457 0408 46040000 		.4byte	0x446
 3458 040c 03       		.uleb128 0x3
 3459 040d 85070000 		.4byte	.LASF35
 3460 0411 06       		.byte	0x6
 3461 0412 5E       		.byte	0x5e
 3462 0413 46040000 		.4byte	0x446
 3463 0417 02       		.byte	0x2
 3464 0418 23       		.byte	0x23
 3465 0419 00       		.uleb128 0
 3466 041a 03       		.uleb128 0x3
 3467 041b 91060000 		.4byte	.LASF56
 3468 041f 06       		.byte	0x6
 3469 0420 5F       		.byte	0x5f
 3470 0421 78010000 		.4byte	0x178
 3471 0425 02       		.byte	0x2
 3472 0426 23       		.byte	0x23
 3473 0427 04       		.uleb128 0x4
 3474 0428 03       		.uleb128 0x3
 3475 0429 00030000 		.4byte	.LASF57
 3476 042d 06       		.byte	0x6
 3477 042e 61       		.byte	0x61
 3478 042f 4C040000 		.4byte	0x44c
 3479 0433 02       		.byte	0x2
 3480 0434 23       		.byte	0x23
 3481 0435 08       		.uleb128 0x8
 3482 0436 03       		.uleb128 0x3
ARM GAS  C:\Users\claym\AppData\Local\Temp\ccb01mZK.s 			page 88


 3483 0437 3F020000 		.4byte	.LASF50
 3484 043b 06       		.byte	0x6
 3485 043c 62       		.byte	0x62
 3486 043d A6030000 		.4byte	0x3a6
 3487 0441 03       		.byte	0x3
 3488 0442 23       		.byte	0x23
 3489 0443 8801     		.uleb128 0x88
 3490 0445 00       		.byte	0
 3491 0446 04       		.uleb128 0x4
 3492 0447 04       		.byte	0x4
 3493 0448 FF030000 		.4byte	0x3ff
 3494 044c 0A       		.uleb128 0xa
 3495 044d 5C040000 		.4byte	0x45c
 3496 0451 5C040000 		.4byte	0x45c
 3497 0455 0B       		.uleb128 0xb
 3498 0456 9A000000 		.4byte	0x9a
 3499 045a 1F       		.byte	0x1f
 3500 045b 00       		.byte	0
 3501 045c 04       		.uleb128 0x4
 3502 045d 04       		.byte	0x4
 3503 045e 62040000 		.4byte	0x462
 3504 0462 15       		.uleb128 0x15
 3505 0463 01       		.byte	0x1
 3506 0464 13       		.uleb128 0x13
 3507 0465 44060000 		.4byte	.LASF58
 3508 0469 08       		.byte	0x8
 3509 046a 06       		.byte	0x6
 3510 046b 75       		.byte	0x75
 3511 046c 8D040000 		.4byte	0x48d
 3512 0470 03       		.uleb128 0x3
 3513 0471 2A020000 		.4byte	.LASF59
 3514 0475 06       		.byte	0x6
 3515 0476 76       		.byte	0x76
 3516 0477 8D040000 		.4byte	0x48d
 3517 047b 02       		.byte	0x2
 3518 047c 23       		.byte	0x23
 3519 047d 00       		.uleb128 0
 3520 047e 03       		.uleb128 0x3
 3521 047f 25000000 		.4byte	.LASF60
 3522 0483 06       		.byte	0x6
 3523 0484 77       		.byte	0x77
 3524 0485 78010000 		.4byte	0x178
 3525 0489 02       		.byte	0x2
 3526 048a 23       		.byte	0x23
 3527 048b 04       		.uleb128 0x4
 3528 048c 00       		.byte	0
 3529 048d 04       		.uleb128 0x4
 3530 048e 04       		.byte	0x4
 3531 048f CC010000 		.4byte	0x1cc
 3532 0493 13       		.uleb128 0x13
 3533 0494 63060000 		.4byte	.LASF61
 3534 0498 68       		.byte	0x68
 3535 0499 06       		.byte	0x6
 3536 049a B5       		.byte	0xb5
 3537 049b ED050000 		.4byte	0x5ed
 3538 049f 09       		.uleb128 0x9
 3539 04a0 5F7000   		.ascii	"_p\000"
ARM GAS  C:\Users\claym\AppData\Local\Temp\ccb01mZK.s 			page 89


 3540 04a3 06       		.byte	0x6
 3541 04a4 B6       		.byte	0xb6
 3542 04a5 8D040000 		.4byte	0x48d
 3543 04a9 02       		.byte	0x2
 3544 04aa 23       		.byte	0x23
 3545 04ab 00       		.uleb128 0
 3546 04ac 09       		.uleb128 0x9
 3547 04ad 5F7200   		.ascii	"_r\000"
 3548 04b0 06       		.byte	0x6
 3549 04b1 B7       		.byte	0xb7
 3550 04b2 78010000 		.4byte	0x178
 3551 04b6 02       		.byte	0x2
 3552 04b7 23       		.byte	0x23
 3553 04b8 04       		.uleb128 0x4
 3554 04b9 09       		.uleb128 0x9
 3555 04ba 5F7700   		.ascii	"_w\000"
 3556 04bd 06       		.byte	0x6
 3557 04be B8       		.byte	0xb8
 3558 04bf 78010000 		.4byte	0x178
 3559 04c3 02       		.byte	0x2
 3560 04c4 23       		.byte	0x23
 3561 04c5 08       		.uleb128 0x8
 3562 04c6 03       		.uleb128 0x3
 3563 04c7 81020000 		.4byte	.LASF62
 3564 04cb 06       		.byte	0x6
 3565 04cc B9       		.byte	0xb9
 3566 04cd D3010000 		.4byte	0x1d3
 3567 04d1 02       		.byte	0x2
 3568 04d2 23       		.byte	0x23
 3569 04d3 0C       		.uleb128 0xc
 3570 04d4 03       		.uleb128 0x3
 3571 04d5 98030000 		.4byte	.LASF63
 3572 04d9 06       		.byte	0x6
 3573 04da BA       		.byte	0xba
 3574 04db D3010000 		.4byte	0x1d3
 3575 04df 02       		.byte	0x2
 3576 04e0 23       		.byte	0x23
 3577 04e1 0E       		.uleb128 0xe
 3578 04e2 09       		.uleb128 0x9
 3579 04e3 5F626600 		.ascii	"_bf\000"
 3580 04e7 06       		.byte	0x6
 3581 04e8 BB       		.byte	0xbb
 3582 04e9 64040000 		.4byte	0x464
 3583 04ed 02       		.byte	0x2
 3584 04ee 23       		.byte	0x23
 3585 04ef 10       		.uleb128 0x10
 3586 04f0 03       		.uleb128 0x3
 3587 04f1 F4000000 		.4byte	.LASF64
 3588 04f5 06       		.byte	0x6
 3589 04f6 BC       		.byte	0xbc
 3590 04f7 78010000 		.4byte	0x178
 3591 04fb 02       		.byte	0x2
 3592 04fc 23       		.byte	0x23
 3593 04fd 18       		.uleb128 0x18
 3594 04fe 03       		.uleb128 0x3
 3595 04ff 5C020000 		.4byte	.LASF65
 3596 0503 06       		.byte	0x6
ARM GAS  C:\Users\claym\AppData\Local\Temp\ccb01mZK.s 			page 90


 3597 0504 C3       		.byte	0xc3
 3598 0505 99020000 		.4byte	0x299
 3599 0509 02       		.byte	0x2
 3600 050a 23       		.byte	0x23
 3601 050b 1C       		.uleb128 0x1c
 3602 050c 03       		.uleb128 0x3
 3603 050d 33030000 		.4byte	.LASF66
 3604 0511 06       		.byte	0x6
 3605 0512 C5       		.byte	0xc5
 3606 0513 75070000 		.4byte	0x775
 3607 0517 02       		.byte	0x2
 3608 0518 23       		.byte	0x23
 3609 0519 20       		.uleb128 0x20
 3610 051a 03       		.uleb128 0x3
 3611 051b 93040000 		.4byte	.LASF67
 3612 051f 06       		.byte	0x6
 3613 0520 C7       		.byte	0xc7
 3614 0521 9A070000 		.4byte	0x79a
 3615 0525 02       		.byte	0x2
 3616 0526 23       		.byte	0x23
 3617 0527 24       		.uleb128 0x24
 3618 0528 03       		.uleb128 0x3
 3619 0529 16070000 		.4byte	.LASF68
 3620 052d 06       		.byte	0x6
 3621 052e CA       		.byte	0xca
 3622 052f BF070000 		.4byte	0x7bf
 3623 0533 02       		.byte	0x2
 3624 0534 23       		.byte	0x23
 3625 0535 28       		.uleb128 0x28
 3626 0536 03       		.uleb128 0x3
 3627 0537 BA080000 		.4byte	.LASF69
 3628 053b 06       		.byte	0x6
 3629 053c CB       		.byte	0xcb
 3630 053d DA070000 		.4byte	0x7da
 3631 0541 02       		.byte	0x2
 3632 0542 23       		.byte	0x23
 3633 0543 2C       		.uleb128 0x2c
 3634 0544 09       		.uleb128 0x9
 3635 0545 5F756200 		.ascii	"_ub\000"
 3636 0549 06       		.byte	0x6
 3637 054a CE       		.byte	0xce
 3638 054b 64040000 		.4byte	0x464
 3639 054f 02       		.byte	0x2
 3640 0550 23       		.byte	0x23
 3641 0551 30       		.uleb128 0x30
 3642 0552 09       		.uleb128 0x9
 3643 0553 5F757000 		.ascii	"_up\000"
 3644 0557 06       		.byte	0x6
 3645 0558 CF       		.byte	0xcf
 3646 0559 8D040000 		.4byte	0x48d
 3647 055d 02       		.byte	0x2
 3648 055e 23       		.byte	0x23
 3649 055f 38       		.uleb128 0x38
 3650 0560 09       		.uleb128 0x9
 3651 0561 5F757200 		.ascii	"_ur\000"
 3652 0565 06       		.byte	0x6
 3653 0566 D0       		.byte	0xd0
ARM GAS  C:\Users\claym\AppData\Local\Temp\ccb01mZK.s 			page 91


 3654 0567 78010000 		.4byte	0x178
 3655 056b 02       		.byte	0x2
 3656 056c 23       		.byte	0x23
 3657 056d 3C       		.uleb128 0x3c
 3658 056e 03       		.uleb128 0x3
 3659 056f A0010000 		.4byte	.LASF70
 3660 0573 06       		.byte	0x6
 3661 0574 D3       		.byte	0xd3
 3662 0575 E0070000 		.4byte	0x7e0
 3663 0579 02       		.byte	0x2
 3664 057a 23       		.byte	0x23
 3665 057b 40       		.uleb128 0x40
 3666 057c 03       		.uleb128 0x3
 3667 057d 74080000 		.4byte	.LASF71
 3668 0581 06       		.byte	0x6
 3669 0582 D4       		.byte	0xd4
 3670 0583 F0070000 		.4byte	0x7f0
 3671 0587 02       		.byte	0x2
 3672 0588 23       		.byte	0x23
 3673 0589 43       		.uleb128 0x43
 3674 058a 09       		.uleb128 0x9
 3675 058b 5F6C6200 		.ascii	"_lb\000"
 3676 058f 06       		.byte	0x6
 3677 0590 D7       		.byte	0xd7
 3678 0591 64040000 		.4byte	0x464
 3679 0595 02       		.byte	0x2
 3680 0596 23       		.byte	0x23
 3681 0597 44       		.uleb128 0x44
 3682 0598 03       		.uleb128 0x3
 3683 0599 9B020000 		.4byte	.LASF72
 3684 059d 06       		.byte	0x6
 3685 059e DA       		.byte	0xda
 3686 059f 78010000 		.4byte	0x178
 3687 05a3 02       		.byte	0x2
 3688 05a4 23       		.byte	0x23
 3689 05a5 4C       		.uleb128 0x4c
 3690 05a6 03       		.uleb128 0x3
 3691 05a7 D1020000 		.4byte	.LASF73
 3692 05ab 06       		.byte	0x6
 3693 05ac DB       		.byte	0xdb
 3694 05ad 0D020000 		.4byte	0x20d
 3695 05b1 02       		.byte	0x2
 3696 05b2 23       		.byte	0x23
 3697 05b3 50       		.uleb128 0x50
 3698 05b4 03       		.uleb128 0x3
 3699 05b5 92000000 		.4byte	.LASF74
 3700 05b9 06       		.byte	0x6
 3701 05ba DE       		.byte	0xde
 3702 05bb 0C060000 		.4byte	0x60c
 3703 05bf 02       		.byte	0x2
 3704 05c0 23       		.byte	0x23
 3705 05c1 54       		.uleb128 0x54
 3706 05c2 03       		.uleb128 0x3
 3707 05c3 6F040000 		.4byte	.LASF75
 3708 05c7 06       		.byte	0x6
 3709 05c8 E2       		.byte	0xe2
 3710 05c9 8E020000 		.4byte	0x28e
ARM GAS  C:\Users\claym\AppData\Local\Temp\ccb01mZK.s 			page 92


 3711 05cd 02       		.byte	0x2
 3712 05ce 23       		.byte	0x23
 3713 05cf 58       		.uleb128 0x58
 3714 05d0 03       		.uleb128 0x3
 3715 05d1 6B060000 		.4byte	.LASF76
 3716 05d5 06       		.byte	0x6
 3717 05d6 E4       		.byte	0xe4
 3718 05d7 83020000 		.4byte	0x283
 3719 05db 02       		.byte	0x2
 3720 05dc 23       		.byte	0x23
 3721 05dd 5C       		.uleb128 0x5c
 3722 05de 03       		.uleb128 0x3
 3723 05df 75040000 		.4byte	.LASF77
 3724 05e3 06       		.byte	0x6
 3725 05e4 E5       		.byte	0xe5
 3726 05e5 78010000 		.4byte	0x178
 3727 05e9 02       		.byte	0x2
 3728 05ea 23       		.byte	0x23
 3729 05eb 64       		.uleb128 0x64
 3730 05ec 00       		.byte	0
 3731 05ed 16       		.uleb128 0x16
 3732 05ee 01       		.byte	0x1
 3733 05ef 78010000 		.4byte	0x178
 3734 05f3 0C060000 		.4byte	0x60c
 3735 05f7 17       		.uleb128 0x17
 3736 05f8 0C060000 		.4byte	0x60c
 3737 05fc 17       		.uleb128 0x17
 3738 05fd 99020000 		.4byte	0x299
 3739 0601 17       		.uleb128 0x17
 3740 0602 94000000 		.4byte	0x94
 3741 0606 17       		.uleb128 0x17
 3742 0607 78010000 		.4byte	0x178
 3743 060b 00       		.byte	0
 3744 060c 04       		.uleb128 0x4
 3745 060d 04       		.byte	0x4
 3746 060e 17060000 		.4byte	0x617
 3747 0612 06       		.uleb128 0x6
 3748 0613 0C060000 		.4byte	0x60c
 3749 0617 18       		.uleb128 0x18
 3750 0618 1E000000 		.4byte	.LASF78
 3751 061c 2804     		.2byte	0x428
 3752 061e 06       		.byte	0x6
 3753 061f 3902     		.2byte	0x239
 3754 0621 75070000 		.4byte	0x775
 3755 0625 19       		.uleb128 0x19
 3756 0626 3A070000 		.4byte	.LASF79
 3757 062a 06       		.byte	0x6
 3758 062b 3B02     		.2byte	0x23b
 3759 062d 78010000 		.4byte	0x178
 3760 0631 02       		.byte	0x2
 3761 0632 23       		.byte	0x23
 3762 0633 00       		.uleb128 0
 3763 0634 19       		.uleb128 0x19
 3764 0635 94020000 		.4byte	.LASF80
 3765 0639 06       		.byte	0x6
 3766 063a 4002     		.2byte	0x240
 3767 063c 4D080000 		.4byte	0x84d
ARM GAS  C:\Users\claym\AppData\Local\Temp\ccb01mZK.s 			page 93


 3768 0640 02       		.byte	0x2
 3769 0641 23       		.byte	0x23
 3770 0642 04       		.uleb128 0x4
 3771 0643 19       		.uleb128 0x19
 3772 0644 76030000 		.4byte	.LASF81
 3773 0648 06       		.byte	0x6
 3774 0649 4002     		.2byte	0x240
 3775 064b 4D080000 		.4byte	0x84d
 3776 064f 02       		.byte	0x2
 3777 0650 23       		.byte	0x23
 3778 0651 08       		.uleb128 0x8
 3779 0652 19       		.uleb128 0x19
 3780 0653 14030000 		.4byte	.LASF82
 3781 0657 06       		.byte	0x6
 3782 0658 4002     		.2byte	0x240
 3783 065a 4D080000 		.4byte	0x84d
 3784 065e 02       		.byte	0x2
 3785 065f 23       		.byte	0x23
 3786 0660 0C       		.uleb128 0xc
 3787 0661 19       		.uleb128 0x19
 3788 0662 8C060000 		.4byte	.LASF83
 3789 0666 06       		.byte	0x6
 3790 0667 4202     		.2byte	0x242
 3791 0669 78010000 		.4byte	0x178
 3792 066d 02       		.byte	0x2
 3793 066e 23       		.byte	0x23
 3794 066f 10       		.uleb128 0x10
 3795 0670 19       		.uleb128 0x19
 3796 0671 6A000000 		.4byte	.LASF84
 3797 0675 06       		.byte	0x6
 3798 0676 4302     		.2byte	0x243
 3799 0678 680A0000 		.4byte	0xa68
 3800 067c 02       		.byte	0x2
 3801 067d 23       		.byte	0x23
 3802 067e 14       		.uleb128 0x14
 3803 067f 19       		.uleb128 0x19
 3804 0680 A8060000 		.4byte	.LASF85
 3805 0684 06       		.byte	0x6
 3806 0685 4602     		.2byte	0x246
 3807 0687 78010000 		.4byte	0x178
 3808 068b 02       		.byte	0x2
 3809 068c 23       		.byte	0x23
 3810 068d 30       		.uleb128 0x30
 3811 068e 19       		.uleb128 0x19
 3812 068f 96060000 		.4byte	.LASF86
 3813 0693 06       		.byte	0x6
 3814 0694 4702     		.2byte	0x247
 3815 0696 7E0A0000 		.4byte	0xa7e
 3816 069a 02       		.byte	0x2
 3817 069b 23       		.byte	0x23
 3818 069c 34       		.uleb128 0x34
 3819 069d 19       		.uleb128 0x19
 3820 069e 47050000 		.4byte	.LASF87
 3821 06a2 06       		.byte	0x6
 3822 06a3 4902     		.2byte	0x249
 3823 06a5 78010000 		.4byte	0x178
 3824 06a9 02       		.byte	0x2
ARM GAS  C:\Users\claym\AppData\Local\Temp\ccb01mZK.s 			page 94


 3825 06aa 23       		.byte	0x23
 3826 06ab 38       		.uleb128 0x38
 3827 06ac 19       		.uleb128 0x19
 3828 06ad 9E060000 		.4byte	.LASF88
 3829 06b1 06       		.byte	0x6
 3830 06b2 4B02     		.2byte	0x24b
 3831 06b4 900A0000 		.4byte	0xa90
 3832 06b8 02       		.byte	0x2
 3833 06b9 23       		.byte	0x23
 3834 06ba 3C       		.uleb128 0x3c
 3835 06bb 19       		.uleb128 0x19
 3836 06bc 20040000 		.4byte	.LASF89
 3837 06c0 06       		.byte	0x6
 3838 06c1 4E02     		.2byte	0x24e
 3839 06c3 05030000 		.4byte	0x305
 3840 06c7 02       		.byte	0x2
 3841 06c8 23       		.byte	0x23
 3842 06c9 40       		.uleb128 0x40
 3843 06ca 19       		.uleb128 0x19
 3844 06cb 39030000 		.4byte	.LASF90
 3845 06cf 06       		.byte	0x6
 3846 06d0 4F02     		.2byte	0x24f
 3847 06d2 78010000 		.4byte	0x178
 3848 06d6 02       		.byte	0x2
 3849 06d7 23       		.byte	0x23
 3850 06d8 44       		.uleb128 0x44
 3851 06d9 19       		.uleb128 0x19
 3852 06da D4080000 		.4byte	.LASF91
 3853 06de 06       		.byte	0x6
 3854 06df 5002     		.2byte	0x250
 3855 06e1 05030000 		.4byte	0x305
 3856 06e5 02       		.byte	0x2
 3857 06e6 23       		.byte	0x23
 3858 06e7 48       		.uleb128 0x48
 3859 06e8 19       		.uleb128 0x19
 3860 06e9 93050000 		.4byte	.LASF92
 3861 06ed 06       		.byte	0x6
 3862 06ee 5102     		.2byte	0x251
 3863 06f0 960A0000 		.4byte	0xa96
 3864 06f4 02       		.byte	0x2
 3865 06f5 23       		.byte	0x23
 3866 06f6 4C       		.uleb128 0x4c
 3867 06f7 19       		.uleb128 0x19
 3868 06f8 7E030000 		.4byte	.LASF93
 3869 06fc 06       		.byte	0x6
 3870 06fd 5402     		.2byte	0x254
 3871 06ff 78010000 		.4byte	0x178
 3872 0703 02       		.byte	0x2
 3873 0704 23       		.byte	0x23
 3874 0705 50       		.uleb128 0x50
 3875 0706 19       		.uleb128 0x19
 3876 0707 C9020000 		.4byte	.LASF94
 3877 070b 06       		.byte	0x6
 3878 070c 5502     		.2byte	0x255
 3879 070e 94000000 		.4byte	0x94
 3880 0712 02       		.byte	0x2
 3881 0713 23       		.byte	0x23
ARM GAS  C:\Users\claym\AppData\Local\Temp\ccb01mZK.s 			page 95


 3882 0714 54       		.uleb128 0x54
 3883 0715 19       		.uleb128 0x19
 3884 0716 11060000 		.4byte	.LASF95
 3885 071a 06       		.byte	0x6
 3886 071b 7802     		.2byte	0x278
 3887 071d 460A0000 		.4byte	0xa46
 3888 0721 02       		.byte	0x2
 3889 0722 23       		.byte	0x23
 3890 0723 58       		.uleb128 0x58
 3891 0724 19       		.uleb128 0x19
 3892 0725 3F050000 		.4byte	.LASF55
 3893 0729 06       		.byte	0x6
 3894 072a 7C02     		.2byte	0x27c
 3895 072c 46040000 		.4byte	0x446
 3896 0730 03       		.byte	0x3
 3897 0731 23       		.byte	0x23
 3898 0732 C802     		.uleb128 0x148
 3899 0734 19       		.uleb128 0x19
 3900 0735 E0030000 		.4byte	.LASF96
 3901 0739 06       		.byte	0x6
 3902 073a 7D02     		.2byte	0x27d
 3903 073c FF030000 		.4byte	0x3ff
 3904 0740 03       		.byte	0x3
 3905 0741 23       		.byte	0x23
 3906 0742 CC02     		.uleb128 0x14c
 3907 0744 19       		.uleb128 0x19
 3908 0745 64080000 		.4byte	.LASF97
 3909 0749 06       		.byte	0x6
 3910 074a 8102     		.2byte	0x281
 3911 074c A80A0000 		.4byte	0xaa8
 3912 0750 03       		.byte	0x3
 3913 0751 23       		.byte	0x23
 3914 0752 DC05     		.uleb128 0x2dc
 3915 0754 19       		.uleb128 0x19
 3916 0755 64020000 		.4byte	.LASF98
 3917 0759 06       		.byte	0x6
 3918 075a 8602     		.2byte	0x286
 3919 075c 0C080000 		.4byte	0x80c
 3920 0760 03       		.byte	0x3
 3921 0761 23       		.byte	0x23
 3922 0762 E005     		.uleb128 0x2e0
 3923 0764 19       		.uleb128 0x19
 3924 0765 3A020000 		.4byte	.LASF99
 3925 0769 06       		.byte	0x6
 3926 076a 8802     		.2byte	0x288
 3927 076c B40A0000 		.4byte	0xab4
 3928 0770 03       		.byte	0x3
 3929 0771 23       		.byte	0x23
 3930 0772 EC05     		.uleb128 0x2ec
 3931 0774 00       		.byte	0
 3932 0775 04       		.uleb128 0x4
 3933 0776 04       		.byte	0x4
 3934 0777 ED050000 		.4byte	0x5ed
 3935 077b 16       		.uleb128 0x16
 3936 077c 01       		.byte	0x1
 3937 077d 78010000 		.4byte	0x178
 3938 0781 9A070000 		.4byte	0x79a
ARM GAS  C:\Users\claym\AppData\Local\Temp\ccb01mZK.s 			page 96


 3939 0785 17       		.uleb128 0x17
 3940 0786 0C060000 		.4byte	0x60c
 3941 078a 17       		.uleb128 0x17
 3942 078b 99020000 		.4byte	0x299
 3943 078f 17       		.uleb128 0x17
 3944 0790 82000000 		.4byte	0x82
 3945 0794 17       		.uleb128 0x17
 3946 0795 78010000 		.4byte	0x178
 3947 0799 00       		.byte	0
 3948 079a 04       		.uleb128 0x4
 3949 079b 04       		.byte	0x4
 3950 079c 7B070000 		.4byte	0x77b
 3951 07a0 16       		.uleb128 0x16
 3952 07a1 01       		.byte	0x1
 3953 07a2 18020000 		.4byte	0x218
 3954 07a6 BF070000 		.4byte	0x7bf
 3955 07aa 17       		.uleb128 0x17
 3956 07ab 0C060000 		.4byte	0x60c
 3957 07af 17       		.uleb128 0x17
 3958 07b0 99020000 		.4byte	0x299
 3959 07b4 17       		.uleb128 0x17
 3960 07b5 18020000 		.4byte	0x218
 3961 07b9 17       		.uleb128 0x17
 3962 07ba 78010000 		.4byte	0x178
 3963 07be 00       		.byte	0
 3964 07bf 04       		.uleb128 0x4
 3965 07c0 04       		.byte	0x4
 3966 07c1 A0070000 		.4byte	0x7a0
 3967 07c5 16       		.uleb128 0x16
 3968 07c6 01       		.byte	0x1
 3969 07c7 78010000 		.4byte	0x178
 3970 07cb DA070000 		.4byte	0x7da
 3971 07cf 17       		.uleb128 0x17
 3972 07d0 0C060000 		.4byte	0x60c
 3973 07d4 17       		.uleb128 0x17
 3974 07d5 99020000 		.4byte	0x299
 3975 07d9 00       		.byte	0
 3976 07da 04       		.uleb128 0x4
 3977 07db 04       		.byte	0x4
 3978 07dc C5070000 		.4byte	0x7c5
 3979 07e0 0A       		.uleb128 0xa
 3980 07e1 CC010000 		.4byte	0x1cc
 3981 07e5 F0070000 		.4byte	0x7f0
 3982 07e9 0B       		.uleb128 0xb
 3983 07ea 9A000000 		.4byte	0x9a
 3984 07ee 02       		.byte	0x2
 3985 07ef 00       		.byte	0
 3986 07f0 0A       		.uleb128 0xa
 3987 07f1 CC010000 		.4byte	0x1cc
 3988 07f5 00080000 		.4byte	0x800
 3989 07f9 0B       		.uleb128 0xb
 3990 07fa 9A000000 		.4byte	0x9a
 3991 07fe 00       		.byte	0
 3992 07ff 00       		.byte	0
 3993 0800 0F       		.uleb128 0xf
 3994 0801 51060000 		.4byte	.LASF100
 3995 0805 06       		.byte	0x6
ARM GAS  C:\Users\claym\AppData\Local\Temp\ccb01mZK.s 			page 97


 3996 0806 1F01     		.2byte	0x11f
 3997 0808 93040000 		.4byte	0x493
 3998 080c 1A       		.uleb128 0x1a
 3999 080d 48080000 		.4byte	.LASF101
 4000 0811 0C       		.byte	0xc
 4001 0812 06       		.byte	0x6
 4002 0813 2301     		.2byte	0x123
 4003 0815 47080000 		.4byte	0x847
 4004 0819 19       		.uleb128 0x19
 4005 081a 85070000 		.4byte	.LASF35
 4006 081e 06       		.byte	0x6
 4007 081f 2501     		.2byte	0x125
 4008 0821 47080000 		.4byte	0x847
 4009 0825 02       		.byte	0x2
 4010 0826 23       		.byte	0x23
 4011 0827 00       		.uleb128 0
 4012 0828 19       		.uleb128 0x19
 4013 0829 B6030000 		.4byte	.LASF102
 4014 082d 06       		.byte	0x6
 4015 082e 2601     		.2byte	0x126
 4016 0830 78010000 		.4byte	0x178
 4017 0834 02       		.byte	0x2
 4018 0835 23       		.byte	0x23
 4019 0836 04       		.uleb128 0x4
 4020 0837 19       		.uleb128 0x19
 4021 0838 4B060000 		.4byte	.LASF103
 4022 083c 06       		.byte	0x6
 4023 083d 2701     		.2byte	0x127
 4024 083f 4D080000 		.4byte	0x84d
 4025 0843 02       		.byte	0x2
 4026 0844 23       		.byte	0x23
 4027 0845 08       		.uleb128 0x8
 4028 0846 00       		.byte	0
 4029 0847 04       		.uleb128 0x4
 4030 0848 04       		.byte	0x4
 4031 0849 0C080000 		.4byte	0x80c
 4032 084d 04       		.uleb128 0x4
 4033 084e 04       		.byte	0x4
 4034 084f 00080000 		.4byte	0x800
 4035 0853 1A       		.uleb128 0x1a
 4036 0854 59000000 		.4byte	.LASF104
 4037 0858 0E       		.byte	0xe
 4038 0859 06       		.byte	0x6
 4039 085a 3F01     		.2byte	0x13f
 4040 085c 8E080000 		.4byte	0x88e
 4041 0860 19       		.uleb128 0x19
 4042 0861 EB060000 		.4byte	.LASF105
 4043 0865 06       		.byte	0x6
 4044 0866 4001     		.2byte	0x140
 4045 0868 8E080000 		.4byte	0x88e
 4046 086c 02       		.byte	0x2
 4047 086d 23       		.byte	0x23
 4048 086e 00       		.uleb128 0
 4049 086f 19       		.uleb128 0x19
 4050 0870 7F070000 		.4byte	.LASF106
 4051 0874 06       		.byte	0x6
 4052 0875 4101     		.2byte	0x141
ARM GAS  C:\Users\claym\AppData\Local\Temp\ccb01mZK.s 			page 98


 4053 0877 8E080000 		.4byte	0x88e
 4054 087b 02       		.byte	0x2
 4055 087c 23       		.byte	0x23
 4056 087d 06       		.uleb128 0x6
 4057 087e 19       		.uleb128 0x19
 4058 087f B8070000 		.4byte	.LASF107
 4059 0883 06       		.byte	0x6
 4060 0884 4201     		.2byte	0x142
 4061 0886 DA010000 		.4byte	0x1da
 4062 088a 02       		.byte	0x2
 4063 088b 23       		.byte	0x23
 4064 088c 0C       		.uleb128 0xc
 4065 088d 00       		.byte	0
 4066 088e 0A       		.uleb128 0xa
 4067 088f DA010000 		.4byte	0x1da
 4068 0893 9E080000 		.4byte	0x89e
 4069 0897 0B       		.uleb128 0xb
 4070 0898 9A000000 		.4byte	0x9a
 4071 089c 02       		.byte	0x2
 4072 089d 00       		.byte	0
 4073 089e 1B       		.uleb128 0x1b
 4074 089f D0       		.byte	0xd0
 4075 08a0 06       		.byte	0x6
 4076 08a1 5902     		.2byte	0x259
 4077 08a3 CE090000 		.4byte	0x9ce
 4078 08a7 19       		.uleb128 0x19
 4079 08a8 18080000 		.4byte	.LASF108
 4080 08ac 06       		.byte	0x6
 4081 08ad 5B02     		.2byte	0x25b
 4082 08af 9A000000 		.4byte	0x9a
 4083 08b3 02       		.byte	0x2
 4084 08b4 23       		.byte	0x23
 4085 08b5 00       		.uleb128 0
 4086 08b6 19       		.uleb128 0x19
 4087 08b7 8B070000 		.4byte	.LASF109
 4088 08bb 06       		.byte	0x6
 4089 08bc 5C02     		.2byte	0x25c
 4090 08be 94000000 		.4byte	0x94
 4091 08c2 02       		.byte	0x2
 4092 08c3 23       		.byte	0x23
 4093 08c4 04       		.uleb128 0x4
 4094 08c5 19       		.uleb128 0x19
 4095 08c6 F5030000 		.4byte	.LASF110
 4096 08ca 06       		.byte	0x6
 4097 08cb 5D02     		.2byte	0x25d
 4098 08cd CE090000 		.4byte	0x9ce
 4099 08d1 02       		.byte	0x2
 4100 08d2 23       		.byte	0x23
 4101 08d3 08       		.uleb128 0x8
 4102 08d4 19       		.uleb128 0x19
 4103 08d5 A0080000 		.4byte	.LASF111
 4104 08d9 06       		.byte	0x6
 4105 08da 5E02     		.2byte	0x25e
 4106 08dc 1B030000 		.4byte	0x31b
 4107 08e0 02       		.byte	0x2
 4108 08e1 23       		.byte	0x23
 4109 08e2 24       		.uleb128 0x24
ARM GAS  C:\Users\claym\AppData\Local\Temp\ccb01mZK.s 			page 99


 4110 08e3 19       		.uleb128 0x19
 4111 08e4 24030000 		.4byte	.LASF112
 4112 08e8 06       		.byte	0x6
 4113 08e9 5F02     		.2byte	0x25f
 4114 08eb 78010000 		.4byte	0x178
 4115 08ef 02       		.byte	0x2
 4116 08f0 23       		.byte	0x23
 4117 08f1 48       		.uleb128 0x48
 4118 08f2 19       		.uleb128 0x19
 4119 08f3 74060000 		.4byte	.LASF113
 4120 08f7 06       		.byte	0x6
 4121 08f8 6002     		.2byte	0x260
 4122 08fa EF010000 		.4byte	0x1ef
 4123 08fe 02       		.byte	0x2
 4124 08ff 23       		.byte	0x23
 4125 0900 50       		.uleb128 0x50
 4126 0901 19       		.uleb128 0x19
 4127 0902 C1080000 		.4byte	.LASF114
 4128 0906 06       		.byte	0x6
 4129 0907 6102     		.2byte	0x261
 4130 0909 53080000 		.4byte	0x853
 4131 090d 02       		.byte	0x2
 4132 090e 23       		.byte	0x23
 4133 090f 58       		.uleb128 0x58
 4134 0910 19       		.uleb128 0x19
 4135 0911 7F060000 		.4byte	.LASF115
 4136 0915 06       		.byte	0x6
 4137 0916 6202     		.2byte	0x262
 4138 0918 83020000 		.4byte	0x283
 4139 091c 02       		.byte	0x2
 4140 091d 23       		.byte	0x23
 4141 091e 68       		.uleb128 0x68
 4142 091f 19       		.uleb128 0x19
 4143 0920 C6080000 		.4byte	.LASF116
 4144 0924 06       		.byte	0x6
 4145 0925 6302     		.2byte	0x263
 4146 0927 83020000 		.4byte	0x283
 4147 092b 02       		.byte	0x2
 4148 092c 23       		.byte	0x23
 4149 092d 70       		.uleb128 0x70
 4150 092e 19       		.uleb128 0x19
 4151 092f 9D050000 		.4byte	.LASF117
 4152 0933 06       		.byte	0x6
 4153 0934 6402     		.2byte	0x264
 4154 0936 83020000 		.4byte	0x283
 4155 093a 02       		.byte	0x2
 4156 093b 23       		.byte	0x23
 4157 093c 78       		.uleb128 0x78
 4158 093d 19       		.uleb128 0x19
 4159 093e 1C070000 		.4byte	.LASF118
 4160 0942 06       		.byte	0x6
 4161 0943 6502     		.2byte	0x265
 4162 0945 DE090000 		.4byte	0x9de
 4163 0949 03       		.byte	0x3
 4164 094a 23       		.byte	0x23
 4165 094b 8001     		.uleb128 0x80
 4166 094d 19       		.uleb128 0x19
ARM GAS  C:\Users\claym\AppData\Local\Temp\ccb01mZK.s 			page 100


 4167 094e E9030000 		.4byte	.LASF119
 4168 0952 06       		.byte	0x6
 4169 0953 6602     		.2byte	0x266
 4170 0955 EE090000 		.4byte	0x9ee
 4171 0959 03       		.byte	0x3
 4172 095a 23       		.byte	0x23
 4173 095b 8801     		.uleb128 0x88
 4174 095d 19       		.uleb128 0x19
 4175 095e C5070000 		.4byte	.LASF120
 4176 0962 06       		.byte	0x6
 4177 0963 6702     		.2byte	0x267
 4178 0965 78010000 		.4byte	0x178
 4179 0969 03       		.byte	0x3
 4180 096a 23       		.byte	0x23
 4181 096b A001     		.uleb128 0xa0
 4182 096d 19       		.uleb128 0x19
 4183 096e EA020000 		.4byte	.LASF121
 4184 0972 06       		.byte	0x6
 4185 0973 6802     		.2byte	0x268
 4186 0975 83020000 		.4byte	0x283
 4187 0979 03       		.byte	0x3
 4188 097a 23       		.byte	0x23
 4189 097b A401     		.uleb128 0xa4
 4190 097d 19       		.uleb128 0x19
 4191 097e 08010000 		.4byte	.LASF122
 4192 0982 06       		.byte	0x6
 4193 0983 6902     		.2byte	0x269
 4194 0985 83020000 		.4byte	0x283
 4195 0989 03       		.byte	0x3
 4196 098a 23       		.byte	0x23
 4197 098b AC01     		.uleb128 0xac
 4198 098d 19       		.uleb128 0x19
 4199 098e D9020000 		.4byte	.LASF123
 4200 0992 06       		.byte	0x6
 4201 0993 6A02     		.2byte	0x26a
 4202 0995 83020000 		.4byte	0x283
 4203 0999 03       		.byte	0x3
 4204 099a 23       		.byte	0x23
 4205 099b B401     		.uleb128 0xb4
 4206 099d 19       		.uleb128 0x19
 4207 099e 98000000 		.4byte	.LASF124
 4208 09a2 06       		.byte	0x6
 4209 09a3 6B02     		.2byte	0x26b
 4210 09a5 83020000 		.4byte	0x283
 4211 09a9 03       		.byte	0x3
 4212 09aa 23       		.byte	0x23
 4213 09ab BC01     		.uleb128 0xbc
 4214 09ad 19       		.uleb128 0x19
 4215 09ae A7000000 		.4byte	.LASF125
 4216 09b2 06       		.byte	0x6
 4217 09b3 6C02     		.2byte	0x26c
 4218 09b5 83020000 		.4byte	0x283
 4219 09b9 03       		.byte	0x3
 4220 09ba 23       		.byte	0x23
 4221 09bb C401     		.uleb128 0xc4
 4222 09bd 19       		.uleb128 0x19
 4223 09be 27060000 		.4byte	.LASF126
ARM GAS  C:\Users\claym\AppData\Local\Temp\ccb01mZK.s 			page 101


 4224 09c2 06       		.byte	0x6
 4225 09c3 6D02     		.2byte	0x26d
 4226 09c5 78010000 		.4byte	0x178
 4227 09c9 03       		.byte	0x3
 4228 09ca 23       		.byte	0x23
 4229 09cb CC01     		.uleb128 0xcc
 4230 09cd 00       		.byte	0
 4231 09ce 0A       		.uleb128 0xa
 4232 09cf 88000000 		.4byte	0x88
 4233 09d3 DE090000 		.4byte	0x9de
 4234 09d7 0B       		.uleb128 0xb
 4235 09d8 9A000000 		.4byte	0x9a
 4236 09dc 19       		.byte	0x19
 4237 09dd 00       		.byte	0
 4238 09de 0A       		.uleb128 0xa
 4239 09df 88000000 		.4byte	0x88
 4240 09e3 EE090000 		.4byte	0x9ee
 4241 09e7 0B       		.uleb128 0xb
 4242 09e8 9A000000 		.4byte	0x9a
 4243 09ec 07       		.byte	0x7
 4244 09ed 00       		.byte	0
 4245 09ee 0A       		.uleb128 0xa
 4246 09ef 88000000 		.4byte	0x88
 4247 09f3 FE090000 		.4byte	0x9fe
 4248 09f7 0B       		.uleb128 0xb
 4249 09f8 9A000000 		.4byte	0x9a
 4250 09fc 17       		.byte	0x17
 4251 09fd 00       		.byte	0
 4252 09fe 1B       		.uleb128 0x1b
 4253 09ff F0       		.byte	0xf0
 4254 0a00 06       		.byte	0x6
 4255 0a01 7202     		.2byte	0x272
 4256 0a03 260A0000 		.4byte	0xa26
 4257 0a07 19       		.uleb128 0x19
 4258 0a08 05050000 		.4byte	.LASF127
 4259 0a0c 06       		.byte	0x6
 4260 0a0d 7502     		.2byte	0x275
 4261 0a0f 260A0000 		.4byte	0xa26
 4262 0a13 02       		.byte	0x2
 4263 0a14 23       		.byte	0x23
 4264 0a15 00       		.uleb128 0
 4265 0a16 19       		.uleb128 0x19
 4266 0a17 5B080000 		.4byte	.LASF128
 4267 0a1b 06       		.byte	0x6
 4268 0a1c 7602     		.2byte	0x276
 4269 0a1e 360A0000 		.4byte	0xa36
 4270 0a22 02       		.byte	0x2
 4271 0a23 23       		.byte	0x23
 4272 0a24 78       		.uleb128 0x78
 4273 0a25 00       		.byte	0
 4274 0a26 0A       		.uleb128 0xa
 4275 0a27 8D040000 		.4byte	0x48d
 4276 0a2b 360A0000 		.4byte	0xa36
 4277 0a2f 0B       		.uleb128 0xb
 4278 0a30 9A000000 		.4byte	0x9a
 4279 0a34 1D       		.byte	0x1d
 4280 0a35 00       		.byte	0
ARM GAS  C:\Users\claym\AppData\Local\Temp\ccb01mZK.s 			page 102


 4281 0a36 0A       		.uleb128 0xa
 4282 0a37 9A000000 		.4byte	0x9a
 4283 0a3b 460A0000 		.4byte	0xa46
 4284 0a3f 0B       		.uleb128 0xb
 4285 0a40 9A000000 		.4byte	0x9a
 4286 0a44 1D       		.byte	0x1d
 4287 0a45 00       		.byte	0
 4288 0a46 1C       		.uleb128 0x1c
 4289 0a47 F0       		.byte	0xf0
 4290 0a48 06       		.byte	0x6
 4291 0a49 5702     		.2byte	0x257
 4292 0a4b 680A0000 		.4byte	0xa68
 4293 0a4f 1D       		.uleb128 0x1d
 4294 0a50 1E000000 		.4byte	.LASF78
 4295 0a54 06       		.byte	0x6
 4296 0a55 6E02     		.2byte	0x26e
 4297 0a57 9E080000 		.4byte	0x89e
 4298 0a5b 1D       		.uleb128 0x1d
 4299 0a5c 7A080000 		.4byte	.LASF129
 4300 0a60 06       		.byte	0x6
 4301 0a61 7702     		.2byte	0x277
 4302 0a63 FE090000 		.4byte	0x9fe
 4303 0a67 00       		.byte	0
 4304 0a68 0A       		.uleb128 0xa
 4305 0a69 88000000 		.4byte	0x88
 4306 0a6d 780A0000 		.4byte	0xa78
 4307 0a71 0B       		.uleb128 0xb
 4308 0a72 9A000000 		.4byte	0x9a
 4309 0a76 18       		.byte	0x18
 4310 0a77 00       		.byte	0
 4311 0a78 0E       		.uleb128 0xe
 4312 0a79 FD000000 		.4byte	.LASF131
 4313 0a7d 01       		.byte	0x1
 4314 0a7e 04       		.uleb128 0x4
 4315 0a7f 04       		.byte	0x4
 4316 0a80 780A0000 		.4byte	0xa78
 4317 0a84 1E       		.uleb128 0x1e
 4318 0a85 01       		.byte	0x1
 4319 0a86 900A0000 		.4byte	0xa90
 4320 0a8a 17       		.uleb128 0x17
 4321 0a8b 0C060000 		.4byte	0x60c
 4322 0a8f 00       		.byte	0
 4323 0a90 04       		.uleb128 0x4
 4324 0a91 04       		.byte	0x4
 4325 0a92 840A0000 		.4byte	0xa84
 4326 0a96 04       		.uleb128 0x4
 4327 0a97 04       		.byte	0x4
 4328 0a98 05030000 		.4byte	0x305
 4329 0a9c 1E       		.uleb128 0x1e
 4330 0a9d 01       		.byte	0x1
 4331 0a9e A80A0000 		.4byte	0xaa8
 4332 0aa2 17       		.uleb128 0x17
 4333 0aa3 78010000 		.4byte	0x178
 4334 0aa7 00       		.byte	0
 4335 0aa8 04       		.uleb128 0x4
 4336 0aa9 04       		.byte	0x4
 4337 0aaa AE0A0000 		.4byte	0xaae
ARM GAS  C:\Users\claym\AppData\Local\Temp\ccb01mZK.s 			page 103


 4338 0aae 04       		.uleb128 0x4
 4339 0aaf 04       		.byte	0x4
 4340 0ab0 9C0A0000 		.4byte	0xa9c
 4341 0ab4 0A       		.uleb128 0xa
 4342 0ab5 00080000 		.4byte	0x800
 4343 0ab9 C40A0000 		.4byte	0xac4
 4344 0abd 0B       		.uleb128 0xb
 4345 0abe 9A000000 		.4byte	0x9a
 4346 0ac2 02       		.byte	0x2
 4347 0ac3 00       		.byte	0
 4348 0ac4 1F       		.uleb128 0x1f
 4349 0ac5 26070000 		.4byte	.LASF133
 4350 0ac9 06       		.byte	0x6
 4351 0aca 0703     		.2byte	0x307
 4352 0acc 0C060000 		.4byte	0x60c
 4353 0ad0 01       		.byte	0x1
 4354 0ad1 01       		.byte	0x1
 4355 0ad2 1F       		.uleb128 0x1f
 4356 0ad3 F5070000 		.4byte	.LASF134
 4357 0ad7 06       		.byte	0x6
 4358 0ad8 0803     		.2byte	0x308
 4359 0ada 12060000 		.4byte	0x612
 4360 0ade 01       		.byte	0x1
 4361 0adf 01       		.byte	0x1
 4362 0ae0 0A       		.uleb128 0xa
 4363 0ae1 CC010000 		.4byte	0x1cc
 4364 0ae5 F00A0000 		.4byte	0xaf0
 4365 0ae9 0B       		.uleb128 0xb
 4366 0aea 9A000000 		.4byte	0x9a
 4367 0aee 0F       		.byte	0xf
 4368 0aef 00       		.byte	0
 4369 0af0 20       		.uleb128 0x20
 4370 0af1 4E080000 		.4byte	.LASF135
 4371 0af5 01       		.byte	0x1
 4372 0af6 84       		.byte	0x84
 4373 0af7 E00A0000 		.4byte	0xae0
 4374 0afb 05       		.byte	0x5
 4375 0afc 03       		.byte	0x3
 4376 0afd 00000000 		.4byte	_aTerminalId
 4377 0b01 0A       		.uleb128 0xa
 4378 0b02 88000000 		.4byte	0x88
 4379 0b06 120B0000 		.4byte	0xb12
 4380 0b0a 21       		.uleb128 0x21
 4381 0b0b 9A000000 		.4byte	0x9a
 4382 0b0f FF03     		.2byte	0x3ff
 4383 0b11 00       		.byte	0
 4384 0b12 20       		.uleb128 0x20
 4385 0b13 6C020000 		.4byte	.LASF136
 4386 0b17 01       		.byte	0x1
 4387 0b18 8F       		.byte	0x8f
 4388 0b19 010B0000 		.4byte	0xb01
 4389 0b1d 05       		.byte	0x5
 4390 0b1e 03       		.byte	0x3
 4391 0b1f 21080000 		.4byte	_acUpBuffer
 4392 0b23 20       		.uleb128 0x20
 4393 0b24 28050000 		.4byte	.LASF137
 4394 0b28 01       		.byte	0x1
ARM GAS  C:\Users\claym\AppData\Local\Temp\ccb01mZK.s 			page 104


 4395 0b29 90       		.byte	0x90
 4396 0b2a 68010000 		.4byte	0x168
 4397 0b2e 05       		.byte	0x5
 4398 0b2f 03       		.byte	0x3
 4399 0b30 00000000 		.4byte	_acDownBuffer
 4400 0b34 0A       		.uleb128 0xa
 4401 0b35 88000000 		.4byte	0x88
 4402 0b39 450B0000 		.4byte	0xb45
 4403 0b3d 21       		.uleb128 0x21
 4404 0b3e 9A000000 		.4byte	0x9a
 4405 0b42 FF07     		.2byte	0x7ff
 4406 0b44 00       		.byte	0
 4407 0b45 20       		.uleb128 0x20
 4408 0b46 4D020000 		.4byte	.LASF138
 4409 0b4a 01       		.byte	0x1
 4410 0b4b 91       		.byte	0x91
 4411 0b4c 340B0000 		.4byte	0xb34
 4412 0b50 05       		.byte	0x5
 4413 0b51 03       		.byte	0x3
 4414 0b52 21000000 		.4byte	_scopeUpBuffer
 4415 0b56 20       		.uleb128 0x20
 4416 0b57 16060000 		.4byte	.LASF139
 4417 0b5b 01       		.byte	0x1
 4418 0b5c 92       		.byte	0x92
 4419 0b5d 68010000 		.4byte	0x168
 4420 0b61 05       		.byte	0x5
 4421 0b62 03       		.byte	0x3
 4422 0b63 10000000 		.4byte	_scopeDownBuffer
 4423 0b67 22       		.uleb128 0x22
 4424 0b68 AA010000 		.4byte	0x1aa
 4425 0b6c 01       		.byte	0x1
 4426 0b6d 97       		.byte	0x97
 4427 0b6e 05       		.byte	0x5
 4428 0b6f 03       		.byte	0x3
 4429 0b70 00000000 		.4byte	_SEGGER_RTT
 4430 0b74 20       		.uleb128 0x20
 4431 0b75 08080000 		.4byte	.LASF140
 4432 0b79 01       		.byte	0x1
 4433 0b7a 9B       		.byte	0x9b
 4434 0b7b 88000000 		.4byte	0x88
 4435 0b7f 05       		.byte	0x5
 4436 0b80 03       		.byte	0x3
 4437 0b81 20000000 		.4byte	_ActiveTerminal
 4438 0b85 23       		.uleb128 0x23
 4439 0b86 01       		.byte	0x1
 4440 0b87 D2070000 		.4byte	.LASF147
 4441 0b8b 01       		.byte	0x1
 4442 0b8c 7804     		.2byte	0x478
 4443 0b8e 01       		.byte	0x1
 4444 0b8f 78010000 		.4byte	0x178
 4445 0b93 7C060000 		.4byte	.LFB23
 4446 0b97 1C070000 		.4byte	.LFE23
 4447 0b9b 00000000 		.4byte	.LLST115
 4448 0b9f 01       		.byte	0x1
 4449 0ba0 9F0C0000 		.4byte	0xc9f
 4450 0ba4 24       		.uleb128 0x24
 4451 0ba5 AF080000 		.4byte	.LASF141
ARM GAS  C:\Users\claym\AppData\Local\Temp\ccb01mZK.s 			page 105


 4452 0ba9 01       		.byte	0x1
 4453 0baa 7804     		.2byte	0x478
 4454 0bac 88000000 		.4byte	0x88
 4455 0bb0 20000000 		.4byte	.LLST116
 4456 0bb4 25       		.uleb128 0x25
 4457 0bb5 7300     		.ascii	"s\000"
 4458 0bb7 01       		.byte	0x1
 4459 0bb8 7804     		.2byte	0x478
 4460 0bba 82000000 		.4byte	0x82
 4461 0bbe 41000000 		.4byte	.LLST117
 4462 0bc2 26       		.uleb128 0x26
 4463 0bc3 C2020000 		.4byte	.LASF142
 4464 0bc7 01       		.byte	0x1
 4465 0bc8 7904     		.2byte	0x479
 4466 0bca 78010000 		.4byte	0x178
 4467 0bce 78000000 		.4byte	.LLST118
 4468 0bd2 26       		.uleb128 0x26
 4469 0bd3 BA020000 		.4byte	.LASF143
 4470 0bd7 01       		.byte	0x1
 4471 0bd8 7A04     		.2byte	0x47a
 4472 0bda 9A000000 		.4byte	0x9a
 4473 0bde A3000000 		.4byte	.LLST119
 4474 0be2 26       		.uleb128 0x26
 4475 0be3 C8050000 		.4byte	.LASF144
 4476 0be7 01       		.byte	0x1
 4477 0be8 7B04     		.2byte	0x47b
 4478 0bea 9A000000 		.4byte	0x9a
 4479 0bee C1000000 		.4byte	.LLST120
 4480 0bf2 26       		.uleb128 0x26
 4481 0bf3 CC040000 		.4byte	.LASF145
 4482 0bf7 01       		.byte	0x1
 4483 0bf8 7C04     		.2byte	0x47c
 4484 0bfa 9F0C0000 		.4byte	0xc9f
 4485 0bfe F7000000 		.4byte	.LLST121
 4486 0c02 27       		.uleb128 0x27
 4487 0c03 9A060000 		.4byte	.LBB14
 4488 0c07 06070000 		.4byte	.LBE14
 4489 0c0b 850C0000 		.4byte	0xc85
 4490 0c0f 26       		.uleb128 0x26
 4491 0c10 14000000 		.4byte	.LASF146
 4492 0c14 01       		.byte	0x1
 4493 0c15 8F04     		.2byte	0x48f
 4494 0c17 9A000000 		.4byte	0x9a
 4495 0c1b 45010000 		.4byte	.LLST122
 4496 0c1f 28       		.uleb128 0x28
 4497 0c20 AC060000 		.4byte	.LVL253
 4498 0c24 0F170000 		.4byte	0x170f
 4499 0c28 360C0000 		.4byte	0xc36
 4500 0c2c 29       		.uleb128 0x29
 4501 0c2d 01       		.byte	0x1
 4502 0c2e 50       		.byte	0x50
 4503 0c2f 05       		.byte	0x5
 4504 0c30 03       		.byte	0x3
 4505 0c31 18000000 		.4byte	_SEGGER_RTT+24
 4506 0c35 00       		.byte	0
 4507 0c36 28       		.uleb128 0x28
 4508 0c37 D4060000 		.4byte	.LVL256
ARM GAS  C:\Users\claym\AppData\Local\Temp\ccb01mZK.s 			page 106


 4509 0c3b 62190000 		.4byte	0x1962
 4510 0c3f 4A0C0000 		.4byte	0xc4a
 4511 0c43 29       		.uleb128 0x29
 4512 0c44 01       		.byte	0x1
 4513 0c45 50       		.byte	0x50
 4514 0c46 02       		.byte	0x2
 4515 0c47 77       		.byte	0x77
 4516 0c48 00       		.sleb128 0
 4517 0c49 00       		.byte	0
 4518 0c4a 28       		.uleb128 0x28
 4519 0c4b E2060000 		.4byte	.LVL259
 4520 0c4f 62190000 		.4byte	0x1962
 4521 0c53 5E0C0000 		.4byte	0xc5e
 4522 0c57 29       		.uleb128 0x29
 4523 0c58 01       		.byte	0x1
 4524 0c59 50       		.byte	0x50
 4525 0c5a 02       		.byte	0x2
 4526 0c5b 77       		.byte	0x77
 4527 0c5c 00       		.sleb128 0
 4528 0c5d 00       		.byte	0
 4529 0c5e 28       		.uleb128 0x28
 4530 0c5f F4060000 		.4byte	.LVL261
 4531 0c63 5B180000 		.4byte	0x185b
 4532 0c67 7B0C0000 		.4byte	0xc7b
 4533 0c6b 29       		.uleb128 0x29
 4534 0c6c 01       		.byte	0x1
 4535 0c6d 50       		.byte	0x50
 4536 0c6e 05       		.byte	0x5
 4537 0c6f 03       		.byte	0x3
 4538 0c70 18000000 		.4byte	_SEGGER_RTT+24
 4539 0c74 29       		.uleb128 0x29
 4540 0c75 01       		.byte	0x1
 4541 0c76 51       		.byte	0x51
 4542 0c77 02       		.byte	0x2
 4543 0c78 76       		.byte	0x76
 4544 0c79 00       		.sleb128 0
 4545 0c7a 00       		.byte	0
 4546 0c7b 2A       		.uleb128 0x2a
 4547 0c7c 00070000 		.4byte	.LVL264
 4548 0c80 62190000 		.4byte	0x1962
 4549 0c84 00       		.byte	0
 4550 0c85 2A       		.uleb128 0x2a
 4551 0c86 8E060000 		.4byte	.LVL247
 4552 0c8a F9180000 		.4byte	0x18f9
 4553 0c8e 2B       		.uleb128 0x2b
 4554 0c8f 98060000 		.4byte	.LVL249
 4555 0c93 B1190000 		.4byte	0x19b1
 4556 0c97 29       		.uleb128 0x29
 4557 0c98 01       		.byte	0x1
 4558 0c99 50       		.byte	0x50
 4559 0c9a 02       		.byte	0x2
 4560 0c9b 76       		.byte	0x76
 4561 0c9c 00       		.sleb128 0
 4562 0c9d 00       		.byte	0
 4563 0c9e 00       		.byte	0
 4564 0c9f 04       		.uleb128 0x4
 4565 0ca0 04       		.byte	0x4
ARM GAS  C:\Users\claym\AppData\Local\Temp\ccb01mZK.s 			page 107


 4566 0ca1 A6000000 		.4byte	0xa6
 4567 0ca5 23       		.uleb128 0x23
 4568 0ca6 01       		.byte	0x1
 4569 0ca7 09040000 		.4byte	.LASF148
 4570 0cab 01       		.byte	0x1
 4571 0cac 4604     		.2byte	0x446
 4572 0cae 01       		.byte	0x1
 4573 0caf 78010000 		.4byte	0x178
 4574 0cb3 F8050000 		.4byte	.LFB22
 4575 0cb7 7C060000 		.4byte	.LFE22
 4576 0cbb 64010000 		.4byte	.LLST109
 4577 0cbf 01       		.byte	0x1
 4578 0cc0 7D0D0000 		.4byte	0xd7d
 4579 0cc4 24       		.uleb128 0x24
 4580 0cc5 AF080000 		.4byte	.LASF141
 4581 0cc9 01       		.byte	0x1
 4582 0cca 4604     		.2byte	0x446
 4583 0ccc 88000000 		.4byte	0x88
 4584 0cd0 84010000 		.4byte	.LLST110
 4585 0cd4 2C       		.uleb128 0x2c
 4586 0cd5 616300   		.ascii	"ac\000"
 4587 0cd8 01       		.byte	0x1
 4588 0cd9 4704     		.2byte	0x447
 4589 0cdb 7D0D0000 		.4byte	0xd7d
 4590 0cdf 02       		.byte	0x2
 4591 0ce0 91       		.byte	0x91
 4592 0ce1 64       		.sleb128 -28
 4593 0ce2 26       		.uleb128 0x26
 4594 0ce3 CC040000 		.4byte	.LASF145
 4595 0ce7 01       		.byte	0x1
 4596 0ce8 4804     		.2byte	0x448
 4597 0cea 9F0C0000 		.4byte	0xc9f
 4598 0cee A5010000 		.4byte	.LLST111
 4599 0cf2 26       		.uleb128 0x26
 4600 0cf3 C8050000 		.4byte	.LASF144
 4601 0cf7 01       		.byte	0x1
 4602 0cf8 4904     		.2byte	0x449
 4603 0cfa 9A000000 		.4byte	0x9a
 4604 0cfe D3010000 		.4byte	.LLST112
 4605 0d02 2D       		.uleb128 0x2d
 4606 0d03 7200     		.ascii	"r\000"
 4607 0d05 01       		.byte	0x1
 4608 0d06 4A04     		.2byte	0x44a
 4609 0d08 78010000 		.4byte	0x178
 4610 0d0c F1010000 		.4byte	.LLST113
 4611 0d10 2E       		.uleb128 0x2e
 4612 0d11 00000000 		.4byte	.Ldebug_ranges0+0
 4613 0d15 730D0000 		.4byte	0xd73
 4614 0d19 26       		.uleb128 0x26
 4615 0d1a 14000000 		.4byte	.LASF146
 4616 0d1e 01       		.byte	0x1
 4617 0d1f 5304     		.2byte	0x453
 4618 0d21 9A000000 		.4byte	0x9a
 4619 0d25 29020000 		.4byte	.LLST114
 4620 0d29 28       		.uleb128 0x28
 4621 0d2a 3C060000 		.4byte	.LVL235
 4622 0d2e 5B180000 		.4byte	0x185b
ARM GAS  C:\Users\claym\AppData\Local\Temp\ccb01mZK.s 			page 108


 4623 0d32 430D0000 		.4byte	0xd43
 4624 0d36 29       		.uleb128 0x29
 4625 0d37 01       		.byte	0x1
 4626 0d38 50       		.byte	0x50
 4627 0d39 02       		.byte	0x2
 4628 0d3a 77       		.byte	0x77
 4629 0d3b 00       		.sleb128 0
 4630 0d3c 29       		.uleb128 0x29
 4631 0d3d 01       		.byte	0x1
 4632 0d3e 51       		.byte	0x51
 4633 0d3f 02       		.byte	0x2
 4634 0d40 74       		.byte	0x74
 4635 0d41 00       		.sleb128 0
 4636 0d42 00       		.byte	0
 4637 0d43 28       		.uleb128 0x28
 4638 0d44 4A060000 		.4byte	.LVL239
 4639 0d48 0F170000 		.4byte	0x170f
 4640 0d4c 570D0000 		.4byte	0xd57
 4641 0d50 29       		.uleb128 0x29
 4642 0d51 01       		.byte	0x1
 4643 0d52 50       		.byte	0x50
 4644 0d53 02       		.byte	0x2
 4645 0d54 77       		.byte	0x77
 4646 0d55 00       		.sleb128 0
 4647 0d56 00       		.byte	0
 4648 0d57 2B       		.uleb128 0x2b
 4649 0d58 5E060000 		.4byte	.LVL241
 4650 0d5c 99170000 		.4byte	0x1799
 4651 0d60 29       		.uleb128 0x29
 4652 0d61 01       		.byte	0x1
 4653 0d62 50       		.byte	0x50
 4654 0d63 02       		.byte	0x2
 4655 0d64 77       		.byte	0x77
 4656 0d65 00       		.sleb128 0
 4657 0d66 29       		.uleb128 0x29
 4658 0d67 01       		.byte	0x1
 4659 0d68 51       		.byte	0x51
 4660 0d69 02       		.byte	0x2
 4661 0d6a 74       		.byte	0x74
 4662 0d6b 00       		.sleb128 0
 4663 0d6c 29       		.uleb128 0x29
 4664 0d6d 01       		.byte	0x1
 4665 0d6e 52       		.byte	0x52
 4666 0d6f 01       		.byte	0x1
 4667 0d70 32       		.byte	0x32
 4668 0d71 00       		.byte	0
 4669 0d72 00       		.byte	0
 4670 0d73 2A       		.uleb128 0x2a
 4671 0d74 08060000 		.4byte	.LVL231
 4672 0d78 F9180000 		.4byte	0x18f9
 4673 0d7c 00       		.byte	0
 4674 0d7d 0A       		.uleb128 0xa
 4675 0d7e 88000000 		.4byte	0x88
 4676 0d82 8D0D0000 		.4byte	0xd8d
 4677 0d86 0B       		.uleb128 0xb
 4678 0d87 9A000000 		.4byte	0x9a
 4679 0d8b 01       		.byte	0x1
ARM GAS  C:\Users\claym\AppData\Local\Temp\ccb01mZK.s 			page 109


 4680 0d8c 00       		.byte	0
 4681 0d8d 2F       		.uleb128 0x2f
 4682 0d8e 01       		.byte	0x1
 4683 0d8f A6030000 		.4byte	.LASF184
 4684 0d93 01       		.byte	0x1
 4685 0d94 3404     		.2byte	0x434
 4686 0d96 01       		.byte	0x1
 4687 0d97 E4050000 		.4byte	.LFB21
 4688 0d9b F8050000 		.4byte	.LFE21
 4689 0d9f 47020000 		.4byte	.LLST108
 4690 0da3 01       		.byte	0x1
 4691 0da4 B20D0000 		.4byte	0xdb2
 4692 0da8 2A       		.uleb128 0x2a
 4693 0da9 F2050000 		.4byte	.LVL229
 4694 0dad F9180000 		.4byte	0x18f9
 4695 0db1 00       		.byte	0
 4696 0db2 23       		.uleb128 0x23
 4697 0db3 01       		.byte	0x1
 4698 0db4 AB050000 		.4byte	.LASF149
 4699 0db8 01       		.byte	0x1
 4700 0db9 1C04     		.2byte	0x41c
 4701 0dbb 01       		.byte	0x1
 4702 0dbc 78010000 		.4byte	0x178
 4703 0dc0 A8050000 		.4byte	.LFB20
 4704 0dc4 E4050000 		.4byte	.LFE20
 4705 0dc8 67020000 		.4byte	.LLST103
 4706 0dcc 01       		.byte	0x1
 4707 0dcd 270E0000 		.4byte	0xe27
 4708 0dd1 24       		.uleb128 0x24
 4709 0dd2 DF080000 		.4byte	.LASF150
 4710 0dd6 01       		.byte	0x1
 4711 0dd7 1C04     		.2byte	0x41c
 4712 0dd9 9A000000 		.4byte	0x9a
 4713 0ddd 87020000 		.4byte	.LLST104
 4714 0de1 24       		.uleb128 0x24
 4715 0de2 7D040000 		.4byte	.LASF0
 4716 0de6 01       		.byte	0x1
 4717 0de7 1C04     		.2byte	0x41c
 4718 0de9 82000000 		.4byte	0x82
 4719 0ded BE020000 		.4byte	.LLST105
 4720 0df1 2D       		.uleb128 0x2d
 4721 0df2 7200     		.ascii	"r\000"
 4722 0df4 01       		.byte	0x1
 4723 0df5 1D04     		.2byte	0x41d
 4724 0df7 78010000 		.4byte	0x178
 4725 0dfb F5020000 		.4byte	.LLST106
 4726 0dff 27       		.uleb128 0x27
 4727 0e00 C0050000 		.4byte	.LBB10
 4728 0e04 D6050000 		.4byte	.LBE10
 4729 0e08 1D0E0000 		.4byte	0xe1d
 4730 0e0c 26       		.uleb128 0x26
 4731 0e0d 14000000 		.4byte	.LASF146
 4732 0e11 01       		.byte	0x1
 4733 0e12 2104     		.2byte	0x421
 4734 0e14 9A000000 		.4byte	0x9a
 4735 0e18 16030000 		.4byte	.LLST107
 4736 0e1c 00       		.byte	0
ARM GAS  C:\Users\claym\AppData\Local\Temp\ccb01mZK.s 			page 110


 4737 0e1d 2A       		.uleb128 0x2a
 4738 0e1e BA050000 		.4byte	.LVL221
 4739 0e22 F9180000 		.4byte	0x18f9
 4740 0e26 00       		.byte	0
 4741 0e27 23       		.uleb128 0x23
 4742 0e28 01       		.byte	0x1
 4743 0e29 5E070000 		.4byte	.LASF151
 4744 0e2d 01       		.byte	0x1
 4745 0e2e FD03     		.2byte	0x3fd
 4746 0e30 01       		.byte	0x1
 4747 0e31 78010000 		.4byte	0x178
 4748 0e35 6C050000 		.4byte	.LFB19
 4749 0e39 A8050000 		.4byte	.LFE19
 4750 0e3d 29030000 		.4byte	.LLST98
 4751 0e41 01       		.byte	0x1
 4752 0e42 9C0E0000 		.4byte	0xe9c
 4753 0e46 24       		.uleb128 0x24
 4754 0e47 DF080000 		.4byte	.LASF150
 4755 0e4b 01       		.byte	0x1
 4756 0e4c FD03     		.2byte	0x3fd
 4757 0e4e 9A000000 		.4byte	0x9a
 4758 0e52 49030000 		.4byte	.LLST99
 4759 0e56 24       		.uleb128 0x24
 4760 0e57 7D040000 		.4byte	.LASF0
 4761 0e5b 01       		.byte	0x1
 4762 0e5c FD03     		.2byte	0x3fd
 4763 0e5e 82000000 		.4byte	0x82
 4764 0e62 8D030000 		.4byte	.LLST100
 4765 0e66 2D       		.uleb128 0x2d
 4766 0e67 7200     		.ascii	"r\000"
 4767 0e69 01       		.byte	0x1
 4768 0e6a FE03     		.2byte	0x3fe
 4769 0e6c 78010000 		.4byte	0x178
 4770 0e70 C4030000 		.4byte	.LLST101
 4771 0e74 27       		.uleb128 0x27
 4772 0e75 84050000 		.4byte	.LBB9
 4773 0e79 9A050000 		.4byte	.LBE9
 4774 0e7d 920E0000 		.4byte	0xe92
 4775 0e81 26       		.uleb128 0x26
 4776 0e82 14000000 		.4byte	.LASF146
 4777 0e86 01       		.byte	0x1
 4778 0e87 0204     		.2byte	0x402
 4779 0e89 9A000000 		.4byte	0x9a
 4780 0e8d E5030000 		.4byte	.LLST102
 4781 0e91 00       		.byte	0
 4782 0e92 2A       		.uleb128 0x2a
 4783 0e93 7E050000 		.4byte	.LVL211
 4784 0e97 F9180000 		.4byte	0x18f9
 4785 0e9b 00       		.byte	0
 4786 0e9c 23       		.uleb128 0x23
 4787 0e9d 01       		.byte	0x1
 4788 0e9e 3D000000 		.4byte	.LASF152
 4789 0ea2 01       		.byte	0x1
 4790 0ea3 D703     		.2byte	0x3d7
 4791 0ea5 01       		.byte	0x1
 4792 0ea6 78010000 		.4byte	0x178
 4793 0eaa 10050000 		.4byte	.LFB18
ARM GAS  C:\Users\claym\AppData\Local\Temp\ccb01mZK.s 			page 111


 4794 0eae 6C050000 		.4byte	.LFE18
 4795 0eb2 F8030000 		.4byte	.LLST91
 4796 0eb6 01       		.byte	0x1
 4797 0eb7 400F0000 		.4byte	0xf40
 4798 0ebb 24       		.uleb128 0x24
 4799 0ebc DF080000 		.4byte	.LASF150
 4800 0ec0 01       		.byte	0x1
 4801 0ec1 D703     		.2byte	0x3d7
 4802 0ec3 9A000000 		.4byte	0x9a
 4803 0ec7 18040000 		.4byte	.LLST92
 4804 0ecb 24       		.uleb128 0x24
 4805 0ecc 7D040000 		.4byte	.LASF0
 4806 0ed0 01       		.byte	0x1
 4807 0ed1 D703     		.2byte	0x3d7
 4808 0ed3 82000000 		.4byte	0x82
 4809 0ed7 4F040000 		.4byte	.LLST93
 4810 0edb 24       		.uleb128 0x24
 4811 0edc 9E030000 		.4byte	.LASF1
 4812 0ee0 01       		.byte	0x1
 4813 0ee1 D703     		.2byte	0x3d7
 4814 0ee3 99020000 		.4byte	0x299
 4815 0ee7 86040000 		.4byte	.LLST94
 4816 0eeb 24       		.uleb128 0x24
 4817 0eec 0C050000 		.4byte	.LASF153
 4818 0ef0 01       		.byte	0x1
 4819 0ef1 D703     		.2byte	0x3d7
 4820 0ef3 9A000000 		.4byte	0x9a
 4821 0ef7 BD040000 		.4byte	.LLST95
 4822 0efb 30       		.uleb128 0x30
 4823 0efc 79070000 		.4byte	.LASF5
 4824 0f00 01       		.byte	0x1
 4825 0f01 D703     		.2byte	0x3d7
 4826 0f03 9A000000 		.4byte	0x9a
 4827 0f07 02       		.byte	0x2
 4828 0f08 91       		.byte	0x91
 4829 0f09 00       		.sleb128 0
 4830 0f0a 2D       		.uleb128 0x2d
 4831 0f0b 7200     		.ascii	"r\000"
 4832 0f0d 01       		.byte	0x1
 4833 0f0e D803     		.2byte	0x3d8
 4834 0f10 78010000 		.4byte	0x178
 4835 0f14 DC040000 		.4byte	.LLST96
 4836 0f18 27       		.uleb128 0x27
 4837 0f19 2C050000 		.4byte	.LBB8
 4838 0f1d 5C050000 		.4byte	.LBE8
 4839 0f21 360F0000 		.4byte	0xf36
 4840 0f25 26       		.uleb128 0x26
 4841 0f26 14000000 		.4byte	.LASF146
 4842 0f2a 01       		.byte	0x1
 4843 0f2b DC03     		.2byte	0x3dc
 4844 0f2d 9A000000 		.4byte	0x9a
 4845 0f31 FD040000 		.4byte	.LLST97
 4846 0f35 00       		.byte	0
 4847 0f36 2A       		.uleb128 0x2a
 4848 0f37 26050000 		.4byte	.LVL201
 4849 0f3b F9180000 		.4byte	0x18f9
 4850 0f3f 00       		.byte	0
ARM GAS  C:\Users\claym\AppData\Local\Temp\ccb01mZK.s 			page 112


 4851 0f40 23       		.uleb128 0x23
 4852 0f41 01       		.byte	0x1
 4853 0f42 B2040000 		.4byte	.LASF154
 4854 0f46 01       		.byte	0x1
 4855 0f47 AD03     		.2byte	0x3ad
 4856 0f49 01       		.byte	0x1
 4857 0f4a 78010000 		.4byte	0x178
 4858 0f4e B0040000 		.4byte	.LFB17
 4859 0f52 10050000 		.4byte	.LFE17
 4860 0f56 10050000 		.4byte	.LLST84
 4861 0f5a 01       		.byte	0x1
 4862 0f5b E40F0000 		.4byte	0xfe4
 4863 0f5f 24       		.uleb128 0x24
 4864 0f60 DF080000 		.4byte	.LASF150
 4865 0f64 01       		.byte	0x1
 4866 0f65 AD03     		.2byte	0x3ad
 4867 0f67 9A000000 		.4byte	0x9a
 4868 0f6b 30050000 		.4byte	.LLST85
 4869 0f6f 24       		.uleb128 0x24
 4870 0f70 7D040000 		.4byte	.LASF0
 4871 0f74 01       		.byte	0x1
 4872 0f75 AD03     		.2byte	0x3ad
 4873 0f77 82000000 		.4byte	0x82
 4874 0f7b 67050000 		.4byte	.LLST86
 4875 0f7f 24       		.uleb128 0x24
 4876 0f80 9E030000 		.4byte	.LASF1
 4877 0f84 01       		.byte	0x1
 4878 0f85 AD03     		.2byte	0x3ad
 4879 0f87 99020000 		.4byte	0x299
 4880 0f8b 9E050000 		.4byte	.LLST87
 4881 0f8f 24       		.uleb128 0x24
 4882 0f90 0C050000 		.4byte	.LASF153
 4883 0f94 01       		.byte	0x1
 4884 0f95 AD03     		.2byte	0x3ad
 4885 0f97 9A000000 		.4byte	0x9a
 4886 0f9b D5050000 		.4byte	.LLST88
 4887 0f9f 30       		.uleb128 0x30
 4888 0fa0 79070000 		.4byte	.LASF5
 4889 0fa4 01       		.byte	0x1
 4890 0fa5 AD03     		.2byte	0x3ad
 4891 0fa7 9A000000 		.4byte	0x9a
 4892 0fab 02       		.byte	0x2
 4893 0fac 91       		.byte	0x91
 4894 0fad 00       		.sleb128 0
 4895 0fae 2D       		.uleb128 0x2d
 4896 0faf 7200     		.ascii	"r\000"
 4897 0fb1 01       		.byte	0x1
 4898 0fb2 AE03     		.2byte	0x3ae
 4899 0fb4 78010000 		.4byte	0x178
 4900 0fb8 F4050000 		.4byte	.LLST89
 4901 0fbc 27       		.uleb128 0x27
 4902 0fbd CC040000 		.4byte	.LBB7
 4903 0fc1 02050000 		.4byte	.LBE7
 4904 0fc5 DA0F0000 		.4byte	0xfda
 4905 0fc9 26       		.uleb128 0x26
 4906 0fca 14000000 		.4byte	.LASF146
 4907 0fce 01       		.byte	0x1
ARM GAS  C:\Users\claym\AppData\Local\Temp\ccb01mZK.s 			page 113


 4908 0fcf B203     		.2byte	0x3b2
 4909 0fd1 9A000000 		.4byte	0x9a
 4910 0fd5 15060000 		.4byte	.LLST90
 4911 0fd9 00       		.byte	0
 4912 0fda 2A       		.uleb128 0x2a
 4913 0fdb C6040000 		.4byte	.LVL190
 4914 0fdf F9180000 		.4byte	0x18f9
 4915 0fe3 00       		.byte	0
 4916 0fe4 23       		.uleb128 0x23
 4917 0fe5 01       		.byte	0x1
 4918 0fe6 EA050000 		.4byte	.LASF155
 4919 0fea 01       		.byte	0x1
 4920 0feb 7F03     		.2byte	0x37f
 4921 0fed 01       		.byte	0x1
 4922 0fee 78010000 		.4byte	0x178
 4923 0ff2 44040000 		.4byte	.LFB16
 4924 0ff6 B0040000 		.4byte	.LFE16
 4925 0ffa 28060000 		.4byte	.LLST77
 4926 0ffe 01       		.byte	0x1
 4927 0fff 7B100000 		.4byte	0x107b
 4928 1003 24       		.uleb128 0x24
 4929 1004 7D040000 		.4byte	.LASF0
 4930 1008 01       		.byte	0x1
 4931 1009 7F03     		.2byte	0x37f
 4932 100b 82000000 		.4byte	0x82
 4933 100f 54060000 		.4byte	.LLST78
 4934 1013 24       		.uleb128 0x24
 4935 1014 9E030000 		.4byte	.LASF1
 4936 1018 01       		.byte	0x1
 4937 1019 7F03     		.2byte	0x37f
 4938 101b 99020000 		.4byte	0x299
 4939 101f 80060000 		.4byte	.LLST79
 4940 1023 24       		.uleb128 0x24
 4941 1024 0C050000 		.4byte	.LASF153
 4942 1028 01       		.byte	0x1
 4943 1029 7F03     		.2byte	0x37f
 4944 102b 9A000000 		.4byte	0x9a
 4945 102f 9F060000 		.4byte	.LLST80
 4946 1033 24       		.uleb128 0x24
 4947 1034 79070000 		.4byte	.LASF5
 4948 1038 01       		.byte	0x1
 4949 1039 7F03     		.2byte	0x37f
 4950 103b 9A000000 		.4byte	0x9a
 4951 103f BE060000 		.4byte	.LLST81
 4952 1043 26       		.uleb128 0x26
 4953 1044 DF080000 		.4byte	.LASF150
 4954 1048 01       		.byte	0x1
 4955 1049 8003     		.2byte	0x380
 4956 104b 78010000 		.4byte	0x178
 4957 104f DD060000 		.4byte	.LLST82
 4958 1053 27       		.uleb128 0x27
 4959 1054 5C040000 		.4byte	.LBB6
 4960 1058 A8040000 		.4byte	.LBE6
 4961 105c 71100000 		.4byte	0x1071
 4962 1060 26       		.uleb128 0x26
 4963 1061 14000000 		.4byte	.LASF146
 4964 1065 01       		.byte	0x1
ARM GAS  C:\Users\claym\AppData\Local\Temp\ccb01mZK.s 			page 114


 4965 1066 8303     		.2byte	0x383
 4966 1068 9A000000 		.4byte	0x9a
 4967 106c 07070000 		.4byte	.LLST83
 4968 1070 00       		.byte	0
 4969 1071 2A       		.uleb128 0x2a
 4970 1072 5C040000 		.4byte	.LVL179
 4971 1076 F9180000 		.4byte	0x18f9
 4972 107a 00       		.byte	0
 4973 107b 23       		.uleb128 0x23
 4974 107c 01       		.byte	0x1
 4975 107d 59050000 		.4byte	.LASF156
 4976 1081 01       		.byte	0x1
 4977 1082 5203     		.2byte	0x352
 4978 1084 01       		.byte	0x1
 4979 1085 78010000 		.4byte	0x178
 4980 1089 E4030000 		.4byte	.LFB15
 4981 108d 44040000 		.4byte	.LFE15
 4982 1091 1A070000 		.4byte	.LLST70
 4983 1095 01       		.byte	0x1
 4984 1096 12110000 		.4byte	0x1112
 4985 109a 24       		.uleb128 0x24
 4986 109b 7D040000 		.4byte	.LASF0
 4987 109f 01       		.byte	0x1
 4988 10a0 5203     		.2byte	0x352
 4989 10a2 82000000 		.4byte	0x82
 4990 10a6 3A070000 		.4byte	.LLST71
 4991 10aa 24       		.uleb128 0x24
 4992 10ab 9E030000 		.4byte	.LASF1
 4993 10af 01       		.byte	0x1
 4994 10b0 5203     		.2byte	0x352
 4995 10b2 99020000 		.4byte	0x299
 4996 10b6 66070000 		.4byte	.LLST72
 4997 10ba 24       		.uleb128 0x24
 4998 10bb 0C050000 		.4byte	.LASF153
 4999 10bf 01       		.byte	0x1
 5000 10c0 5203     		.2byte	0x352
 5001 10c2 9A000000 		.4byte	0x9a
 5002 10c6 92070000 		.4byte	.LLST73
 5003 10ca 24       		.uleb128 0x24
 5004 10cb 79070000 		.4byte	.LASF5
 5005 10cf 01       		.byte	0x1
 5006 10d0 5203     		.2byte	0x352
 5007 10d2 9A000000 		.4byte	0x9a
 5008 10d6 B1070000 		.4byte	.LLST74
 5009 10da 26       		.uleb128 0x26
 5010 10db DF080000 		.4byte	.LASF150
 5011 10df 01       		.byte	0x1
 5012 10e0 5303     		.2byte	0x353
 5013 10e2 78010000 		.4byte	0x178
 5014 10e6 D0070000 		.4byte	.LLST75
 5015 10ea 27       		.uleb128 0x27
 5016 10eb FA030000 		.4byte	.LBB5
 5017 10ef 3E040000 		.4byte	.LBE5
 5018 10f3 08110000 		.4byte	0x1108
 5019 10f7 26       		.uleb128 0x26
 5020 10f8 14000000 		.4byte	.LASF146
 5021 10fc 01       		.byte	0x1
ARM GAS  C:\Users\claym\AppData\Local\Temp\ccb01mZK.s 			page 115


 5022 10fd 5603     		.2byte	0x356
 5023 10ff 9A000000 		.4byte	0x9a
 5024 1103 FA070000 		.4byte	.LLST76
 5025 1107 00       		.byte	0
 5026 1108 2A       		.uleb128 0x2a
 5027 1109 FA030000 		.4byte	.LVL167
 5028 110d F9180000 		.4byte	0x18f9
 5029 1111 00       		.byte	0
 5030 1112 31       		.uleb128 0x31
 5031 1113 01       		.byte	0x1
 5032 1114 44040000 		.4byte	.LASF157
 5033 1118 01       		.byte	0x1
 5034 1119 3603     		.2byte	0x336
 5035 111b 01       		.byte	0x1
 5036 111c 9A000000 		.4byte	0x9a
 5037 1120 D0030000 		.4byte	.LFB14
 5038 1124 E4030000 		.4byte	.LFE14
 5039 1128 02       		.byte	0x2
 5040 1129 7D       		.byte	0x7d
 5041 112a 00       		.sleb128 0
 5042 112b 01       		.byte	0x1
 5043 112c 5D110000 		.4byte	0x115d
 5044 1130 24       		.uleb128 0x24
 5045 1131 DF080000 		.4byte	.LASF150
 5046 1135 01       		.byte	0x1
 5047 1136 3603     		.2byte	0x336
 5048 1138 9A000000 		.4byte	0x9a
 5049 113c 0D080000 		.4byte	.LLST68
 5050 1140 26       		.uleb128 0x26
 5051 1141 CC040000 		.4byte	.LASF145
 5052 1145 01       		.byte	0x1
 5053 1146 3703     		.2byte	0x337
 5054 1148 5D110000 		.4byte	0x115d
 5055 114c 2E080000 		.4byte	.LLST69
 5056 1150 2C       		.uleb128 0x2c
 5057 1151 7600     		.ascii	"v\000"
 5058 1153 01       		.byte	0x1
 5059 1154 3803     		.2byte	0x338
 5060 1156 9A000000 		.4byte	0x9a
 5061 115a 01       		.byte	0x1
 5062 115b 53       		.byte	0x53
 5063 115c 00       		.byte	0
 5064 115d 04       		.uleb128 0x4
 5065 115e 04       		.byte	0x4
 5066 115f 0E010000 		.4byte	0x10e
 5067 1163 23       		.uleb128 0x23
 5068 1164 01       		.byte	0x1
 5069 1165 EB080000 		.4byte	.LASF158
 5070 1169 01       		.byte	0x1
 5071 116a 1C03     		.2byte	0x31c
 5072 116c 01       		.byte	0x1
 5073 116d 78010000 		.4byte	0x178
 5074 1171 B2030000 		.4byte	.LFB13
 5075 1175 D0030000 		.4byte	.LFE13
 5076 1179 61080000 		.4byte	.LLST66
 5077 117d 01       		.byte	0x1
 5078 117e AC110000 		.4byte	0x11ac
ARM GAS  C:\Users\claym\AppData\Local\Temp\ccb01mZK.s 			page 116


 5079 1182 32       		.uleb128 0x32
 5080 1183 43030000 		.4byte	.LASF4
 5081 1187 01       		.byte	0x1
 5082 1188 1D03     		.2byte	0x31d
 5083 118a 9A000000 		.4byte	0x9a
 5084 118e 05       		.byte	0x5
 5085 118f 03       		.byte	0x3
 5086 1190 70000000 		.4byte	_SEGGER_RTT+112
 5087 1194 2D       		.uleb128 0x2d
 5088 1195 7200     		.ascii	"r\000"
 5089 1197 01       		.byte	0x1
 5090 1198 1E03     		.2byte	0x31e
 5091 119a 78010000 		.4byte	0x178
 5092 119e 81080000 		.4byte	.LLST67
 5093 11a2 2A       		.uleb128 0x2a
 5094 11a3 C0030000 		.4byte	.LVL159
 5095 11a7 F9180000 		.4byte	0x18f9
 5096 11ab 00       		.byte	0
 5097 11ac 23       		.uleb128 0x23
 5098 11ad 01       		.byte	0x1
 5099 11ae 82080000 		.4byte	.LASF159
 5100 11b2 01       		.byte	0x1
 5101 11b3 0503     		.2byte	0x305
 5102 11b5 01       		.byte	0x1
 5103 11b6 78010000 		.4byte	0x178
 5104 11ba A6030000 		.4byte	.LFB12
 5105 11be B2030000 		.4byte	.LFE12
 5106 11c2 BB080000 		.4byte	.LLST65
 5107 11c6 01       		.byte	0x1
 5108 11c7 E1110000 		.4byte	0x11e1
 5109 11cb 2C       		.uleb128 0x2c
 5110 11cc 7200     		.ascii	"r\000"
 5111 11ce 01       		.byte	0x1
 5112 11cf 0603     		.2byte	0x306
 5113 11d1 78010000 		.4byte	0x178
 5114 11d5 01       		.byte	0x1
 5115 11d6 50       		.byte	0x50
 5116 11d7 2A       		.uleb128 0x2a
 5117 11d8 AC030000 		.4byte	.LVL158
 5118 11dc E1110000 		.4byte	0x11e1
 5119 11e0 00       		.byte	0
 5120 11e1 23       		.uleb128 0x23
 5121 11e2 01       		.byte	0x1
 5122 11e3 81050000 		.4byte	.LASF160
 5123 11e7 01       		.byte	0x1
 5124 11e8 E902     		.2byte	0x2e9
 5125 11ea 01       		.byte	0x1
 5126 11eb 78010000 		.4byte	0x178
 5127 11ef 88030000 		.4byte	.LFB11
 5128 11f3 A6030000 		.4byte	.LFE11
 5129 11f7 DB080000 		.4byte	.LLST63
 5130 11fb 01       		.byte	0x1
 5131 11fc 36120000 		.4byte	0x1236
 5132 1200 2C       		.uleb128 0x2c
 5133 1201 6300     		.ascii	"c\000"
 5134 1203 01       		.byte	0x1
 5135 1204 EA02     		.2byte	0x2ea
ARM GAS  C:\Users\claym\AppData\Local\Temp\ccb01mZK.s 			page 117


 5136 1206 88000000 		.4byte	0x88
 5137 120a 02       		.byte	0x2
 5138 120b 91       		.byte	0x91
 5139 120c 77       		.sleb128 -9
 5140 120d 2D       		.uleb128 0x2d
 5141 120e 7200     		.ascii	"r\000"
 5142 1210 01       		.byte	0x1
 5143 1211 EB02     		.2byte	0x2eb
 5144 1213 78010000 		.4byte	0x178
 5145 1217 FB080000 		.4byte	.LLST64
 5146 121b 2B       		.uleb128 0x2b
 5147 121c 98030000 		.4byte	.LVL153
 5148 1220 84150000 		.4byte	0x1584
 5149 1224 29       		.uleb128 0x29
 5150 1225 01       		.byte	0x1
 5151 1226 50       		.byte	0x50
 5152 1227 01       		.byte	0x1
 5153 1228 30       		.byte	0x30
 5154 1229 29       		.uleb128 0x29
 5155 122a 01       		.byte	0x1
 5156 122b 51       		.byte	0x51
 5157 122c 02       		.byte	0x2
 5158 122d 74       		.byte	0x74
 5159 122e 00       		.sleb128 0
 5160 122f 29       		.uleb128 0x29
 5161 1230 01       		.byte	0x1
 5162 1231 52       		.byte	0x52
 5163 1232 01       		.byte	0x1
 5164 1233 31       		.byte	0x31
 5165 1234 00       		.byte	0
 5166 1235 00       		.byte	0
 5167 1236 23       		.uleb128 0x23
 5168 1237 01       		.byte	0x1
 5169 1238 CE050000 		.4byte	.LASF161
 5170 123c 01       		.byte	0x1
 5171 123d D302     		.2byte	0x2d3
 5172 123f 01       		.byte	0x1
 5173 1240 9A000000 		.4byte	0x9a
 5174 1244 70030000 		.4byte	.LFB10
 5175 1248 88030000 		.4byte	.LFE10
 5176 124c 26090000 		.4byte	.LLST59
 5177 1250 01       		.byte	0x1
 5178 1251 AE120000 		.4byte	0x12ae
 5179 1255 24       		.uleb128 0x24
 5180 1256 DF080000 		.4byte	.LASF150
 5181 125a 01       		.byte	0x1
 5182 125b D302     		.2byte	0x2d3
 5183 125d 9A000000 		.4byte	0x9a
 5184 1261 46090000 		.4byte	.LLST60
 5185 1265 25       		.uleb128 0x25
 5186 1266 7300     		.ascii	"s\000"
 5187 1268 01       		.byte	0x1
 5188 1269 D302     		.2byte	0x2d3
 5189 126b 82000000 		.4byte	0x82
 5190 126f 72090000 		.4byte	.LLST61
 5191 1273 2D       		.uleb128 0x2d
 5192 1274 4C656E00 		.ascii	"Len\000"
ARM GAS  C:\Users\claym\AppData\Local\Temp\ccb01mZK.s 			page 118


 5193 1278 01       		.byte	0x1
 5194 1279 D402     		.2byte	0x2d4
 5195 127b 9A000000 		.4byte	0x9a
 5196 127f 9E090000 		.4byte	.LLST62
 5197 1283 28       		.uleb128 0x28
 5198 1284 7C030000 		.4byte	.LVL147
 5199 1288 B1190000 		.4byte	0x19b1
 5200 128c 97120000 		.4byte	0x1297
 5201 1290 29       		.uleb128 0x29
 5202 1291 01       		.byte	0x1
 5203 1292 50       		.byte	0x50
 5204 1293 02       		.byte	0x2
 5205 1294 74       		.byte	0x74
 5206 1295 00       		.sleb128 0
 5207 1296 00       		.byte	0
 5208 1297 2B       		.uleb128 0x2b
 5209 1298 86030000 		.4byte	.LVL150
 5210 129c AE120000 		.4byte	0x12ae
 5211 12a0 29       		.uleb128 0x29
 5212 12a1 01       		.byte	0x1
 5213 12a2 50       		.byte	0x50
 5214 12a3 02       		.byte	0x2
 5215 12a4 75       		.byte	0x75
 5216 12a5 00       		.sleb128 0
 5217 12a6 29       		.uleb128 0x29
 5218 12a7 01       		.byte	0x1
 5219 12a8 51       		.byte	0x51
 5220 12a9 02       		.byte	0x2
 5221 12aa 74       		.byte	0x74
 5222 12ab 00       		.sleb128 0
 5223 12ac 00       		.byte	0
 5224 12ad 00       		.byte	0
 5225 12ae 23       		.uleb128 0x23
 5226 12af 01       		.byte	0x1
 5227 12b0 17050000 		.4byte	.LASF162
 5228 12b4 01       		.byte	0x1
 5229 12b5 AD02     		.2byte	0x2ad
 5230 12b7 01       		.byte	0x1
 5231 12b8 9A000000 		.4byte	0x9a
 5232 12bc 3C030000 		.4byte	.LFB9
 5233 12c0 70030000 		.4byte	.LFE9
 5234 12c4 BC090000 		.4byte	.LLST54
 5235 12c8 01       		.byte	0x1
 5236 12c9 4F130000 		.4byte	0x134f
 5237 12cd 24       		.uleb128 0x24
 5238 12ce DF080000 		.4byte	.LASF150
 5239 12d2 01       		.byte	0x1
 5240 12d3 AD02     		.2byte	0x2ad
 5241 12d5 9A000000 		.4byte	0x9a
 5242 12d9 DC090000 		.4byte	.LLST55
 5243 12dd 24       		.uleb128 0x24
 5244 12de 9E030000 		.4byte	.LASF1
 5245 12e2 01       		.byte	0x1
 5246 12e3 AD02     		.2byte	0x2ad
 5247 12e5 4F130000 		.4byte	0x134f
 5248 12e9 080A0000 		.4byte	.LLST56
 5249 12ed 24       		.uleb128 0x24
ARM GAS  C:\Users\claym\AppData\Local\Temp\ccb01mZK.s 			page 119


 5250 12ee 61000000 		.4byte	.LASF163
 5251 12f2 01       		.byte	0x1
 5252 12f3 AD02     		.2byte	0x2ad
 5253 12f5 9A000000 		.4byte	0x9a
 5254 12f9 340A0000 		.4byte	.LLST57
 5255 12fd 32       		.uleb128 0x32
 5256 12fe C2020000 		.4byte	.LASF142
 5257 1302 01       		.byte	0x1
 5258 1303 AE02     		.2byte	0x2ae
 5259 1305 9A000000 		.4byte	0x9a
 5260 1309 01       		.byte	0x1
 5261 130a 50       		.byte	0x50
 5262 130b 27       		.uleb128 0x27
 5263 130c 50030000 		.4byte	.LBB4
 5264 1310 68030000 		.4byte	.LBE4
 5265 1314 45130000 		.4byte	0x1345
 5266 1318 26       		.uleb128 0x26
 5267 1319 14000000 		.4byte	.LASF146
 5268 131d 01       		.byte	0x1
 5269 131e B102     		.2byte	0x2b1
 5270 1320 9A000000 		.4byte	0x9a
 5271 1324 600A0000 		.4byte	.LLST58
 5272 1328 2B       		.uleb128 0x2b
 5273 1329 64030000 		.4byte	.LVL140
 5274 132d 56130000 		.4byte	0x1356
 5275 1331 29       		.uleb128 0x29
 5276 1332 01       		.byte	0x1
 5277 1333 50       		.byte	0x50
 5278 1334 02       		.byte	0x2
 5279 1335 75       		.byte	0x75
 5280 1336 00       		.sleb128 0
 5281 1337 29       		.uleb128 0x29
 5282 1338 01       		.byte	0x1
 5283 1339 51       		.byte	0x51
 5284 133a 02       		.byte	0x2
 5285 133b 76       		.byte	0x76
 5286 133c 00       		.sleb128 0
 5287 133d 29       		.uleb128 0x29
 5288 133e 01       		.byte	0x1
 5289 133f 52       		.byte	0x52
 5290 1340 02       		.byte	0x2
 5291 1341 77       		.byte	0x77
 5292 1342 00       		.sleb128 0
 5293 1343 00       		.byte	0
 5294 1344 00       		.byte	0
 5295 1345 2A       		.uleb128 0x2a
 5296 1346 50030000 		.4byte	.LVL138
 5297 134a F9180000 		.4byte	0x18f9
 5298 134e 00       		.byte	0
 5299 134f 04       		.uleb128 0x4
 5300 1350 04       		.byte	0x4
 5301 1351 55130000 		.4byte	0x1355
 5302 1355 33       		.uleb128 0x33
 5303 1356 23       		.uleb128 0x23
 5304 1357 01       		.byte	0x1
 5305 1358 EE040000 		.4byte	.LASF164
 5306 135c 01       		.byte	0x1
ARM GAS  C:\Users\claym\AppData\Local\Temp\ccb01mZK.s 			page 120


 5307 135d 6602     		.2byte	0x266
 5308 135f 01       		.byte	0x1
 5309 1360 9A000000 		.4byte	0x9a
 5310 1364 D0020000 		.4byte	.LFB8
 5311 1368 3C030000 		.4byte	.LFE8
 5312 136c 730A0000 		.4byte	.LLST46
 5313 1370 01       		.byte	0x1
 5314 1371 64140000 		.4byte	0x1464
 5315 1375 24       		.uleb128 0x24
 5316 1376 DF080000 		.4byte	.LASF150
 5317 137a 01       		.byte	0x1
 5318 137b 6602     		.2byte	0x266
 5319 137d 9A000000 		.4byte	0x9a
 5320 1381 930A0000 		.4byte	.LLST47
 5321 1385 24       		.uleb128 0x24
 5322 1386 9E030000 		.4byte	.LASF1
 5323 138a 01       		.byte	0x1
 5324 138b 6602     		.2byte	0x266
 5325 138d 4F130000 		.4byte	0x134f
 5326 1391 E60A0000 		.4byte	.LLST48
 5327 1395 24       		.uleb128 0x24
 5328 1396 61000000 		.4byte	.LASF163
 5329 139a 01       		.byte	0x1
 5330 139b 6602     		.2byte	0x266
 5331 139d 9A000000 		.4byte	0x9a
 5332 13a1 3E0B0000 		.4byte	.LLST49
 5333 13a5 26       		.uleb128 0x26
 5334 13a6 C2020000 		.4byte	.LASF142
 5335 13aa 01       		.byte	0x1
 5336 13ab 6702     		.2byte	0x267
 5337 13ad 9A000000 		.4byte	0x9a
 5338 13b1 8B0B0000 		.4byte	.LLST50
 5339 13b5 26       		.uleb128 0x26
 5340 13b6 C8050000 		.4byte	.LASF144
 5341 13ba 01       		.byte	0x1
 5342 13bb 6802     		.2byte	0x268
 5343 13bd 9A000000 		.4byte	0x9a
 5344 13c1 C00B0000 		.4byte	.LLST51
 5345 13c5 26       		.uleb128 0x26
 5346 13c6 D9080000 		.4byte	.LASF165
 5347 13ca 01       		.byte	0x1
 5348 13cb 6902     		.2byte	0x269
 5349 13cd 82000000 		.4byte	0x82
 5350 13d1 DE0B0000 		.4byte	.LLST52
 5351 13d5 26       		.uleb128 0x26
 5352 13d6 CC040000 		.4byte	.LASF145
 5353 13da 01       		.byte	0x1
 5354 13db 6A02     		.2byte	0x26a
 5355 13dd 9F0C0000 		.4byte	0xc9f
 5356 13e1 360C0000 		.4byte	.LLST53
 5357 13e5 28       		.uleb128 0x28
 5358 13e6 FC020000 		.4byte	.LVL118
 5359 13ea 0F170000 		.4byte	0x170f
 5360 13ee F9130000 		.4byte	0x13f9
 5361 13f2 29       		.uleb128 0x29
 5362 13f3 01       		.byte	0x1
 5363 13f4 50       		.byte	0x50
ARM GAS  C:\Users\claym\AppData\Local\Temp\ccb01mZK.s 			page 121


 5364 13f5 02       		.byte	0x2
 5365 13f6 75       		.byte	0x75
 5366 13f7 00       		.sleb128 0
 5367 13f8 00       		.byte	0
 5368 13f9 28       		.uleb128 0x28
 5369 13fa 0A030000 		.4byte	.LVL121
 5370 13fe 99170000 		.4byte	0x1799
 5371 1402 19140000 		.4byte	0x1419
 5372 1406 29       		.uleb128 0x29
 5373 1407 01       		.byte	0x1
 5374 1408 50       		.byte	0x50
 5375 1409 02       		.byte	0x2
 5376 140a 75       		.byte	0x75
 5377 140b 00       		.sleb128 0
 5378 140c 29       		.uleb128 0x29
 5379 140d 01       		.byte	0x1
 5380 140e 51       		.byte	0x51
 5381 140f 02       		.byte	0x2
 5382 1410 77       		.byte	0x77
 5383 1411 00       		.sleb128 0
 5384 1412 29       		.uleb128 0x29
 5385 1413 01       		.byte	0x1
 5386 1414 52       		.byte	0x52
 5387 1415 02       		.byte	0x2
 5388 1416 76       		.byte	0x76
 5389 1417 00       		.sleb128 0
 5390 1418 00       		.byte	0
 5391 1419 28       		.uleb128 0x28
 5392 141a 16030000 		.4byte	.LVL128
 5393 141e 0F170000 		.4byte	0x170f
 5394 1422 2D140000 		.4byte	0x142d
 5395 1426 29       		.uleb128 0x29
 5396 1427 01       		.byte	0x1
 5397 1428 50       		.byte	0x50
 5398 1429 02       		.byte	0x2
 5399 142a 75       		.byte	0x75
 5400 142b 00       		.sleb128 0
 5401 142c 00       		.byte	0
 5402 142d 28       		.uleb128 0x28
 5403 142e 28030000 		.4byte	.LVL132
 5404 1432 99170000 		.4byte	0x1799
 5405 1436 4D140000 		.4byte	0x144d
 5406 143a 29       		.uleb128 0x29
 5407 143b 01       		.byte	0x1
 5408 143c 50       		.byte	0x50
 5409 143d 02       		.byte	0x2
 5410 143e 75       		.byte	0x75
 5411 143f 00       		.sleb128 0
 5412 1440 29       		.uleb128 0x29
 5413 1441 01       		.byte	0x1
 5414 1442 51       		.byte	0x51
 5415 1443 02       		.byte	0x2
 5416 1444 77       		.byte	0x77
 5417 1445 00       		.sleb128 0
 5418 1446 29       		.uleb128 0x29
 5419 1447 01       		.byte	0x1
 5420 1448 52       		.byte	0x52
ARM GAS  C:\Users\claym\AppData\Local\Temp\ccb01mZK.s 			page 122


 5421 1449 02       		.byte	0x2
 5422 144a 74       		.byte	0x74
 5423 144b 00       		.sleb128 0
 5424 144c 00       		.byte	0
 5425 144d 2B       		.uleb128 0x2b
 5426 144e 32030000 		.4byte	.LVL135
 5427 1452 5B180000 		.4byte	0x185b
 5428 1456 29       		.uleb128 0x29
 5429 1457 01       		.byte	0x1
 5430 1458 50       		.byte	0x50
 5431 1459 02       		.byte	0x2
 5432 145a 75       		.byte	0x75
 5433 145b 00       		.sleb128 0
 5434 145c 29       		.uleb128 0x29
 5435 145d 01       		.byte	0x1
 5436 145e 52       		.byte	0x52
 5437 145f 02       		.byte	0x2
 5438 1460 76       		.byte	0x76
 5439 1461 00       		.sleb128 0
 5440 1462 00       		.byte	0
 5441 1463 00       		.byte	0
 5442 1464 23       		.uleb128 0x23
 5443 1465 01       		.byte	0x1
 5444 1466 17010000 		.4byte	.LASF166
 5445 146a 01       		.byte	0x1
 5446 146b F801     		.2byte	0x1f8
 5447 146d 01       		.byte	0x1
 5448 146e 9A000000 		.4byte	0x9a
 5449 1472 22020000 		.4byte	.LFB7
 5450 1476 D0020000 		.4byte	.LFE7
 5451 147a 6C0C0000 		.4byte	.LLST35
 5452 147e 01       		.byte	0x1
 5453 147f 84150000 		.4byte	0x1584
 5454 1483 24       		.uleb128 0x24
 5455 1484 DF080000 		.4byte	.LASF150
 5456 1488 01       		.byte	0x1
 5457 1489 F801     		.2byte	0x1f8
 5458 148b 9A000000 		.4byte	0x9a
 5459 148f 8C0C0000 		.4byte	.LLST36
 5460 1493 24       		.uleb128 0x24
 5461 1494 9E030000 		.4byte	.LASF1
 5462 1498 01       		.byte	0x1
 5463 1499 F801     		.2byte	0x1f8
 5464 149b 4F130000 		.4byte	0x134f
 5465 149f 010D0000 		.4byte	.LLST37
 5466 14a3 24       		.uleb128 0x24
 5467 14a4 61000000 		.4byte	.LASF163
 5468 14a8 01       		.byte	0x1
 5469 14a9 F801     		.2byte	0x1f8
 5470 14ab 9A000000 		.4byte	0x9a
 5471 14af 200D0000 		.4byte	.LLST38
 5472 14b3 26       		.uleb128 0x26
 5473 14b4 D9080000 		.4byte	.LASF165
 5474 14b8 01       		.byte	0x1
 5475 14b9 F901     		.2byte	0x1f9
 5476 14bb 82000000 		.4byte	0x82
 5477 14bf 930D0000 		.4byte	.LLST39
ARM GAS  C:\Users\claym\AppData\Local\Temp\ccb01mZK.s 			page 123


 5478 14c3 26       		.uleb128 0x26
 5479 14c4 CC040000 		.4byte	.LASF145
 5480 14c8 01       		.byte	0x1
 5481 14c9 FA01     		.2byte	0x1fa
 5482 14cb 9F0C0000 		.4byte	0xc9f
 5483 14cf CB0D0000 		.4byte	.LLST40
 5484 14d3 26       		.uleb128 0x26
 5485 14d4 C8050000 		.4byte	.LASF144
 5486 14d8 01       		.byte	0x1
 5487 14d9 FB01     		.2byte	0x1fb
 5488 14db 9A000000 		.4byte	0x9a
 5489 14df B60E0000 		.4byte	.LLST41
 5490 14e3 26       		.uleb128 0x26
 5491 14e4 43030000 		.4byte	.LASF4
 5492 14e8 01       		.byte	0x1
 5493 14e9 FC01     		.2byte	0x1fc
 5494 14eb 9A000000 		.4byte	0x9a
 5495 14ef 200F0000 		.4byte	.LLST42
 5496 14f3 26       		.uleb128 0x26
 5497 14f4 6E080000 		.4byte	.LASF3
 5498 14f8 01       		.byte	0x1
 5499 14f9 FD01     		.2byte	0x1fd
 5500 14fb 9A000000 		.4byte	0x9a
 5501 14ff 560F0000 		.4byte	.LLST43
 5502 1503 2D       		.uleb128 0x2d
 5503 1504 52656D00 		.ascii	"Rem\000"
 5504 1508 01       		.byte	0x1
 5505 1509 FE01     		.2byte	0x1fe
 5506 150b 9A000000 		.4byte	0x9a
 5507 150f 8B0F0000 		.4byte	.LLST44
 5508 1513 27       		.uleb128 0x27
 5509 1514 48020000 		.4byte	.LBB3
 5510 1518 6A020000 		.4byte	.LBE3
 5511 151c 31150000 		.4byte	0x1531
 5512 1520 26       		.uleb128 0x26
 5513 1521 C1060000 		.4byte	.LASF167
 5514 1525 01       		.byte	0x1
 5515 1526 1B02     		.2byte	0x21b
 5516 1528 94000000 		.4byte	0x94
 5517 152c B60F0000 		.4byte	.LLST45
 5518 1530 00       		.byte	0
 5519 1531 28       		.uleb128 0x28
 5520 1532 90020000 		.4byte	.LVL101
 5521 1536 BE190000 		.4byte	0x19be
 5522 153a 4C150000 		.4byte	0x154c
 5523 153e 29       		.uleb128 0x29
 5524 153f 01       		.byte	0x1
 5525 1540 51       		.byte	0x51
 5526 1541 03       		.byte	0x3
 5527 1542 91       		.byte	0x91
 5528 1543 64       		.sleb128 -28
 5529 1544 06       		.byte	0x6
 5530 1545 29       		.uleb128 0x29
 5531 1546 01       		.byte	0x1
 5532 1547 52       		.byte	0x52
 5533 1548 02       		.byte	0x2
 5534 1549 75       		.byte	0x75
ARM GAS  C:\Users\claym\AppData\Local\Temp\ccb01mZK.s 			page 124


 5535 154a 00       		.sleb128 0
 5536 154b 00       		.byte	0
 5537 154c 28       		.uleb128 0x28
 5538 154d 9C020000 		.4byte	.LVL104
 5539 1551 BE190000 		.4byte	0x19be
 5540 1555 68150000 		.4byte	0x1568
 5541 1559 29       		.uleb128 0x29
 5542 155a 01       		.byte	0x1
 5543 155b 51       		.byte	0x51
 5544 155c 03       		.byte	0x3
 5545 155d 91       		.byte	0x91
 5546 155e 64       		.sleb128 -28
 5547 155f 06       		.byte	0x6
 5548 1560 29       		.uleb128 0x29
 5549 1561 01       		.byte	0x1
 5550 1562 52       		.byte	0x52
 5551 1563 03       		.byte	0x3
 5552 1564 7D       		.byte	0x7d
 5553 1565 00       		.sleb128 0
 5554 1566 06       		.byte	0x6
 5555 1567 00       		.byte	0
 5556 1568 2B       		.uleb128 0x2b
 5557 1569 B2020000 		.4byte	.LVL106
 5558 156d BE190000 		.4byte	0x19be
 5559 1571 29       		.uleb128 0x29
 5560 1572 01       		.byte	0x1
 5561 1573 51       		.byte	0x51
 5562 1574 07       		.byte	0x7
 5563 1575 91       		.byte	0x91
 5564 1576 64       		.sleb128 -28
 5565 1577 06       		.byte	0x6
 5566 1578 7D       		.byte	0x7d
 5567 1579 00       		.sleb128 0
 5568 157a 06       		.byte	0x6
 5569 157b 22       		.byte	0x22
 5570 157c 29       		.uleb128 0x29
 5571 157d 01       		.byte	0x1
 5572 157e 52       		.byte	0x52
 5573 157f 02       		.byte	0x2
 5574 1580 75       		.byte	0x75
 5575 1581 00       		.sleb128 0
 5576 1582 00       		.byte	0
 5577 1583 00       		.byte	0
 5578 1584 23       		.uleb128 0x23
 5579 1585 01       		.byte	0x1
 5580 1586 F1060000 		.4byte	.LASF168
 5581 158a 01       		.byte	0x1
 5582 158b D001     		.2byte	0x1d0
 5583 158d 01       		.byte	0x1
 5584 158e 9A000000 		.4byte	0x9a
 5585 1592 08020000 		.4byte	.LFB6
 5586 1596 22020000 		.4byte	.LFE6
 5587 159a EB0F0000 		.4byte	.LLST30
 5588 159e 01       		.byte	0x1
 5589 159f 1B160000 		.4byte	0x161b
 5590 15a3 24       		.uleb128 0x24
 5591 15a4 DF080000 		.4byte	.LASF150
ARM GAS  C:\Users\claym\AppData\Local\Temp\ccb01mZK.s 			page 125


 5592 15a8 01       		.byte	0x1
 5593 15a9 D001     		.2byte	0x1d0
 5594 15ab 9A000000 		.4byte	0x9a
 5595 15af 0B100000 		.4byte	.LLST31
 5596 15b3 24       		.uleb128 0x24
 5597 15b4 9E030000 		.4byte	.LASF1
 5598 15b8 01       		.byte	0x1
 5599 15b9 D001     		.2byte	0x1d0
 5600 15bb 99020000 		.4byte	0x299
 5601 15bf 2C100000 		.4byte	.LLST32
 5602 15c3 24       		.uleb128 0x24
 5603 15c4 0C050000 		.4byte	.LASF153
 5604 15c8 01       		.byte	0x1
 5605 15c9 D001     		.2byte	0x1d0
 5606 15cb 9A000000 		.4byte	0x9a
 5607 15cf 58100000 		.4byte	.LLST33
 5608 15d3 32       		.uleb128 0x32
 5609 15d4 93010000 		.4byte	.LASF169
 5610 15d8 01       		.byte	0x1
 5611 15d9 D101     		.2byte	0x1d1
 5612 15db 9A000000 		.4byte	0x9a
 5613 15df 01       		.byte	0x1
 5614 15e0 50       		.byte	0x50
 5615 15e1 34       		.uleb128 0x34
 5616 15e2 0C020000 		.4byte	.LBB2
 5617 15e6 20020000 		.4byte	.LBE2
 5618 15ea 26       		.uleb128 0x26
 5619 15eb 14000000 		.4byte	.LASF146
 5620 15ef 01       		.byte	0x1
 5621 15f0 D301     		.2byte	0x1d3
 5622 15f2 9A000000 		.4byte	0x9a
 5623 15f6 79100000 		.4byte	.LLST34
 5624 15fa 2B       		.uleb128 0x2b
 5625 15fb 1C020000 		.4byte	.LVL76
 5626 15ff 1B160000 		.4byte	0x161b
 5627 1603 29       		.uleb128 0x29
 5628 1604 01       		.byte	0x1
 5629 1605 50       		.byte	0x50
 5630 1606 03       		.byte	0x3
 5631 1607 F3       		.byte	0xf3
 5632 1608 01       		.uleb128 0x1
 5633 1609 50       		.byte	0x50
 5634 160a 29       		.uleb128 0x29
 5635 160b 01       		.byte	0x1
 5636 160c 51       		.byte	0x51
 5637 160d 03       		.byte	0x3
 5638 160e F3       		.byte	0xf3
 5639 160f 01       		.uleb128 0x1
 5640 1610 51       		.byte	0x51
 5641 1611 29       		.uleb128 0x29
 5642 1612 01       		.byte	0x1
 5643 1613 52       		.byte	0x52
 5644 1614 03       		.byte	0x3
 5645 1615 F3       		.byte	0xf3
 5646 1616 01       		.uleb128 0x1
 5647 1617 52       		.byte	0x52
 5648 1618 00       		.byte	0
ARM GAS  C:\Users\claym\AppData\Local\Temp\ccb01mZK.s 			page 126


 5649 1619 00       		.byte	0
 5650 161a 00       		.byte	0
 5651 161b 23       		.uleb128 0x23
 5652 161c 01       		.byte	0x1
 5653 161d A4020000 		.4byte	.LASF170
 5654 1621 01       		.byte	0x1
 5655 1622 8D01     		.2byte	0x18d
 5656 1624 01       		.byte	0x1
 5657 1625 9A000000 		.4byte	0x9a
 5658 1629 64010000 		.4byte	.LFB5
 5659 162d 08020000 		.4byte	.LFE5
 5660 1631 8C100000 		.4byte	.LLST21
 5661 1635 01       		.byte	0x1
 5662 1636 0F170000 		.4byte	0x170f
 5663 163a 24       		.uleb128 0x24
 5664 163b DF080000 		.4byte	.LASF150
 5665 163f 01       		.byte	0x1
 5666 1640 8D01     		.2byte	0x18d
 5667 1642 9A000000 		.4byte	0x9a
 5668 1646 B8100000 		.4byte	.LLST22
 5669 164a 24       		.uleb128 0x24
 5670 164b D9080000 		.4byte	.LASF165
 5671 164f 01       		.byte	0x1
 5672 1650 8D01     		.2byte	0x18d
 5673 1652 99020000 		.4byte	0x299
 5674 1656 D7100000 		.4byte	.LLST23
 5675 165a 24       		.uleb128 0x24
 5676 165b 0C050000 		.4byte	.LASF153
 5677 165f 01       		.byte	0x1
 5678 1660 8D01     		.2byte	0x18d
 5679 1662 9A000000 		.4byte	0x9a
 5680 1666 04110000 		.4byte	.LLST24
 5681 166a 26       		.uleb128 0x26
 5682 166b E9070000 		.4byte	.LASF171
 5683 166f 01       		.byte	0x1
 5684 1670 8E01     		.2byte	0x18e
 5685 1672 9A000000 		.4byte	0x9a
 5686 1676 30110000 		.4byte	.LLST25
 5687 167a 26       		.uleb128 0x26
 5688 167b 93010000 		.4byte	.LASF169
 5689 167f 01       		.byte	0x1
 5690 1680 8F01     		.2byte	0x18f
 5691 1682 9A000000 		.4byte	0x9a
 5692 1686 64110000 		.4byte	.LLST26
 5693 168a 26       		.uleb128 0x26
 5694 168b 43030000 		.4byte	.LASF4
 5695 168f 01       		.byte	0x1
 5696 1690 9001     		.2byte	0x190
 5697 1692 9A000000 		.4byte	0x9a
 5698 1696 99110000 		.4byte	.LLST27
 5699 169a 26       		.uleb128 0x26
 5700 169b 6E080000 		.4byte	.LASF3
 5701 169f 01       		.byte	0x1
 5702 16a0 9101     		.2byte	0x191
 5703 16a2 9A000000 		.4byte	0x9a
 5704 16a6 B7110000 		.4byte	.LLST28
 5705 16aa 26       		.uleb128 0x26
ARM GAS  C:\Users\claym\AppData\Local\Temp\ccb01mZK.s 			page 127


 5706 16ab 9E030000 		.4byte	.LASF1
 5707 16af 01       		.byte	0x1
 5708 16b0 9201     		.2byte	0x192
 5709 16b2 8D040000 		.4byte	0x48d
 5710 16b6 D6110000 		.4byte	.LLST29
 5711 16ba 32       		.uleb128 0x32
 5712 16bb CC040000 		.4byte	.LASF145
 5713 16bf 01       		.byte	0x1
 5714 16c0 9301     		.2byte	0x193
 5715 16c2 5D110000 		.4byte	0x115d
 5716 16c6 0C       		.byte	0xc
 5717 16c7 91       		.byte	0x91
 5718 16c8 5C       		.sleb128 -36
 5719 16c9 06       		.byte	0x6
 5720 16ca 48       		.byte	0x48
 5721 16cb 1E       		.byte	0x1e
 5722 16cc 03       		.byte	0x3
 5723 16cd 60000000 		.4byte	_SEGGER_RTT+96
 5724 16d1 22       		.byte	0x22
 5725 16d2 9F       		.byte	0x9f
 5726 16d3 2A       		.uleb128 0x2a
 5727 16d4 7A010000 		.4byte	.LVL53
 5728 16d8 F9180000 		.4byte	0x18f9
 5729 16dc 28       		.uleb128 0x28
 5730 16dd B4010000 		.4byte	.LVL60
 5731 16e1 BE190000 		.4byte	0x19be
 5732 16e5 F7160000 		.4byte	0x16f7
 5733 16e9 29       		.uleb128 0x29
 5734 16ea 01       		.byte	0x1
 5735 16eb 50       		.byte	0x50
 5736 16ec 03       		.byte	0x3
 5737 16ed 91       		.byte	0x91
 5738 16ee 60       		.sleb128 -32
 5739 16ef 06       		.byte	0x6
 5740 16f0 29       		.uleb128 0x29
 5741 16f1 01       		.byte	0x1
 5742 16f2 52       		.byte	0x52
 5743 16f3 02       		.byte	0x2
 5744 16f4 76       		.byte	0x76
 5745 16f5 00       		.sleb128 0
 5746 16f6 00       		.byte	0
 5747 16f7 2B       		.uleb128 0x2b
 5748 16f8 EA010000 		.4byte	.LVL69
 5749 16fc BE190000 		.4byte	0x19be
 5750 1700 29       		.uleb128 0x29
 5751 1701 01       		.byte	0x1
 5752 1702 50       		.byte	0x50
 5753 1703 03       		.byte	0x3
 5754 1704 91       		.byte	0x91
 5755 1705 60       		.sleb128 -32
 5756 1706 06       		.byte	0x6
 5757 1707 29       		.uleb128 0x29
 5758 1708 01       		.byte	0x1
 5759 1709 52       		.byte	0x52
 5760 170a 02       		.byte	0x2
 5761 170b 75       		.byte	0x75
 5762 170c 00       		.sleb128 0
ARM GAS  C:\Users\claym\AppData\Local\Temp\ccb01mZK.s 			page 128


 5763 170d 00       		.byte	0
 5764 170e 00       		.byte	0
 5765 170f 35       		.uleb128 0x35
 5766 1710 4E030000 		.4byte	.LASF173
 5767 1714 01       		.byte	0x1
 5768 1715 6401     		.2byte	0x164
 5769 1717 01       		.byte	0x1
 5770 1718 9A000000 		.4byte	0x9a
 5771 171c 00000000 		.4byte	.LFB4
 5772 1720 12000000 		.4byte	.LFE4
 5773 1724 02       		.byte	0x2
 5774 1725 7D       		.byte	0x7d
 5775 1726 00       		.sleb128 0
 5776 1727 01       		.byte	0x1
 5777 1728 67170000 		.4byte	0x1767
 5778 172c 24       		.uleb128 0x24
 5779 172d CC040000 		.4byte	.LASF145
 5780 1731 01       		.byte	0x1
 5781 1732 6401     		.2byte	0x164
 5782 1734 9F0C0000 		.4byte	0xc9f
 5783 1738 23120000 		.4byte	.LLST0
 5784 173c 26       		.uleb128 0x26
 5785 173d 43030000 		.4byte	.LASF4
 5786 1741 01       		.byte	0x1
 5787 1742 6501     		.2byte	0x165
 5788 1744 9A000000 		.4byte	0x9a
 5789 1748 44120000 		.4byte	.LLST1
 5790 174c 32       		.uleb128 0x32
 5791 174d 6E080000 		.4byte	.LASF3
 5792 1751 01       		.byte	0x1
 5793 1752 6601     		.2byte	0x166
 5794 1754 9A000000 		.4byte	0x9a
 5795 1758 01       		.byte	0x1
 5796 1759 52       		.byte	0x52
 5797 175a 2C       		.uleb128 0x2c
 5798 175b 7200     		.ascii	"r\000"
 5799 175d 01       		.byte	0x1
 5800 175e 6701     		.2byte	0x167
 5801 1760 9A000000 		.4byte	0x9a
 5802 1764 01       		.byte	0x1
 5803 1765 50       		.byte	0x50
 5804 1766 00       		.byte	0
 5805 1767 36       		.uleb128 0x36
 5806 1768 25080000 		.4byte	.LASF185
 5807 176c 01       		.byte	0x1
 5808 176d 4E01     		.2byte	0x14e
 5809 176f 01       		.byte	0x1
 5810 1770 01       		.byte	0x1
 5811 1771 99170000 		.4byte	0x1799
 5812 1775 37       		.uleb128 0x37
 5813 1776 CC040000 		.4byte	.LASF145
 5814 177a 01       		.byte	0x1
 5815 177b 4E01     		.2byte	0x14e
 5816 177d 9F0C0000 		.4byte	0xc9f
 5817 1781 37       		.uleb128 0x37
 5818 1782 AF080000 		.4byte	.LASF141
 5819 1786 01       		.byte	0x1
ARM GAS  C:\Users\claym\AppData\Local\Temp\ccb01mZK.s 			page 129


 5820 1787 4E01     		.2byte	0x14e
 5821 1789 CC010000 		.4byte	0x1cc
 5822 178d 38       		.uleb128 0x38
 5823 178e 616300   		.ascii	"ac\000"
 5824 1791 01       		.byte	0x1
 5825 1792 4F01     		.2byte	0x14f
 5826 1794 7D0D0000 		.4byte	0xd7d
 5827 1798 00       		.byte	0
 5828 1799 39       		.uleb128 0x39
 5829 179a CF000000 		.4byte	.LASF177
 5830 179e 01       		.byte	0x1
 5831 179f 2801     		.2byte	0x128
 5832 17a1 01       		.byte	0x1
 5833 17a2 12000000 		.4byte	.LFB2
 5834 17a6 4E000000 		.4byte	.LFE2
 5835 17aa 57120000 		.4byte	.LLST2
 5836 17ae 01       		.byte	0x1
 5837 17af 5B180000 		.4byte	0x185b
 5838 17b3 24       		.uleb128 0x24
 5839 17b4 CC040000 		.4byte	.LASF145
 5840 17b8 01       		.byte	0x1
 5841 17b9 2801     		.2byte	0x128
 5842 17bb 9F0C0000 		.4byte	0xc9f
 5843 17bf 77120000 		.4byte	.LLST3
 5844 17c3 24       		.uleb128 0x24
 5845 17c4 D9080000 		.4byte	.LASF165
 5846 17c8 01       		.byte	0x1
 5847 17c9 2801     		.2byte	0x128
 5848 17cb 82000000 		.4byte	0x82
 5849 17cf AE120000 		.4byte	.LLST4
 5850 17d3 24       		.uleb128 0x24
 5851 17d4 61000000 		.4byte	.LASF163
 5852 17d8 01       		.byte	0x1
 5853 17d9 2801     		.2byte	0x128
 5854 17db 9A000000 		.4byte	0x9a
 5855 17df F0120000 		.4byte	.LLST5
 5856 17e3 26       		.uleb128 0x26
 5857 17e4 98070000 		.4byte	.LASF172
 5858 17e8 01       		.byte	0x1
 5859 17e9 2901     		.2byte	0x129
 5860 17eb 9A000000 		.4byte	0x9a
 5861 17ef 35130000 		.4byte	.LLST6
 5862 17f3 26       		.uleb128 0x26
 5863 17f4 6E080000 		.4byte	.LASF3
 5864 17f8 01       		.byte	0x1
 5865 17f9 2A01     		.2byte	0x12a
 5866 17fb 9A000000 		.4byte	0x9a
 5867 17ff 53130000 		.4byte	.LLST7
 5868 1803 2D       		.uleb128 0x2d
 5869 1804 52656D00 		.ascii	"Rem\000"
 5870 1808 01       		.byte	0x1
 5871 1809 2B01     		.2byte	0x12b
 5872 180b 9A000000 		.4byte	0x9a
 5873 180f AC130000 		.4byte	.LLST8
 5874 1813 28       		.uleb128 0x28
 5875 1814 32000000 		.4byte	.LVL13
 5876 1818 BE190000 		.4byte	0x19be
ARM GAS  C:\Users\claym\AppData\Local\Temp\ccb01mZK.s 			page 130


 5877 181c 2D180000 		.4byte	0x182d
 5878 1820 29       		.uleb128 0x29
 5879 1821 01       		.byte	0x1
 5880 1822 51       		.byte	0x51
 5881 1823 02       		.byte	0x2
 5882 1824 77       		.byte	0x77
 5883 1825 00       		.sleb128 0
 5884 1826 29       		.uleb128 0x29
 5885 1827 01       		.byte	0x1
 5886 1828 52       		.byte	0x52
 5887 1829 02       		.byte	0x2
 5888 182a 74       		.byte	0x74
 5889 182b 00       		.sleb128 0
 5890 182c 00       		.byte	0
 5891 182d 28       		.uleb128 0x28
 5892 182e 42000000 		.4byte	.LVL21
 5893 1832 BE190000 		.4byte	0x19be
 5894 1836 41180000 		.4byte	0x1841
 5895 183a 29       		.uleb128 0x29
 5896 183b 01       		.byte	0x1
 5897 183c 52       		.byte	0x52
 5898 183d 02       		.byte	0x2
 5899 183e 76       		.byte	0x76
 5900 183f 00       		.sleb128 0
 5901 1840 00       		.byte	0
 5902 1841 2B       		.uleb128 0x2b
 5903 1842 4C000000 		.4byte	.LVL22
 5904 1846 BE190000 		.4byte	0x19be
 5905 184a 29       		.uleb128 0x29
 5906 184b 01       		.byte	0x1
 5907 184c 51       		.byte	0x51
 5908 184d 05       		.byte	0x5
 5909 184e 77       		.byte	0x77
 5910 184f 00       		.sleb128 0
 5911 1850 76       		.byte	0x76
 5912 1851 00       		.sleb128 0
 5913 1852 22       		.byte	0x22
 5914 1853 29       		.uleb128 0x29
 5915 1854 01       		.byte	0x1
 5916 1855 52       		.byte	0x52
 5917 1856 02       		.byte	0x2
 5918 1857 74       		.byte	0x74
 5919 1858 00       		.sleb128 0
 5920 1859 00       		.byte	0
 5921 185a 00       		.byte	0
 5922 185b 3A       		.uleb128 0x3a
 5923 185c 4F070000 		.4byte	.LASF174
 5924 1860 01       		.byte	0x1
 5925 1861 F5       		.byte	0xf5
 5926 1862 01       		.byte	0x1
 5927 1863 9A000000 		.4byte	0x9a
 5928 1867 4E000000 		.4byte	.LFB1
 5929 186b A8000000 		.4byte	.LFE1
 5930 186f CA130000 		.4byte	.LLST9
 5931 1873 01       		.byte	0x1
 5932 1874 F9180000 		.4byte	0x18f9
 5933 1878 3B       		.uleb128 0x3b
ARM GAS  C:\Users\claym\AppData\Local\Temp\ccb01mZK.s 			page 131


 5934 1879 CC040000 		.4byte	.LASF145
 5935 187d 01       		.byte	0x1
 5936 187e F5       		.byte	0xf5
 5937 187f 9F0C0000 		.4byte	0xc9f
 5938 1883 EA130000 		.4byte	.LLST10
 5939 1887 3B       		.uleb128 0x3b
 5940 1888 9E030000 		.4byte	.LASF1
 5941 188c 01       		.byte	0x1
 5942 188d F5       		.byte	0xf5
 5943 188e 82000000 		.4byte	0x82
 5944 1892 21140000 		.4byte	.LLST11
 5945 1896 3B       		.uleb128 0x3b
 5946 1897 61000000 		.4byte	.LASF163
 5947 189b 01       		.byte	0x1
 5948 189c F5       		.byte	0xf5
 5949 189d 9A000000 		.4byte	0x9a
 5950 18a1 57140000 		.4byte	.LLST12
 5951 18a5 3C       		.uleb128 0x3c
 5952 18a6 DE040000 		.4byte	.LASF175
 5953 18aa 01       		.byte	0x1
 5954 18ab F6       		.byte	0xf6
 5955 18ac 9A000000 		.4byte	0x9a
 5956 18b0 8B140000 		.4byte	.LLST13
 5957 18b4 3C       		.uleb128 0x3c
 5958 18b5 83040000 		.4byte	.LASF176
 5959 18b9 01       		.byte	0x1
 5960 18ba F7       		.byte	0xf7
 5961 18bb 9A000000 		.4byte	0x9a
 5962 18bf 05150000 		.4byte	.LLST14
 5963 18c3 3C       		.uleb128 0x3c
 5964 18c4 43030000 		.4byte	.LASF4
 5965 18c8 01       		.byte	0x1
 5966 18c9 F8       		.byte	0xf8
 5967 18ca 9A000000 		.4byte	0x9a
 5968 18ce 3C150000 		.4byte	.LLST15
 5969 18d2 3C       		.uleb128 0x3c
 5970 18d3 6E080000 		.4byte	.LASF3
 5971 18d7 01       		.byte	0x1
 5972 18d8 F9       		.byte	0xf9
 5973 18d9 9A000000 		.4byte	0x9a
 5974 18dd 5A150000 		.4byte	.LLST16
 5975 18e1 2B       		.uleb128 0x2b
 5976 18e2 82000000 		.4byte	.LVL32
 5977 18e6 BE190000 		.4byte	0x19be
 5978 18ea 29       		.uleb128 0x29
 5979 18eb 01       		.byte	0x1
 5980 18ec 51       		.byte	0x51
 5981 18ed 03       		.byte	0x3
 5982 18ee 91       		.byte	0x91
 5983 18ef 64       		.sleb128 -28
 5984 18f0 06       		.byte	0x6
 5985 18f1 29       		.uleb128 0x29
 5986 18f2 01       		.byte	0x1
 5987 18f3 52       		.byte	0x52
 5988 18f4 02       		.byte	0x2
 5989 18f5 74       		.byte	0x74
 5990 18f6 00       		.sleb128 0
ARM GAS  C:\Users\claym\AppData\Local\Temp\ccb01mZK.s 			page 132


 5991 18f7 00       		.byte	0
 5992 18f8 00       		.byte	0
 5993 18f9 3D       		.uleb128 0x3d
 5994 18fa 8A000000 		.4byte	.LASF178
 5995 18fe 01       		.byte	0x1
 5996 18ff B0       		.byte	0xb0
 5997 1900 01       		.byte	0x1
 5998 1901 A8000000 		.4byte	.LFB0
 5999 1905 44010000 		.4byte	.LFE0
 6000 1909 9E150000 		.4byte	.LLST17
 6001 190d 01       		.byte	0x1
 6002 190e 5C190000 		.4byte	0x195c
 6003 1912 3E       		.uleb128 0x3e
 6004 1913 7000     		.ascii	"p\000"
 6005 1915 01       		.byte	0x1
 6006 1916 B1       		.byte	0xb1
 6007 1917 5C190000 		.4byte	0x195c
 6008 191b 06       		.byte	0x6
 6009 191c 03       		.byte	0x3
 6010 191d 00000000 		.4byte	_SEGGER_RTT
 6011 1921 9F       		.byte	0x9f
 6012 1922 28       		.uleb128 0x28
 6013 1923 10010000 		.4byte	.LVL47
 6014 1927 CF190000 		.4byte	0x19cf
 6015 192b 42190000 		.4byte	0x1942
 6016 192f 29       		.uleb128 0x29
 6017 1930 01       		.byte	0x1
 6018 1931 50       		.byte	0x50
 6019 1932 05       		.byte	0x5
 6020 1933 03       		.byte	0x3
 6021 1934 07000000 		.4byte	_SEGGER_RTT+7
 6022 1938 29       		.uleb128 0x29
 6023 1939 01       		.byte	0x1
 6024 193a 51       		.byte	0x51
 6025 193b 05       		.byte	0x5
 6026 193c 03       		.byte	0x3
 6027 193d 13000000 		.4byte	.LC8
 6028 1941 00       		.byte	0
 6029 1942 2B       		.uleb128 0x2b
 6030 1943 18010000 		.4byte	.LVL48
 6031 1947 CF190000 		.4byte	0x19cf
 6032 194b 29       		.uleb128 0x29
 6033 194c 01       		.byte	0x1
 6034 194d 50       		.byte	0x50
 6035 194e 02       		.byte	0x2
 6036 194f 74       		.byte	0x74
 6037 1950 00       		.sleb128 0
 6038 1951 29       		.uleb128 0x29
 6039 1952 01       		.byte	0x1
 6040 1953 51       		.byte	0x51
 6041 1954 05       		.byte	0x5
 6042 1955 03       		.byte	0x3
 6043 1956 17000000 		.4byte	.LC11
 6044 195a 00       		.byte	0
 6045 195b 00       		.byte	0
 6046 195c 04       		.uleb128 0x4
 6047 195d 04       		.byte	0x4
ARM GAS  C:\Users\claym\AppData\Local\Temp\ccb01mZK.s 			page 133


 6048 195e 9F010000 		.4byte	0x19f
 6049 1962 3F       		.uleb128 0x3f
 6050 1963 67170000 		.4byte	0x1767
 6051 1967 44010000 		.4byte	.LFB24
 6052 196b 64010000 		.4byte	.LFE24
 6053 196f BE150000 		.4byte	.LLST18
 6054 1973 01       		.byte	0x1
 6055 1974 B1190000 		.4byte	0x19b1
 6056 1978 40       		.uleb128 0x40
 6057 1979 81170000 		.4byte	0x1781
 6058 197d DE150000 		.4byte	.LLST19
 6059 1981 41       		.uleb128 0x41
 6060 1982 8D170000 		.4byte	0x178d
 6061 1986 02       		.byte	0x2
 6062 1987 91       		.byte	0x91
 6063 1988 74       		.sleb128 -12
 6064 1989 40       		.uleb128 0x40
 6065 198a 75170000 		.4byte	0x1775
 6066 198e FF150000 		.4byte	.LLST20
 6067 1992 2B       		.uleb128 0x2b
 6068 1993 5A010000 		.4byte	.LVL51
 6069 1997 5B180000 		.4byte	0x185b
 6070 199b 29       		.uleb128 0x29
 6071 199c 01       		.byte	0x1
 6072 199d 50       		.byte	0x50
 6073 199e 05       		.byte	0x5
 6074 199f 03       		.byte	0x3
 6075 19a0 18000000 		.4byte	_SEGGER_RTT+24
 6076 19a4 29       		.uleb128 0x29
 6077 19a5 01       		.byte	0x1
 6078 19a6 51       		.byte	0x51
 6079 19a7 02       		.byte	0x2
 6080 19a8 91       		.byte	0x91
 6081 19a9 74       		.sleb128 -12
 6082 19aa 29       		.uleb128 0x29
 6083 19ab 01       		.byte	0x1
 6084 19ac 52       		.byte	0x52
 6085 19ad 01       		.byte	0x1
 6086 19ae 32       		.byte	0x32
 6087 19af 00       		.byte	0
 6088 19b0 00       		.byte	0
 6089 19b1 42       		.uleb128 0x42
 6090 19b2 01       		.byte	0x1
 6091 19b3 01       		.byte	0x1
 6092 19b4 02040000 		.4byte	.LASF179
 6093 19b8 02040000 		.4byte	.LASF179
 6094 19bc 07       		.byte	0x7
 6095 19bd 29       		.byte	0x29
 6096 19be 43       		.uleb128 0x43
 6097 19bf 01       		.byte	0x1
 6098 19c0 01       		.byte	0x1
 6099 19c1 2E040000 		.4byte	.LASF186
 6100 19c5 5E040000 		.4byte	.LASF187
 6101 19c9 08       		.byte	0x8
 6102 19ca 00       		.byte	0
 6103 19cb 2E040000 		.4byte	.LASF186
 6104 19cf 42       		.uleb128 0x42
ARM GAS  C:\Users\claym\AppData\Local\Temp\ccb01mZK.s 			page 134


 6105 19d0 01       		.byte	0x1
 6106 19d1 01       		.byte	0x1
 6107 19d2 57040000 		.4byte	.LASF180
 6108 19d6 57040000 		.4byte	.LASF180
 6109 19da 07       		.byte	0x7
 6110 19db 26       		.byte	0x26
 6111 19dc 00       		.byte	0
 6112              		.section	.debug_abbrev,"",%progbits
 6113              	.Ldebug_abbrev0:
 6114 0000 01       		.uleb128 0x1
 6115 0001 11       		.uleb128 0x11
 6116 0002 01       		.byte	0x1
 6117 0003 25       		.uleb128 0x25
 6118 0004 0E       		.uleb128 0xe
 6119 0005 13       		.uleb128 0x13
 6120 0006 0B       		.uleb128 0xb
 6121 0007 03       		.uleb128 0x3
 6122 0008 0E       		.uleb128 0xe
 6123 0009 1B       		.uleb128 0x1b
 6124 000a 0E       		.uleb128 0xe
 6125 000b 11       		.uleb128 0x11
 6126 000c 01       		.uleb128 0x1
 6127 000d 12       		.uleb128 0x12
 6128 000e 01       		.uleb128 0x1
 6129 000f 10       		.uleb128 0x10
 6130 0010 06       		.uleb128 0x6
 6131 0011 00       		.byte	0
 6132 0012 00       		.byte	0
 6133 0013 02       		.uleb128 0x2
 6134 0014 13       		.uleb128 0x13
 6135 0015 01       		.byte	0x1
 6136 0016 0B       		.uleb128 0xb
 6137 0017 0B       		.uleb128 0xb
 6138 0018 3A       		.uleb128 0x3a
 6139 0019 0B       		.uleb128 0xb
 6140 001a 3B       		.uleb128 0x3b
 6141 001b 0B       		.uleb128 0xb
 6142 001c 01       		.uleb128 0x1
 6143 001d 13       		.uleb128 0x13
 6144 001e 00       		.byte	0
 6145 001f 00       		.byte	0
 6146 0020 03       		.uleb128 0x3
 6147 0021 0D       		.uleb128 0xd
 6148 0022 00       		.byte	0
 6149 0023 03       		.uleb128 0x3
 6150 0024 0E       		.uleb128 0xe
 6151 0025 3A       		.uleb128 0x3a
 6152 0026 0B       		.uleb128 0xb
 6153 0027 3B       		.uleb128 0x3b
 6154 0028 0B       		.uleb128 0xb
 6155 0029 49       		.uleb128 0x49
 6156 002a 13       		.uleb128 0x13
 6157 002b 38       		.uleb128 0x38
 6158 002c 0A       		.uleb128 0xa
 6159 002d 00       		.byte	0
 6160 002e 00       		.byte	0
 6161 002f 04       		.uleb128 0x4
ARM GAS  C:\Users\claym\AppData\Local\Temp\ccb01mZK.s 			page 135


 6162 0030 0F       		.uleb128 0xf
 6163 0031 00       		.byte	0
 6164 0032 0B       		.uleb128 0xb
 6165 0033 0B       		.uleb128 0xb
 6166 0034 49       		.uleb128 0x49
 6167 0035 13       		.uleb128 0x13
 6168 0036 00       		.byte	0
 6169 0037 00       		.byte	0
 6170 0038 05       		.uleb128 0x5
 6171 0039 24       		.uleb128 0x24
 6172 003a 00       		.byte	0
 6173 003b 0B       		.uleb128 0xb
 6174 003c 0B       		.uleb128 0xb
 6175 003d 3E       		.uleb128 0x3e
 6176 003e 0B       		.uleb128 0xb
 6177 003f 03       		.uleb128 0x3
 6178 0040 0E       		.uleb128 0xe
 6179 0041 00       		.byte	0
 6180 0042 00       		.byte	0
 6181 0043 06       		.uleb128 0x6
 6182 0044 26       		.uleb128 0x26
 6183 0045 00       		.byte	0
 6184 0046 49       		.uleb128 0x49
 6185 0047 13       		.uleb128 0x13
 6186 0048 00       		.byte	0
 6187 0049 00       		.byte	0
 6188 004a 07       		.uleb128 0x7
 6189 004b 35       		.uleb128 0x35
 6190 004c 00       		.byte	0
 6191 004d 49       		.uleb128 0x49
 6192 004e 13       		.uleb128 0x13
 6193 004f 00       		.byte	0
 6194 0050 00       		.byte	0
 6195 0051 08       		.uleb128 0x8
 6196 0052 16       		.uleb128 0x16
 6197 0053 00       		.byte	0
 6198 0054 03       		.uleb128 0x3
 6199 0055 0E       		.uleb128 0xe
 6200 0056 3A       		.uleb128 0x3a
 6201 0057 0B       		.uleb128 0xb
 6202 0058 3B       		.uleb128 0x3b
 6203 0059 0B       		.uleb128 0xb
 6204 005a 49       		.uleb128 0x49
 6205 005b 13       		.uleb128 0x13
 6206 005c 00       		.byte	0
 6207 005d 00       		.byte	0
 6208 005e 09       		.uleb128 0x9
 6209 005f 0D       		.uleb128 0xd
 6210 0060 00       		.byte	0
 6211 0061 03       		.uleb128 0x3
 6212 0062 08       		.uleb128 0x8
 6213 0063 3A       		.uleb128 0x3a
 6214 0064 0B       		.uleb128 0xb
 6215 0065 3B       		.uleb128 0x3b
 6216 0066 0B       		.uleb128 0xb
 6217 0067 49       		.uleb128 0x49
 6218 0068 13       		.uleb128 0x13
ARM GAS  C:\Users\claym\AppData\Local\Temp\ccb01mZK.s 			page 136


 6219 0069 38       		.uleb128 0x38
 6220 006a 0A       		.uleb128 0xa
 6221 006b 00       		.byte	0
 6222 006c 00       		.byte	0
 6223 006d 0A       		.uleb128 0xa
 6224 006e 01       		.uleb128 0x1
 6225 006f 01       		.byte	0x1
 6226 0070 49       		.uleb128 0x49
 6227 0071 13       		.uleb128 0x13
 6228 0072 01       		.uleb128 0x1
 6229 0073 13       		.uleb128 0x13
 6230 0074 00       		.byte	0
 6231 0075 00       		.byte	0
 6232 0076 0B       		.uleb128 0xb
 6233 0077 21       		.uleb128 0x21
 6234 0078 00       		.byte	0
 6235 0079 49       		.uleb128 0x49
 6236 007a 13       		.uleb128 0x13
 6237 007b 2F       		.uleb128 0x2f
 6238 007c 0B       		.uleb128 0xb
 6239 007d 00       		.byte	0
 6240 007e 00       		.byte	0
 6241 007f 0C       		.uleb128 0xc
 6242 0080 24       		.uleb128 0x24
 6243 0081 00       		.byte	0
 6244 0082 0B       		.uleb128 0xb
 6245 0083 0B       		.uleb128 0xb
 6246 0084 3E       		.uleb128 0x3e
 6247 0085 0B       		.uleb128 0xb
 6248 0086 03       		.uleb128 0x3
 6249 0087 08       		.uleb128 0x8
 6250 0088 00       		.byte	0
 6251 0089 00       		.byte	0
 6252 008a 0D       		.uleb128 0xd
 6253 008b 34       		.uleb128 0x34
 6254 008c 00       		.byte	0
 6255 008d 03       		.uleb128 0x3
 6256 008e 0E       		.uleb128 0xe
 6257 008f 3A       		.uleb128 0x3a
 6258 0090 0B       		.uleb128 0xb
 6259 0091 3B       		.uleb128 0x3b
 6260 0092 0B       		.uleb128 0xb
 6261 0093 49       		.uleb128 0x49
 6262 0094 13       		.uleb128 0x13
 6263 0095 3F       		.uleb128 0x3f
 6264 0096 0C       		.uleb128 0xc
 6265 0097 3C       		.uleb128 0x3c
 6266 0098 0C       		.uleb128 0xc
 6267 0099 00       		.byte	0
 6268 009a 00       		.byte	0
 6269 009b 0E       		.uleb128 0xe
 6270 009c 13       		.uleb128 0x13
 6271 009d 00       		.byte	0
 6272 009e 03       		.uleb128 0x3
 6273 009f 0E       		.uleb128 0xe
 6274 00a0 3C       		.uleb128 0x3c
 6275 00a1 0C       		.uleb128 0xc
ARM GAS  C:\Users\claym\AppData\Local\Temp\ccb01mZK.s 			page 137


 6276 00a2 00       		.byte	0
 6277 00a3 00       		.byte	0
 6278 00a4 0F       		.uleb128 0xf
 6279 00a5 16       		.uleb128 0x16
 6280 00a6 00       		.byte	0
 6281 00a7 03       		.uleb128 0x3
 6282 00a8 0E       		.uleb128 0xe
 6283 00a9 3A       		.uleb128 0x3a
 6284 00aa 0B       		.uleb128 0xb
 6285 00ab 3B       		.uleb128 0x3b
 6286 00ac 05       		.uleb128 0x5
 6287 00ad 49       		.uleb128 0x49
 6288 00ae 13       		.uleb128 0x13
 6289 00af 00       		.byte	0
 6290 00b0 00       		.byte	0
 6291 00b1 10       		.uleb128 0x10
 6292 00b2 17       		.uleb128 0x17
 6293 00b3 01       		.byte	0x1
 6294 00b4 0B       		.uleb128 0xb
 6295 00b5 0B       		.uleb128 0xb
 6296 00b6 3A       		.uleb128 0x3a
 6297 00b7 0B       		.uleb128 0xb
 6298 00b8 3B       		.uleb128 0x3b
 6299 00b9 0B       		.uleb128 0xb
 6300 00ba 01       		.uleb128 0x1
 6301 00bb 13       		.uleb128 0x13
 6302 00bc 00       		.byte	0
 6303 00bd 00       		.byte	0
 6304 00be 11       		.uleb128 0x11
 6305 00bf 0D       		.uleb128 0xd
 6306 00c0 00       		.byte	0
 6307 00c1 03       		.uleb128 0x3
 6308 00c2 0E       		.uleb128 0xe
 6309 00c3 3A       		.uleb128 0x3a
 6310 00c4 0B       		.uleb128 0xb
 6311 00c5 3B       		.uleb128 0x3b
 6312 00c6 0B       		.uleb128 0xb
 6313 00c7 49       		.uleb128 0x49
 6314 00c8 13       		.uleb128 0x13
 6315 00c9 00       		.byte	0
 6316 00ca 00       		.byte	0
 6317 00cb 12       		.uleb128 0x12
 6318 00cc 0F       		.uleb128 0xf
 6319 00cd 00       		.byte	0
 6320 00ce 0B       		.uleb128 0xb
 6321 00cf 0B       		.uleb128 0xb
 6322 00d0 00       		.byte	0
 6323 00d1 00       		.byte	0
 6324 00d2 13       		.uleb128 0x13
 6325 00d3 13       		.uleb128 0x13
 6326 00d4 01       		.byte	0x1
 6327 00d5 03       		.uleb128 0x3
 6328 00d6 0E       		.uleb128 0xe
 6329 00d7 0B       		.uleb128 0xb
 6330 00d8 0B       		.uleb128 0xb
 6331 00d9 3A       		.uleb128 0x3a
 6332 00da 0B       		.uleb128 0xb
ARM GAS  C:\Users\claym\AppData\Local\Temp\ccb01mZK.s 			page 138


 6333 00db 3B       		.uleb128 0x3b
 6334 00dc 0B       		.uleb128 0xb
 6335 00dd 01       		.uleb128 0x1
 6336 00de 13       		.uleb128 0x13
 6337 00df 00       		.byte	0
 6338 00e0 00       		.byte	0
 6339 00e1 14       		.uleb128 0x14
 6340 00e2 13       		.uleb128 0x13
 6341 00e3 01       		.byte	0x1
 6342 00e4 03       		.uleb128 0x3
 6343 00e5 0E       		.uleb128 0xe
 6344 00e6 0B       		.uleb128 0xb
 6345 00e7 05       		.uleb128 0x5
 6346 00e8 3A       		.uleb128 0x3a
 6347 00e9 0B       		.uleb128 0xb
 6348 00ea 3B       		.uleb128 0x3b
 6349 00eb 0B       		.uleb128 0xb
 6350 00ec 01       		.uleb128 0x1
 6351 00ed 13       		.uleb128 0x13
 6352 00ee 00       		.byte	0
 6353 00ef 00       		.byte	0
 6354 00f0 15       		.uleb128 0x15
 6355 00f1 15       		.uleb128 0x15
 6356 00f2 00       		.byte	0
 6357 00f3 27       		.uleb128 0x27
 6358 00f4 0C       		.uleb128 0xc
 6359 00f5 00       		.byte	0
 6360 00f6 00       		.byte	0
 6361 00f7 16       		.uleb128 0x16
 6362 00f8 15       		.uleb128 0x15
 6363 00f9 01       		.byte	0x1
 6364 00fa 27       		.uleb128 0x27
 6365 00fb 0C       		.uleb128 0xc
 6366 00fc 49       		.uleb128 0x49
 6367 00fd 13       		.uleb128 0x13
 6368 00fe 01       		.uleb128 0x1
 6369 00ff 13       		.uleb128 0x13
 6370 0100 00       		.byte	0
 6371 0101 00       		.byte	0
 6372 0102 17       		.uleb128 0x17
 6373 0103 05       		.uleb128 0x5
 6374 0104 00       		.byte	0
 6375 0105 49       		.uleb128 0x49
 6376 0106 13       		.uleb128 0x13
 6377 0107 00       		.byte	0
 6378 0108 00       		.byte	0
 6379 0109 18       		.uleb128 0x18
 6380 010a 13       		.uleb128 0x13
 6381 010b 01       		.byte	0x1
 6382 010c 03       		.uleb128 0x3
 6383 010d 0E       		.uleb128 0xe
 6384 010e 0B       		.uleb128 0xb
 6385 010f 05       		.uleb128 0x5
 6386 0110 3A       		.uleb128 0x3a
 6387 0111 0B       		.uleb128 0xb
 6388 0112 3B       		.uleb128 0x3b
 6389 0113 05       		.uleb128 0x5
ARM GAS  C:\Users\claym\AppData\Local\Temp\ccb01mZK.s 			page 139


 6390 0114 01       		.uleb128 0x1
 6391 0115 13       		.uleb128 0x13
 6392 0116 00       		.byte	0
 6393 0117 00       		.byte	0
 6394 0118 19       		.uleb128 0x19
 6395 0119 0D       		.uleb128 0xd
 6396 011a 00       		.byte	0
 6397 011b 03       		.uleb128 0x3
 6398 011c 0E       		.uleb128 0xe
 6399 011d 3A       		.uleb128 0x3a
 6400 011e 0B       		.uleb128 0xb
 6401 011f 3B       		.uleb128 0x3b
 6402 0120 05       		.uleb128 0x5
 6403 0121 49       		.uleb128 0x49
 6404 0122 13       		.uleb128 0x13
 6405 0123 38       		.uleb128 0x38
 6406 0124 0A       		.uleb128 0xa
 6407 0125 00       		.byte	0
 6408 0126 00       		.byte	0
 6409 0127 1A       		.uleb128 0x1a
 6410 0128 13       		.uleb128 0x13
 6411 0129 01       		.byte	0x1
 6412 012a 03       		.uleb128 0x3
 6413 012b 0E       		.uleb128 0xe
 6414 012c 0B       		.uleb128 0xb
 6415 012d 0B       		.uleb128 0xb
 6416 012e 3A       		.uleb128 0x3a
 6417 012f 0B       		.uleb128 0xb
 6418 0130 3B       		.uleb128 0x3b
 6419 0131 05       		.uleb128 0x5
 6420 0132 01       		.uleb128 0x1
 6421 0133 13       		.uleb128 0x13
 6422 0134 00       		.byte	0
 6423 0135 00       		.byte	0
 6424 0136 1B       		.uleb128 0x1b
 6425 0137 13       		.uleb128 0x13
 6426 0138 01       		.byte	0x1
 6427 0139 0B       		.uleb128 0xb
 6428 013a 0B       		.uleb128 0xb
 6429 013b 3A       		.uleb128 0x3a
 6430 013c 0B       		.uleb128 0xb
 6431 013d 3B       		.uleb128 0x3b
 6432 013e 05       		.uleb128 0x5
 6433 013f 01       		.uleb128 0x1
 6434 0140 13       		.uleb128 0x13
 6435 0141 00       		.byte	0
 6436 0142 00       		.byte	0
 6437 0143 1C       		.uleb128 0x1c
 6438 0144 17       		.uleb128 0x17
 6439 0145 01       		.byte	0x1
 6440 0146 0B       		.uleb128 0xb
 6441 0147 0B       		.uleb128 0xb
 6442 0148 3A       		.uleb128 0x3a
 6443 0149 0B       		.uleb128 0xb
 6444 014a 3B       		.uleb128 0x3b
 6445 014b 05       		.uleb128 0x5
 6446 014c 01       		.uleb128 0x1
ARM GAS  C:\Users\claym\AppData\Local\Temp\ccb01mZK.s 			page 140


 6447 014d 13       		.uleb128 0x13
 6448 014e 00       		.byte	0
 6449 014f 00       		.byte	0
 6450 0150 1D       		.uleb128 0x1d
 6451 0151 0D       		.uleb128 0xd
 6452 0152 00       		.byte	0
 6453 0153 03       		.uleb128 0x3
 6454 0154 0E       		.uleb128 0xe
 6455 0155 3A       		.uleb128 0x3a
 6456 0156 0B       		.uleb128 0xb
 6457 0157 3B       		.uleb128 0x3b
 6458 0158 05       		.uleb128 0x5
 6459 0159 49       		.uleb128 0x49
 6460 015a 13       		.uleb128 0x13
 6461 015b 00       		.byte	0
 6462 015c 00       		.byte	0
 6463 015d 1E       		.uleb128 0x1e
 6464 015e 15       		.uleb128 0x15
 6465 015f 01       		.byte	0x1
 6466 0160 27       		.uleb128 0x27
 6467 0161 0C       		.uleb128 0xc
 6468 0162 01       		.uleb128 0x1
 6469 0163 13       		.uleb128 0x13
 6470 0164 00       		.byte	0
 6471 0165 00       		.byte	0
 6472 0166 1F       		.uleb128 0x1f
 6473 0167 34       		.uleb128 0x34
 6474 0168 00       		.byte	0
 6475 0169 03       		.uleb128 0x3
 6476 016a 0E       		.uleb128 0xe
 6477 016b 3A       		.uleb128 0x3a
 6478 016c 0B       		.uleb128 0xb
 6479 016d 3B       		.uleb128 0x3b
 6480 016e 05       		.uleb128 0x5
 6481 016f 49       		.uleb128 0x49
 6482 0170 13       		.uleb128 0x13
 6483 0171 3F       		.uleb128 0x3f
 6484 0172 0C       		.uleb128 0xc
 6485 0173 3C       		.uleb128 0x3c
 6486 0174 0C       		.uleb128 0xc
 6487 0175 00       		.byte	0
 6488 0176 00       		.byte	0
 6489 0177 20       		.uleb128 0x20
 6490 0178 34       		.uleb128 0x34
 6491 0179 00       		.byte	0
 6492 017a 03       		.uleb128 0x3
 6493 017b 0E       		.uleb128 0xe
 6494 017c 3A       		.uleb128 0x3a
 6495 017d 0B       		.uleb128 0xb
 6496 017e 3B       		.uleb128 0x3b
 6497 017f 0B       		.uleb128 0xb
 6498 0180 49       		.uleb128 0x49
 6499 0181 13       		.uleb128 0x13
 6500 0182 02       		.uleb128 0x2
 6501 0183 0A       		.uleb128 0xa
 6502 0184 00       		.byte	0
 6503 0185 00       		.byte	0
ARM GAS  C:\Users\claym\AppData\Local\Temp\ccb01mZK.s 			page 141


 6504 0186 21       		.uleb128 0x21
 6505 0187 21       		.uleb128 0x21
 6506 0188 00       		.byte	0
 6507 0189 49       		.uleb128 0x49
 6508 018a 13       		.uleb128 0x13
 6509 018b 2F       		.uleb128 0x2f
 6510 018c 05       		.uleb128 0x5
 6511 018d 00       		.byte	0
 6512 018e 00       		.byte	0
 6513 018f 22       		.uleb128 0x22
 6514 0190 34       		.uleb128 0x34
 6515 0191 00       		.byte	0
 6516 0192 47       		.uleb128 0x47
 6517 0193 13       		.uleb128 0x13
 6518 0194 3A       		.uleb128 0x3a
 6519 0195 0B       		.uleb128 0xb
 6520 0196 3B       		.uleb128 0x3b
 6521 0197 0B       		.uleb128 0xb
 6522 0198 02       		.uleb128 0x2
 6523 0199 0A       		.uleb128 0xa
 6524 019a 00       		.byte	0
 6525 019b 00       		.byte	0
 6526 019c 23       		.uleb128 0x23
 6527 019d 2E       		.uleb128 0x2e
 6528 019e 01       		.byte	0x1
 6529 019f 3F       		.uleb128 0x3f
 6530 01a0 0C       		.uleb128 0xc
 6531 01a1 03       		.uleb128 0x3
 6532 01a2 0E       		.uleb128 0xe
 6533 01a3 3A       		.uleb128 0x3a
 6534 01a4 0B       		.uleb128 0xb
 6535 01a5 3B       		.uleb128 0x3b
 6536 01a6 05       		.uleb128 0x5
 6537 01a7 27       		.uleb128 0x27
 6538 01a8 0C       		.uleb128 0xc
 6539 01a9 49       		.uleb128 0x49
 6540 01aa 13       		.uleb128 0x13
 6541 01ab 11       		.uleb128 0x11
 6542 01ac 01       		.uleb128 0x1
 6543 01ad 12       		.uleb128 0x12
 6544 01ae 01       		.uleb128 0x1
 6545 01af 40       		.uleb128 0x40
 6546 01b0 06       		.uleb128 0x6
 6547 01b1 9742     		.uleb128 0x2117
 6548 01b3 0C       		.uleb128 0xc
 6549 01b4 01       		.uleb128 0x1
 6550 01b5 13       		.uleb128 0x13
 6551 01b6 00       		.byte	0
 6552 01b7 00       		.byte	0
 6553 01b8 24       		.uleb128 0x24
 6554 01b9 05       		.uleb128 0x5
 6555 01ba 00       		.byte	0
 6556 01bb 03       		.uleb128 0x3
 6557 01bc 0E       		.uleb128 0xe
 6558 01bd 3A       		.uleb128 0x3a
 6559 01be 0B       		.uleb128 0xb
 6560 01bf 3B       		.uleb128 0x3b
ARM GAS  C:\Users\claym\AppData\Local\Temp\ccb01mZK.s 			page 142


 6561 01c0 05       		.uleb128 0x5
 6562 01c1 49       		.uleb128 0x49
 6563 01c2 13       		.uleb128 0x13
 6564 01c3 02       		.uleb128 0x2
 6565 01c4 06       		.uleb128 0x6
 6566 01c5 00       		.byte	0
 6567 01c6 00       		.byte	0
 6568 01c7 25       		.uleb128 0x25
 6569 01c8 05       		.uleb128 0x5
 6570 01c9 00       		.byte	0
 6571 01ca 03       		.uleb128 0x3
 6572 01cb 08       		.uleb128 0x8
 6573 01cc 3A       		.uleb128 0x3a
 6574 01cd 0B       		.uleb128 0xb
 6575 01ce 3B       		.uleb128 0x3b
 6576 01cf 05       		.uleb128 0x5
 6577 01d0 49       		.uleb128 0x49
 6578 01d1 13       		.uleb128 0x13
 6579 01d2 02       		.uleb128 0x2
 6580 01d3 06       		.uleb128 0x6
 6581 01d4 00       		.byte	0
 6582 01d5 00       		.byte	0
 6583 01d6 26       		.uleb128 0x26
 6584 01d7 34       		.uleb128 0x34
 6585 01d8 00       		.byte	0
 6586 01d9 03       		.uleb128 0x3
 6587 01da 0E       		.uleb128 0xe
 6588 01db 3A       		.uleb128 0x3a
 6589 01dc 0B       		.uleb128 0xb
 6590 01dd 3B       		.uleb128 0x3b
 6591 01de 05       		.uleb128 0x5
 6592 01df 49       		.uleb128 0x49
 6593 01e0 13       		.uleb128 0x13
 6594 01e1 02       		.uleb128 0x2
 6595 01e2 06       		.uleb128 0x6
 6596 01e3 00       		.byte	0
 6597 01e4 00       		.byte	0
 6598 01e5 27       		.uleb128 0x27
 6599 01e6 0B       		.uleb128 0xb
 6600 01e7 01       		.byte	0x1
 6601 01e8 11       		.uleb128 0x11
 6602 01e9 01       		.uleb128 0x1
 6603 01ea 12       		.uleb128 0x12
 6604 01eb 01       		.uleb128 0x1
 6605 01ec 01       		.uleb128 0x1
 6606 01ed 13       		.uleb128 0x13
 6607 01ee 00       		.byte	0
 6608 01ef 00       		.byte	0
 6609 01f0 28       		.uleb128 0x28
 6610 01f1 898201   		.uleb128 0x4109
 6611 01f4 01       		.byte	0x1
 6612 01f5 11       		.uleb128 0x11
 6613 01f6 01       		.uleb128 0x1
 6614 01f7 31       		.uleb128 0x31
 6615 01f8 13       		.uleb128 0x13
 6616 01f9 01       		.uleb128 0x1
 6617 01fa 13       		.uleb128 0x13
ARM GAS  C:\Users\claym\AppData\Local\Temp\ccb01mZK.s 			page 143


 6618 01fb 00       		.byte	0
 6619 01fc 00       		.byte	0
 6620 01fd 29       		.uleb128 0x29
 6621 01fe 8A8201   		.uleb128 0x410a
 6622 0201 00       		.byte	0
 6623 0202 02       		.uleb128 0x2
 6624 0203 0A       		.uleb128 0xa
 6625 0204 9142     		.uleb128 0x2111
 6626 0206 0A       		.uleb128 0xa
 6627 0207 00       		.byte	0
 6628 0208 00       		.byte	0
 6629 0209 2A       		.uleb128 0x2a
 6630 020a 898201   		.uleb128 0x4109
 6631 020d 00       		.byte	0
 6632 020e 11       		.uleb128 0x11
 6633 020f 01       		.uleb128 0x1
 6634 0210 31       		.uleb128 0x31
 6635 0211 13       		.uleb128 0x13
 6636 0212 00       		.byte	0
 6637 0213 00       		.byte	0
 6638 0214 2B       		.uleb128 0x2b
 6639 0215 898201   		.uleb128 0x4109
 6640 0218 01       		.byte	0x1
 6641 0219 11       		.uleb128 0x11
 6642 021a 01       		.uleb128 0x1
 6643 021b 31       		.uleb128 0x31
 6644 021c 13       		.uleb128 0x13
 6645 021d 00       		.byte	0
 6646 021e 00       		.byte	0
 6647 021f 2C       		.uleb128 0x2c
 6648 0220 34       		.uleb128 0x34
 6649 0221 00       		.byte	0
 6650 0222 03       		.uleb128 0x3
 6651 0223 08       		.uleb128 0x8
 6652 0224 3A       		.uleb128 0x3a
 6653 0225 0B       		.uleb128 0xb
 6654 0226 3B       		.uleb128 0x3b
 6655 0227 05       		.uleb128 0x5
 6656 0228 49       		.uleb128 0x49
 6657 0229 13       		.uleb128 0x13
 6658 022a 02       		.uleb128 0x2
 6659 022b 0A       		.uleb128 0xa
 6660 022c 00       		.byte	0
 6661 022d 00       		.byte	0
 6662 022e 2D       		.uleb128 0x2d
 6663 022f 34       		.uleb128 0x34
 6664 0230 00       		.byte	0
 6665 0231 03       		.uleb128 0x3
 6666 0232 08       		.uleb128 0x8
 6667 0233 3A       		.uleb128 0x3a
 6668 0234 0B       		.uleb128 0xb
 6669 0235 3B       		.uleb128 0x3b
 6670 0236 05       		.uleb128 0x5
 6671 0237 49       		.uleb128 0x49
 6672 0238 13       		.uleb128 0x13
 6673 0239 02       		.uleb128 0x2
 6674 023a 06       		.uleb128 0x6
ARM GAS  C:\Users\claym\AppData\Local\Temp\ccb01mZK.s 			page 144


 6675 023b 00       		.byte	0
 6676 023c 00       		.byte	0
 6677 023d 2E       		.uleb128 0x2e
 6678 023e 0B       		.uleb128 0xb
 6679 023f 01       		.byte	0x1
 6680 0240 55       		.uleb128 0x55
 6681 0241 06       		.uleb128 0x6
 6682 0242 01       		.uleb128 0x1
 6683 0243 13       		.uleb128 0x13
 6684 0244 00       		.byte	0
 6685 0245 00       		.byte	0
 6686 0246 2F       		.uleb128 0x2f
 6687 0247 2E       		.uleb128 0x2e
 6688 0248 01       		.byte	0x1
 6689 0249 3F       		.uleb128 0x3f
 6690 024a 0C       		.uleb128 0xc
 6691 024b 03       		.uleb128 0x3
 6692 024c 0E       		.uleb128 0xe
 6693 024d 3A       		.uleb128 0x3a
 6694 024e 0B       		.uleb128 0xb
 6695 024f 3B       		.uleb128 0x3b
 6696 0250 05       		.uleb128 0x5
 6697 0251 27       		.uleb128 0x27
 6698 0252 0C       		.uleb128 0xc
 6699 0253 11       		.uleb128 0x11
 6700 0254 01       		.uleb128 0x1
 6701 0255 12       		.uleb128 0x12
 6702 0256 01       		.uleb128 0x1
 6703 0257 40       		.uleb128 0x40
 6704 0258 06       		.uleb128 0x6
 6705 0259 9742     		.uleb128 0x2117
 6706 025b 0C       		.uleb128 0xc
 6707 025c 01       		.uleb128 0x1
 6708 025d 13       		.uleb128 0x13
 6709 025e 00       		.byte	0
 6710 025f 00       		.byte	0
 6711 0260 30       		.uleb128 0x30
 6712 0261 05       		.uleb128 0x5
 6713 0262 00       		.byte	0
 6714 0263 03       		.uleb128 0x3
 6715 0264 0E       		.uleb128 0xe
 6716 0265 3A       		.uleb128 0x3a
 6717 0266 0B       		.uleb128 0xb
 6718 0267 3B       		.uleb128 0x3b
 6719 0268 05       		.uleb128 0x5
 6720 0269 49       		.uleb128 0x49
 6721 026a 13       		.uleb128 0x13
 6722 026b 02       		.uleb128 0x2
 6723 026c 0A       		.uleb128 0xa
 6724 026d 00       		.byte	0
 6725 026e 00       		.byte	0
 6726 026f 31       		.uleb128 0x31
 6727 0270 2E       		.uleb128 0x2e
 6728 0271 01       		.byte	0x1
 6729 0272 3F       		.uleb128 0x3f
 6730 0273 0C       		.uleb128 0xc
 6731 0274 03       		.uleb128 0x3
ARM GAS  C:\Users\claym\AppData\Local\Temp\ccb01mZK.s 			page 145


 6732 0275 0E       		.uleb128 0xe
 6733 0276 3A       		.uleb128 0x3a
 6734 0277 0B       		.uleb128 0xb
 6735 0278 3B       		.uleb128 0x3b
 6736 0279 05       		.uleb128 0x5
 6737 027a 27       		.uleb128 0x27
 6738 027b 0C       		.uleb128 0xc
 6739 027c 49       		.uleb128 0x49
 6740 027d 13       		.uleb128 0x13
 6741 027e 11       		.uleb128 0x11
 6742 027f 01       		.uleb128 0x1
 6743 0280 12       		.uleb128 0x12
 6744 0281 01       		.uleb128 0x1
 6745 0282 40       		.uleb128 0x40
 6746 0283 0A       		.uleb128 0xa
 6747 0284 9742     		.uleb128 0x2117
 6748 0286 0C       		.uleb128 0xc
 6749 0287 01       		.uleb128 0x1
 6750 0288 13       		.uleb128 0x13
 6751 0289 00       		.byte	0
 6752 028a 00       		.byte	0
 6753 028b 32       		.uleb128 0x32
 6754 028c 34       		.uleb128 0x34
 6755 028d 00       		.byte	0
 6756 028e 03       		.uleb128 0x3
 6757 028f 0E       		.uleb128 0xe
 6758 0290 3A       		.uleb128 0x3a
 6759 0291 0B       		.uleb128 0xb
 6760 0292 3B       		.uleb128 0x3b
 6761 0293 05       		.uleb128 0x5
 6762 0294 49       		.uleb128 0x49
 6763 0295 13       		.uleb128 0x13
 6764 0296 02       		.uleb128 0x2
 6765 0297 0A       		.uleb128 0xa
 6766 0298 00       		.byte	0
 6767 0299 00       		.byte	0
 6768 029a 33       		.uleb128 0x33
 6769 029b 26       		.uleb128 0x26
 6770 029c 00       		.byte	0
 6771 029d 00       		.byte	0
 6772 029e 00       		.byte	0
 6773 029f 34       		.uleb128 0x34
 6774 02a0 0B       		.uleb128 0xb
 6775 02a1 01       		.byte	0x1
 6776 02a2 11       		.uleb128 0x11
 6777 02a3 01       		.uleb128 0x1
 6778 02a4 12       		.uleb128 0x12
 6779 02a5 01       		.uleb128 0x1
 6780 02a6 00       		.byte	0
 6781 02a7 00       		.byte	0
 6782 02a8 35       		.uleb128 0x35
 6783 02a9 2E       		.uleb128 0x2e
 6784 02aa 01       		.byte	0x1
 6785 02ab 03       		.uleb128 0x3
 6786 02ac 0E       		.uleb128 0xe
 6787 02ad 3A       		.uleb128 0x3a
 6788 02ae 0B       		.uleb128 0xb
ARM GAS  C:\Users\claym\AppData\Local\Temp\ccb01mZK.s 			page 146


 6789 02af 3B       		.uleb128 0x3b
 6790 02b0 05       		.uleb128 0x5
 6791 02b1 27       		.uleb128 0x27
 6792 02b2 0C       		.uleb128 0xc
 6793 02b3 49       		.uleb128 0x49
 6794 02b4 13       		.uleb128 0x13
 6795 02b5 11       		.uleb128 0x11
 6796 02b6 01       		.uleb128 0x1
 6797 02b7 12       		.uleb128 0x12
 6798 02b8 01       		.uleb128 0x1
 6799 02b9 40       		.uleb128 0x40
 6800 02ba 0A       		.uleb128 0xa
 6801 02bb 9742     		.uleb128 0x2117
 6802 02bd 0C       		.uleb128 0xc
 6803 02be 01       		.uleb128 0x1
 6804 02bf 13       		.uleb128 0x13
 6805 02c0 00       		.byte	0
 6806 02c1 00       		.byte	0
 6807 02c2 36       		.uleb128 0x36
 6808 02c3 2E       		.uleb128 0x2e
 6809 02c4 01       		.byte	0x1
 6810 02c5 03       		.uleb128 0x3
 6811 02c6 0E       		.uleb128 0xe
 6812 02c7 3A       		.uleb128 0x3a
 6813 02c8 0B       		.uleb128 0xb
 6814 02c9 3B       		.uleb128 0x3b
 6815 02ca 05       		.uleb128 0x5
 6816 02cb 27       		.uleb128 0x27
 6817 02cc 0C       		.uleb128 0xc
 6818 02cd 20       		.uleb128 0x20
 6819 02ce 0B       		.uleb128 0xb
 6820 02cf 01       		.uleb128 0x1
 6821 02d0 13       		.uleb128 0x13
 6822 02d1 00       		.byte	0
 6823 02d2 00       		.byte	0
 6824 02d3 37       		.uleb128 0x37
 6825 02d4 05       		.uleb128 0x5
 6826 02d5 00       		.byte	0
 6827 02d6 03       		.uleb128 0x3
 6828 02d7 0E       		.uleb128 0xe
 6829 02d8 3A       		.uleb128 0x3a
 6830 02d9 0B       		.uleb128 0xb
 6831 02da 3B       		.uleb128 0x3b
 6832 02db 05       		.uleb128 0x5
 6833 02dc 49       		.uleb128 0x49
 6834 02dd 13       		.uleb128 0x13
 6835 02de 00       		.byte	0
 6836 02df 00       		.byte	0
 6837 02e0 38       		.uleb128 0x38
 6838 02e1 34       		.uleb128 0x34
 6839 02e2 00       		.byte	0
 6840 02e3 03       		.uleb128 0x3
 6841 02e4 08       		.uleb128 0x8
 6842 02e5 3A       		.uleb128 0x3a
 6843 02e6 0B       		.uleb128 0xb
 6844 02e7 3B       		.uleb128 0x3b
 6845 02e8 05       		.uleb128 0x5
ARM GAS  C:\Users\claym\AppData\Local\Temp\ccb01mZK.s 			page 147


 6846 02e9 49       		.uleb128 0x49
 6847 02ea 13       		.uleb128 0x13
 6848 02eb 00       		.byte	0
 6849 02ec 00       		.byte	0
 6850 02ed 39       		.uleb128 0x39
 6851 02ee 2E       		.uleb128 0x2e
 6852 02ef 01       		.byte	0x1
 6853 02f0 03       		.uleb128 0x3
 6854 02f1 0E       		.uleb128 0xe
 6855 02f2 3A       		.uleb128 0x3a
 6856 02f3 0B       		.uleb128 0xb
 6857 02f4 3B       		.uleb128 0x3b
 6858 02f5 05       		.uleb128 0x5
 6859 02f6 27       		.uleb128 0x27
 6860 02f7 0C       		.uleb128 0xc
 6861 02f8 11       		.uleb128 0x11
 6862 02f9 01       		.uleb128 0x1
 6863 02fa 12       		.uleb128 0x12
 6864 02fb 01       		.uleb128 0x1
 6865 02fc 40       		.uleb128 0x40
 6866 02fd 06       		.uleb128 0x6
 6867 02fe 9742     		.uleb128 0x2117
 6868 0300 0C       		.uleb128 0xc
 6869 0301 01       		.uleb128 0x1
 6870 0302 13       		.uleb128 0x13
 6871 0303 00       		.byte	0
 6872 0304 00       		.byte	0
 6873 0305 3A       		.uleb128 0x3a
 6874 0306 2E       		.uleb128 0x2e
 6875 0307 01       		.byte	0x1
 6876 0308 03       		.uleb128 0x3
 6877 0309 0E       		.uleb128 0xe
 6878 030a 3A       		.uleb128 0x3a
 6879 030b 0B       		.uleb128 0xb
 6880 030c 3B       		.uleb128 0x3b
 6881 030d 0B       		.uleb128 0xb
 6882 030e 27       		.uleb128 0x27
 6883 030f 0C       		.uleb128 0xc
 6884 0310 49       		.uleb128 0x49
 6885 0311 13       		.uleb128 0x13
 6886 0312 11       		.uleb128 0x11
 6887 0313 01       		.uleb128 0x1
 6888 0314 12       		.uleb128 0x12
 6889 0315 01       		.uleb128 0x1
 6890 0316 40       		.uleb128 0x40
 6891 0317 06       		.uleb128 0x6
 6892 0318 9742     		.uleb128 0x2117
 6893 031a 0C       		.uleb128 0xc
 6894 031b 01       		.uleb128 0x1
 6895 031c 13       		.uleb128 0x13
 6896 031d 00       		.byte	0
 6897 031e 00       		.byte	0
 6898 031f 3B       		.uleb128 0x3b
 6899 0320 05       		.uleb128 0x5
 6900 0321 00       		.byte	0
 6901 0322 03       		.uleb128 0x3
 6902 0323 0E       		.uleb128 0xe
ARM GAS  C:\Users\claym\AppData\Local\Temp\ccb01mZK.s 			page 148


 6903 0324 3A       		.uleb128 0x3a
 6904 0325 0B       		.uleb128 0xb
 6905 0326 3B       		.uleb128 0x3b
 6906 0327 0B       		.uleb128 0xb
 6907 0328 49       		.uleb128 0x49
 6908 0329 13       		.uleb128 0x13
 6909 032a 02       		.uleb128 0x2
 6910 032b 06       		.uleb128 0x6
 6911 032c 00       		.byte	0
 6912 032d 00       		.byte	0
 6913 032e 3C       		.uleb128 0x3c
 6914 032f 34       		.uleb128 0x34
 6915 0330 00       		.byte	0
 6916 0331 03       		.uleb128 0x3
 6917 0332 0E       		.uleb128 0xe
 6918 0333 3A       		.uleb128 0x3a
 6919 0334 0B       		.uleb128 0xb
 6920 0335 3B       		.uleb128 0x3b
 6921 0336 0B       		.uleb128 0xb
 6922 0337 49       		.uleb128 0x49
 6923 0338 13       		.uleb128 0x13
 6924 0339 02       		.uleb128 0x2
 6925 033a 06       		.uleb128 0x6
 6926 033b 00       		.byte	0
 6927 033c 00       		.byte	0
 6928 033d 3D       		.uleb128 0x3d
 6929 033e 2E       		.uleb128 0x2e
 6930 033f 01       		.byte	0x1
 6931 0340 03       		.uleb128 0x3
 6932 0341 0E       		.uleb128 0xe
 6933 0342 3A       		.uleb128 0x3a
 6934 0343 0B       		.uleb128 0xb
 6935 0344 3B       		.uleb128 0x3b
 6936 0345 0B       		.uleb128 0xb
 6937 0346 27       		.uleb128 0x27
 6938 0347 0C       		.uleb128 0xc
 6939 0348 11       		.uleb128 0x11
 6940 0349 01       		.uleb128 0x1
 6941 034a 12       		.uleb128 0x12
 6942 034b 01       		.uleb128 0x1
 6943 034c 40       		.uleb128 0x40
 6944 034d 06       		.uleb128 0x6
 6945 034e 9742     		.uleb128 0x2117
 6946 0350 0C       		.uleb128 0xc
 6947 0351 01       		.uleb128 0x1
 6948 0352 13       		.uleb128 0x13
 6949 0353 00       		.byte	0
 6950 0354 00       		.byte	0
 6951 0355 3E       		.uleb128 0x3e
 6952 0356 34       		.uleb128 0x34
 6953 0357 00       		.byte	0
 6954 0358 03       		.uleb128 0x3
 6955 0359 08       		.uleb128 0x8
 6956 035a 3A       		.uleb128 0x3a
 6957 035b 0B       		.uleb128 0xb
 6958 035c 3B       		.uleb128 0x3b
 6959 035d 0B       		.uleb128 0xb
ARM GAS  C:\Users\claym\AppData\Local\Temp\ccb01mZK.s 			page 149


 6960 035e 49       		.uleb128 0x49
 6961 035f 13       		.uleb128 0x13
 6962 0360 02       		.uleb128 0x2
 6963 0361 0A       		.uleb128 0xa
 6964 0362 00       		.byte	0
 6965 0363 00       		.byte	0
 6966 0364 3F       		.uleb128 0x3f
 6967 0365 2E       		.uleb128 0x2e
 6968 0366 01       		.byte	0x1
 6969 0367 31       		.uleb128 0x31
 6970 0368 13       		.uleb128 0x13
 6971 0369 11       		.uleb128 0x11
 6972 036a 01       		.uleb128 0x1
 6973 036b 12       		.uleb128 0x12
 6974 036c 01       		.uleb128 0x1
 6975 036d 40       		.uleb128 0x40
 6976 036e 06       		.uleb128 0x6
 6977 036f 9742     		.uleb128 0x2117
 6978 0371 0C       		.uleb128 0xc
 6979 0372 01       		.uleb128 0x1
 6980 0373 13       		.uleb128 0x13
 6981 0374 00       		.byte	0
 6982 0375 00       		.byte	0
 6983 0376 40       		.uleb128 0x40
 6984 0377 05       		.uleb128 0x5
 6985 0378 00       		.byte	0
 6986 0379 31       		.uleb128 0x31
 6987 037a 13       		.uleb128 0x13
 6988 037b 02       		.uleb128 0x2
 6989 037c 06       		.uleb128 0x6
 6990 037d 00       		.byte	0
 6991 037e 00       		.byte	0
 6992 037f 41       		.uleb128 0x41
 6993 0380 34       		.uleb128 0x34
 6994 0381 00       		.byte	0
 6995 0382 31       		.uleb128 0x31
 6996 0383 13       		.uleb128 0x13
 6997 0384 02       		.uleb128 0x2
 6998 0385 0A       		.uleb128 0xa
 6999 0386 00       		.byte	0
 7000 0387 00       		.byte	0
 7001 0388 42       		.uleb128 0x42
 7002 0389 2E       		.uleb128 0x2e
 7003 038a 00       		.byte	0
 7004 038b 3F       		.uleb128 0x3f
 7005 038c 0C       		.uleb128 0xc
 7006 038d 3C       		.uleb128 0x3c
 7007 038e 0C       		.uleb128 0xc
 7008 038f 8740     		.uleb128 0x2007
 7009 0391 0E       		.uleb128 0xe
 7010 0392 03       		.uleb128 0x3
 7011 0393 0E       		.uleb128 0xe
 7012 0394 3A       		.uleb128 0x3a
 7013 0395 0B       		.uleb128 0xb
 7014 0396 3B       		.uleb128 0x3b
 7015 0397 0B       		.uleb128 0xb
 7016 0398 00       		.byte	0
ARM GAS  C:\Users\claym\AppData\Local\Temp\ccb01mZK.s 			page 150


 7017 0399 00       		.byte	0
 7018 039a 43       		.uleb128 0x43
 7019 039b 2E       		.uleb128 0x2e
 7020 039c 00       		.byte	0
 7021 039d 3F       		.uleb128 0x3f
 7022 039e 0C       		.uleb128 0xc
 7023 039f 3C       		.uleb128 0x3c
 7024 03a0 0C       		.uleb128 0xc
 7025 03a1 8740     		.uleb128 0x2007
 7026 03a3 0E       		.uleb128 0xe
 7027 03a4 03       		.uleb128 0x3
 7028 03a5 0E       		.uleb128 0xe
 7029 03a6 3A       		.uleb128 0x3a
 7030 03a7 0B       		.uleb128 0xb
 7031 03a8 3B       		.uleb128 0x3b
 7032 03a9 0B       		.uleb128 0xb
 7033 03aa 8740     		.uleb128 0x2007
 7034 03ac 0E       		.uleb128 0xe
 7035 03ad 00       		.byte	0
 7036 03ae 00       		.byte	0
 7037 03af 00       		.byte	0
 7038              		.section	.debug_loc,"",%progbits
 7039              	.Ldebug_loc0:
 7040              	.LLST115:
 7041 0000 7C060000 		.4byte	.LFB23-.Ltext0
 7042 0004 7E060000 		.4byte	.LCFI23-.Ltext0
 7043 0008 0200     		.2byte	0x2
 7044 000a 7D       		.byte	0x7d
 7045 000b 00       		.sleb128 0
 7046 000c 7E060000 		.4byte	.LCFI23-.Ltext0
 7047 0010 1C070000 		.4byte	.LFE23-.Ltext0
 7048 0014 0200     		.2byte	0x2
 7049 0016 7D       		.byte	0x7d
 7050 0017 20       		.sleb128 32
 7051 0018 00000000 		.4byte	0
 7052 001c 00000000 		.4byte	0
 7053              	.LLST116:
 7054 0020 7C060000 		.4byte	.LVL246-.Ltext0
 7055 0024 8D060000 		.4byte	.LVL247-1-.Ltext0
 7056 0028 0100     		.2byte	0x1
 7057 002a 50       		.byte	0x50
 7058 002b 8D060000 		.4byte	.LVL247-1-.Ltext0
 7059 002f 1C070000 		.4byte	.LFE23-.Ltext0
 7060 0033 0400     		.2byte	0x4
 7061 0035 F3       		.byte	0xf3
 7062 0036 01       		.uleb128 0x1
 7063 0037 50       		.byte	0x50
 7064 0038 9F       		.byte	0x9f
 7065 0039 00000000 		.4byte	0
 7066 003d 00000000 		.4byte	0
 7067              	.LLST117:
 7068 0041 7C060000 		.4byte	.LVL246-.Ltext0
 7069 0045 8D060000 		.4byte	.LVL247-1-.Ltext0
 7070 0049 0100     		.2byte	0x1
 7071 004b 51       		.byte	0x51
 7072 004c 8D060000 		.4byte	.LVL247-1-.Ltext0
 7073 0050 08070000 		.4byte	.LVL266-.Ltext0
ARM GAS  C:\Users\claym\AppData\Local\Temp\ccb01mZK.s 			page 151


 7074 0054 0100     		.2byte	0x1
 7075 0056 56       		.byte	0x56
 7076 0057 08070000 		.4byte	.LVL266-.Ltext0
 7077 005b 0A070000 		.4byte	.LVL267-.Ltext0
 7078 005f 0400     		.2byte	0x4
 7079 0061 F3       		.byte	0xf3
 7080 0062 01       		.uleb128 0x1
 7081 0063 51       		.byte	0x51
 7082 0064 9F       		.byte	0x9f
 7083 0065 0A070000 		.4byte	.LVL267-.Ltext0
 7084 0069 1C070000 		.4byte	.LFE23-.Ltext0
 7085 006d 0100     		.2byte	0x1
 7086 006f 56       		.byte	0x56
 7087 0070 00000000 		.4byte	0
 7088 0074 00000000 		.4byte	0
 7089              	.LLST118:
 7090 0078 F8060000 		.4byte	.LVL262-.Ltext0
 7091 007c FC060000 		.4byte	.LVL263-.Ltext0
 7092 0080 0100     		.2byte	0x1
 7093 0082 50       		.byte	0x50
 7094 0083 FC060000 		.4byte	.LVL263-.Ltext0
 7095 0087 06070000 		.4byte	.LVL265-.Ltext0
 7096 008b 0100     		.2byte	0x1
 7097 008d 54       		.byte	0x54
 7098 008e 0E070000 		.4byte	.LVL268-.Ltext0
 7099 0092 1C070000 		.4byte	.LFE23-.Ltext0
 7100 0096 0300     		.2byte	0x3
 7101 0098 09       		.byte	0x9
 7102 0099 FF       		.byte	0xff
 7103 009a 9F       		.byte	0x9f
 7104 009b 00000000 		.4byte	0
 7105 009f 00000000 		.4byte	0
 7106              	.LLST119:
 7107 00a3 9A060000 		.4byte	.LVL250-.Ltext0
 7108 00a7 A6060000 		.4byte	.LVL251-.Ltext0
 7109 00ab 0100     		.2byte	0x1
 7110 00ad 50       		.byte	0x50
 7111 00ae A6060000 		.4byte	.LVL251-.Ltext0
 7112 00b2 06070000 		.4byte	.LVL265-.Ltext0
 7113 00b6 0100     		.2byte	0x1
 7114 00b8 55       		.byte	0x55
 7115 00b9 00000000 		.4byte	0
 7116 00bd 00000000 		.4byte	0
 7117              	.LLST120:
 7118 00c1 B2060000 		.4byte	.LVL254-.Ltext0
 7119 00c5 D0060000 		.4byte	.LVL255-.Ltext0
 7120 00c9 0100     		.2byte	0x1
 7121 00cb 50       		.byte	0x50
 7122 00cc D0060000 		.4byte	.LVL255-.Ltext0
 7123 00d0 D6060000 		.4byte	.LVL257-.Ltext0
 7124 00d4 0200     		.2byte	0x2
 7125 00d6 7D       		.byte	0x7d
 7126 00d7 00       		.sleb128 0
 7127 00d8 D6060000 		.4byte	.LVL257-.Ltext0
 7128 00dc DE060000 		.4byte	.LVL258-.Ltext0
 7129 00e0 0100     		.2byte	0x1
 7130 00e2 50       		.byte	0x50
ARM GAS  C:\Users\claym\AppData\Local\Temp\ccb01mZK.s 			page 152


 7131 00e3 DE060000 		.4byte	.LVL258-.Ltext0
 7132 00e7 06070000 		.4byte	.LVL265-.Ltext0
 7133 00eb 0200     		.2byte	0x2
 7134 00ed 7D       		.byte	0x7d
 7135 00ee 00       		.sleb128 0
 7136 00ef 00000000 		.4byte	0
 7137 00f3 00000000 		.4byte	0
 7138              	.LLST121:
 7139 00f7 92060000 		.4byte	.LVL248-.Ltext0
 7140 00fb A6060000 		.4byte	.LVL251-.Ltext0
 7141 00ff 0600     		.2byte	0x6
 7142 0101 03       		.byte	0x3
 7143 0102 18000000 		.4byte	_SEGGER_RTT+24
 7144 0106 9F       		.byte	0x9f
 7145 0107 A6060000 		.4byte	.LVL251-.Ltext0
 7146 010b AB060000 		.4byte	.LVL253-1-.Ltext0
 7147 010f 0100     		.2byte	0x1
 7148 0111 50       		.byte	0x50
 7149 0112 AB060000 		.4byte	.LVL253-1-.Ltext0
 7150 0116 F0060000 		.4byte	.LVL260-.Ltext0
 7151 011a 0600     		.2byte	0x6
 7152 011c 03       		.byte	0x3
 7153 011d 18000000 		.4byte	_SEGGER_RTT+24
 7154 0121 9F       		.byte	0x9f
 7155 0122 F0060000 		.4byte	.LVL260-.Ltext0
 7156 0126 F3060000 		.4byte	.LVL261-1-.Ltext0
 7157 012a 0100     		.2byte	0x1
 7158 012c 50       		.byte	0x50
 7159 012d F3060000 		.4byte	.LVL261-1-.Ltext0
 7160 0131 06070000 		.4byte	.LVL265-.Ltext0
 7161 0135 0600     		.2byte	0x6
 7162 0137 03       		.byte	0x3
 7163 0138 18000000 		.4byte	_SEGGER_RTT+24
 7164 013c 9F       		.byte	0x9f
 7165 013d 00000000 		.4byte	0
 7166 0141 00000000 		.4byte	0
 7167              	.LLST122:
 7168 0145 A8060000 		.4byte	.LVL252-.Ltext0
 7169 0149 AB060000 		.4byte	.LVL253-1-.Ltext0
 7170 014d 0100     		.2byte	0x1
 7171 014f 53       		.byte	0x53
 7172 0150 AB060000 		.4byte	.LVL253-1-.Ltext0
 7173 0154 06070000 		.4byte	.LVL265-.Ltext0
 7174 0158 0200     		.2byte	0x2
 7175 015a 91       		.byte	0x91
 7176 015b 64       		.sleb128 -28
 7177 015c 00000000 		.4byte	0
 7178 0160 00000000 		.4byte	0
 7179              	.LLST109:
 7180 0164 F8050000 		.4byte	.LFB22-.Ltext0
 7181 0168 FA050000 		.4byte	.LCFI22-.Ltext0
 7182 016c 0200     		.2byte	0x2
 7183 016e 7D       		.byte	0x7d
 7184 016f 00       		.sleb128 0
 7185 0170 FA050000 		.4byte	.LCFI22-.Ltext0
 7186 0174 7C060000 		.4byte	.LFE22-.Ltext0
 7187 0178 0200     		.2byte	0x2
ARM GAS  C:\Users\claym\AppData\Local\Temp\ccb01mZK.s 			page 153


 7188 017a 7D       		.byte	0x7d
 7189 017b 20       		.sleb128 32
 7190 017c 00000000 		.4byte	0
 7191 0180 00000000 		.4byte	0
 7192              	.LLST110:
 7193 0184 F8050000 		.4byte	.LVL230-.Ltext0
 7194 0188 07060000 		.4byte	.LVL231-1-.Ltext0
 7195 018c 0100     		.2byte	0x1
 7196 018e 50       		.byte	0x50
 7197 018f 07060000 		.4byte	.LVL231-1-.Ltext0
 7198 0193 7C060000 		.4byte	.LFE22-.Ltext0
 7199 0197 0400     		.2byte	0x4
 7200 0199 F3       		.byte	0xf3
 7201 019a 01       		.uleb128 0x1
 7202 019b 50       		.byte	0x50
 7203 019c 9F       		.byte	0x9f
 7204 019d 00000000 		.4byte	0
 7205 01a1 00000000 		.4byte	0
 7206              	.LLST111:
 7207 01a5 18060000 		.4byte	.LVL232-.Ltext0
 7208 01a9 28060000 		.4byte	.LVL234-.Ltext0
 7209 01ad 0600     		.2byte	0x6
 7210 01af 03       		.byte	0x3
 7211 01b0 18000000 		.4byte	_SEGGER_RTT+24
 7212 01b4 9F       		.byte	0x9f
 7213 01b5 28060000 		.4byte	.LVL234-.Ltext0
 7214 01b9 42060000 		.4byte	.LVL237-.Ltext0
 7215 01bd 0100     		.2byte	0x1
 7216 01bf 57       		.byte	0x57
 7217 01c0 44060000 		.4byte	.LVL238-.Ltext0
 7218 01c4 66060000 		.4byte	.LVL244-.Ltext0
 7219 01c8 0100     		.2byte	0x1
 7220 01ca 57       		.byte	0x57
 7221 01cb 00000000 		.4byte	0
 7222 01cf 00000000 		.4byte	0
 7223              	.LLST112:
 7224 01d3 4A060000 		.4byte	.LVL239-.Ltext0
 7225 01d7 58060000 		.4byte	.LVL240-.Ltext0
 7226 01db 0100     		.2byte	0x1
 7227 01dd 50       		.byte	0x50
 7228 01de 60060000 		.4byte	.LVL242-.Ltext0
 7229 01e2 62060000 		.4byte	.LVL243-.Ltext0
 7230 01e6 0100     		.2byte	0x1
 7231 01e8 50       		.byte	0x50
 7232 01e9 00000000 		.4byte	0
 7233 01ed 00000000 		.4byte	0
 7234              	.LLST113:
 7235 01f1 08060000 		.4byte	.LVL231-.Ltext0
 7236 01f5 3E060000 		.4byte	.LVL236-.Ltext0
 7237 01f9 0200     		.2byte	0x2
 7238 01fb 30       		.byte	0x30
 7239 01fc 9F       		.byte	0x9f
 7240 01fd 3E060000 		.4byte	.LVL236-.Ltext0
 7241 0201 42060000 		.4byte	.LVL237-.Ltext0
 7242 0205 0100     		.2byte	0x1
 7243 0207 50       		.byte	0x50
 7244 0208 44060000 		.4byte	.LVL238-.Ltext0
ARM GAS  C:\Users\claym\AppData\Local\Temp\ccb01mZK.s 			page 154


 7245 020c 6A060000 		.4byte	.LVL245-.Ltext0
 7246 0210 0200     		.2byte	0x2
 7247 0212 30       		.byte	0x30
 7248 0213 9F       		.byte	0x9f
 7249 0214 6A060000 		.4byte	.LVL245-.Ltext0
 7250 0218 7C060000 		.4byte	.LFE22-.Ltext0
 7251 021c 0300     		.2byte	0x3
 7252 021e 09       		.byte	0x9
 7253 021f FF       		.byte	0xff
 7254 0220 9F       		.byte	0x9f
 7255 0221 00000000 		.4byte	0
 7256 0225 00000000 		.4byte	0
 7257              	.LLST114:
 7258 0229 22060000 		.4byte	.LVL233-.Ltext0
 7259 022d 42060000 		.4byte	.LVL237-.Ltext0
 7260 0231 0100     		.2byte	0x1
 7261 0233 56       		.byte	0x56
 7262 0234 44060000 		.4byte	.LVL238-.Ltext0
 7263 0238 66060000 		.4byte	.LVL244-.Ltext0
 7264 023c 0100     		.2byte	0x1
 7265 023e 56       		.byte	0x56
 7266 023f 00000000 		.4byte	0
 7267 0243 00000000 		.4byte	0
 7268              	.LLST108:
 7269 0247 E4050000 		.4byte	.LFB21-.Ltext0
 7270 024b E8050000 		.4byte	.LCFI21-.Ltext0
 7271 024f 0200     		.2byte	0x2
 7272 0251 7D       		.byte	0x7d
 7273 0252 00       		.sleb128 0
 7274 0253 E8050000 		.4byte	.LCFI21-.Ltext0
 7275 0257 F8050000 		.4byte	.LFE21-.Ltext0
 7276 025b 0200     		.2byte	0x2
 7277 025d 7D       		.byte	0x7d
 7278 025e 08       		.sleb128 8
 7279 025f 00000000 		.4byte	0
 7280 0263 00000000 		.4byte	0
 7281              	.LLST103:
 7282 0267 A8050000 		.4byte	.LFB20-.Ltext0
 7283 026b AA050000 		.4byte	.LCFI20-.Ltext0
 7284 026f 0200     		.2byte	0x2
 7285 0271 7D       		.byte	0x7d
 7286 0272 00       		.sleb128 0
 7287 0273 AA050000 		.4byte	.LCFI20-.Ltext0
 7288 0277 E4050000 		.4byte	.LFE20-.Ltext0
 7289 027b 0200     		.2byte	0x2
 7290 027d 7D       		.byte	0x7d
 7291 027e 10       		.sleb128 16
 7292 027f 00000000 		.4byte	0
 7293 0283 00000000 		.4byte	0
 7294              	.LLST104:
 7295 0287 A8050000 		.4byte	.LVL220-.Ltext0
 7296 028b B9050000 		.4byte	.LVL221-1-.Ltext0
 7297 028f 0100     		.2byte	0x1
 7298 0291 50       		.byte	0x50
 7299 0292 B9050000 		.4byte	.LVL221-1-.Ltext0
 7300 0296 D8050000 		.4byte	.LVL226-.Ltext0
 7301 029a 0100     		.2byte	0x1
ARM GAS  C:\Users\claym\AppData\Local\Temp\ccb01mZK.s 			page 155


 7302 029c 56       		.byte	0x56
 7303 029d D8050000 		.4byte	.LVL226-.Ltext0
 7304 02a1 DA050000 		.4byte	.LVL227-.Ltext0
 7305 02a5 0400     		.2byte	0x4
 7306 02a7 F3       		.byte	0xf3
 7307 02a8 01       		.uleb128 0x1
 7308 02a9 50       		.byte	0x50
 7309 02aa 9F       		.byte	0x9f
 7310 02ab DA050000 		.4byte	.LVL227-.Ltext0
 7311 02af E4050000 		.4byte	.LFE20-.Ltext0
 7312 02b3 0100     		.2byte	0x1
 7313 02b5 56       		.byte	0x56
 7314 02b6 00000000 		.4byte	0
 7315 02ba 00000000 		.4byte	0
 7316              	.LLST105:
 7317 02be A8050000 		.4byte	.LVL220-.Ltext0
 7318 02c2 B9050000 		.4byte	.LVL221-1-.Ltext0
 7319 02c6 0100     		.2byte	0x1
 7320 02c8 51       		.byte	0x51
 7321 02c9 B9050000 		.4byte	.LVL221-1-.Ltext0
 7322 02cd D8050000 		.4byte	.LVL225-.Ltext0
 7323 02d1 0100     		.2byte	0x1
 7324 02d3 55       		.byte	0x55
 7325 02d4 D8050000 		.4byte	.LVL225-.Ltext0
 7326 02d8 DA050000 		.4byte	.LVL227-.Ltext0
 7327 02dc 0400     		.2byte	0x4
 7328 02de F3       		.byte	0xf3
 7329 02df 01       		.uleb128 0x1
 7330 02e0 51       		.byte	0x51
 7331 02e1 9F       		.byte	0x9f
 7332 02e2 DA050000 		.4byte	.LVL227-.Ltext0
 7333 02e6 E4050000 		.4byte	.LFE20-.Ltext0
 7334 02ea 0100     		.2byte	0x1
 7335 02ec 55       		.byte	0x55
 7336 02ed 00000000 		.4byte	0
 7337 02f1 00000000 		.4byte	0
 7338              	.LLST106:
 7339 02f5 D6050000 		.4byte	.LVL223-.Ltext0
 7340 02f9 D8050000 		.4byte	.LVL224-.Ltext0
 7341 02fd 0200     		.2byte	0x2
 7342 02ff 30       		.byte	0x30
 7343 0300 9F       		.byte	0x9f
 7344 0301 DE050000 		.4byte	.LVL228-.Ltext0
 7345 0305 E4050000 		.4byte	.LFE20-.Ltext0
 7346 0309 0300     		.2byte	0x3
 7347 030b 09       		.byte	0x9
 7348 030c FF       		.byte	0xff
 7349 030d 9F       		.byte	0x9f
 7350 030e 00000000 		.4byte	0
 7351 0312 00000000 		.4byte	0
 7352              	.LLST107:
 7353 0316 CA050000 		.4byte	.LVL222-.Ltext0
 7354 031a D8050000 		.4byte	.LVL224-.Ltext0
 7355 031e 0100     		.2byte	0x1
 7356 0320 53       		.byte	0x53
 7357 0321 00000000 		.4byte	0
 7358 0325 00000000 		.4byte	0
ARM GAS  C:\Users\claym\AppData\Local\Temp\ccb01mZK.s 			page 156


 7359              	.LLST98:
 7360 0329 6C050000 		.4byte	.LFB19-.Ltext0
 7361 032d 6E050000 		.4byte	.LCFI19-.Ltext0
 7362 0331 0200     		.2byte	0x2
 7363 0333 7D       		.byte	0x7d
 7364 0334 00       		.sleb128 0
 7365 0335 6E050000 		.4byte	.LCFI19-.Ltext0
 7366 0339 A8050000 		.4byte	.LFE19-.Ltext0
 7367 033d 0200     		.2byte	0x2
 7368 033f 7D       		.byte	0x7d
 7369 0340 10       		.sleb128 16
 7370 0341 00000000 		.4byte	0
 7371 0345 00000000 		.4byte	0
 7372              	.LLST99:
 7373 0349 6C050000 		.4byte	.LVL210-.Ltext0
 7374 034d 7D050000 		.4byte	.LVL211-1-.Ltext0
 7375 0351 0100     		.2byte	0x1
 7376 0353 50       		.byte	0x50
 7377 0354 7D050000 		.4byte	.LVL211-1-.Ltext0
 7378 0358 92050000 		.4byte	.LVL213-.Ltext0
 7379 035c 0100     		.2byte	0x1
 7380 035e 54       		.byte	0x54
 7381 035f 92050000 		.4byte	.LVL213-.Ltext0
 7382 0363 94050000 		.4byte	.LVL214-.Ltext0
 7383 0367 0300     		.2byte	0x3
 7384 0369 74       		.byte	0x74
 7385 036a 7F       		.sleb128 -1
 7386 036b 9F       		.byte	0x9f
 7387 036c 94050000 		.4byte	.LVL214-.Ltext0
 7388 0370 9E050000 		.4byte	.LVL218-.Ltext0
 7389 0374 0400     		.2byte	0x4
 7390 0376 F3       		.byte	0xf3
 7391 0377 01       		.uleb128 0x1
 7392 0378 50       		.byte	0x50
 7393 0379 9F       		.byte	0x9f
 7394 037a 9E050000 		.4byte	.LVL218-.Ltext0
 7395 037e A8050000 		.4byte	.LFE19-.Ltext0
 7396 0382 0100     		.2byte	0x1
 7397 0384 54       		.byte	0x54
 7398 0385 00000000 		.4byte	0
 7399 0389 00000000 		.4byte	0
 7400              	.LLST100:
 7401 038d 6C050000 		.4byte	.LVL210-.Ltext0
 7402 0391 7D050000 		.4byte	.LVL211-1-.Ltext0
 7403 0395 0100     		.2byte	0x1
 7404 0397 51       		.byte	0x51
 7405 0398 7D050000 		.4byte	.LVL211-1-.Ltext0
 7406 039c 9C050000 		.4byte	.LVL217-.Ltext0
 7407 03a0 0100     		.2byte	0x1
 7408 03a2 56       		.byte	0x56
 7409 03a3 9C050000 		.4byte	.LVL217-.Ltext0
 7410 03a7 9E050000 		.4byte	.LVL218-.Ltext0
 7411 03ab 0400     		.2byte	0x4
 7412 03ad F3       		.byte	0xf3
 7413 03ae 01       		.uleb128 0x1
 7414 03af 51       		.byte	0x51
 7415 03b0 9F       		.byte	0x9f
ARM GAS  C:\Users\claym\AppData\Local\Temp\ccb01mZK.s 			page 157


 7416 03b1 9E050000 		.4byte	.LVL218-.Ltext0
 7417 03b5 A8050000 		.4byte	.LFE19-.Ltext0
 7418 03b9 0100     		.2byte	0x1
 7419 03bb 56       		.byte	0x56
 7420 03bc 00000000 		.4byte	0
 7421 03c0 00000000 		.4byte	0
 7422              	.LLST101:
 7423 03c4 9A050000 		.4byte	.LVL215-.Ltext0
 7424 03c8 9C050000 		.4byte	.LVL216-.Ltext0
 7425 03cc 0200     		.2byte	0x2
 7426 03ce 30       		.byte	0x30
 7427 03cf 9F       		.byte	0x9f
 7428 03d0 A2050000 		.4byte	.LVL219-.Ltext0
 7429 03d4 A8050000 		.4byte	.LFE19-.Ltext0
 7430 03d8 0300     		.2byte	0x3
 7431 03da 09       		.byte	0x9
 7432 03db FF       		.byte	0xff
 7433 03dc 9F       		.byte	0x9f
 7434 03dd 00000000 		.4byte	0
 7435 03e1 00000000 		.4byte	0
 7436              	.LLST102:
 7437 03e5 8E050000 		.4byte	.LVL212-.Ltext0
 7438 03e9 9C050000 		.4byte	.LVL216-.Ltext0
 7439 03ed 0100     		.2byte	0x1
 7440 03ef 52       		.byte	0x52
 7441 03f0 00000000 		.4byte	0
 7442 03f4 00000000 		.4byte	0
 7443              	.LLST91:
 7444 03f8 10050000 		.4byte	.LFB18-.Ltext0
 7445 03fc 12050000 		.4byte	.LCFI18-.Ltext0
 7446 0400 0200     		.2byte	0x2
 7447 0402 7D       		.byte	0x7d
 7448 0403 00       		.sleb128 0
 7449 0404 12050000 		.4byte	.LCFI18-.Ltext0
 7450 0408 6C050000 		.4byte	.LFE18-.Ltext0
 7451 040c 0200     		.2byte	0x2
 7452 040e 7D       		.byte	0x7d
 7453 040f 20       		.sleb128 32
 7454 0410 00000000 		.4byte	0
 7455 0414 00000000 		.4byte	0
 7456              	.LLST92:
 7457 0418 10050000 		.4byte	.LVL199-.Ltext0
 7458 041c 25050000 		.4byte	.LVL201-1-.Ltext0
 7459 0420 0100     		.2byte	0x1
 7460 0422 50       		.byte	0x50
 7461 0423 25050000 		.4byte	.LVL201-1-.Ltext0
 7462 0427 52050000 		.4byte	.LVL203-.Ltext0
 7463 042b 0100     		.2byte	0x1
 7464 042d 55       		.byte	0x55
 7465 042e 52050000 		.4byte	.LVL203-.Ltext0
 7466 0432 60050000 		.4byte	.LVL208-.Ltext0
 7467 0436 0400     		.2byte	0x4
 7468 0438 F3       		.byte	0xf3
 7469 0439 01       		.uleb128 0x1
 7470 043a 50       		.byte	0x50
 7471 043b 9F       		.byte	0x9f
 7472 043c 60050000 		.4byte	.LVL208-.Ltext0
ARM GAS  C:\Users\claym\AppData\Local\Temp\ccb01mZK.s 			page 158


 7473 0440 6C050000 		.4byte	.LFE18-.Ltext0
 7474 0444 0100     		.2byte	0x1
 7475 0446 55       		.byte	0x55
 7476 0447 00000000 		.4byte	0
 7477 044b 00000000 		.4byte	0
 7478              	.LLST93:
 7479 044f 10050000 		.4byte	.LVL199-.Ltext0
 7480 0453 25050000 		.4byte	.LVL201-1-.Ltext0
 7481 0457 0100     		.2byte	0x1
 7482 0459 51       		.byte	0x51
 7483 045a 25050000 		.4byte	.LVL201-1-.Ltext0
 7484 045e 5E050000 		.4byte	.LVL207-.Ltext0
 7485 0462 0100     		.2byte	0x1
 7486 0464 57       		.byte	0x57
 7487 0465 5E050000 		.4byte	.LVL207-.Ltext0
 7488 0469 60050000 		.4byte	.LVL208-.Ltext0
 7489 046d 0400     		.2byte	0x4
 7490 046f F3       		.byte	0xf3
 7491 0470 01       		.uleb128 0x1
 7492 0471 51       		.byte	0x51
 7493 0472 9F       		.byte	0x9f
 7494 0473 60050000 		.4byte	.LVL208-.Ltext0
 7495 0477 6C050000 		.4byte	.LFE18-.Ltext0
 7496 047b 0100     		.2byte	0x1
 7497 047d 57       		.byte	0x57
 7498 047e 00000000 		.4byte	0
 7499 0482 00000000 		.4byte	0
 7500              	.LLST94:
 7501 0486 10050000 		.4byte	.LVL199-.Ltext0
 7502 048a 25050000 		.4byte	.LVL201-1-.Ltext0
 7503 048e 0100     		.2byte	0x1
 7504 0490 52       		.byte	0x52
 7505 0491 25050000 		.4byte	.LVL201-1-.Ltext0
 7506 0495 5E050000 		.4byte	.LVL206-.Ltext0
 7507 0499 0100     		.2byte	0x1
 7508 049b 56       		.byte	0x56
 7509 049c 5E050000 		.4byte	.LVL206-.Ltext0
 7510 04a0 60050000 		.4byte	.LVL208-.Ltext0
 7511 04a4 0400     		.2byte	0x4
 7512 04a6 F3       		.byte	0xf3
 7513 04a7 01       		.uleb128 0x1
 7514 04a8 52       		.byte	0x52
 7515 04a9 9F       		.byte	0x9f
 7516 04aa 60050000 		.4byte	.LVL208-.Ltext0
 7517 04ae 6C050000 		.4byte	.LFE18-.Ltext0
 7518 04b2 0100     		.2byte	0x1
 7519 04b4 56       		.byte	0x56
 7520 04b5 00000000 		.4byte	0
 7521 04b9 00000000 		.4byte	0
 7522              	.LLST95:
 7523 04bd 10050000 		.4byte	.LVL199-.Ltext0
 7524 04c1 18050000 		.4byte	.LVL200-.Ltext0
 7525 04c5 0100     		.2byte	0x1
 7526 04c7 53       		.byte	0x53
 7527 04c8 18050000 		.4byte	.LVL200-.Ltext0
 7528 04cc 6C050000 		.4byte	.LFE18-.Ltext0
 7529 04d0 0200     		.2byte	0x2
ARM GAS  C:\Users\claym\AppData\Local\Temp\ccb01mZK.s 			page 159


 7530 04d2 91       		.byte	0x91
 7531 04d3 64       		.sleb128 -28
 7532 04d4 00000000 		.4byte	0
 7533 04d8 00000000 		.4byte	0
 7534              	.LLST96:
 7535 04dc 5C050000 		.4byte	.LVL204-.Ltext0
 7536 04e0 5E050000 		.4byte	.LVL205-.Ltext0
 7537 04e4 0200     		.2byte	0x2
 7538 04e6 30       		.byte	0x30
 7539 04e7 9F       		.byte	0x9f
 7540 04e8 64050000 		.4byte	.LVL209-.Ltext0
 7541 04ec 6C050000 		.4byte	.LFE18-.Ltext0
 7542 04f0 0300     		.2byte	0x3
 7543 04f2 09       		.byte	0x9
 7544 04f3 FF       		.byte	0xff
 7545 04f4 9F       		.byte	0x9f
 7546 04f5 00000000 		.4byte	0
 7547 04f9 00000000 		.4byte	0
 7548              	.LLST97:
 7549 04fd 36050000 		.4byte	.LVL202-.Ltext0
 7550 0501 5E050000 		.4byte	.LVL205-.Ltext0
 7551 0505 0100     		.2byte	0x1
 7552 0507 52       		.byte	0x52
 7553 0508 00000000 		.4byte	0
 7554 050c 00000000 		.4byte	0
 7555              	.LLST84:
 7556 0510 B0040000 		.4byte	.LFB17-.Ltext0
 7557 0514 B2040000 		.4byte	.LCFI17-.Ltext0
 7558 0518 0200     		.2byte	0x2
 7559 051a 7D       		.byte	0x7d
 7560 051b 00       		.sleb128 0
 7561 051c B2040000 		.4byte	.LCFI17-.Ltext0
 7562 0520 10050000 		.4byte	.LFE17-.Ltext0
 7563 0524 0200     		.2byte	0x2
 7564 0526 7D       		.byte	0x7d
 7565 0527 20       		.sleb128 32
 7566 0528 00000000 		.4byte	0
 7567 052c 00000000 		.4byte	0
 7568              	.LLST85:
 7569 0530 B0040000 		.4byte	.LVL188-.Ltext0
 7570 0534 C5040000 		.4byte	.LVL190-1-.Ltext0
 7571 0538 0100     		.2byte	0x1
 7572 053a 50       		.byte	0x50
 7573 053b C5040000 		.4byte	.LVL190-1-.Ltext0
 7574 053f F8040000 		.4byte	.LVL192-.Ltext0
 7575 0543 0100     		.2byte	0x1
 7576 0545 55       		.byte	0x55
 7577 0546 F8040000 		.4byte	.LVL192-.Ltext0
 7578 054a 06050000 		.4byte	.LVL197-.Ltext0
 7579 054e 0400     		.2byte	0x4
 7580 0550 F3       		.byte	0xf3
 7581 0551 01       		.uleb128 0x1
 7582 0552 50       		.byte	0x50
 7583 0553 9F       		.byte	0x9f
 7584 0554 06050000 		.4byte	.LVL197-.Ltext0
 7585 0558 10050000 		.4byte	.LFE17-.Ltext0
 7586 055c 0100     		.2byte	0x1
ARM GAS  C:\Users\claym\AppData\Local\Temp\ccb01mZK.s 			page 160


 7587 055e 55       		.byte	0x55
 7588 055f 00000000 		.4byte	0
 7589 0563 00000000 		.4byte	0
 7590              	.LLST86:
 7591 0567 B0040000 		.4byte	.LVL188-.Ltext0
 7592 056b C5040000 		.4byte	.LVL190-1-.Ltext0
 7593 056f 0100     		.2byte	0x1
 7594 0571 51       		.byte	0x51
 7595 0572 C5040000 		.4byte	.LVL190-1-.Ltext0
 7596 0576 04050000 		.4byte	.LVL196-.Ltext0
 7597 057a 0100     		.2byte	0x1
 7598 057c 57       		.byte	0x57
 7599 057d 04050000 		.4byte	.LVL196-.Ltext0
 7600 0581 06050000 		.4byte	.LVL197-.Ltext0
 7601 0585 0400     		.2byte	0x4
 7602 0587 F3       		.byte	0xf3
 7603 0588 01       		.uleb128 0x1
 7604 0589 51       		.byte	0x51
 7605 058a 9F       		.byte	0x9f
 7606 058b 06050000 		.4byte	.LVL197-.Ltext0
 7607 058f 10050000 		.4byte	.LFE17-.Ltext0
 7608 0593 0100     		.2byte	0x1
 7609 0595 57       		.byte	0x57
 7610 0596 00000000 		.4byte	0
 7611 059a 00000000 		.4byte	0
 7612              	.LLST87:
 7613 059e B0040000 		.4byte	.LVL188-.Ltext0
 7614 05a2 C5040000 		.4byte	.LVL190-1-.Ltext0
 7615 05a6 0100     		.2byte	0x1
 7616 05a8 52       		.byte	0x52
 7617 05a9 C5040000 		.4byte	.LVL190-1-.Ltext0
 7618 05ad 04050000 		.4byte	.LVL195-.Ltext0
 7619 05b1 0100     		.2byte	0x1
 7620 05b3 56       		.byte	0x56
 7621 05b4 04050000 		.4byte	.LVL195-.Ltext0
 7622 05b8 06050000 		.4byte	.LVL197-.Ltext0
 7623 05bc 0400     		.2byte	0x4
 7624 05be F3       		.byte	0xf3
 7625 05bf 01       		.uleb128 0x1
 7626 05c0 52       		.byte	0x52
 7627 05c1 9F       		.byte	0x9f
 7628 05c2 06050000 		.4byte	.LVL197-.Ltext0
 7629 05c6 10050000 		.4byte	.LFE17-.Ltext0
 7630 05ca 0100     		.2byte	0x1
 7631 05cc 56       		.byte	0x56
 7632 05cd 00000000 		.4byte	0
 7633 05d1 00000000 		.4byte	0
 7634              	.LLST88:
 7635 05d5 B0040000 		.4byte	.LVL188-.Ltext0
 7636 05d9 B8040000 		.4byte	.LVL189-.Ltext0
 7637 05dd 0100     		.2byte	0x1
 7638 05df 53       		.byte	0x53
 7639 05e0 B8040000 		.4byte	.LVL189-.Ltext0
 7640 05e4 10050000 		.4byte	.LFE17-.Ltext0
 7641 05e8 0200     		.2byte	0x2
 7642 05ea 91       		.byte	0x91
 7643 05eb 64       		.sleb128 -28
ARM GAS  C:\Users\claym\AppData\Local\Temp\ccb01mZK.s 			page 161


 7644 05ec 00000000 		.4byte	0
 7645 05f0 00000000 		.4byte	0
 7646              	.LLST89:
 7647 05f4 02050000 		.4byte	.LVL193-.Ltext0
 7648 05f8 04050000 		.4byte	.LVL194-.Ltext0
 7649 05fc 0200     		.2byte	0x2
 7650 05fe 30       		.byte	0x30
 7651 05ff 9F       		.byte	0x9f
 7652 0600 0A050000 		.4byte	.LVL198-.Ltext0
 7653 0604 10050000 		.4byte	.LFE17-.Ltext0
 7654 0608 0300     		.2byte	0x3
 7655 060a 09       		.byte	0x9
 7656 060b FF       		.byte	0xff
 7657 060c 9F       		.byte	0x9f
 7658 060d 00000000 		.4byte	0
 7659 0611 00000000 		.4byte	0
 7660              	.LLST90:
 7661 0615 D6040000 		.4byte	.LVL191-.Ltext0
 7662 0619 04050000 		.4byte	.LVL194-.Ltext0
 7663 061d 0100     		.2byte	0x1
 7664 061f 52       		.byte	0x52
 7665 0620 00000000 		.4byte	0
 7666 0624 00000000 		.4byte	0
 7667              	.LLST77:
 7668 0628 44040000 		.4byte	.LFB16-.Ltext0
 7669 062c 46040000 		.4byte	.LCFI15-.Ltext0
 7670 0630 0200     		.2byte	0x2
 7671 0632 7D       		.byte	0x7d
 7672 0633 00       		.sleb128 0
 7673 0634 46040000 		.4byte	.LCFI15-.Ltext0
 7674 0638 4A040000 		.4byte	.LCFI16-.Ltext0
 7675 063c 0200     		.2byte	0x2
 7676 063e 7D       		.byte	0x7d
 7677 063f 14       		.sleb128 20
 7678 0640 4A040000 		.4byte	.LCFI16-.Ltext0
 7679 0644 B0040000 		.4byte	.LFE16-.Ltext0
 7680 0648 0200     		.2byte	0x2
 7681 064a 7D       		.byte	0x7d
 7682 064b 28       		.sleb128 40
 7683 064c 00000000 		.4byte	0
 7684 0650 00000000 		.4byte	0
 7685              	.LLST78:
 7686 0654 44040000 		.4byte	.LVL177-.Ltext0
 7687 0658 5B040000 		.4byte	.LVL179-1-.Ltext0
 7688 065c 0100     		.2byte	0x1
 7689 065e 50       		.byte	0x50
 7690 065f 5B040000 		.4byte	.LVL179-1-.Ltext0
 7691 0663 AA040000 		.4byte	.LVL186-.Ltext0
 7692 0667 0100     		.2byte	0x1
 7693 0669 55       		.byte	0x55
 7694 066a AA040000 		.4byte	.LVL186-.Ltext0
 7695 066e B0040000 		.4byte	.LFE16-.Ltext0
 7696 0672 0400     		.2byte	0x4
 7697 0674 F3       		.byte	0xf3
 7698 0675 01       		.uleb128 0x1
 7699 0676 50       		.byte	0x50
 7700 0677 9F       		.byte	0x9f
ARM GAS  C:\Users\claym\AppData\Local\Temp\ccb01mZK.s 			page 162


 7701 0678 00000000 		.4byte	0
 7702 067c 00000000 		.4byte	0
 7703              	.LLST79:
 7704 0680 44040000 		.4byte	.LVL177-.Ltext0
 7705 0684 5B040000 		.4byte	.LVL179-1-.Ltext0
 7706 0688 0100     		.2byte	0x1
 7707 068a 51       		.byte	0x51
 7708 068b 5B040000 		.4byte	.LVL179-1-.Ltext0
 7709 068f B0040000 		.4byte	.LFE16-.Ltext0
 7710 0693 0200     		.2byte	0x2
 7711 0695 91       		.byte	0x91
 7712 0696 5C       		.sleb128 -36
 7713 0697 00000000 		.4byte	0
 7714 069b 00000000 		.4byte	0
 7715              	.LLST80:
 7716 069f 44040000 		.4byte	.LVL177-.Ltext0
 7717 06a3 5B040000 		.4byte	.LVL179-1-.Ltext0
 7718 06a7 0100     		.2byte	0x1
 7719 06a9 52       		.byte	0x52
 7720 06aa 5B040000 		.4byte	.LVL179-1-.Ltext0
 7721 06ae B0040000 		.4byte	.LFE16-.Ltext0
 7722 06b2 0200     		.2byte	0x2
 7723 06b4 91       		.byte	0x91
 7724 06b5 60       		.sleb128 -32
 7725 06b6 00000000 		.4byte	0
 7726 06ba 00000000 		.4byte	0
 7727              	.LLST81:
 7728 06be 44040000 		.4byte	.LVL177-.Ltext0
 7729 06c2 4E040000 		.4byte	.LVL178-.Ltext0
 7730 06c6 0100     		.2byte	0x1
 7731 06c8 53       		.byte	0x53
 7732 06c9 4E040000 		.4byte	.LVL178-.Ltext0
 7733 06cd B0040000 		.4byte	.LFE16-.Ltext0
 7734 06d1 0200     		.2byte	0x2
 7735 06d3 91       		.byte	0x91
 7736 06d4 64       		.sleb128 -28
 7737 06d5 00000000 		.4byte	0
 7738 06d9 00000000 		.4byte	0
 7739              	.LLST82:
 7740 06dd 66040000 		.4byte	.LVL180-.Ltext0
 7741 06e1 6E040000 		.4byte	.LVL181-.Ltext0
 7742 06e5 0200     		.2byte	0x2
 7743 06e7 30       		.byte	0x30
 7744 06e8 9F       		.byte	0x9f
 7745 06e9 6E040000 		.4byte	.LVL181-.Ltext0
 7746 06ed 82040000 		.4byte	.LVL183-.Ltext0
 7747 06f1 0100     		.2byte	0x1
 7748 06f3 50       		.byte	0x50
 7749 06f4 86040000 		.4byte	.LVL184-.Ltext0
 7750 06f8 B0040000 		.4byte	.LFE16-.Ltext0
 7751 06fc 0100     		.2byte	0x1
 7752 06fe 50       		.byte	0x50
 7753 06ff 00000000 		.4byte	0
 7754 0703 00000000 		.4byte	0
 7755              	.LLST83:
 7756 0707 66040000 		.4byte	.LVL180-.Ltext0
 7757 070b AA040000 		.4byte	.LVL187-.Ltext0
ARM GAS  C:\Users\claym\AppData\Local\Temp\ccb01mZK.s 			page 163


 7758 070f 0100     		.2byte	0x1
 7759 0711 57       		.byte	0x57
 7760 0712 00000000 		.4byte	0
 7761 0716 00000000 		.4byte	0
 7762              	.LLST70:
 7763 071a E4030000 		.4byte	.LFB15-.Ltext0
 7764 071e E6030000 		.4byte	.LCFI14-.Ltext0
 7765 0722 0200     		.2byte	0x2
 7766 0724 7D       		.byte	0x7d
 7767 0725 00       		.sleb128 0
 7768 0726 E6030000 		.4byte	.LCFI14-.Ltext0
 7769 072a 44040000 		.4byte	.LFE15-.Ltext0
 7770 072e 0200     		.2byte	0x2
 7771 0730 7D       		.byte	0x7d
 7772 0731 20       		.sleb128 32
 7773 0732 00000000 		.4byte	0
 7774 0736 00000000 		.4byte	0
 7775              	.LLST71:
 7776 073a E4030000 		.4byte	.LVL165-.Ltext0
 7777 073e F9030000 		.4byte	.LVL167-1-.Ltext0
 7778 0742 0100     		.2byte	0x1
 7779 0744 50       		.byte	0x50
 7780 0745 F9030000 		.4byte	.LVL167-1-.Ltext0
 7781 0749 3E040000 		.4byte	.LVL175-.Ltext0
 7782 074d 0100     		.2byte	0x1
 7783 074f 55       		.byte	0x55
 7784 0750 3E040000 		.4byte	.LVL175-.Ltext0
 7785 0754 44040000 		.4byte	.LFE15-.Ltext0
 7786 0758 0400     		.2byte	0x4
 7787 075a F3       		.byte	0xf3
 7788 075b 01       		.uleb128 0x1
 7789 075c 50       		.byte	0x50
 7790 075d 9F       		.byte	0x9f
 7791 075e 00000000 		.4byte	0
 7792 0762 00000000 		.4byte	0
 7793              	.LLST72:
 7794 0766 E4030000 		.4byte	.LVL165-.Ltext0
 7795 076a F9030000 		.4byte	.LVL167-1-.Ltext0
 7796 076e 0100     		.2byte	0x1
 7797 0770 51       		.byte	0x51
 7798 0771 F9030000 		.4byte	.LVL167-1-.Ltext0
 7799 0775 3E040000 		.4byte	.LVL174-.Ltext0
 7800 0779 0100     		.2byte	0x1
 7801 077b 54       		.byte	0x54
 7802 077c 3E040000 		.4byte	.LVL174-.Ltext0
 7803 0780 44040000 		.4byte	.LFE15-.Ltext0
 7804 0784 0400     		.2byte	0x4
 7805 0786 F3       		.byte	0xf3
 7806 0787 01       		.uleb128 0x1
 7807 0788 51       		.byte	0x51
 7808 0789 9F       		.byte	0x9f
 7809 078a 00000000 		.4byte	0
 7810 078e 00000000 		.4byte	0
 7811              	.LLST73:
 7812 0792 E4030000 		.4byte	.LVL165-.Ltext0
 7813 0796 F9030000 		.4byte	.LVL167-1-.Ltext0
 7814 079a 0100     		.2byte	0x1
ARM GAS  C:\Users\claym\AppData\Local\Temp\ccb01mZK.s 			page 164


 7815 079c 52       		.byte	0x52
 7816 079d F9030000 		.4byte	.LVL167-1-.Ltext0
 7817 07a1 44040000 		.4byte	.LFE15-.Ltext0
 7818 07a5 0200     		.2byte	0x2
 7819 07a7 7D       		.byte	0x7d
 7820 07a8 00       		.sleb128 0
 7821 07a9 00000000 		.4byte	0
 7822 07ad 00000000 		.4byte	0
 7823              	.LLST74:
 7824 07b1 E4030000 		.4byte	.LVL165-.Ltext0
 7825 07b5 EC030000 		.4byte	.LVL166-.Ltext0
 7826 07b9 0100     		.2byte	0x1
 7827 07bb 53       		.byte	0x53
 7828 07bc EC030000 		.4byte	.LVL166-.Ltext0
 7829 07c0 44040000 		.4byte	.LFE15-.Ltext0
 7830 07c4 0200     		.2byte	0x2
 7831 07c6 91       		.byte	0x91
 7832 07c7 64       		.sleb128 -28
 7833 07c8 00000000 		.4byte	0
 7834 07cc 00000000 		.4byte	0
 7835              	.LLST75:
 7836 07d0 04040000 		.4byte	.LVL168-.Ltext0
 7837 07d4 0E040000 		.4byte	.LVL169-.Ltext0
 7838 07d8 0200     		.2byte	0x2
 7839 07da 30       		.byte	0x30
 7840 07db 9F       		.byte	0x9f
 7841 07dc 0E040000 		.4byte	.LVL169-.Ltext0
 7842 07e0 22040000 		.4byte	.LVL171-.Ltext0
 7843 07e4 0100     		.2byte	0x1
 7844 07e6 50       		.byte	0x50
 7845 07e7 26040000 		.4byte	.LVL172-.Ltext0
 7846 07eb 44040000 		.4byte	.LFE15-.Ltext0
 7847 07ef 0100     		.2byte	0x1
 7848 07f1 50       		.byte	0x50
 7849 07f2 00000000 		.4byte	0
 7850 07f6 00000000 		.4byte	0
 7851              	.LLST76:
 7852 07fa 04040000 		.4byte	.LVL168-.Ltext0
 7853 07fe 3E040000 		.4byte	.LVL176-.Ltext0
 7854 0802 0100     		.2byte	0x1
 7855 0804 57       		.byte	0x57
 7856 0805 00000000 		.4byte	0
 7857 0809 00000000 		.4byte	0
 7858              	.LLST68:
 7859 080d D0030000 		.4byte	.LVL162-.Ltext0
 7860 0811 D6030000 		.4byte	.LVL163-.Ltext0
 7861 0815 0100     		.2byte	0x1
 7862 0817 50       		.byte	0x50
 7863 0818 D6030000 		.4byte	.LVL163-.Ltext0
 7864 081c E4030000 		.4byte	.LFE14-.Ltext0
 7865 0820 0400     		.2byte	0x4
 7866 0822 F3       		.byte	0xf3
 7867 0823 01       		.uleb128 0x1
 7868 0824 50       		.byte	0x50
 7869 0825 9F       		.byte	0x9f
 7870 0826 00000000 		.4byte	0
 7871 082a 00000000 		.4byte	0
ARM GAS  C:\Users\claym\AppData\Local\Temp\ccb01mZK.s 			page 165


 7872              	.LLST69:
 7873 082e D0030000 		.4byte	.LVL162-.Ltext0
 7874 0832 D6030000 		.4byte	.LVL163-.Ltext0
 7875 0836 0B00     		.2byte	0xb
 7876 0838 70       		.byte	0x70
 7877 0839 00       		.sleb128 0
 7878 083a 48       		.byte	0x48
 7879 083b 1E       		.byte	0x1e
 7880 083c 03       		.byte	0x3
 7881 083d 60000000 		.4byte	_SEGGER_RTT+96
 7882 0841 22       		.byte	0x22
 7883 0842 9F       		.byte	0x9f
 7884 0843 D6030000 		.4byte	.LVL163-.Ltext0
 7885 0847 E4030000 		.4byte	.LFE14-.Ltext0
 7886 084b 0C00     		.2byte	0xc
 7887 084d F3       		.byte	0xf3
 7888 084e 01       		.uleb128 0x1
 7889 084f 50       		.byte	0x50
 7890 0850 48       		.byte	0x48
 7891 0851 1E       		.byte	0x1e
 7892 0852 03       		.byte	0x3
 7893 0853 60000000 		.4byte	_SEGGER_RTT+96
 7894 0857 22       		.byte	0x22
 7895 0858 9F       		.byte	0x9f
 7896 0859 00000000 		.4byte	0
 7897 085d 00000000 		.4byte	0
 7898              	.LLST66:
 7899 0861 B2030000 		.4byte	.LFB13-.Ltext0
 7900 0865 B4030000 		.4byte	.LCFI13-.Ltext0
 7901 0869 0200     		.2byte	0x2
 7902 086b 7D       		.byte	0x7d
 7903 086c 00       		.sleb128 0
 7904 086d B4030000 		.4byte	.LCFI13-.Ltext0
 7905 0871 D0030000 		.4byte	.LFE13-.Ltext0
 7906 0875 0200     		.2byte	0x2
 7907 0877 7D       		.byte	0x7d
 7908 0878 08       		.sleb128 8
 7909 0879 00000000 		.4byte	0
 7910 087d 00000000 		.4byte	0
 7911              	.LLST67:
 7912 0881 C2030000 		.4byte	.LVL160-.Ltext0
 7913 0885 CA030000 		.4byte	.LVL161-.Ltext0
 7914 0889 0D00     		.2byte	0xd
 7915 088b 03       		.byte	0x3
 7916 088c 70000000 		.4byte	_SEGGER_RTT+112
 7917 0890 06       		.byte	0x6
 7918 0891 73       		.byte	0x73
 7919 0892 00       		.sleb128 0
 7920 0893 2E       		.byte	0x2e
 7921 0894 08       		.byte	0x8
 7922 0895 FF       		.byte	0xff
 7923 0896 1A       		.byte	0x1a
 7924 0897 9F       		.byte	0x9f
 7925 0898 CA030000 		.4byte	.LVL161-.Ltext0
 7926 089c D0030000 		.4byte	.LFE13-.Ltext0
 7927 08a0 1100     		.2byte	0x11
 7928 08a2 03       		.byte	0x3
ARM GAS  C:\Users\claym\AppData\Local\Temp\ccb01mZK.s 			page 166


 7929 08a3 70000000 		.4byte	_SEGGER_RTT+112
 7930 08a7 06       		.byte	0x6
 7931 08a8 03       		.byte	0x3
 7932 08a9 6C000000 		.4byte	_SEGGER_RTT+108
 7933 08ad 06       		.byte	0x6
 7934 08ae 2E       		.byte	0x2e
 7935 08af 08       		.byte	0x8
 7936 08b0 FF       		.byte	0xff
 7937 08b1 1A       		.byte	0x1a
 7938 08b2 9F       		.byte	0x9f
 7939 08b3 00000000 		.4byte	0
 7940 08b7 00000000 		.4byte	0
 7941              	.LLST65:
 7942 08bb A6030000 		.4byte	.LFB12-.Ltext0
 7943 08bf A8030000 		.4byte	.LCFI12-.Ltext0
 7944 08c3 0200     		.2byte	0x2
 7945 08c5 7D       		.byte	0x7d
 7946 08c6 00       		.sleb128 0
 7947 08c7 A8030000 		.4byte	.LCFI12-.Ltext0
 7948 08cb B2030000 		.4byte	.LFE12-.Ltext0
 7949 08cf 0200     		.2byte	0x2
 7950 08d1 7D       		.byte	0x7d
 7951 08d2 08       		.sleb128 8
 7952 08d3 00000000 		.4byte	0
 7953 08d7 00000000 		.4byte	0
 7954              	.LLST63:
 7955 08db 88030000 		.4byte	.LFB11-.Ltext0
 7956 08df 8A030000 		.4byte	.LCFI11-.Ltext0
 7957 08e3 0200     		.2byte	0x2
 7958 08e5 7D       		.byte	0x7d
 7959 08e6 00       		.sleb128 0
 7960 08e7 8A030000 		.4byte	.LCFI11-.Ltext0
 7961 08eb A6030000 		.4byte	.LFE11-.Ltext0
 7962 08ef 0200     		.2byte	0x2
 7963 08f1 7D       		.byte	0x7d
 7964 08f2 10       		.sleb128 16
 7965 08f3 00000000 		.4byte	0
 7966 08f7 00000000 		.4byte	0
 7967              	.LLST64:
 7968 08fb 98030000 		.4byte	.LVL153-.Ltext0
 7969 08ff 9E030000 		.4byte	.LVL154-.Ltext0
 7970 0903 0100     		.2byte	0x1
 7971 0905 50       		.byte	0x50
 7972 0906 A0030000 		.4byte	.LVL155-.Ltext0
 7973 090a A2030000 		.4byte	.LVL156-.Ltext0
 7974 090e 0100     		.2byte	0x1
 7975 0910 50       		.byte	0x50
 7976 0911 A4030000 		.4byte	.LVL157-.Ltext0
 7977 0915 A6030000 		.4byte	.LFE11-.Ltext0
 7978 0919 0300     		.2byte	0x3
 7979 091b 09       		.byte	0x9
 7980 091c FF       		.byte	0xff
 7981 091d 9F       		.byte	0x9f
 7982 091e 00000000 		.4byte	0
 7983 0922 00000000 		.4byte	0
 7984              	.LLST59:
 7985 0926 70030000 		.4byte	.LFB10-.Ltext0
ARM GAS  C:\Users\claym\AppData\Local\Temp\ccb01mZK.s 			page 167


 7986 092a 72030000 		.4byte	.LCFI10-.Ltext0
 7987 092e 0200     		.2byte	0x2
 7988 0930 7D       		.byte	0x7d
 7989 0931 00       		.sleb128 0
 7990 0932 72030000 		.4byte	.LCFI10-.Ltext0
 7991 0936 88030000 		.4byte	.LFE10-.Ltext0
 7992 093a 0200     		.2byte	0x2
 7993 093c 7D       		.byte	0x7d
 7994 093d 10       		.sleb128 16
 7995 093e 00000000 		.4byte	0
 7996 0942 00000000 		.4byte	0
 7997              	.LLST60:
 7998 0946 70030000 		.4byte	.LVL145-.Ltext0
 7999 094a 76030000 		.4byte	.LVL146-.Ltext0
 8000 094e 0100     		.2byte	0x1
 8001 0950 50       		.byte	0x50
 8002 0951 76030000 		.4byte	.LVL146-.Ltext0
 8003 0955 86030000 		.4byte	.LVL152-.Ltext0
 8004 0959 0100     		.2byte	0x1
 8005 095b 55       		.byte	0x55
 8006 095c 86030000 		.4byte	.LVL152-.Ltext0
 8007 0960 88030000 		.4byte	.LFE10-.Ltext0
 8008 0964 0400     		.2byte	0x4
 8009 0966 F3       		.byte	0xf3
 8010 0967 01       		.uleb128 0x1
 8011 0968 50       		.byte	0x50
 8012 0969 9F       		.byte	0x9f
 8013 096a 00000000 		.4byte	0
 8014 096e 00000000 		.4byte	0
 8015              	.LLST61:
 8016 0972 70030000 		.4byte	.LVL145-.Ltext0
 8017 0976 7B030000 		.4byte	.LVL147-1-.Ltext0
 8018 097a 0100     		.2byte	0x1
 8019 097c 51       		.byte	0x51
 8020 097d 7B030000 		.4byte	.LVL147-1-.Ltext0
 8021 0981 86030000 		.4byte	.LVL151-.Ltext0
 8022 0985 0100     		.2byte	0x1
 8023 0987 54       		.byte	0x54
 8024 0988 86030000 		.4byte	.LVL151-.Ltext0
 8025 098c 88030000 		.4byte	.LFE10-.Ltext0
 8026 0990 0400     		.2byte	0x4
 8027 0992 F3       		.byte	0xf3
 8028 0993 01       		.uleb128 0x1
 8029 0994 51       		.byte	0x51
 8030 0995 9F       		.byte	0x9f
 8031 0996 00000000 		.4byte	0
 8032 099a 00000000 		.4byte	0
 8033              	.LLST62:
 8034 099e 80030000 		.4byte	.LVL148-.Ltext0
 8035 09a2 82030000 		.4byte	.LVL149-.Ltext0
 8036 09a6 0100     		.2byte	0x1
 8037 09a8 50       		.byte	0x50
 8038 09a9 82030000 		.4byte	.LVL149-.Ltext0
 8039 09ad 85030000 		.4byte	.LVL150-1-.Ltext0
 8040 09b1 0100     		.2byte	0x1
 8041 09b3 52       		.byte	0x52
 8042 09b4 00000000 		.4byte	0
ARM GAS  C:\Users\claym\AppData\Local\Temp\ccb01mZK.s 			page 168


 8043 09b8 00000000 		.4byte	0
 8044              	.LLST54:
 8045 09bc 3C030000 		.4byte	.LFB9-.Ltext0
 8046 09c0 3E030000 		.4byte	.LCFI9-.Ltext0
 8047 09c4 0200     		.2byte	0x2
 8048 09c6 7D       		.byte	0x7d
 8049 09c7 00       		.sleb128 0
 8050 09c8 3E030000 		.4byte	.LCFI9-.Ltext0
 8051 09cc 70030000 		.4byte	.LFE9-.Ltext0
 8052 09d0 0200     		.2byte	0x2
 8053 09d2 7D       		.byte	0x7d
 8054 09d3 18       		.sleb128 24
 8055 09d4 00000000 		.4byte	0
 8056 09d8 00000000 		.4byte	0
 8057              	.LLST55:
 8058 09dc 3C030000 		.4byte	.LVL137-.Ltext0
 8059 09e0 4F030000 		.4byte	.LVL138-1-.Ltext0
 8060 09e4 0100     		.2byte	0x1
 8061 09e6 50       		.byte	0x50
 8062 09e7 4F030000 		.4byte	.LVL138-1-.Ltext0
 8063 09eb 68030000 		.4byte	.LVL142-.Ltext0
 8064 09ef 0100     		.2byte	0x1
 8065 09f1 55       		.byte	0x55
 8066 09f2 68030000 		.4byte	.LVL142-.Ltext0
 8067 09f6 70030000 		.4byte	.LFE9-.Ltext0
 8068 09fa 0400     		.2byte	0x4
 8069 09fc F3       		.byte	0xf3
 8070 09fd 01       		.uleb128 0x1
 8071 09fe 50       		.byte	0x50
 8072 09ff 9F       		.byte	0x9f
 8073 0a00 00000000 		.4byte	0
 8074 0a04 00000000 		.4byte	0
 8075              	.LLST56:
 8076 0a08 3C030000 		.4byte	.LVL137-.Ltext0
 8077 0a0c 4F030000 		.4byte	.LVL138-1-.Ltext0
 8078 0a10 0100     		.2byte	0x1
 8079 0a12 51       		.byte	0x51
 8080 0a13 4F030000 		.4byte	.LVL138-1-.Ltext0
 8081 0a17 68030000 		.4byte	.LVL143-.Ltext0
 8082 0a1b 0100     		.2byte	0x1
 8083 0a1d 56       		.byte	0x56
 8084 0a1e 68030000 		.4byte	.LVL143-.Ltext0
 8085 0a22 70030000 		.4byte	.LFE9-.Ltext0
 8086 0a26 0400     		.2byte	0x4
 8087 0a28 F3       		.byte	0xf3
 8088 0a29 01       		.uleb128 0x1
 8089 0a2a 51       		.byte	0x51
 8090 0a2b 9F       		.byte	0x9f
 8091 0a2c 00000000 		.4byte	0
 8092 0a30 00000000 		.4byte	0
 8093              	.LLST57:
 8094 0a34 3C030000 		.4byte	.LVL137-.Ltext0
 8095 0a38 4F030000 		.4byte	.LVL138-1-.Ltext0
 8096 0a3c 0100     		.2byte	0x1
 8097 0a3e 52       		.byte	0x52
 8098 0a3f 4F030000 		.4byte	.LVL138-1-.Ltext0
 8099 0a43 68030000 		.4byte	.LVL144-.Ltext0
ARM GAS  C:\Users\claym\AppData\Local\Temp\ccb01mZK.s 			page 169


 8100 0a47 0100     		.2byte	0x1
 8101 0a49 57       		.byte	0x57
 8102 0a4a 68030000 		.4byte	.LVL144-.Ltext0
 8103 0a4e 70030000 		.4byte	.LFE9-.Ltext0
 8104 0a52 0400     		.2byte	0x4
 8105 0a54 F3       		.byte	0xf3
 8106 0a55 01       		.uleb128 0x1
 8107 0a56 52       		.byte	0x52
 8108 0a57 9F       		.byte	0x9f
 8109 0a58 00000000 		.4byte	0
 8110 0a5c 00000000 		.4byte	0
 8111              	.LLST58:
 8112 0a60 5A030000 		.4byte	.LVL139-.Ltext0
 8113 0a64 68030000 		.4byte	.LVL141-.Ltext0
 8114 0a68 0100     		.2byte	0x1
 8115 0a6a 54       		.byte	0x54
 8116 0a6b 00000000 		.4byte	0
 8117 0a6f 00000000 		.4byte	0
 8118              	.LLST46:
 8119 0a73 D0020000 		.4byte	.LFB8-.Ltext0
 8120 0a77 D2020000 		.4byte	.LCFI8-.Ltext0
 8121 0a7b 0200     		.2byte	0x2
 8122 0a7d 7D       		.byte	0x7d
 8123 0a7e 00       		.sleb128 0
 8124 0a7f D2020000 		.4byte	.LCFI8-.Ltext0
 8125 0a83 3C030000 		.4byte	.LFE8-.Ltext0
 8126 0a87 0200     		.2byte	0x2
 8127 0a89 7D       		.byte	0x7d
 8128 0a8a 18       		.sleb128 24
 8129 0a8b 00000000 		.4byte	0
 8130 0a8f 00000000 		.4byte	0
 8131              	.LLST47:
 8132 0a93 D0020000 		.4byte	.LVL112-.Ltext0
 8133 0a97 F8020000 		.4byte	.LVL117-.Ltext0
 8134 0a9b 0100     		.2byte	0x1
 8135 0a9d 50       		.byte	0x50
 8136 0a9e F8020000 		.4byte	.LVL117-.Ltext0
 8137 0aa2 10030000 		.4byte	.LVL126-.Ltext0
 8138 0aa6 0400     		.2byte	0x4
 8139 0aa8 F3       		.byte	0xf3
 8140 0aa9 01       		.uleb128 0x1
 8141 0aaa 50       		.byte	0x50
 8142 0aab 9F       		.byte	0x9f
 8143 0aac 10030000 		.4byte	.LVL126-.Ltext0
 8144 0ab0 12030000 		.4byte	.LVL127-.Ltext0
 8145 0ab4 0100     		.2byte	0x1
 8146 0ab6 50       		.byte	0x50
 8147 0ab7 12030000 		.4byte	.LVL127-.Ltext0
 8148 0abb 2A030000 		.4byte	.LVL133-.Ltext0
 8149 0abf 0400     		.2byte	0x4
 8150 0ac1 F3       		.byte	0xf3
 8151 0ac2 01       		.uleb128 0x1
 8152 0ac3 50       		.byte	0x50
 8153 0ac4 9F       		.byte	0x9f
 8154 0ac5 2A030000 		.4byte	.LVL133-.Ltext0
 8155 0ac9 2E030000 		.4byte	.LVL134-.Ltext0
 8156 0acd 0100     		.2byte	0x1
ARM GAS  C:\Users\claym\AppData\Local\Temp\ccb01mZK.s 			page 170


 8157 0acf 50       		.byte	0x50
 8158 0ad0 2E030000 		.4byte	.LVL134-.Ltext0
 8159 0ad4 3C030000 		.4byte	.LFE8-.Ltext0
 8160 0ad8 0400     		.2byte	0x4
 8161 0ada F3       		.byte	0xf3
 8162 0adb 01       		.uleb128 0x1
 8163 0adc 50       		.byte	0x50
 8164 0add 9F       		.byte	0x9f
 8165 0ade 00000000 		.4byte	0
 8166 0ae2 00000000 		.4byte	0
 8167              	.LLST48:
 8168 0ae6 D0020000 		.4byte	.LVL112-.Ltext0
 8169 0aea FB020000 		.4byte	.LVL118-1-.Ltext0
 8170 0aee 0100     		.2byte	0x1
 8171 0af0 51       		.byte	0x51
 8172 0af1 FB020000 		.4byte	.LVL118-1-.Ltext0
 8173 0af5 0E030000 		.4byte	.LVL125-.Ltext0
 8174 0af9 0100     		.2byte	0x1
 8175 0afb 57       		.byte	0x57
 8176 0afc 0E030000 		.4byte	.LVL125-.Ltext0
 8177 0b00 10030000 		.4byte	.LVL126-.Ltext0
 8178 0b04 0400     		.2byte	0x4
 8179 0b06 F3       		.byte	0xf3
 8180 0b07 01       		.uleb128 0x1
 8181 0b08 51       		.byte	0x51
 8182 0b09 9F       		.byte	0x9f
 8183 0b0a 10030000 		.4byte	.LVL126-.Ltext0
 8184 0b0e 15030000 		.4byte	.LVL128-1-.Ltext0
 8185 0b12 0100     		.2byte	0x1
 8186 0b14 51       		.byte	0x51
 8187 0b15 15030000 		.4byte	.LVL128-1-.Ltext0
 8188 0b19 2A030000 		.4byte	.LVL133-.Ltext0
 8189 0b1d 0100     		.2byte	0x1
 8190 0b1f 57       		.byte	0x57
 8191 0b20 2A030000 		.4byte	.LVL133-.Ltext0
 8192 0b24 31030000 		.4byte	.LVL135-1-.Ltext0
 8193 0b28 0100     		.2byte	0x1
 8194 0b2a 51       		.byte	0x51
 8195 0b2b 31030000 		.4byte	.LVL135-1-.Ltext0
 8196 0b2f 3C030000 		.4byte	.LFE8-.Ltext0
 8197 0b33 0100     		.2byte	0x1
 8198 0b35 57       		.byte	0x57
 8199 0b36 00000000 		.4byte	0
 8200 0b3a 00000000 		.4byte	0
 8201              	.LLST49:
 8202 0b3e D0020000 		.4byte	.LVL112-.Ltext0
 8203 0b42 D6020000 		.4byte	.LVL113-.Ltext0
 8204 0b46 0100     		.2byte	0x1
 8205 0b48 52       		.byte	0x52
 8206 0b49 D6020000 		.4byte	.LVL113-.Ltext0
 8207 0b4d 0E030000 		.4byte	.LVL124-.Ltext0
 8208 0b51 0100     		.2byte	0x1
 8209 0b53 56       		.byte	0x56
 8210 0b54 0E030000 		.4byte	.LVL124-.Ltext0
 8211 0b58 10030000 		.4byte	.LVL126-.Ltext0
 8212 0b5c 0400     		.2byte	0x4
 8213 0b5e F3       		.byte	0xf3
ARM GAS  C:\Users\claym\AppData\Local\Temp\ccb01mZK.s 			page 171


 8214 0b5f 01       		.uleb128 0x1
 8215 0b60 52       		.byte	0x52
 8216 0b61 9F       		.byte	0x9f
 8217 0b62 10030000 		.4byte	.LVL126-.Ltext0
 8218 0b66 1C030000 		.4byte	.LVL129-.Ltext0
 8219 0b6a 0100     		.2byte	0x1
 8220 0b6c 56       		.byte	0x56
 8221 0b6d 1C030000 		.4byte	.LVL129-.Ltext0
 8222 0b71 1E030000 		.4byte	.LVL130-.Ltext0
 8223 0b75 0100     		.2byte	0x1
 8224 0b77 54       		.byte	0x54
 8225 0b78 1E030000 		.4byte	.LVL130-.Ltext0
 8226 0b7c 3C030000 		.4byte	.LFE8-.Ltext0
 8227 0b80 0100     		.2byte	0x1
 8228 0b82 56       		.byte	0x56
 8229 0b83 00000000 		.4byte	0
 8230 0b87 00000000 		.4byte	0
 8231              	.LLST50:
 8232 0b8b F4020000 		.4byte	.LVL115-.Ltext0
 8233 0b8f F6020000 		.4byte	.LVL116-.Ltext0
 8234 0b93 0200     		.2byte	0x2
 8235 0b95 30       		.byte	0x30
 8236 0b96 9F       		.byte	0x9f
 8237 0b97 00030000 		.4byte	.LVL119-.Ltext0
 8238 0b9b 0C030000 		.4byte	.LVL122-.Ltext0
 8239 0b9f 0100     		.2byte	0x1
 8240 0ba1 56       		.byte	0x56
 8241 0ba2 1E030000 		.4byte	.LVL130-.Ltext0
 8242 0ba6 2A030000 		.4byte	.LVL133-.Ltext0
 8243 0baa 0100     		.2byte	0x1
 8244 0bac 54       		.byte	0x54
 8245 0bad 34030000 		.4byte	.LVL136-.Ltext0
 8246 0bb1 3C030000 		.4byte	.LFE8-.Ltext0
 8247 0bb5 0100     		.2byte	0x1
 8248 0bb7 50       		.byte	0x50
 8249 0bb8 00000000 		.4byte	0
 8250 0bbc 00000000 		.4byte	0
 8251              	.LLST51:
 8252 0bc0 FC020000 		.4byte	.LVL118-.Ltext0
 8253 0bc4 06030000 		.4byte	.LVL120-.Ltext0
 8254 0bc8 0100     		.2byte	0x1
 8255 0bca 50       		.byte	0x50
 8256 0bcb 16030000 		.4byte	.LVL128-.Ltext0
 8257 0bcf 24030000 		.4byte	.LVL131-.Ltext0
 8258 0bd3 0100     		.2byte	0x1
 8259 0bd5 50       		.byte	0x50
 8260 0bd6 00000000 		.4byte	0
 8261 0bda 00000000 		.4byte	0
 8262              	.LLST52:
 8263 0bde D0020000 		.4byte	.LVL112-.Ltext0
 8264 0be2 FB020000 		.4byte	.LVL118-1-.Ltext0
 8265 0be6 0100     		.2byte	0x1
 8266 0be8 51       		.byte	0x51
 8267 0be9 FB020000 		.4byte	.LVL118-1-.Ltext0
 8268 0bed 0E030000 		.4byte	.LVL125-.Ltext0
 8269 0bf1 0100     		.2byte	0x1
 8270 0bf3 57       		.byte	0x57
ARM GAS  C:\Users\claym\AppData\Local\Temp\ccb01mZK.s 			page 172


 8271 0bf4 0E030000 		.4byte	.LVL125-.Ltext0
 8272 0bf8 10030000 		.4byte	.LVL126-.Ltext0
 8273 0bfc 0400     		.2byte	0x4
 8274 0bfe F3       		.byte	0xf3
 8275 0bff 01       		.uleb128 0x1
 8276 0c00 51       		.byte	0x51
 8277 0c01 9F       		.byte	0x9f
 8278 0c02 10030000 		.4byte	.LVL126-.Ltext0
 8279 0c06 15030000 		.4byte	.LVL128-1-.Ltext0
 8280 0c0a 0100     		.2byte	0x1
 8281 0c0c 51       		.byte	0x51
 8282 0c0d 15030000 		.4byte	.LVL128-1-.Ltext0
 8283 0c11 2A030000 		.4byte	.LVL133-.Ltext0
 8284 0c15 0100     		.2byte	0x1
 8285 0c17 57       		.byte	0x57
 8286 0c18 2A030000 		.4byte	.LVL133-.Ltext0
 8287 0c1c 31030000 		.4byte	.LVL135-1-.Ltext0
 8288 0c20 0100     		.2byte	0x1
 8289 0c22 51       		.byte	0x51
 8290 0c23 31030000 		.4byte	.LVL135-1-.Ltext0
 8291 0c27 3C030000 		.4byte	.LFE8-.Ltext0
 8292 0c2b 0100     		.2byte	0x1
 8293 0c2d 57       		.byte	0x57
 8294 0c2e 00000000 		.4byte	0
 8295 0c32 00000000 		.4byte	0
 8296              	.LLST53:
 8297 0c36 E2020000 		.4byte	.LVL114-.Ltext0
 8298 0c3a 0E030000 		.4byte	.LVL123-.Ltext0
 8299 0c3e 0100     		.2byte	0x1
 8300 0c40 55       		.byte	0x55
 8301 0c41 0E030000 		.4byte	.LVL123-.Ltext0
 8302 0c45 10030000 		.4byte	.LVL126-.Ltext0
 8303 0c49 0E00     		.2byte	0xe
 8304 0c4b F3       		.byte	0xf3
 8305 0c4c 01       		.uleb128 0x1
 8306 0c4d 50       		.byte	0x50
 8307 0c4e 23       		.byte	0x23
 8308 0c4f 01       		.uleb128 0x1
 8309 0c50 48       		.byte	0x48
 8310 0c51 1E       		.byte	0x1e
 8311 0c52 03       		.byte	0x3
 8312 0c53 00000000 		.4byte	_SEGGER_RTT
 8313 0c57 22       		.byte	0x22
 8314 0c58 9F       		.byte	0x9f
 8315 0c59 10030000 		.4byte	.LVL126-.Ltext0
 8316 0c5d 3C030000 		.4byte	.LFE8-.Ltext0
 8317 0c61 0100     		.2byte	0x1
 8318 0c63 55       		.byte	0x55
 8319 0c64 00000000 		.4byte	0
 8320 0c68 00000000 		.4byte	0
 8321              	.LLST35:
 8322 0c6c 22020000 		.4byte	.LFB7-.Ltext0
 8323 0c70 24020000 		.4byte	.LCFI7-.Ltext0
 8324 0c74 0200     		.2byte	0x2
 8325 0c76 7D       		.byte	0x7d
 8326 0c77 00       		.sleb128 0
 8327 0c78 24020000 		.4byte	.LCFI7-.Ltext0
ARM GAS  C:\Users\claym\AppData\Local\Temp\ccb01mZK.s 			page 173


 8328 0c7c D0020000 		.4byte	.LFE7-.Ltext0
 8329 0c80 0200     		.2byte	0x2
 8330 0c82 7D       		.byte	0x7d
 8331 0c83 20       		.sleb128 32
 8332 0c84 00000000 		.4byte	0
 8333 0c88 00000000 		.4byte	0
 8334              	.LLST36:
 8335 0c8c 22020000 		.4byte	.LVL78-.Ltext0
 8336 0c90 3E020000 		.4byte	.LVL84-.Ltext0
 8337 0c94 0100     		.2byte	0x1
 8338 0c96 50       		.byte	0x50
 8339 0c97 3E020000 		.4byte	.LVL84-.Ltext0
 8340 0c9b 6A020000 		.4byte	.LVL93-.Ltext0
 8341 0c9f 0100     		.2byte	0x1
 8342 0ca1 53       		.byte	0x53
 8343 0ca2 6A020000 		.4byte	.LVL93-.Ltext0
 8344 0ca6 6E020000 		.4byte	.LVL94-.Ltext0
 8345 0caa 0400     		.2byte	0x4
 8346 0cac F3       		.byte	0xf3
 8347 0cad 01       		.uleb128 0x1
 8348 0cae 50       		.byte	0x50
 8349 0caf 9F       		.byte	0x9f
 8350 0cb0 6E020000 		.4byte	.LVL94-.Ltext0
 8351 0cb4 78020000 		.4byte	.LVL97-.Ltext0
 8352 0cb8 0100     		.2byte	0x1
 8353 0cba 53       		.byte	0x53
 8354 0cbb 78020000 		.4byte	.LVL97-.Ltext0
 8355 0cbf 7E020000 		.4byte	.LVL98-.Ltext0
 8356 0cc3 0300     		.2byte	0x3
 8357 0cc5 73       		.byte	0x73
 8358 0cc6 7F       		.sleb128 -1
 8359 0cc7 9F       		.byte	0x9f
 8360 0cc8 7E020000 		.4byte	.LVL98-.Ltext0
 8361 0ccc B6020000 		.4byte	.LVL107-.Ltext0
 8362 0cd0 0400     		.2byte	0x4
 8363 0cd2 F3       		.byte	0xf3
 8364 0cd3 01       		.uleb128 0x1
 8365 0cd4 50       		.byte	0x50
 8366 0cd5 9F       		.byte	0x9f
 8367 0cd6 B6020000 		.4byte	.LVL107-.Ltext0
 8368 0cda BC020000 		.4byte	.LVL110-.Ltext0
 8369 0cde 0100     		.2byte	0x1
 8370 0ce0 50       		.byte	0x50
 8371 0ce1 BC020000 		.4byte	.LVL110-.Ltext0
 8372 0ce5 C2020000 		.4byte	.LVL111-.Ltext0
 8373 0ce9 0100     		.2byte	0x1
 8374 0ceb 53       		.byte	0x53
 8375 0cec C2020000 		.4byte	.LVL111-.Ltext0
 8376 0cf0 D0020000 		.4byte	.LFE7-.Ltext0
 8377 0cf4 0300     		.2byte	0x3
 8378 0cf6 73       		.byte	0x73
 8379 0cf7 7F       		.sleb128 -1
 8380 0cf8 9F       		.byte	0x9f
 8381 0cf9 00000000 		.4byte	0
 8382 0cfd 00000000 		.4byte	0
 8383              	.LLST37:
 8384 0d01 22020000 		.4byte	.LVL78-.Ltext0
ARM GAS  C:\Users\claym\AppData\Local\Temp\ccb01mZK.s 			page 174


 8385 0d05 2E020000 		.4byte	.LVL81-.Ltext0
 8386 0d09 0100     		.2byte	0x1
 8387 0d0b 51       		.byte	0x51
 8388 0d0c 2E020000 		.4byte	.LVL81-.Ltext0
 8389 0d10 D0020000 		.4byte	.LFE7-.Ltext0
 8390 0d14 0200     		.2byte	0x2
 8391 0d16 91       		.byte	0x91
 8392 0d17 64       		.sleb128 -28
 8393 0d18 00000000 		.4byte	0
 8394 0d1c 00000000 		.4byte	0
 8395              	.LLST38:
 8396 0d20 22020000 		.4byte	.LVL78-.Ltext0
 8397 0d24 34020000 		.4byte	.LVL82-.Ltext0
 8398 0d28 0100     		.2byte	0x1
 8399 0d2a 52       		.byte	0x52
 8400 0d2b 34020000 		.4byte	.LVL82-.Ltext0
 8401 0d2f 56020000 		.4byte	.LVL90-.Ltext0
 8402 0d33 0100     		.2byte	0x1
 8403 0d35 55       		.byte	0x55
 8404 0d36 56020000 		.4byte	.LVL90-.Ltext0
 8405 0d3a 5C020000 		.4byte	.LVL91-.Ltext0
 8406 0d3e 0600     		.2byte	0x6
 8407 0d40 75       		.byte	0x75
 8408 0d41 00       		.sleb128 0
 8409 0d42 72       		.byte	0x72
 8410 0d43 00       		.sleb128 0
 8411 0d44 1C       		.byte	0x1c
 8412 0d45 9F       		.byte	0x9f
 8413 0d46 5C020000 		.4byte	.LVL91-.Ltext0
 8414 0d4a 5E020000 		.4byte	.LVL92-.Ltext0
 8415 0d4e 0700     		.2byte	0x7
 8416 0d50 72       		.byte	0x72
 8417 0d51 00       		.sleb128 0
 8418 0d52 20       		.byte	0x20
 8419 0d53 75       		.byte	0x75
 8420 0d54 00       		.sleb128 0
 8421 0d55 22       		.byte	0x22
 8422 0d56 9F       		.byte	0x9f
 8423 0d57 5E020000 		.4byte	.LVL92-.Ltext0
 8424 0d5b 6A020000 		.4byte	.LVL93-.Ltext0
 8425 0d5f 0600     		.2byte	0x6
 8426 0d61 75       		.byte	0x75
 8427 0d62 00       		.sleb128 0
 8428 0d63 72       		.byte	0x72
 8429 0d64 00       		.sleb128 0
 8430 0d65 1C       		.byte	0x1c
 8431 0d66 9F       		.byte	0x9f
 8432 0d67 6E020000 		.4byte	.LVL94-.Ltext0
 8433 0d6b A4020000 		.4byte	.LVL105-.Ltext0
 8434 0d6f 0100     		.2byte	0x1
 8435 0d71 55       		.byte	0x55
 8436 0d72 A4020000 		.4byte	.LVL105-.Ltext0
 8437 0d76 B6020000 		.4byte	.LVL107-.Ltext0
 8438 0d7a 0400     		.2byte	0x4
 8439 0d7c F3       		.byte	0xf3
 8440 0d7d 01       		.uleb128 0x1
 8441 0d7e 52       		.byte	0x52
ARM GAS  C:\Users\claym\AppData\Local\Temp\ccb01mZK.s 			page 175


 8442 0d7f 9F       		.byte	0x9f
 8443 0d80 B6020000 		.4byte	.LVL107-.Ltext0
 8444 0d84 D0020000 		.4byte	.LFE7-.Ltext0
 8445 0d88 0100     		.2byte	0x1
 8446 0d8a 55       		.byte	0x55
 8447 0d8b 00000000 		.4byte	0
 8448 0d8f 00000000 		.4byte	0
 8449              	.LLST39:
 8450 0d93 24020000 		.4byte	.LVL79-.Ltext0
 8451 0d97 2C020000 		.4byte	.LVL80-.Ltext0
 8452 0d9b 0200     		.2byte	0x2
 8453 0d9d 91       		.byte	0x91
 8454 0d9e 64       		.sleb128 -28
 8455 0d9f 56020000 		.4byte	.LVL90-.Ltext0
 8456 0da3 5E020000 		.4byte	.LVL92-.Ltext0
 8457 0da7 0900     		.2byte	0x9
 8458 0da9 91       		.byte	0x91
 8459 0daa 64       		.sleb128 -28
 8460 0dab 06       		.byte	0x6
 8461 0dac 72       		.byte	0x72
 8462 0dad 00       		.sleb128 0
 8463 0dae 22       		.byte	0x22
 8464 0daf 23       		.byte	0x23
 8465 0db0 01       		.uleb128 0x1
 8466 0db1 9F       		.byte	0x9f
 8467 0db2 5E020000 		.4byte	.LVL92-.Ltext0
 8468 0db6 6A020000 		.4byte	.LVL93-.Ltext0
 8469 0dba 0700     		.2byte	0x7
 8470 0dbc 72       		.byte	0x72
 8471 0dbd 00       		.sleb128 0
 8472 0dbe 91       		.byte	0x91
 8473 0dbf 64       		.sleb128 -28
 8474 0dc0 06       		.byte	0x6
 8475 0dc1 22       		.byte	0x22
 8476 0dc2 9F       		.byte	0x9f
 8477 0dc3 00000000 		.4byte	0
 8478 0dc7 00000000 		.4byte	0
 8479              	.LLST40:
 8480 0dcb 24020000 		.4byte	.LVL79-.Ltext0
 8481 0dcf 3E020000 		.4byte	.LVL84-.Ltext0
 8482 0dd3 0B00     		.2byte	0xb
 8483 0dd5 70       		.byte	0x70
 8484 0dd6 01       		.sleb128 1
 8485 0dd7 48       		.byte	0x48
 8486 0dd8 1E       		.byte	0x1e
 8487 0dd9 03       		.byte	0x3
 8488 0dda 00000000 		.4byte	_SEGGER_RTT
 8489 0dde 22       		.byte	0x22
 8490 0ddf 9F       		.byte	0x9f
 8491 0de0 3E020000 		.4byte	.LVL84-.Ltext0
 8492 0de4 50020000 		.4byte	.LVL88-.Ltext0
 8493 0de8 0B00     		.2byte	0xb
 8494 0dea 73       		.byte	0x73
 8495 0deb 01       		.sleb128 1
 8496 0dec 48       		.byte	0x48
 8497 0ded 1E       		.byte	0x1e
 8498 0dee 03       		.byte	0x3
ARM GAS  C:\Users\claym\AppData\Local\Temp\ccb01mZK.s 			page 176


 8499 0def 00000000 		.4byte	_SEGGER_RTT
 8500 0df3 22       		.byte	0x22
 8501 0df4 9F       		.byte	0x9f
 8502 0df5 50020000 		.4byte	.LVL88-.Ltext0
 8503 0df9 56020000 		.4byte	.LVL90-.Ltext0
 8504 0dfd 0100     		.2byte	0x1
 8505 0dff 56       		.byte	0x56
 8506 0e00 56020000 		.4byte	.LVL90-.Ltext0
 8507 0e04 6A020000 		.4byte	.LVL93-.Ltext0
 8508 0e08 0B00     		.2byte	0xb
 8509 0e0a 73       		.byte	0x73
 8510 0e0b 01       		.sleb128 1
 8511 0e0c 48       		.byte	0x48
 8512 0e0d 1E       		.byte	0x1e
 8513 0e0e 03       		.byte	0x3
 8514 0e0f 00000000 		.4byte	_SEGGER_RTT
 8515 0e13 22       		.byte	0x22
 8516 0e14 9F       		.byte	0x9f
 8517 0e15 6A020000 		.4byte	.LVL93-.Ltext0
 8518 0e19 6E020000 		.4byte	.LVL94-.Ltext0
 8519 0e1d 0E00     		.2byte	0xe
 8520 0e1f F3       		.byte	0xf3
 8521 0e20 01       		.uleb128 0x1
 8522 0e21 50       		.byte	0x50
 8523 0e22 23       		.byte	0x23
 8524 0e23 01       		.uleb128 0x1
 8525 0e24 48       		.byte	0x48
 8526 0e25 1E       		.byte	0x1e
 8527 0e26 03       		.byte	0x3
 8528 0e27 00000000 		.4byte	_SEGGER_RTT
 8529 0e2b 22       		.byte	0x22
 8530 0e2c 9F       		.byte	0x9f
 8531 0e2d 6E020000 		.4byte	.LVL94-.Ltext0
 8532 0e31 78020000 		.4byte	.LVL97-.Ltext0
 8533 0e35 0B00     		.2byte	0xb
 8534 0e37 73       		.byte	0x73
 8535 0e38 01       		.sleb128 1
 8536 0e39 48       		.byte	0x48
 8537 0e3a 1E       		.byte	0x1e
 8538 0e3b 03       		.byte	0x3
 8539 0e3c 00000000 		.4byte	_SEGGER_RTT
 8540 0e40 22       		.byte	0x22
 8541 0e41 9F       		.byte	0x9f
 8542 0e42 78020000 		.4byte	.LVL97-.Ltext0
 8543 0e46 7E020000 		.4byte	.LVL98-.Ltext0
 8544 0e4a 0B00     		.2byte	0xb
 8545 0e4c 73       		.byte	0x73
 8546 0e4d 00       		.sleb128 0
 8547 0e4e 48       		.byte	0x48
 8548 0e4f 1E       		.byte	0x1e
 8549 0e50 03       		.byte	0x3
 8550 0e51 00000000 		.4byte	_SEGGER_RTT
 8551 0e55 22       		.byte	0x22
 8552 0e56 9F       		.byte	0x9f
 8553 0e57 7E020000 		.4byte	.LVL98-.Ltext0
 8554 0e5b B6020000 		.4byte	.LVL107-.Ltext0
 8555 0e5f 0E00     		.2byte	0xe
ARM GAS  C:\Users\claym\AppData\Local\Temp\ccb01mZK.s 			page 177


 8556 0e61 F3       		.byte	0xf3
 8557 0e62 01       		.uleb128 0x1
 8558 0e63 50       		.byte	0x50
 8559 0e64 23       		.byte	0x23
 8560 0e65 01       		.uleb128 0x1
 8561 0e66 48       		.byte	0x48
 8562 0e67 1E       		.byte	0x1e
 8563 0e68 03       		.byte	0x3
 8564 0e69 00000000 		.4byte	_SEGGER_RTT
 8565 0e6d 22       		.byte	0x22
 8566 0e6e 9F       		.byte	0x9f
 8567 0e6f B6020000 		.4byte	.LVL107-.Ltext0
 8568 0e73 BC020000 		.4byte	.LVL110-.Ltext0
 8569 0e77 0B00     		.2byte	0xb
 8570 0e79 70       		.byte	0x70
 8571 0e7a 01       		.sleb128 1
 8572 0e7b 48       		.byte	0x48
 8573 0e7c 1E       		.byte	0x1e
 8574 0e7d 03       		.byte	0x3
 8575 0e7e 00000000 		.4byte	_SEGGER_RTT
 8576 0e82 22       		.byte	0x22
 8577 0e83 9F       		.byte	0x9f
 8578 0e84 BC020000 		.4byte	.LVL110-.Ltext0
 8579 0e88 C2020000 		.4byte	.LVL111-.Ltext0
 8580 0e8c 0B00     		.2byte	0xb
 8581 0e8e 73       		.byte	0x73
 8582 0e8f 01       		.sleb128 1
 8583 0e90 48       		.byte	0x48
 8584 0e91 1E       		.byte	0x1e
 8585 0e92 03       		.byte	0x3
 8586 0e93 00000000 		.4byte	_SEGGER_RTT
 8587 0e97 22       		.byte	0x22
 8588 0e98 9F       		.byte	0x9f
 8589 0e99 C2020000 		.4byte	.LVL111-.Ltext0
 8590 0e9d D0020000 		.4byte	.LFE7-.Ltext0
 8591 0ea1 0B00     		.2byte	0xb
 8592 0ea3 73       		.byte	0x73
 8593 0ea4 00       		.sleb128 0
 8594 0ea5 48       		.byte	0x48
 8595 0ea6 1E       		.byte	0x1e
 8596 0ea7 03       		.byte	0x3
 8597 0ea8 00000000 		.4byte	_SEGGER_RTT
 8598 0eac 22       		.byte	0x22
 8599 0ead 9F       		.byte	0x9f
 8600 0eae 00000000 		.4byte	0
 8601 0eb2 00000000 		.4byte	0
 8602              	.LLST41:
 8603 0eb6 44020000 		.4byte	.LVL85-.Ltext0
 8604 0eba 4C020000 		.4byte	.LVL87-.Ltext0
 8605 0ebe 0100     		.2byte	0x1
 8606 0ec0 50       		.byte	0x50
 8607 0ec1 4C020000 		.4byte	.LVL87-.Ltext0
 8608 0ec5 6A020000 		.4byte	.LVL93-.Ltext0
 8609 0ec9 0600     		.2byte	0x6
 8610 0ecb 7D       		.byte	0x7d
 8611 0ecc 00       		.sleb128 0
 8612 0ecd 06       		.byte	0x6
ARM GAS  C:\Users\claym\AppData\Local\Temp\ccb01mZK.s 			page 178


 8613 0ece 31       		.byte	0x31
 8614 0ecf 1C       		.byte	0x1c
 8615 0ed0 9F       		.byte	0x9f
 8616 0ed1 6E020000 		.4byte	.LVL94-.Ltext0
 8617 0ed5 70020000 		.4byte	.LVL95-.Ltext0
 8618 0ed9 0600     		.2byte	0x6
 8619 0edb 72       		.byte	0x72
 8620 0edc 00       		.sleb128 0
 8621 0edd 70       		.byte	0x70
 8622 0ede 00       		.sleb128 0
 8623 0edf 22       		.byte	0x22
 8624 0ee0 9F       		.byte	0x9f
 8625 0ee1 70020000 		.4byte	.LVL95-.Ltext0
 8626 0ee5 86020000 		.4byte	.LVL99-.Ltext0
 8627 0ee9 0100     		.2byte	0x1
 8628 0eeb 52       		.byte	0x52
 8629 0eec 94020000 		.4byte	.LVL102-.Ltext0
 8630 0ef0 96020000 		.4byte	.LVL103-.Ltext0
 8631 0ef4 0100     		.2byte	0x1
 8632 0ef6 52       		.byte	0x52
 8633 0ef7 B6020000 		.4byte	.LVL107-.Ltext0
 8634 0efb B8020000 		.4byte	.LVL108-.Ltext0
 8635 0eff 0700     		.2byte	0x7
 8636 0f01 74       		.byte	0x74
 8637 0f02 00       		.sleb128 0
 8638 0f03 20       		.byte	0x20
 8639 0f04 72       		.byte	0x72
 8640 0f05 00       		.sleb128 0
 8641 0f06 22       		.byte	0x22
 8642 0f07 9F       		.byte	0x9f
 8643 0f08 B8020000 		.4byte	.LVL108-.Ltext0
 8644 0f0c BA020000 		.4byte	.LVL109-.Ltext0
 8645 0f10 0600     		.2byte	0x6
 8646 0f12 72       		.byte	0x72
 8647 0f13 00       		.sleb128 0
 8648 0f14 74       		.byte	0x74
 8649 0f15 00       		.sleb128 0
 8650 0f16 1C       		.byte	0x1c
 8651 0f17 9F       		.byte	0x9f
 8652 0f18 00000000 		.4byte	0
 8653 0f1c 00000000 		.4byte	0
 8654              	.LLST42:
 8655 0f20 34020000 		.4byte	.LVL82-.Ltext0
 8656 0f24 4A020000 		.4byte	.LVL86-.Ltext0
 8657 0f28 0100     		.2byte	0x1
 8658 0f2a 52       		.byte	0x52
 8659 0f2b 6E020000 		.4byte	.LVL94-.Ltext0
 8660 0f2f 70020000 		.4byte	.LVL95-.Ltext0
 8661 0f33 0100     		.2byte	0x1
 8662 0f35 52       		.byte	0x52
 8663 0f36 B6020000 		.4byte	.LVL107-.Ltext0
 8664 0f3a B8020000 		.4byte	.LVL108-.Ltext0
 8665 0f3e 0100     		.2byte	0x1
 8666 0f40 52       		.byte	0x52
 8667 0f41 B8020000 		.4byte	.LVL108-.Ltext0
 8668 0f45 BA020000 		.4byte	.LVL109-.Ltext0
 8669 0f49 0300     		.2byte	0x3
ARM GAS  C:\Users\claym\AppData\Local\Temp\ccb01mZK.s 			page 179


 8670 0f4b 72       		.byte	0x72
 8671 0f4c 01       		.sleb128 1
 8672 0f4d 9F       		.byte	0x9f
 8673 0f4e 00000000 		.4byte	0
 8674 0f52 00000000 		.4byte	0
 8675              	.LLST43:
 8676 0f56 36020000 		.4byte	.LVL83-.Ltext0
 8677 0f5a 6A020000 		.4byte	.LVL93-.Ltext0
 8678 0f5e 0100     		.2byte	0x1
 8679 0f60 54       		.byte	0x54
 8680 0f61 6E020000 		.4byte	.LVL94-.Ltext0
 8681 0f65 8C020000 		.4byte	.LVL100-.Ltext0
 8682 0f69 0100     		.2byte	0x1
 8683 0f6b 54       		.byte	0x54
 8684 0f6c 8C020000 		.4byte	.LVL100-.Ltext0
 8685 0f70 8F020000 		.4byte	.LVL101-1-.Ltext0
 8686 0f74 0200     		.2byte	0x2
 8687 0f76 77       		.byte	0x77
 8688 0f77 24       		.sleb128 36
 8689 0f78 94020000 		.4byte	.LVL102-.Ltext0
 8690 0f7c D0020000 		.4byte	.LFE7-.Ltext0
 8691 0f80 0100     		.2byte	0x1
 8692 0f82 54       		.byte	0x54
 8693 0f83 00000000 		.4byte	0
 8694 0f87 00000000 		.4byte	0
 8695              	.LLST44:
 8696 0f8b 76020000 		.4byte	.LVL96-.Ltext0
 8697 0f8f 86020000 		.4byte	.LVL99-.Ltext0
 8698 0f93 0200     		.2byte	0x2
 8699 0f95 7D       		.byte	0x7d
 8700 0f96 00       		.sleb128 0
 8701 0f97 94020000 		.4byte	.LVL102-.Ltext0
 8702 0f9b 9B020000 		.4byte	.LVL104-1-.Ltext0
 8703 0f9f 0100     		.2byte	0x1
 8704 0fa1 53       		.byte	0x53
 8705 0fa2 9B020000 		.4byte	.LVL104-1-.Ltext0
 8706 0fa6 B6020000 		.4byte	.LVL107-.Ltext0
 8707 0faa 0200     		.2byte	0x2
 8708 0fac 7D       		.byte	0x7d
 8709 0fad 00       		.sleb128 0
 8710 0fae 00000000 		.4byte	0
 8711 0fb2 00000000 		.4byte	0
 8712              	.LLST45:
 8713 0fb6 54020000 		.4byte	.LVL89-.Ltext0
 8714 0fba 56020000 		.4byte	.LVL90-.Ltext0
 8715 0fbe 0100     		.2byte	0x1
 8716 0fc0 50       		.byte	0x50
 8717 0fc1 56020000 		.4byte	.LVL90-.Ltext0
 8718 0fc5 5E020000 		.4byte	.LVL92-.Ltext0
 8719 0fc9 0800     		.2byte	0x8
 8720 0fcb 70       		.byte	0x70
 8721 0fcc 00       		.sleb128 0
 8722 0fcd 72       		.byte	0x72
 8723 0fce 00       		.sleb128 0
 8724 0fcf 22       		.byte	0x22
 8725 0fd0 23       		.byte	0x23
 8726 0fd1 01       		.uleb128 0x1
ARM GAS  C:\Users\claym\AppData\Local\Temp\ccb01mZK.s 			page 180


 8727 0fd2 9F       		.byte	0x9f
 8728 0fd3 5E020000 		.4byte	.LVL92-.Ltext0
 8729 0fd7 6A020000 		.4byte	.LVL93-.Ltext0
 8730 0fdb 0600     		.2byte	0x6
 8731 0fdd 70       		.byte	0x70
 8732 0fde 00       		.sleb128 0
 8733 0fdf 72       		.byte	0x72
 8734 0fe0 00       		.sleb128 0
 8735 0fe1 22       		.byte	0x22
 8736 0fe2 9F       		.byte	0x9f
 8737 0fe3 00000000 		.4byte	0
 8738 0fe7 00000000 		.4byte	0
 8739              	.LLST30:
 8740 0feb 08020000 		.4byte	.LFB6-.Ltext0
 8741 0fef 0A020000 		.4byte	.LCFI6-.Ltext0
 8742 0ff3 0200     		.2byte	0x2
 8743 0ff5 7D       		.byte	0x7d
 8744 0ff6 00       		.sleb128 0
 8745 0ff7 0A020000 		.4byte	.LCFI6-.Ltext0
 8746 0ffb 22020000 		.4byte	.LFE6-.Ltext0
 8747 0fff 0200     		.2byte	0x2
 8748 1001 7D       		.byte	0x7d
 8749 1002 08       		.sleb128 8
 8750 1003 00000000 		.4byte	0
 8751 1007 00000000 		.4byte	0
 8752              	.LLST31:
 8753 100b 08020000 		.4byte	.LVL74-.Ltext0
 8754 100f 1B020000 		.4byte	.LVL76-1-.Ltext0
 8755 1013 0100     		.2byte	0x1
 8756 1015 50       		.byte	0x50
 8757 1016 1B020000 		.4byte	.LVL76-1-.Ltext0
 8758 101a 22020000 		.4byte	.LFE6-.Ltext0
 8759 101e 0400     		.2byte	0x4
 8760 1020 F3       		.byte	0xf3
 8761 1021 01       		.uleb128 0x1
 8762 1022 50       		.byte	0x50
 8763 1023 9F       		.byte	0x9f
 8764 1024 00000000 		.4byte	0
 8765 1028 00000000 		.4byte	0
 8766              	.LLST32:
 8767 102c 08020000 		.4byte	.LVL74-.Ltext0
 8768 1030 16020000 		.4byte	.LVL75-.Ltext0
 8769 1034 0100     		.2byte	0x1
 8770 1036 51       		.byte	0x51
 8771 1037 16020000 		.4byte	.LVL75-.Ltext0
 8772 103b 1B020000 		.4byte	.LVL76-1-.Ltext0
 8773 103f 0100     		.2byte	0x1
 8774 1041 53       		.byte	0x53
 8775 1042 1B020000 		.4byte	.LVL76-1-.Ltext0
 8776 1046 22020000 		.4byte	.LFE6-.Ltext0
 8777 104a 0400     		.2byte	0x4
 8778 104c F3       		.byte	0xf3
 8779 104d 01       		.uleb128 0x1
 8780 104e 51       		.byte	0x51
 8781 104f 9F       		.byte	0x9f
 8782 1050 00000000 		.4byte	0
 8783 1054 00000000 		.4byte	0
ARM GAS  C:\Users\claym\AppData\Local\Temp\ccb01mZK.s 			page 181


 8784              	.LLST33:
 8785 1058 08020000 		.4byte	.LVL74-.Ltext0
 8786 105c 1B020000 		.4byte	.LVL76-1-.Ltext0
 8787 1060 0100     		.2byte	0x1
 8788 1062 52       		.byte	0x52
 8789 1063 1B020000 		.4byte	.LVL76-1-.Ltext0
 8790 1067 22020000 		.4byte	.LFE6-.Ltext0
 8791 106b 0400     		.2byte	0x4
 8792 106d F3       		.byte	0xf3
 8793 106e 01       		.uleb128 0x1
 8794 106f 52       		.byte	0x52
 8795 1070 9F       		.byte	0x9f
 8796 1071 00000000 		.4byte	0
 8797 1075 00000000 		.4byte	0
 8798              	.LLST34:
 8799 1079 16020000 		.4byte	.LVL75-.Ltext0
 8800 107d 20020000 		.4byte	.LVL77-.Ltext0
 8801 1081 0100     		.2byte	0x1
 8802 1083 54       		.byte	0x54
 8803 1084 00000000 		.4byte	0
 8804 1088 00000000 		.4byte	0
 8805              	.LLST21:
 8806 108c 64010000 		.4byte	.LFB5-.Ltext0
 8807 1090 66010000 		.4byte	.LCFI4-.Ltext0
 8808 1094 0200     		.2byte	0x2
 8809 1096 7D       		.byte	0x7d
 8810 1097 00       		.sleb128 0
 8811 1098 66010000 		.4byte	.LCFI4-.Ltext0
 8812 109c 6A010000 		.4byte	.LCFI5-.Ltext0
 8813 10a0 0200     		.2byte	0x2
 8814 10a2 7D       		.byte	0x7d
 8815 10a3 14       		.sleb128 20
 8816 10a4 6A010000 		.4byte	.LCFI5-.Ltext0
 8817 10a8 08020000 		.4byte	.LFE5-.Ltext0
 8818 10ac 0200     		.2byte	0x2
 8819 10ae 7D       		.byte	0x7d
 8820 10af 28       		.sleb128 40
 8821 10b0 00000000 		.4byte	0
 8822 10b4 00000000 		.4byte	0
 8823              	.LLST22:
 8824 10b8 64010000 		.4byte	.LVL52-.Ltext0
 8825 10bc 79010000 		.4byte	.LVL53-1-.Ltext0
 8826 10c0 0100     		.2byte	0x1
 8827 10c2 50       		.byte	0x50
 8828 10c3 79010000 		.4byte	.LVL53-1-.Ltext0
 8829 10c7 08020000 		.4byte	.LFE5-.Ltext0
 8830 10cb 0200     		.2byte	0x2
 8831 10cd 91       		.byte	0x91
 8832 10ce 5C       		.sleb128 -36
 8833 10cf 00000000 		.4byte	0
 8834 10d3 00000000 		.4byte	0
 8835              	.LLST23:
 8836 10d7 64010000 		.4byte	.LVL52-.Ltext0
 8837 10db 79010000 		.4byte	.LVL53-1-.Ltext0
 8838 10df 0100     		.2byte	0x1
 8839 10e1 51       		.byte	0x51
 8840 10e2 79010000 		.4byte	.LVL53-1-.Ltext0
ARM GAS  C:\Users\claym\AppData\Local\Temp\ccb01mZK.s 			page 182


 8841 10e6 BC010000 		.4byte	.LVL63-.Ltext0
 8842 10ea 0200     		.2byte	0x2
 8843 10ec 91       		.byte	0x91
 8844 10ed 60       		.sleb128 -32
 8845 10ee BC010000 		.4byte	.LVL63-.Ltext0
 8846 10f2 08020000 		.4byte	.LFE5-.Ltext0
 8847 10f6 0400     		.2byte	0x4
 8848 10f8 F3       		.byte	0xf3
 8849 10f9 01       		.uleb128 0x1
 8850 10fa 51       		.byte	0x51
 8851 10fb 9F       		.byte	0x9f
 8852 10fc 00000000 		.4byte	0
 8853 1100 00000000 		.4byte	0
 8854              	.LLST24:
 8855 1104 64010000 		.4byte	.LVL52-.Ltext0
 8856 1108 79010000 		.4byte	.LVL53-1-.Ltext0
 8857 110c 0100     		.2byte	0x1
 8858 110e 52       		.byte	0x52
 8859 110f 79010000 		.4byte	.LVL53-1-.Ltext0
 8860 1113 AE010000 		.4byte	.LVL59-.Ltext0
 8861 1117 0100     		.2byte	0x1
 8862 1119 55       		.byte	0x55
 8863 111a AE010000 		.4byte	.LVL59-.Ltext0
 8864 111e BC010000 		.4byte	.LVL63-.Ltext0
 8865 1122 0400     		.2byte	0x4
 8866 1124 F3       		.byte	0xf3
 8867 1125 01       		.uleb128 0x1
 8868 1126 52       		.byte	0x52
 8869 1127 9F       		.byte	0x9f
 8870 1128 00000000 		.4byte	0
 8871 112c 00000000 		.4byte	0
 8872              	.LLST25:
 8873 1130 96010000 		.4byte	.LVL56-.Ltext0
 8874 1134 9C010000 		.4byte	.LVL57-.Ltext0
 8875 1138 0100     		.2byte	0x1
 8876 113a 53       		.byte	0x53
 8877 113b 9C010000 		.4byte	.LVL57-.Ltext0
 8878 113f C4010000 		.4byte	.LVL65-.Ltext0
 8879 1143 0100     		.2byte	0x1
 8880 1145 56       		.byte	0x56
 8881 1146 C8010000 		.4byte	.LVL66-.Ltext0
 8882 114a CE010000 		.4byte	.LVL67-.Ltext0
 8883 114e 0100     		.2byte	0x1
 8884 1150 53       		.byte	0x53
 8885 1151 CE010000 		.4byte	.LVL67-.Ltext0
 8886 1155 00020000 		.4byte	.LVL72-.Ltext0
 8887 1159 0100     		.2byte	0x1
 8888 115b 55       		.byte	0x55
 8889 115c 00000000 		.4byte	0
 8890 1160 00000000 		.4byte	0
 8891              	.LLST26:
 8892 1164 8C010000 		.4byte	.LVL55-.Ltext0
 8893 1168 B4010000 		.4byte	.LVL60-.Ltext0
 8894 116c 0200     		.2byte	0x2
 8895 116e 30       		.byte	0x30
 8896 116f 9F       		.byte	0x9f
 8897 1170 B4010000 		.4byte	.LVL60-.Ltext0
ARM GAS  C:\Users\claym\AppData\Local\Temp\ccb01mZK.s 			page 183


 8898 1174 DE010000 		.4byte	.LVL68-.Ltext0
 8899 1178 0100     		.2byte	0x1
 8900 117a 56       		.byte	0x56
 8901 117b EA010000 		.4byte	.LVL69-.Ltext0
 8902 117f 00020000 		.4byte	.LVL73-.Ltext0
 8903 1183 0100     		.2byte	0x1
 8904 1185 56       		.byte	0x56
 8905 1186 00020000 		.4byte	.LVL73-.Ltext0
 8906 118a 08020000 		.4byte	.LFE5-.Ltext0
 8907 118e 0100     		.2byte	0x1
 8908 1190 50       		.byte	0x50
 8909 1191 00000000 		.4byte	0
 8910 1195 00000000 		.4byte	0
 8911              	.LLST27:
 8912 1199 8A010000 		.4byte	.LVL54-.Ltext0
 8913 119d B8010000 		.4byte	.LVL61-.Ltext0
 8914 11a1 0100     		.2byte	0x1
 8915 11a3 54       		.byte	0x54
 8916 11a4 BC010000 		.4byte	.LVL63-.Ltext0
 8917 11a8 00020000 		.4byte	.LVL71-.Ltext0
 8918 11ac 0100     		.2byte	0x1
 8919 11ae 54       		.byte	0x54
 8920 11af 00000000 		.4byte	0
 8921 11b3 00000000 		.4byte	0
 8922              	.LLST28:
 8923 11b7 8C010000 		.4byte	.LVL55-.Ltext0
 8924 11bb A2010000 		.4byte	.LVL58-.Ltext0
 8925 11bf 0100     		.2byte	0x1
 8926 11c1 52       		.byte	0x52
 8927 11c2 A2010000 		.4byte	.LVL58-.Ltext0
 8928 11c6 08020000 		.4byte	.LFE5-.Ltext0
 8929 11ca 0200     		.2byte	0x2
 8930 11cc 91       		.byte	0x91
 8931 11cd 64       		.sleb128 -28
 8932 11ce 00000000 		.4byte	0
 8933 11d2 00000000 		.4byte	0
 8934              	.LLST29:
 8935 11d6 7A010000 		.4byte	.LVL53-.Ltext0
 8936 11da B4010000 		.4byte	.LVL60-.Ltext0
 8937 11de 0200     		.2byte	0x2
 8938 11e0 91       		.byte	0x91
 8939 11e1 60       		.sleb128 -32
 8940 11e2 B4010000 		.4byte	.LVL60-.Ltext0
 8941 11e6 BA010000 		.4byte	.LVL62-.Ltext0
 8942 11ea 0700     		.2byte	0x7
 8943 11ec 91       		.byte	0x91
 8944 11ed 60       		.sleb128 -32
 8945 11ee 06       		.byte	0x6
 8946 11ef 76       		.byte	0x76
 8947 11f0 00       		.sleb128 0
 8948 11f1 22       		.byte	0x22
 8949 11f2 9F       		.byte	0x9f
 8950 11f3 BA010000 		.4byte	.LVL62-.Ltext0
 8951 11f7 BE010000 		.4byte	.LVL64-.Ltext0
 8952 11fb 0100     		.2byte	0x1
 8953 11fd 53       		.byte	0x53
 8954 11fe BE010000 		.4byte	.LVL64-.Ltext0
ARM GAS  C:\Users\claym\AppData\Local\Temp\ccb01mZK.s 			page 184


 8955 1202 EA010000 		.4byte	.LVL69-.Ltext0
 8956 1206 0200     		.2byte	0x2
 8957 1208 91       		.byte	0x91
 8958 1209 60       		.sleb128 -32
 8959 120a EA010000 		.4byte	.LVL69-.Ltext0
 8960 120e EC010000 		.4byte	.LVL70-.Ltext0
 8961 1212 0700     		.2byte	0x7
 8962 1214 91       		.byte	0x91
 8963 1215 60       		.sleb128 -32
 8964 1216 06       		.byte	0x6
 8965 1217 75       		.byte	0x75
 8966 1218 00       		.sleb128 0
 8967 1219 22       		.byte	0x22
 8968 121a 9F       		.byte	0x9f
 8969 121b 00000000 		.4byte	0
 8970 121f 00000000 		.4byte	0
 8971              	.LLST0:
 8972 1223 00000000 		.4byte	.LVL0-.Ltext0
 8973 1227 0A000000 		.4byte	.LVL3-.Ltext0
 8974 122b 0100     		.2byte	0x1
 8975 122d 50       		.byte	0x50
 8976 122e 0A000000 		.4byte	.LVL3-.Ltext0
 8977 1232 12000000 		.4byte	.LFE4-.Ltext0
 8978 1236 0400     		.2byte	0x4
 8979 1238 F3       		.byte	0xf3
 8980 1239 01       		.uleb128 0x1
 8981 123a 50       		.byte	0x50
 8982 123b 9F       		.byte	0x9f
 8983 123c 00000000 		.4byte	0
 8984 1240 00000000 		.4byte	0
 8985              	.LLST1:
 8986 1244 02000000 		.4byte	.LVL1-.Ltext0
 8987 1248 0C000000 		.4byte	.LVL4-.Ltext0
 8988 124c 0100     		.2byte	0x1
 8989 124e 53       		.byte	0x53
 8990 124f 00000000 		.4byte	0
 8991 1253 00000000 		.4byte	0
 8992              	.LLST2:
 8993 1257 12000000 		.4byte	.LFB2-.Ltext0
 8994 125b 14000000 		.4byte	.LCFI0-.Ltext0
 8995 125f 0200     		.2byte	0x2
 8996 1261 7D       		.byte	0x7d
 8997 1262 00       		.sleb128 0
 8998 1263 14000000 		.4byte	.LCFI0-.Ltext0
 8999 1267 4E000000 		.4byte	.LFE2-.Ltext0
 9000 126b 0200     		.2byte	0x2
 9001 126d 7D       		.byte	0x7d
 9002 126e 20       		.sleb128 32
 9003 126f 00000000 		.4byte	0
 9004 1273 00000000 		.4byte	0
 9005              	.LLST3:
 9006 1277 12000000 		.4byte	.LVL6-.Ltext0
 9007 127b 28000000 		.4byte	.LVL11-.Ltext0
 9008 127f 0100     		.2byte	0x1
 9009 1281 50       		.byte	0x50
 9010 1282 28000000 		.4byte	.LVL11-.Ltext0
 9011 1286 38000000 		.4byte	.LVL15-.Ltext0
ARM GAS  C:\Users\claym\AppData\Local\Temp\ccb01mZK.s 			page 185


 9012 128a 0100     		.2byte	0x1
 9013 128c 55       		.byte	0x55
 9014 128d 38000000 		.4byte	.LVL15-.Ltext0
 9015 1291 3A000000 		.4byte	.LVL18-.Ltext0
 9016 1295 0400     		.2byte	0x4
 9017 1297 F3       		.byte	0xf3
 9018 1298 01       		.uleb128 0x1
 9019 1299 50       		.byte	0x50
 9020 129a 9F       		.byte	0x9f
 9021 129b 3A000000 		.4byte	.LVL18-.Ltext0
 9022 129f 4E000000 		.4byte	.LFE2-.Ltext0
 9023 12a3 0100     		.2byte	0x1
 9024 12a5 55       		.byte	0x55
 9025 12a6 00000000 		.4byte	0
 9026 12aa 00000000 		.4byte	0
 9027              	.LLST4:
 9028 12ae 12000000 		.4byte	.LVL6-.Ltext0
 9029 12b2 31000000 		.4byte	.LVL13-1-.Ltext0
 9030 12b6 0100     		.2byte	0x1
 9031 12b8 51       		.byte	0x51
 9032 12b9 31000000 		.4byte	.LVL13-1-.Ltext0
 9033 12bd 38000000 		.4byte	.LVL17-.Ltext0
 9034 12c1 0100     		.2byte	0x1
 9035 12c3 57       		.byte	0x57
 9036 12c4 38000000 		.4byte	.LVL17-.Ltext0
 9037 12c8 3A000000 		.4byte	.LVL18-.Ltext0
 9038 12cc 0400     		.2byte	0x4
 9039 12ce F3       		.byte	0xf3
 9040 12cf 01       		.uleb128 0x1
 9041 12d0 51       		.byte	0x51
 9042 12d1 9F       		.byte	0x9f
 9043 12d2 3A000000 		.4byte	.LVL18-.Ltext0
 9044 12d6 41000000 		.4byte	.LVL21-1-.Ltext0
 9045 12da 0100     		.2byte	0x1
 9046 12dc 51       		.byte	0x51
 9047 12dd 41000000 		.4byte	.LVL21-1-.Ltext0
 9048 12e1 4E000000 		.4byte	.LFE2-.Ltext0
 9049 12e5 0100     		.2byte	0x1
 9050 12e7 57       		.byte	0x57
 9051 12e8 00000000 		.4byte	0
 9052 12ec 00000000 		.4byte	0
 9053              	.LLST5:
 9054 12f0 12000000 		.4byte	.LVL6-.Ltext0
 9055 12f4 1C000000 		.4byte	.LVL8-.Ltext0
 9056 12f8 0100     		.2byte	0x1
 9057 12fa 52       		.byte	0x52
 9058 12fb 1C000000 		.4byte	.LVL8-.Ltext0
 9059 12ff 36000000 		.4byte	.LVL14-.Ltext0
 9060 1303 0100     		.2byte	0x1
 9061 1305 54       		.byte	0x54
 9062 1306 36000000 		.4byte	.LVL14-.Ltext0
 9063 130a 3A000000 		.4byte	.LVL18-.Ltext0
 9064 130e 0400     		.2byte	0x4
 9065 1310 F3       		.byte	0xf3
 9066 1311 01       		.uleb128 0x1
 9067 1312 52       		.byte	0x52
 9068 1313 9F       		.byte	0x9f
ARM GAS  C:\Users\claym\AppData\Local\Temp\ccb01mZK.s 			page 186


 9069 1314 3A000000 		.4byte	.LVL18-.Ltext0
 9070 1318 3E000000 		.4byte	.LVL20-.Ltext0
 9071 131c 0100     		.2byte	0x1
 9072 131e 54       		.byte	0x54
 9073 131f 3E000000 		.4byte	.LVL20-.Ltext0
 9074 1323 4E000000 		.4byte	.LFE2-.Ltext0
 9075 1327 0400     		.2byte	0x4
 9076 1329 F3       		.byte	0xf3
 9077 132a 01       		.uleb128 0x1
 9078 132b 52       		.byte	0x52
 9079 132c 9F       		.byte	0x9f
 9080 132d 00000000 		.4byte	0
 9081 1331 00000000 		.4byte	0
 9082              	.LLST6:
 9083 1335 3A000000 		.4byte	.LVL18-.Ltext0
 9084 1339 42000000 		.4byte	.LVL21-.Ltext0
 9085 133d 0100     		.2byte	0x1
 9086 133f 56       		.byte	0x56
 9087 1340 42000000 		.4byte	.LVL21-.Ltext0
 9088 1344 4E000000 		.4byte	.LFE2-.Ltext0
 9089 1348 0100     		.2byte	0x1
 9090 134a 54       		.byte	0x54
 9091 134b 00000000 		.4byte	0
 9092 134f 00000000 		.4byte	0
 9093              	.LLST7:
 9094 1353 1A000000 		.4byte	.LVL7-.Ltext0
 9095 1357 1E000000 		.4byte	.LVL9-.Ltext0
 9096 135b 0100     		.2byte	0x1
 9097 135d 53       		.byte	0x53
 9098 135e 1E000000 		.4byte	.LVL9-.Ltext0
 9099 1362 2E000000 		.4byte	.LVL12-.Ltext0
 9100 1366 0100     		.2byte	0x1
 9101 1368 52       		.byte	0x52
 9102 1369 2E000000 		.4byte	.LVL12-.Ltext0
 9103 136d 31000000 		.4byte	.LVL13-1-.Ltext0
 9104 1371 0200     		.2byte	0x2
 9105 1373 75       		.byte	0x75
 9106 1374 0C       		.sleb128 12
 9107 1375 31000000 		.4byte	.LVL13-1-.Ltext0
 9108 1379 3A000000 		.4byte	.LVL18-.Ltext0
 9109 137d 0200     		.2byte	0x2
 9110 137f 91       		.byte	0x91
 9111 1380 64       		.sleb128 -28
 9112 1381 3A000000 		.4byte	.LVL18-.Ltext0
 9113 1385 3C000000 		.4byte	.LVL19-.Ltext0
 9114 1389 0100     		.2byte	0x1
 9115 138b 52       		.byte	0x52
 9116 138c 3C000000 		.4byte	.LVL19-.Ltext0
 9117 1390 41000000 		.4byte	.LVL21-1-.Ltext0
 9118 1394 0200     		.2byte	0x2
 9119 1396 75       		.byte	0x75
 9120 1397 0C       		.sleb128 12
 9121 1398 41000000 		.4byte	.LVL21-1-.Ltext0
 9122 139c 4E000000 		.4byte	.LFE2-.Ltext0
 9123 13a0 0200     		.2byte	0x2
 9124 13a2 91       		.byte	0x91
 9125 13a3 64       		.sleb128 -28
ARM GAS  C:\Users\claym\AppData\Local\Temp\ccb01mZK.s 			page 187


 9126 13a4 00000000 		.4byte	0
 9127 13a8 00000000 		.4byte	0
 9128              	.LLST8:
 9129 13ac 22000000 		.4byte	.LVL10-.Ltext0
 9130 13b0 38000000 		.4byte	.LVL16-.Ltext0
 9131 13b4 0100     		.2byte	0x1
 9132 13b6 56       		.byte	0x56
 9133 13b7 3A000000 		.4byte	.LVL18-.Ltext0
 9134 13bb 4E000000 		.4byte	.LFE2-.Ltext0
 9135 13bf 0100     		.2byte	0x1
 9136 13c1 56       		.byte	0x56
 9137 13c2 00000000 		.4byte	0
 9138 13c6 00000000 		.4byte	0
 9139              	.LLST9:
 9140 13ca 4E000000 		.4byte	.LFB1-.Ltext0
 9141 13ce 52000000 		.4byte	.LCFI1-.Ltext0
 9142 13d2 0200     		.2byte	0x2
 9143 13d4 7D       		.byte	0x7d
 9144 13d5 00       		.sleb128 0
 9145 13d6 52000000 		.4byte	.LCFI1-.Ltext0
 9146 13da A8000000 		.4byte	.LFE1-.Ltext0
 9147 13de 0200     		.2byte	0x2
 9148 13e0 7D       		.byte	0x7d
 9149 13e1 20       		.sleb128 32
 9150 13e2 00000000 		.4byte	0
 9151 13e6 00000000 		.4byte	0
 9152              	.LLST10:
 9153 13ea 4E000000 		.4byte	.LVL23-.Ltext0
 9154 13ee 5C000000 		.4byte	.LVL25-.Ltext0
 9155 13f2 0100     		.2byte	0x1
 9156 13f4 50       		.byte	0x50
 9157 13f5 5C000000 		.4byte	.LVL25-.Ltext0
 9158 13f9 A2000000 		.4byte	.LVL42-.Ltext0
 9159 13fd 0100     		.2byte	0x1
 9160 13ff 56       		.byte	0x56
 9161 1400 A2000000 		.4byte	.LVL42-.Ltext0
 9162 1404 A4000000 		.4byte	.LVL44-.Ltext0
 9163 1408 0400     		.2byte	0x4
 9164 140a F3       		.byte	0xf3
 9165 140b 01       		.uleb128 0x1
 9166 140c 50       		.byte	0x50
 9167 140d 9F       		.byte	0x9f
 9168 140e A4000000 		.4byte	.LVL44-.Ltext0
 9169 1412 A8000000 		.4byte	.LFE1-.Ltext0
 9170 1416 0100     		.2byte	0x1
 9171 1418 56       		.byte	0x56
 9172 1419 00000000 		.4byte	0
 9173 141d 00000000 		.4byte	0
 9174              	.LLST11:
 9175 1421 4E000000 		.4byte	.LVL23-.Ltext0
 9176 1425 5C000000 		.4byte	.LVL25-.Ltext0
 9177 1429 0100     		.2byte	0x1
 9178 142b 51       		.byte	0x51
 9179 142c 5C000000 		.4byte	.LVL25-.Ltext0
 9180 1430 92000000 		.4byte	.LVL37-.Ltext0
 9181 1434 0200     		.2byte	0x2
 9182 1436 91       		.byte	0x91
ARM GAS  C:\Users\claym\AppData\Local\Temp\ccb01mZK.s 			page 188


 9183 1437 64       		.sleb128 -28
 9184 1438 92000000 		.4byte	.LVL37-.Ltext0
 9185 143c 94000000 		.4byte	.LVL38-.Ltext0
 9186 1440 0100     		.2byte	0x1
 9187 1442 53       		.byte	0x53
 9188 1443 94000000 		.4byte	.LVL38-.Ltext0
 9189 1447 A8000000 		.4byte	.LFE1-.Ltext0
 9190 144b 0200     		.2byte	0x2
 9191 144d 91       		.byte	0x91
 9192 144e 64       		.sleb128 -28
 9193 144f 00000000 		.4byte	0
 9194 1453 00000000 		.4byte	0
 9195              	.LLST12:
 9196 1457 4E000000 		.4byte	.LVL23-.Ltext0
 9197 145b 5C000000 		.4byte	.LVL25-.Ltext0
 9198 145f 0100     		.2byte	0x1
 9199 1461 52       		.byte	0x52
 9200 1462 5C000000 		.4byte	.LVL25-.Ltext0
 9201 1466 8E000000 		.4byte	.LVL36-.Ltext0
 9202 146a 0100     		.2byte	0x1
 9203 146c 57       		.byte	0x57
 9204 146d 92000000 		.4byte	.LVL37-.Ltext0
 9205 1471 A2000000 		.4byte	.LVL43-.Ltext0
 9206 1475 0100     		.2byte	0x1
 9207 1477 57       		.byte	0x57
 9208 1478 A4000000 		.4byte	.LVL44-.Ltext0
 9209 147c A8000000 		.4byte	.LFE1-.Ltext0
 9210 1480 0100     		.2byte	0x1
 9211 1482 57       		.byte	0x57
 9212 1483 00000000 		.4byte	0
 9213 1487 00000000 		.4byte	0
 9214              	.LLST13:
 9215 148b 68000000 		.4byte	.LVL28-.Ltext0
 9216 148f 6A000000 		.4byte	.LVL29-.Ltext0
 9217 1493 1900     		.2byte	0x19
 9218 1495 74       		.byte	0x74
 9219 1496 00       		.sleb128 0
 9220 1497 75       		.byte	0x75
 9221 1498 00       		.sleb128 0
 9222 1499 1C       		.byte	0x1c
 9223 149a 12       		.byte	0x12
 9224 149b 40       		.byte	0x40
 9225 149c 4B       		.byte	0x4b
 9226 149d 24       		.byte	0x24
 9227 149e 22       		.byte	0x22
 9228 149f 73       		.byte	0x73
 9229 14a0 00       		.sleb128 0
 9230 14a1 16       		.byte	0x16
 9231 14a2 14       		.byte	0x14
 9232 14a3 40       		.byte	0x40
 9233 14a4 4B       		.byte	0x4b
 9234 14a5 24       		.byte	0x24
 9235 14a6 22       		.byte	0x22
 9236 14a7 2D       		.byte	0x2d
 9237 14a8 28       		.byte	0x28
 9238 14a9 0100     		.2byte	0x1
 9239 14ab 16       		.byte	0x16
ARM GAS  C:\Users\claym\AppData\Local\Temp\ccb01mZK.s 			page 189


 9240 14ac 13       		.byte	0x13
 9241 14ad 9F       		.byte	0x9f
 9242 14ae 6A000000 		.4byte	.LVL29-.Ltext0
 9243 14b2 70000000 		.4byte	.LVL30-.Ltext0
 9244 14b6 1600     		.2byte	0x16
 9245 14b8 74       		.byte	0x74
 9246 14b9 00       		.sleb128 0
 9247 14ba 12       		.byte	0x12
 9248 14bb 40       		.byte	0x40
 9249 14bc 4B       		.byte	0x4b
 9250 14bd 24       		.byte	0x24
 9251 14be 22       		.byte	0x22
 9252 14bf 73       		.byte	0x73
 9253 14c0 00       		.sleb128 0
 9254 14c1 16       		.byte	0x16
 9255 14c2 14       		.byte	0x14
 9256 14c3 40       		.byte	0x40
 9257 14c4 4B       		.byte	0x4b
 9258 14c5 24       		.byte	0x24
 9259 14c6 22       		.byte	0x22
 9260 14c7 2D       		.byte	0x2d
 9261 14c8 28       		.byte	0x28
 9262 14c9 0100     		.2byte	0x1
 9263 14cb 16       		.byte	0x16
 9264 14cc 13       		.byte	0x13
 9265 14cd 9F       		.byte	0x9f
 9266 14ce 70000000 		.4byte	.LVL30-.Ltext0
 9267 14d2 76000000 		.4byte	.LVL31-.Ltext0
 9268 14d6 1A00     		.2byte	0x1a
 9269 14d8 76       		.byte	0x76
 9270 14d9 08       		.sleb128 8
 9271 14da 06       		.byte	0x6
 9272 14db 75       		.byte	0x75
 9273 14dc 00       		.sleb128 0
 9274 14dd 1C       		.byte	0x1c
 9275 14de 12       		.byte	0x12
 9276 14df 40       		.byte	0x40
 9277 14e0 4B       		.byte	0x4b
 9278 14e1 24       		.byte	0x24
 9279 14e2 22       		.byte	0x22
 9280 14e3 73       		.byte	0x73
 9281 14e4 00       		.sleb128 0
 9282 14e5 16       		.byte	0x16
 9283 14e6 14       		.byte	0x14
 9284 14e7 40       		.byte	0x40
 9285 14e8 4B       		.byte	0x4b
 9286 14e9 24       		.byte	0x24
 9287 14ea 22       		.byte	0x22
 9288 14eb 2D       		.byte	0x2d
 9289 14ec 28       		.byte	0x28
 9290 14ed 0100     		.2byte	0x1
 9291 14ef 16       		.byte	0x16
 9292 14f0 13       		.byte	0x13
 9293 14f1 9F       		.byte	0x9f
 9294 14f2 76000000 		.4byte	.LVL31-.Ltext0
 9295 14f6 A2000000 		.4byte	.LVL40-.Ltext0
 9296 14fa 0100     		.2byte	0x1
ARM GAS  C:\Users\claym\AppData\Local\Temp\ccb01mZK.s 			page 190


 9297 14fc 54       		.byte	0x54
 9298 14fd 00000000 		.4byte	0
 9299 1501 00000000 		.4byte	0
 9300              	.LLST14:
 9301 1505 4E000000 		.4byte	.LVL23-.Ltext0
 9302 1509 5C000000 		.4byte	.LVL25-.Ltext0
 9303 150d 0200     		.2byte	0x2
 9304 150f 30       		.byte	0x30
 9305 1510 9F       		.byte	0x9f
 9306 1511 5C000000 		.4byte	.LVL25-.Ltext0
 9307 1515 8A000000 		.4byte	.LVL34-.Ltext0
 9308 1519 0200     		.2byte	0x2
 9309 151b 7D       		.byte	0x7d
 9310 151c 00       		.sleb128 0
 9311 151d 8A000000 		.4byte	.LVL34-.Ltext0
 9312 1521 8C000000 		.4byte	.LVL35-.Ltext0
 9313 1525 0100     		.2byte	0x1
 9314 1527 53       		.byte	0x53
 9315 1528 8C000000 		.4byte	.LVL35-.Ltext0
 9316 152c A8000000 		.4byte	.LFE1-.Ltext0
 9317 1530 0200     		.2byte	0x2
 9318 1532 7D       		.byte	0x7d
 9319 1533 00       		.sleb128 0
 9320 1534 00000000 		.4byte	0
 9321 1538 00000000 		.4byte	0
 9322              	.LLST15:
 9323 153c 5E000000 		.4byte	.LVL26-.Ltext0
 9324 1540 64000000 		.4byte	.LVL27-.Ltext0
 9325 1544 0100     		.2byte	0x1
 9326 1546 53       		.byte	0x53
 9327 1547 A4000000 		.4byte	.LVL44-.Ltext0
 9328 154b A6000000 		.4byte	.LVL45-.Ltext0
 9329 154f 0100     		.2byte	0x1
 9330 1551 53       		.byte	0x53
 9331 1552 00000000 		.4byte	0
 9332 1556 00000000 		.4byte	0
 9333              	.LLST16:
 9334 155a 58000000 		.4byte	.LVL24-.Ltext0
 9335 155e 86000000 		.4byte	.LVL33-.Ltext0
 9336 1562 0100     		.2byte	0x1
 9337 1564 55       		.byte	0x55
 9338 1565 92000000 		.4byte	.LVL37-.Ltext0
 9339 1569 A2000000 		.4byte	.LVL41-.Ltext0
 9340 156d 0100     		.2byte	0x1
 9341 156f 55       		.byte	0x55
 9342 1570 A2000000 		.4byte	.LVL41-.Ltext0
 9343 1574 A2000000 		.4byte	.LVL42-.Ltext0
 9344 1578 0200     		.2byte	0x2
 9345 157a 76       		.byte	0x76
 9346 157b 0C       		.sleb128 12
 9347 157c A2000000 		.4byte	.LVL42-.Ltext0
 9348 1580 A4000000 		.4byte	.LVL44-.Ltext0
 9349 1584 0500     		.2byte	0x5
 9350 1586 F3       		.byte	0xf3
 9351 1587 01       		.uleb128 0x1
 9352 1588 50       		.byte	0x50
 9353 1589 23       		.byte	0x23
ARM GAS  C:\Users\claym\AppData\Local\Temp\ccb01mZK.s 			page 191


 9354 158a 0C       		.uleb128 0xc
 9355 158b A4000000 		.4byte	.LVL44-.Ltext0
 9356 158f A8000000 		.4byte	.LFE1-.Ltext0
 9357 1593 0100     		.2byte	0x1
 9358 1595 55       		.byte	0x55
 9359 1596 00000000 		.4byte	0
 9360 159a 00000000 		.4byte	0
 9361              	.LLST17:
 9362 159e A8000000 		.4byte	.LFB0-.Ltext0
 9363 15a2 AC000000 		.4byte	.LCFI2-.Ltext0
 9364 15a6 0200     		.2byte	0x2
 9365 15a8 7D       		.byte	0x7d
 9366 15a9 00       		.sleb128 0
 9367 15aa AC000000 		.4byte	.LCFI2-.Ltext0
 9368 15ae 44010000 		.4byte	.LFE0-.Ltext0
 9369 15b2 0200     		.2byte	0x2
 9370 15b4 7D       		.byte	0x7d
 9371 15b5 10       		.sleb128 16
 9372 15b6 00000000 		.4byte	0
 9373 15ba 00000000 		.4byte	0
 9374              	.LLST18:
 9375 15be 44010000 		.4byte	.LFB24-.Ltext0
 9376 15c2 48010000 		.4byte	.LCFI3-.Ltext0
 9377 15c6 0200     		.2byte	0x2
 9378 15c8 7D       		.byte	0x7d
 9379 15c9 00       		.sleb128 0
 9380 15ca 48010000 		.4byte	.LCFI3-.Ltext0
 9381 15ce 64010000 		.4byte	.LFE24-.Ltext0
 9382 15d2 0200     		.2byte	0x2
 9383 15d4 7D       		.byte	0x7d
 9384 15d5 10       		.sleb128 16
 9385 15d6 00000000 		.4byte	0
 9386 15da 00000000 		.4byte	0
 9387              	.LLST19:
 9388 15de 44010000 		.4byte	.LVL49-.Ltext0
 9389 15e2 54010000 		.4byte	.LVL50-.Ltext0
 9390 15e6 0100     		.2byte	0x1
 9391 15e8 50       		.byte	0x50
 9392 15e9 54010000 		.4byte	.LVL50-.Ltext0
 9393 15ed 64010000 		.4byte	.LFE24-.Ltext0
 9394 15f1 0400     		.2byte	0x4
 9395 15f3 F3       		.byte	0xf3
 9396 15f4 01       		.uleb128 0x1
 9397 15f5 50       		.byte	0x50
 9398 15f6 9F       		.byte	0x9f
 9399 15f7 00000000 		.4byte	0
 9400 15fb 00000000 		.4byte	0
 9401              	.LLST20:
 9402 15ff 44010000 		.4byte	.LVL49-.Ltext0
 9403 1603 54010000 		.4byte	.LVL50-.Ltext0
 9404 1607 0600     		.2byte	0x6
 9405 1609 03       		.byte	0x3
 9406 160a 18000000 		.4byte	_SEGGER_RTT+24
 9407 160e 9F       		.byte	0x9f
 9408 160f 54010000 		.4byte	.LVL50-.Ltext0
 9409 1613 59010000 		.4byte	.LVL51-1-.Ltext0
 9410 1617 0100     		.2byte	0x1
ARM GAS  C:\Users\claym\AppData\Local\Temp\ccb01mZK.s 			page 192


 9411 1619 50       		.byte	0x50
 9412 161a 59010000 		.4byte	.LVL51-1-.Ltext0
 9413 161e 64010000 		.4byte	.LFE24-.Ltext0
 9414 1622 0600     		.2byte	0x6
 9415 1624 03       		.byte	0x3
 9416 1625 18000000 		.4byte	_SEGGER_RTT+24
 9417 1629 9F       		.byte	0x9f
 9418 162a 00000000 		.4byte	0
 9419 162e 00000000 		.4byte	0
 9420              		.section	.debug_aranges,"",%progbits
 9421 0000 1C000000 		.4byte	0x1c
 9422 0004 0200     		.2byte	0x2
 9423 0006 00000000 		.4byte	.Ldebug_info0
 9424 000a 04       		.byte	0x4
 9425 000b 00       		.byte	0
 9426 000c 0000     		.2byte	0
 9427 000e 0000     		.2byte	0
 9428 0010 00000000 		.4byte	.Ltext0
 9429 0014 1C070000 		.4byte	.Letext0-.Ltext0
 9430 0018 00000000 		.4byte	0
 9431 001c 00000000 		.4byte	0
 9432              		.section	.debug_ranges,"",%progbits
 9433              	.Ldebug_ranges0:
 9434 0000 18060000 		.4byte	.LBB11-.Ltext0
 9435 0004 3C060000 		.4byte	.LBE11-.Ltext0
 9436 0008 3E060000 		.4byte	.LBB12-.Ltext0
 9437 000c 42060000 		.4byte	.LBE12-.Ltext0
 9438 0010 44060000 		.4byte	.LBB13-.Ltext0
 9439 0014 66060000 		.4byte	.LBE13-.Ltext0
 9440 0018 00000000 		.4byte	0
 9441 001c 00000000 		.4byte	0
 9442              		.section	.debug_line,"",%progbits
 9443              	.Ldebug_line0:
 9444 0000 90040000 		.section	.debug_str,"MS",%progbits,1
 9444      0200A801 
 9444      00000201 
 9444      FB0E0D00 
 9444      01010101 
 9445              	.LASF52:
 9446 0000 5F64736F 		.ascii	"_dso_handle\000"
 9446      5F68616E 
 9446      646C6500 
 9447              	.LASF54:
 9448 000c 5F69735F 		.ascii	"_is_cxa\000"
 9448      63786100 
 9449              	.LASF146:
 9450 0014 4C6F636B 		.ascii	"LockState\000"
 9450      53746174 
 9450      6500
 9451              	.LASF78:
 9452 001e 5F726565 		.ascii	"_reent\000"
 9452      6E7400
 9453              	.LASF60:
 9454 0025 5F73697A 		.ascii	"_size\000"
 9454      6500
 9455              	.LASF12:
 9456 002b 4D61784E 		.ascii	"MaxNumDownBuffers\000"
ARM GAS  C:\Users\claym\AppData\Local\Temp\ccb01mZK.s 			page 193


 9456      756D446F 
 9456      776E4275 
 9456      66666572 
 9456      7300
 9457              	.LASF152:
 9458 003d 53454747 		.ascii	"SEGGER_RTT_ConfigDownBuffer\000"
 9458      45525F52 
 9458      54545F43 
 9458      6F6E6669 
 9458      67446F77 
 9459              	.LASF104:
 9460 0059 5F72616E 		.ascii	"_rand48\000"
 9460      64343800 
 9461              	.LASF163:
 9462 0061 4E756D42 		.ascii	"NumBytes\000"
 9462      79746573 
 9462      00
 9463              	.LASF84:
 9464 006a 5F656D65 		.ascii	"_emergency\000"
 9464      7267656E 
 9464      637900
 9465              	.LASF8:
 9466 0075 53454747 		.ascii	"SEGGER_RTT_BUFFER_UP\000"
 9466      45525F52 
 9466      54545F42 
 9466      55464645 
 9466      525F5550 
 9467              	.LASF178:
 9468 008a 5F446F49 		.ascii	"_DoInit\000"
 9468      6E697400 
 9469              	.LASF74:
 9470 0092 5F646174 		.ascii	"_data\000"
 9470      6100
 9471              	.LASF124:
 9472 0098 5F776372 		.ascii	"_wcrtomb_state\000"
 9472      746F6D62 
 9472      5F737461 
 9472      746500
 9473              	.LASF125:
 9474 00a7 5F776373 		.ascii	"_wcsrtombs_state\000"
 9474      72746F6D 
 9474      62735F73 
 9474      74617465 
 9474      00
 9475              	.LASF9:
 9476 00b8 53454747 		.ascii	"SEGGER_RTT_BUFFER_DOWN\000"
 9476      45525F52 
 9476      54545F42 
 9476      55464645 
 9476      525F444F 
 9477              	.LASF177:
 9478 00cf 5F577269 		.ascii	"_WriteNoCheck\000"
 9478      74654E6F 
 9478      43686563 
 9478      6B00
 9479              	.LASF23:
 9480 00dd 6C6F6E67 		.ascii	"long long unsigned int\000"
ARM GAS  C:\Users\claym\AppData\Local\Temp\ccb01mZK.s 			page 194


 9480      206C6F6E 
 9480      6720756E 
 9480      7369676E 
 9480      65642069 
 9481              	.LASF64:
 9482 00f4 5F6C6266 		.ascii	"_lbfsize\000"
 9482      73697A65 
 9482      00
 9483              	.LASF131:
 9484 00fd 5F5F6C6F 		.ascii	"__locale_t\000"
 9484      63616C65 
 9484      5F7400
 9485              	.LASF122:
 9486 0108 5F6D6272 		.ascii	"_mbrtowc_state\000"
 9486      746F7763 
 9486      5F737461 
 9486      746500
 9487              	.LASF166:
 9488 0117 53454747 		.ascii	"SEGGER_RTT_WriteSkipNoLock\000"
 9488      45525F52 
 9488      54545F57 
 9488      72697465 
 9488      536B6970 
 9489              	.LASF183:
 9490 0132 433A5C44 		.ascii	"C:\\Development\\New_Mar8\\Workspace-Vorago - REB1\\"
 9490      6576656C 
 9490      6F706D65 
 9490      6E745C4E 
 9490      65775F4D 
 9491 0162 766F7261 		.ascii	"vorago_try311\000"
 9491      676F5F74 
 9491      72793331 
 9491      3100
 9492              	.LASF41:
 9493 0170 5F5F746D 		.ascii	"__tm_sec\000"
 9493      5F736563 
 9493      00
 9494              	.LASF15:
 9495 0179 6C6F6E67 		.ascii	"long long int\000"
 9495      206C6F6E 
 9495      6720696E 
 9495      7400
 9496              	.LASF17:
 9497 0187 7369676E 		.ascii	"signed char\000"
 9497      65642063 
 9497      68617200 
 9498              	.LASF169:
 9499 0193 4E756D42 		.ascii	"NumBytesRead\000"
 9499      79746573 
 9499      52656164 
 9499      00
 9500              	.LASF70:
 9501 01a0 5F756275 		.ascii	"_ubuf\000"
 9501      6600
 9502              	.LASF181:
 9503 01a6 474E5520 		.ascii	"GNU C11 7.2.1 20170904 (release) [ARM/embedded-7-br"
 9503      43313120 
ARM GAS  C:\Users\claym\AppData\Local\Temp\ccb01mZK.s 			page 195


 9503      372E322E 
 9503      31203230 
 9503      31373039 
 9504 01d9 616E6368 		.ascii	"anch revision 255204] -mcpu=cortex-m0 -mthumb -gdwa"
 9504      20726576 
 9504      6973696F 
 9504      6E203235 
 9504      35323034 
 9505 020c 72662D32 		.ascii	"rf-2 -Os -fomit-frame-pointer\000"
 9505      202D4F73 
 9505      202D666F 
 9505      6D69742D 
 9505      6672616D 
 9506              	.LASF59:
 9507 022a 5F626173 		.ascii	"_base\000"
 9507      6500
 9508              	.LASF43:
 9509 0230 5F5F746D 		.ascii	"__tm_hour\000"
 9509      5F686F75 
 9509      7200
 9510              	.LASF99:
 9511 023a 5F5F7366 		.ascii	"__sf\000"
 9511      00
 9512              	.LASF50:
 9513 023f 5F6F6E5F 		.ascii	"_on_exit_args\000"
 9513      65786974 
 9513      5F617267 
 9513      7300
 9514              	.LASF138:
 9515 024d 5F73636F 		.ascii	"_scopeUpBuffer\000"
 9515      70655570 
 9515      42756666 
 9515      657200
 9516              	.LASF65:
 9517 025c 5F636F6F 		.ascii	"_cookie\000"
 9517      6B696500 
 9518              	.LASF98:
 9519 0264 5F5F7367 		.ascii	"__sglue\000"
 9519      6C756500 
 9520              	.LASF136:
 9521 026c 5F616355 		.ascii	"_acUpBuffer\000"
 9521      70427566 
 9521      66657200 
 9522              	.LASF21:
 9523 0278 6C6F6E67 		.ascii	"long int\000"
 9523      20696E74 
 9523      00
 9524              	.LASF62:
 9525 0281 5F666C61 		.ascii	"_flags\000"
 9525      677300
 9526              	.LASF132:
 9527 0288 5F534547 		.ascii	"_SEGGER_RTT\000"
 9527      4745525F 
 9527      52545400 
 9528              	.LASF80:
 9529 0294 5F737464 		.ascii	"_stdin\000"
 9529      696E00
ARM GAS  C:\Users\claym\AppData\Local\Temp\ccb01mZK.s 			page 196


 9530              	.LASF72:
 9531 029b 5F626C6B 		.ascii	"_blksize\000"
 9531      73697A65 
 9531      00
 9532              	.LASF170:
 9533 02a4 53454747 		.ascii	"SEGGER_RTT_ReadNoLock\000"
 9533      45525F52 
 9533      54545F52 
 9533      6561644E 
 9533      6F4C6F63 
 9534              	.LASF143:
 9535 02ba 46726167 		.ascii	"FragLen\000"
 9535      4C656E00 
 9536              	.LASF142:
 9537 02c2 53746174 		.ascii	"Status\000"
 9537      757300
 9538              	.LASF94:
 9539 02c9 5F637674 		.ascii	"_cvtbuf\000"
 9539      62756600 
 9540              	.LASF73:
 9541 02d1 5F6F6666 		.ascii	"_offset\000"
 9541      73657400 
 9542              	.LASF123:
 9543 02d9 5F6D6273 		.ascii	"_mbsrtowcs_state\000"
 9543      72746F77 
 9543      63735F73 
 9543      74617465 
 9543      00
 9544              	.LASF121:
 9545 02ea 5F6D6272 		.ascii	"_mbrlen_state\000"
 9545      6C656E5F 
 9545      73746174 
 9545      6500
 9546              	.LASF51:
 9547 02f8 5F666E61 		.ascii	"_fnargs\000"
 9547      72677300 
 9548              	.LASF57:
 9549 0300 5F666E73 		.ascii	"_fns\000"
 9549      00
 9550              	.LASF37:
 9551 0305 5F736967 		.ascii	"_sign\000"
 9551      6E00
 9552              	.LASF33:
 9553 030b 5F666C6F 		.ascii	"_flock_t\000"
 9553      636B5F74 
 9553      00
 9554              	.LASF82:
 9555 0314 5F737464 		.ascii	"_stderr\000"
 9555      65727200 
 9556              	.LASF39:
 9557 031c 5F426967 		.ascii	"_Bigint\000"
 9557      696E7400 
 9558              	.LASF112:
 9559 0324 5F67616D 		.ascii	"_gamma_signgam\000"
 9559      6D615F73 
 9559      69676E67 
 9559      616D00
ARM GAS  C:\Users\claym\AppData\Local\Temp\ccb01mZK.s 			page 197


 9560              	.LASF66:
 9561 0333 5F726561 		.ascii	"_read\000"
 9561      6400
 9562              	.LASF90:
 9563 0339 5F726573 		.ascii	"_result_k\000"
 9563      756C745F 
 9563      6B00
 9564              	.LASF4:
 9565 0343 52644F66 		.ascii	"RdOff\000"
 9565      6600
 9566              	.LASF40:
 9567 0349 5F5F746D 		.ascii	"__tm\000"
 9567      00
 9568              	.LASF173:
 9569 034e 5F476574 		.ascii	"_GetAvailWriteSpace\000"
 9569      41766169 
 9569      6C577269 
 9569      74655370 
 9569      61636500 
 9570              	.LASF7:
 9571 0362 756E7369 		.ascii	"unsigned int\000"
 9571      676E6564 
 9571      20696E74 
 9571      00
 9572              	.LASF29:
 9573 036f 5F5F7763 		.ascii	"__wchb\000"
 9573      686200
 9574              	.LASF81:
 9575 0376 5F737464 		.ascii	"_stdout\000"
 9575      6F757400 
 9576              	.LASF93:
 9577 037e 5F637674 		.ascii	"_cvtlen\000"
 9577      6C656E00 
 9578              	.LASF22:
 9579 0386 6C6F6E67 		.ascii	"long unsigned int\000"
 9579      20756E73 
 9579      69676E65 
 9579      6420696E 
 9579      7400
 9580              	.LASF63:
 9581 0398 5F66696C 		.ascii	"_file\000"
 9581      6500
 9582              	.LASF1:
 9583 039e 70427566 		.ascii	"pBuffer\000"
 9583      66657200 
 9584              	.LASF184:
 9585 03a6 53454747 		.ascii	"SEGGER_RTT_Init\000"
 9585      45525F52 
 9585      54545F49 
 9585      6E697400 
 9586              	.LASF102:
 9587 03b6 5F6E696F 		.ascii	"_niobs\000"
 9587      627300
 9588              	.LASF11:
 9589 03bd 4D61784E 		.ascii	"MaxNumUpBuffers\000"
 9589      756D5570 
 9589      42756666 
ARM GAS  C:\Users\claym\AppData\Local\Temp\ccb01mZK.s 			page 198


 9589      65727300 
 9590              	.LASF20:
 9591 03cd 73686F72 		.ascii	"short unsigned int\000"
 9591      7420756E 
 9591      7369676E 
 9591      65642069 
 9591      6E7400
 9592              	.LASF96:
 9593 03e0 5F617465 		.ascii	"_atexit0\000"
 9593      78697430 
 9593      00
 9594              	.LASF119:
 9595 03e9 5F736967 		.ascii	"_signal_buf\000"
 9595      6E616C5F 
 9595      62756600 
 9596              	.LASF110:
 9597 03f5 5F617363 		.ascii	"_asctime_buf\000"
 9597      74696D65 
 9597      5F627566 
 9597      00
 9598              	.LASF179:
 9599 0402 7374726C 		.ascii	"strlen\000"
 9599      656E00
 9600              	.LASF148:
 9601 0409 53454747 		.ascii	"SEGGER_RTT_SetTerminal\000"
 9601      45525F52 
 9601      54545F53 
 9601      65745465 
 9601      726D696E 
 9602              	.LASF89:
 9603 0420 5F726573 		.ascii	"_result\000"
 9603      756C7400 
 9604              	.LASF28:
 9605 0428 5F5F7763 		.ascii	"__wch\000"
 9605      6800
 9606              	.LASF186:
 9607 042e 6D656D63 		.ascii	"memcpy\000"
 9607      707900
 9608              	.LASF24:
 9609 0435 5F4C4F43 		.ascii	"_LOCK_T\000"
 9609      4B5F5400 
 9610              	.LASF27:
 9611 043d 77696E74 		.ascii	"wint_t\000"
 9611      5F7400
 9612              	.LASF157:
 9613 0444 53454747 		.ascii	"SEGGER_RTT_HasData\000"
 9613      45525F52 
 9613      54545F48 
 9613      61734461 
 9613      746100
 9614              	.LASF180:
 9615 0457 73747263 		.ascii	"strcpy\000"
 9615      707900
 9616              	.LASF187:
 9617 045e 5F5F6275 		.ascii	"__builtin_memcpy\000"
 9617      696C7469 
 9617      6E5F6D65 
ARM GAS  C:\Users\claym\AppData\Local\Temp\ccb01mZK.s 			page 199


 9617      6D637079 
 9617      00
 9618              	.LASF75:
 9619 046f 5F6C6F63 		.ascii	"_lock\000"
 9619      6B00
 9620              	.LASF77:
 9621 0475 5F666C61 		.ascii	"_flags2\000"
 9621      67733200 
 9622              	.LASF0:
 9623 047d 734E616D 		.ascii	"sName\000"
 9623      6500
 9624              	.LASF176:
 9625 0483 4E756D42 		.ascii	"NumBytesWritten\000"
 9625      79746573 
 9625      57726974 
 9625      74656E00 
 9626              	.LASF67:
 9627 0493 5F777269 		.ascii	"_write\000"
 9627      746500
 9628              	.LASF46:
 9629 049a 5F5F746D 		.ascii	"__tm_year\000"
 9629      5F796561 
 9629      7200
 9630              	.LASF14:
 9631 04a4 53454747 		.ascii	"SEGGER_RTT_CB\000"
 9631      45525F52 
 9631      54545F43 
 9631      4200
 9632              	.LASF154:
 9633 04b2 53454747 		.ascii	"SEGGER_RTT_ConfigUpBuffer\000"
 9633      45525F52 
 9633      54545F43 
 9633      6F6E6669 
 9633      67557042 
 9634              	.LASF145:
 9635 04cc 7052696E 		.ascii	"pRing\000"
 9635      6700
 9636              	.LASF16:
 9637 04d2 6C6F6E67 		.ascii	"long double\000"
 9637      20646F75 
 9637      626C6500 
 9638              	.LASF175:
 9639 04de 4E756D42 		.ascii	"NumBytesToWrite\000"
 9639      79746573 
 9639      546F5772 
 9639      69746500 
 9640              	.LASF164:
 9641 04ee 53454747 		.ascii	"SEGGER_RTT_WriteNoLock\000"
 9641      45525F52 
 9641      54545F57 
 9641      72697465 
 9641      4E6F4C6F 
 9642              	.LASF127:
 9643 0505 5F6E6578 		.ascii	"_nextf\000"
 9643      746600
 9644              	.LASF153:
 9645 050c 42756666 		.ascii	"BufferSize\000"
ARM GAS  C:\Users\claym\AppData\Local\Temp\ccb01mZK.s 			page 200


 9645      65725369 
 9645      7A6500
 9646              	.LASF162:
 9647 0517 53454747 		.ascii	"SEGGER_RTT_Write\000"
 9647      45525F52 
 9647      54545F57 
 9647      72697465 
 9647      00
 9648              	.LASF137:
 9649 0528 5F616344 		.ascii	"_acDownBuffer\000"
 9649      6F776E42 
 9649      75666665 
 9649      7200
 9650              	.LASF45:
 9651 0536 5F5F746D 		.ascii	"__tm_mon\000"
 9651      5F6D6F6E 
 9651      00
 9652              	.LASF55:
 9653 053f 5F617465 		.ascii	"_atexit\000"
 9653      78697400 
 9654              	.LASF87:
 9655 0547 5F5F7364 		.ascii	"__sdidinit\000"
 9655      6964696E 
 9655      697400
 9656              	.LASF25:
 9657 0552 5F6F6666 		.ascii	"_off_t\000"
 9657      5F7400
 9658              	.LASF156:
 9659 0559 53454747 		.ascii	"SEGGER_RTT_AllocDownBuffer\000"
 9659      45525F52 
 9659      54545F41 
 9659      6C6C6F63 
 9659      446F776E 
 9660              	.LASF2:
 9661 0574 53697A65 		.ascii	"SizeOfBuffer\000"
 9661      4F664275 
 9661      66666572 
 9661      00
 9662              	.LASF160:
 9663 0581 53454747 		.ascii	"SEGGER_RTT_GetKey\000"
 9663      45525F52 
 9663      54545F47 
 9663      65744B65 
 9663      7900
 9664              	.LASF92:
 9665 0593 5F667265 		.ascii	"_freelist\000"
 9665      656C6973 
 9665      7400
 9666              	.LASF117:
 9667 059d 5F776374 		.ascii	"_wctomb_state\000"
 9667      6F6D625F 
 9667      73746174 
 9667      6500
 9668              	.LASF149:
 9669 05ab 53454747 		.ascii	"SEGGER_RTT_SetNameDownBuffer\000"
 9669      45525F52 
 9669      54545F53 
ARM GAS  C:\Users\claym\AppData\Local\Temp\ccb01mZK.s 			page 201


 9669      65744E61 
 9669      6D65446F 
 9670              	.LASF144:
 9671 05c8 41766169 		.ascii	"Avail\000"
 9671      6C00
 9672              	.LASF161:
 9673 05ce 53454747 		.ascii	"SEGGER_RTT_WriteString\000"
 9673      45525F52 
 9673      54545F57 
 9673      72697465 
 9673      53747269 
 9674              	.LASF10:
 9675 05e5 61634944 		.ascii	"acID\000"
 9675      00
 9676              	.LASF155:
 9677 05ea 53454747 		.ascii	"SEGGER_RTT_AllocUpBuffer\000"
 9677      45525F52 
 9677      54545F41 
 9677      6C6C6F63 
 9677      55704275 
 9678              	.LASF18:
 9679 0603 756E7369 		.ascii	"unsigned char\000"
 9679      676E6564 
 9679      20636861 
 9679      7200
 9680              	.LASF95:
 9681 0611 5F6E6577 		.ascii	"_new\000"
 9681      00
 9682              	.LASF139:
 9683 0616 5F73636F 		.ascii	"_scopeDownBuffer\000"
 9683      7065446F 
 9683      776E4275 
 9683      66666572 
 9683      00
 9684              	.LASF126:
 9685 0627 5F685F65 		.ascii	"_h_errno\000"
 9685      72726E6F 
 9685      00
 9686              	.LASF19:
 9687 0630 73686F72 		.ascii	"short int\000"
 9687      7420696E 
 9687      7400
 9688              	.LASF48:
 9689 063a 5F5F746D 		.ascii	"__tm_yday\000"
 9689      5F796461 
 9689      7900
 9690              	.LASF58:
 9691 0644 5F5F7362 		.ascii	"__sbuf\000"
 9691      756600
 9692              	.LASF103:
 9693 064b 5F696F62 		.ascii	"_iobs\000"
 9693      7300
 9694              	.LASF100:
 9695 0651 5F5F4649 		.ascii	"__FILE\000"
 9695      4C4500
 9696              	.LASF32:
 9697 0658 5F6D6273 		.ascii	"_mbstate_t\000"
ARM GAS  C:\Users\claym\AppData\Local\Temp\ccb01mZK.s 			page 202


 9697      74617465 
 9697      5F7400
 9698              	.LASF61:
 9699 0663 5F5F7346 		.ascii	"__sFILE\000"
 9699      494C4500 
 9700              	.LASF76:
 9701 066b 5F6D6273 		.ascii	"_mbstate\000"
 9701      74617465 
 9701      00
 9702              	.LASF113:
 9703 0674 5F72616E 		.ascii	"_rand_next\000"
 9703      645F6E65 
 9703      787400
 9704              	.LASF115:
 9705 067f 5F6D626C 		.ascii	"_mblen_state\000"
 9705      656E5F73 
 9705      74617465 
 9705      00
 9706              	.LASF83:
 9707 068c 5F696E63 		.ascii	"_inc\000"
 9707      00
 9708              	.LASF56:
 9709 0691 5F696E64 		.ascii	"_ind\000"
 9709      00
 9710              	.LASF86:
 9711 0696 5F6C6F63 		.ascii	"_locale\000"
 9711      616C6500 
 9712              	.LASF88:
 9713 069e 5F5F636C 		.ascii	"__cleanup\000"
 9713      65616E75 
 9713      7000
 9714              	.LASF85:
 9715 06a8 5F756E73 		.ascii	"_unspecified_locale_info\000"
 9715      70656369 
 9715      66696564 
 9715      5F6C6F63 
 9715      616C655F 
 9716              	.LASF167:
 9717 06c1 70447374 		.ascii	"pDst\000"
 9717      00
 9718              	.LASF36:
 9719 06c6 5F6D6178 		.ascii	"_maxwds\000"
 9719      77647300 
 9720              	.LASF182:
 9721 06ce 2E5C7574 		.ascii	".\\utilities\\src\\segger_rtt.c\000"
 9721      696C6974 
 9721      6965735C 
 9721      7372635C 
 9721      73656767 
 9722              	.LASF105:
 9723 06eb 5F736565 		.ascii	"_seed\000"
 9723      6400
 9724              	.LASF168:
 9725 06f1 53454747 		.ascii	"SEGGER_RTT_Read\000"
 9725      45525F52 
 9725      54545F52 
 9725      65616400 
ARM GAS  C:\Users\claym\AppData\Local\Temp\ccb01mZK.s 			page 203


 9726              	.LASF30:
 9727 0701 5F5F636F 		.ascii	"__count\000"
 9727      756E7400 
 9728              	.LASF130:
 9729 0709 5F5F6C6F 		.ascii	"__lock\000"
 9729      636B00
 9730              	.LASF13:
 9731 0710 61446F77 		.ascii	"aDown\000"
 9731      6E00
 9732              	.LASF68:
 9733 0716 5F736565 		.ascii	"_seek\000"
 9733      6B00
 9734              	.LASF118:
 9735 071c 5F6C3634 		.ascii	"_l64a_buf\000"
 9735      615F6275 
 9735      6600
 9736              	.LASF133:
 9737 0726 5F696D70 		.ascii	"_impure_ptr\000"
 9737      7572655F 
 9737      70747200 
 9738              	.LASF26:
 9739 0732 5F66706F 		.ascii	"_fpos_t\000"
 9739      735F7400 
 9740              	.LASF79:
 9741 073a 5F657272 		.ascii	"_errno\000"
 9741      6E6F00
 9742              	.LASF6:
 9743 0741 63686172 		.ascii	"char\000"
 9743      00
 9744              	.LASF42:
 9745 0746 5F5F746D 		.ascii	"__tm_min\000"
 9745      5F6D696E 
 9745      00
 9746              	.LASF174:
 9747 074f 5F577269 		.ascii	"_WriteBlocking\000"
 9747      7465426C 
 9747      6F636B69 
 9747      6E6700
 9748              	.LASF151:
 9749 075e 53454747 		.ascii	"SEGGER_RTT_SetNameUpBuffer\000"
 9749      45525F52 
 9749      54545F53 
 9749      65744E61 
 9749      6D655570 
 9750              	.LASF5:
 9751 0779 466C6167 		.ascii	"Flags\000"
 9751      7300
 9752              	.LASF106:
 9753 077f 5F6D756C 		.ascii	"_mult\000"
 9753      7400
 9754              	.LASF35:
 9755 0785 5F6E6578 		.ascii	"_next\000"
 9755      7400
 9756              	.LASF109:
 9757 078b 5F737472 		.ascii	"_strtok_last\000"
 9757      746F6B5F 
 9757      6C617374 
ARM GAS  C:\Users\claym\AppData\Local\Temp\ccb01mZK.s 			page 204


 9757      00
 9758              	.LASF172:
 9759 0798 4E756D42 		.ascii	"NumBytesAtOnce\000"
 9759      79746573 
 9759      41744F6E 
 9759      636500
 9760              	.LASF31:
 9761 07a7 5F5F7661 		.ascii	"__value\000"
 9761      6C756500 
 9762              	.LASF53:
 9763 07af 5F666E74 		.ascii	"_fntypes\000"
 9763      79706573 
 9763      00
 9764              	.LASF107:
 9765 07b8 5F616464 		.ascii	"_add\000"
 9765      00
 9766              	.LASF34:
 9767 07bd 5F5F554C 		.ascii	"__ULong\000"
 9767      6F6E6700 
 9768              	.LASF120:
 9769 07c5 5F676574 		.ascii	"_getdate_err\000"
 9769      64617465 
 9769      5F657272 
 9769      00
 9770              	.LASF147:
 9771 07d2 53454747 		.ascii	"SEGGER_RTT_TerminalOut\000"
 9771      45525F52 
 9771      54545F54 
 9771      65726D69 
 9771      6E616C4F 
 9772              	.LASF171:
 9773 07e9 4E756D42 		.ascii	"NumBytesRem\000"
 9773      79746573 
 9773      52656D00 
 9774              	.LASF134:
 9775 07f5 5F676C6F 		.ascii	"_global_impure_ptr\000"
 9775      62616C5F 
 9775      696D7075 
 9775      72655F70 
 9775      747200
 9776              	.LASF140:
 9777 0808 5F416374 		.ascii	"_ActiveTerminal\000"
 9777      69766554 
 9777      65726D69 
 9777      6E616C00 
 9778              	.LASF108:
 9779 0818 5F756E75 		.ascii	"_unused_rand\000"
 9779      7365645F 
 9779      72616E64 
 9779      00
 9780              	.LASF185:
 9781 0825 5F506F73 		.ascii	"_PostTerminalSwitch\000"
 9781      74546572 
 9781      6D696E61 
 9781      6C537769 
 9781      74636800 
 9782              	.LASF38:
ARM GAS  C:\Users\claym\AppData\Local\Temp\ccb01mZK.s 			page 205


 9783 0839 5F776473 		.ascii	"_wds\000"
 9783      00
 9784              	.LASF47:
 9785 083e 5F5F746D 		.ascii	"__tm_wday\000"
 9785      5F776461 
 9785      7900
 9786              	.LASF101:
 9787 0848 5F676C75 		.ascii	"_glue\000"
 9787      6500
 9788              	.LASF135:
 9789 084e 5F615465 		.ascii	"_aTerminalId\000"
 9789      726D696E 
 9789      616C4964 
 9789      00
 9790              	.LASF128:
 9791 085b 5F6E6D61 		.ascii	"_nmalloc\000"
 9791      6C6C6F63 
 9791      00
 9792              	.LASF97:
 9793 0864 5F736967 		.ascii	"_sig_func\000"
 9793      5F66756E 
 9793      6300
 9794              	.LASF3:
 9795 086e 57724F66 		.ascii	"WrOff\000"
 9795      6600
 9796              	.LASF71:
 9797 0874 5F6E6275 		.ascii	"_nbuf\000"
 9797      6600
 9798              	.LASF129:
 9799 087a 5F756E75 		.ascii	"_unused\000"
 9799      73656400 
 9800              	.LASF159:
 9801 0882 53454747 		.ascii	"SEGGER_RTT_WaitKey\000"
 9801      45525F52 
 9801      54545F57 
 9801      6169744B 
 9801      657900
 9802              	.LASF49:
 9803 0895 5F5F746D 		.ascii	"__tm_isdst\000"
 9803      5F697364 
 9803      737400
 9804              	.LASF111:
 9805 08a0 5F6C6F63 		.ascii	"_localtime_buf\000"
 9805      616C7469 
 9805      6D655F62 
 9805      756600
 9806              	.LASF141:
 9807 08af 5465726D 		.ascii	"TerminalId\000"
 9807      696E616C 
 9807      496400
 9808              	.LASF69:
 9809 08ba 5F636C6F 		.ascii	"_close\000"
 9809      736500
 9810              	.LASF114:
 9811 08c1 5F723438 		.ascii	"_r48\000"
 9811      00
 9812              	.LASF116:
ARM GAS  C:\Users\claym\AppData\Local\Temp\ccb01mZK.s 			page 206


 9813 08c6 5F6D6274 		.ascii	"_mbtowc_state\000"
 9813      6F77635F 
 9813      73746174 
 9813      6500
 9814              	.LASF91:
 9815 08d4 5F703573 		.ascii	"_p5s\000"
 9815      00
 9816              	.LASF165:
 9817 08d9 70446174 		.ascii	"pData\000"
 9817      6100
 9818              	.LASF150:
 9819 08df 42756666 		.ascii	"BufferIndex\000"
 9819      6572496E 
 9819      64657800 
 9820              	.LASF158:
 9821 08eb 53454747 		.ascii	"SEGGER_RTT_HasKey\000"
 9821      45525F52 
 9821      54545F48 
 9821      61734B65 
 9821      7900
 9822              	.LASF44:
 9823 08fd 5F5F746D 		.ascii	"__tm_mday\000"
 9823      5F6D6461 
 9823      7900
 9824              		.ident	"GCC: (GNU Tools for Arm Embedded Processors 7-2017-q4-major) 7.2.1 20170904 (release) [ARM
ARM GAS  C:\Users\claym\AppData\Local\Temp\ccb01mZK.s 			page 207


DEFINED SYMBOLS
                            *ABS*:00000000 segger_rtt.c
C:\Users\claym\AppData\Local\Temp\ccb01mZK.s:73     .text:00000000 $t
C:\Users\claym\AppData\Local\Temp\ccb01mZK.s:79     .text:00000000 _GetAvailWriteSpace
C:\Users\claym\AppData\Local\Temp\ccb01mZK.s:125    .text:00000012 _WriteNoCheck
C:\Users\claym\AppData\Local\Temp\ccb01mZK.s:229    .text:0000004e _WriteBlocking
C:\Users\claym\AppData\Local\Temp\ccb01mZK.s:376    .text:000000a8 _DoInit
C:\Users\claym\AppData\Local\Temp\ccb01mZK.s:556    .text:00000120 $d
C:\Users\claym\AppData\Local\Temp\ccb01mZK.s:2885   .RTTSection:00000000 _SEGGER_RTT
C:\Users\claym\AppData\Local\Temp\ccb01mZK.s:2879   .bss:00000821 _acUpBuffer
C:\Users\claym\AppData\Local\Temp\ccb01mZK.s:2875   .bss:00000021 _scopeUpBuffer
C:\Users\claym\AppData\Local\Temp\ccb01mZK.s:568    .text:00000144 $t
C:\Users\claym\AppData\Local\Temp\ccb01mZK.s:574    .text:00000144 _PostTerminalSwitch.constprop.0
C:\Users\claym\AppData\Local\Temp\ccb01mZK.s:626    .text:0000015c $d
C:\Users\claym\AppData\Local\Temp\ccb01mZK.s:631    .text:00000164 $t
C:\Users\claym\AppData\Local\Temp\ccb01mZK.s:638    .text:00000164 SEGGER_RTT_ReadNoLock
C:\Users\claym\AppData\Local\Temp\ccb01mZK.s:831    .text:00000204 $d
C:\Users\claym\AppData\Local\Temp\ccb01mZK.s:835    .text:00000208 $t
C:\Users\claym\AppData\Local\Temp\ccb01mZK.s:842    .text:00000208 SEGGER_RTT_Read
C:\Users\claym\AppData\Local\Temp\ccb01mZK.s:900    .text:00000222 SEGGER_RTT_WriteSkipNoLock
C:\Users\claym\AppData\Local\Temp\ccb01mZK.s:1111   .text:000002cc $d
C:\Users\claym\AppData\Local\Temp\ccb01mZK.s:1115   .text:000002d0 $t
C:\Users\claym\AppData\Local\Temp\ccb01mZK.s:1122   .text:000002d0 SEGGER_RTT_WriteNoLock
C:\Users\claym\AppData\Local\Temp\ccb01mZK.s:1254   .text:00000338 $d
C:\Users\claym\AppData\Local\Temp\ccb01mZK.s:1258   .text:0000033c $t
C:\Users\claym\AppData\Local\Temp\ccb01mZK.s:1265   .text:0000033c SEGGER_RTT_Write
C:\Users\claym\AppData\Local\Temp\ccb01mZK.s:1344   .text:0000036c $d
C:\Users\claym\AppData\Local\Temp\ccb01mZK.s:1348   .text:00000370 $t
C:\Users\claym\AppData\Local\Temp\ccb01mZK.s:1355   .text:00000370 SEGGER_RTT_WriteString
C:\Users\claym\AppData\Local\Temp\ccb01mZK.s:1412   .text:00000388 SEGGER_RTT_GetKey
C:\Users\claym\AppData\Local\Temp\ccb01mZK.s:1468   .text:000003a6 SEGGER_RTT_WaitKey
C:\Users\claym\AppData\Local\Temp\ccb01mZK.s:1502   .text:000003b2 SEGGER_RTT_HasKey
C:\Users\claym\AppData\Local\Temp\ccb01mZK.s:1544   .text:000003cc $d
C:\Users\claym\AppData\Local\Temp\ccb01mZK.s:1548   .text:000003d0 $t
C:\Users\claym\AppData\Local\Temp\ccb01mZK.s:1555   .text:000003d0 SEGGER_RTT_HasData
C:\Users\claym\AppData\Local\Temp\ccb01mZK.s:1587   .text:000003e0 $d
C:\Users\claym\AppData\Local\Temp\ccb01mZK.s:1591   .text:000003e4 $t
C:\Users\claym\AppData\Local\Temp\ccb01mZK.s:1598   .text:000003e4 SEGGER_RTT_AllocDownBuffer
C:\Users\claym\AppData\Local\Temp\ccb01mZK.s:1741   .text:00000440 $d
C:\Users\claym\AppData\Local\Temp\ccb01mZK.s:1745   .text:00000444 $t
C:\Users\claym\AppData\Local\Temp\ccb01mZK.s:1752   .text:00000444 SEGGER_RTT_AllocUpBuffer
C:\Users\claym\AppData\Local\Temp\ccb01mZK.s:1901   .text:000004ac $d
C:\Users\claym\AppData\Local\Temp\ccb01mZK.s:1905   .text:000004b0 $t
C:\Users\claym\AppData\Local\Temp\ccb01mZK.s:1912   .text:000004b0 SEGGER_RTT_ConfigUpBuffer
C:\Users\claym\AppData\Local\Temp\ccb01mZK.s:2047   .text:0000050c $d
C:\Users\claym\AppData\Local\Temp\ccb01mZK.s:2051   .text:00000510 $t
C:\Users\claym\AppData\Local\Temp\ccb01mZK.s:2058   .text:00000510 SEGGER_RTT_ConfigDownBuffer
C:\Users\claym\AppData\Local\Temp\ccb01mZK.s:2194   .text:00000568 $d
C:\Users\claym\AppData\Local\Temp\ccb01mZK.s:2198   .text:0000056c $t
C:\Users\claym\AppData\Local\Temp\ccb01mZK.s:2205   .text:0000056c SEGGER_RTT_SetNameUpBuffer
C:\Users\claym\AppData\Local\Temp\ccb01mZK.s:2300   .text:000005a4 $d
C:\Users\claym\AppData\Local\Temp\ccb01mZK.s:2304   .text:000005a8 $t
C:\Users\claym\AppData\Local\Temp\ccb01mZK.s:2311   .text:000005a8 SEGGER_RTT_SetNameDownBuffer
C:\Users\claym\AppData\Local\Temp\ccb01mZK.s:2405   .text:000005e0 $d
C:\Users\claym\AppData\Local\Temp\ccb01mZK.s:2409   .text:000005e4 $t
C:\Users\claym\AppData\Local\Temp\ccb01mZK.s:2416   .text:000005e4 SEGGER_RTT_Init
C:\Users\claym\AppData\Local\Temp\ccb01mZK.s:2449   .text:000005f4 $d
ARM GAS  C:\Users\claym\AppData\Local\Temp\ccb01mZK.s 			page 208


C:\Users\claym\AppData\Local\Temp\ccb01mZK.s:2453   .text:000005f8 $t
C:\Users\claym\AppData\Local\Temp\ccb01mZK.s:2460   .text:000005f8 SEGGER_RTT_SetTerminal
C:\Users\claym\AppData\Local\Temp\ccb01mZK.s:2630   .text:0000066c $d
C:\Users\claym\AppData\Local\Temp\ccb01mZK.s:2637   .text:0000067c $t
C:\Users\claym\AppData\Local\Temp\ccb01mZK.s:2644   .text:0000067c SEGGER_RTT_TerminalOut
C:\Users\claym\AppData\Local\Temp\ccb01mZK.s:2831   .text:00000710 $d
C:\Users\claym\AppData\Local\Temp\ccb01mZK.s:2842   .rodata:00000000 _aTerminalId
C:\Users\claym\AppData\Local\Temp\ccb01mZK.s:2863   .bss:00000000 _acDownBuffer
C:\Users\claym\AppData\Local\Temp\ccb01mZK.s:2864   .bss:00000000 $d
C:\Users\claym\AppData\Local\Temp\ccb01mZK.s:2867   .bss:00000010 _scopeDownBuffer
C:\Users\claym\AppData\Local\Temp\ccb01mZK.s:2871   .bss:00000020 _ActiveTerminal
C:\Users\claym\AppData\Local\Temp\ccb01mZK.s:2882   .RTTSection:00000000 $d

UNDEFINED SYMBOLS
memcpy
strcpy
strlen
