ARM GAS  C:\Users\claym\AppData\Local\Temp\ccGxEn0u.s 			page 1


   1              		.cpu cortex-m0
   2              		.eabi_attribute 20, 1	@ Tag_ABI_FP_denormal
   3              		.eabi_attribute 21, 1	@ Tag_ABI_FP_exceptions
   4              		.eabi_attribute 23, 3	@ Tag_ABI_FP_number_model
   5              		.eabi_attribute 24, 1	@ Tag_ABI_align8_needed
   6              		.eabi_attribute 25, 1	@ Tag_ABI_align8_preserved
   7              		.eabi_attribute 26, 1	@ Tag_ABI_enum_size
   8              		.eabi_attribute 30, 4	@ Tag_ABI_optimization_goals
   9              		.eabi_attribute 34, 0	@ Tag_CPU_unaligned_access
  10              		.eabi_attribute 18, 4	@ Tag_ABI_PCS_wchar_t
  11              		.file	"segger_rtt_printf.c"
  12              	@ GNU C11 (GNU Tools for Arm Embedded Processors 7-2017-q4-major) version 7.2.1 20170904 (release) 
  13              	@	compiled by GNU C version 5.3.1 20160211, GMP version 6.1.0, MPFR version 3.1.4, MPC version 1.0.
  14              	
  15              	@ GGC heuristics: --param ggc-min-expand=100 --param ggc-min-heapsize=131072
  16              	@ options passed:  -I . -I .\common\hdr -I .\driver\hdr -I .\utilities\hdr
  17              	@ -I .\inc -I .\driver\hdr -I .\hdr -imultilib thumb/v6-m
  18              	@ -iprefix c:\program files (x86)\gnu tools arm embedded\7 2017-q4-major\bin\../lib/gcc/arm-none-ea
  19              	@ -isysroot c:\program files (x86)\gnu tools arm embedded\7 2017-q4-major\bin\../arm-none-eabi
  20              	@ -D__USES_INITFINI__ -D RUN_FROM_FLASH=1
  21              	@ .\utilities\src\segger_rtt_printf.c -mcpu=cortex-m0 -mthumb
  22              	@ -auxbase-strip .\utilities\src\segger_rtt_printf.o -gdwarf-2 -Os -Wall
  23              	@ -Wstrict-prototypes -fomit-frame-pointer -fverbose-asm
  24              	@ options enabled:  -faggressive-loop-optimizations -falign-jumps
  25              	@ -falign-labels -falign-loops -fauto-inc-dec -fbranch-count-reg
  26              	@ -fcaller-saves -fchkp-check-incomplete-type -fchkp-check-read
  27              	@ -fchkp-check-write -fchkp-instrument-calls -fchkp-narrow-bounds
  28              	@ -fchkp-optimize -fchkp-store-bounds -fchkp-use-static-bounds
  29              	@ -fchkp-use-static-const-bounds -fchkp-use-wrappers -fcode-hoisting
  30              	@ -fcombine-stack-adjustments -fcommon -fcompare-elim -fcprop-registers
  31              	@ -fcrossjumping -fcse-follow-jumps -fdefer-pop
  32              	@ -fdelete-null-pointer-checks -fdevirtualize -fdevirtualize-speculatively
  33              	@ -fdwarf2-cfi-asm -fearly-inlining -feliminate-unused-debug-types
  34              	@ -fexpensive-optimizations -fforward-propagate -ffp-int-builtin-inexact
  35              	@ -ffunction-cse -fgcse -fgcse-lm -fgnu-runtime -fgnu-unique
  36              	@ -fguess-branch-probability -fhoist-adjacent-loads -fident -fif-conversion
  37              	@ -fif-conversion2 -findirect-inlining -finline -finline-atomics
  38              	@ -finline-functions -finline-functions-called-once
  39              	@ -finline-small-functions -fipa-bit-cp -fipa-cp -fipa-icf
  40              	@ -fipa-icf-functions -fipa-icf-variables -fipa-profile -fipa-pure-const
  41              	@ -fipa-reference -fipa-sra -fipa-vrp -fira-hoist-pressure
  42              	@ -fira-share-save-slots -fira-share-spill-slots
  43              	@ -fisolate-erroneous-paths-dereference -fivopts -fkeep-static-consts
  44              	@ -fleading-underscore -flifetime-dse -flra-remat -flto-odr-type-merging
  45              	@ -fmath-errno -fmerge-constants -fmerge-debug-strings
  46              	@ -fmove-loop-invariants -fomit-frame-pointer -foptimize-sibling-calls
  47              	@ -fpartial-inlining -fpeephole -fpeephole2 -fplt -fprefetch-loop-arrays
  48              	@ -freg-struct-return -freorder-blocks -freorder-functions
  49              	@ -frerun-cse-after-loop -fsched-critical-path-heuristic
  50              	@ -fsched-dep-count-heuristic -fsched-group-heuristic -fsched-interblock
  51              	@ -fsched-last-insn-heuristic -fsched-pressure -fsched-rank-heuristic
  52              	@ -fsched-spec -fsched-spec-insn-heuristic -fsched-stalled-insns-dep
  53              	@ -fschedule-insns2 -fsection-anchors -fsemantic-interposition
  54              	@ -fshow-column -fshrink-wrap -fshrink-wrap-separate -fsigned-zeros
  55              	@ -fsplit-ivs-in-unroller -fsplit-wide-types -fssa-backprop -fssa-phiopt
  56              	@ -fstdarg-opt -fstore-merging -fstrict-aliasing -fstrict-overflow
  57              	@ -fstrict-volatile-bitfields -fsync-libcalls -fthread-jumps
ARM GAS  C:\Users\claym\AppData\Local\Temp\ccGxEn0u.s 			page 2


  58              	@ -ftoplevel-reorder -ftrapping-math -ftree-bit-ccp -ftree-builtin-call-dce
  59              	@ -ftree-ccp -ftree-ch -ftree-coalesce-vars -ftree-copy-prop -ftree-cselim
  60              	@ -ftree-dce -ftree-dominator-opts -ftree-dse -ftree-forwprop -ftree-fre
  61              	@ -ftree-loop-if-convert -ftree-loop-im -ftree-loop-ivcanon
  62              	@ -ftree-loop-optimize -ftree-parallelize-loops= -ftree-phiprop -ftree-pre
  63              	@ -ftree-pta -ftree-reassoc -ftree-scev-cprop -ftree-sink -ftree-slsr
  64              	@ -ftree-sra -ftree-switch-conversion -ftree-tail-merge -ftree-ter
  65              	@ -ftree-vrp -funit-at-a-time -fvar-tracking -fvar-tracking-assignments
  66              	@ -fverbose-asm -fzero-initialized-in-bss -mlittle-endian
  67              	@ -mpic-data-is-text-relative -msched-prolog -mthumb
  68              	@ -mvectorize-with-neon-quad
  69              	
  70              		.text
  71              	.Ltext0:
  72              		.cfi_sections	.debug_frame
  73              		.align	1
  74              		.syntax unified
  75              		.code	16
  76              		.thumb_func
  77              		.fpu softvfp
  78              		.type	_StoreChar, %function
  79              	_StoreChar:
  80              	.LFB0:
  81              		.file 1 ".\\utilities\\src\\segger_rtt_printf.c"
   1:.\utilities\src/segger_rtt_printf.c **** /*********************************************************************
   2:.\utilities\src/segger_rtt_printf.c **** *               SEGGER MICROCONTROLLER GmbH & Co. KG                 *
   3:.\utilities\src/segger_rtt_printf.c **** *       Solutions for real time microcontroller applications         *
   4:.\utilities\src/segger_rtt_printf.c **** **********************************************************************
   5:.\utilities\src/segger_rtt_printf.c **** *                                                                    *
   6:.\utilities\src/segger_rtt_printf.c **** *       (c) 2014 - 2016  SEGGER Microcontroller GmbH & Co. KG        *
   7:.\utilities\src/segger_rtt_printf.c **** *                                                                    *
   8:.\utilities\src/segger_rtt_printf.c **** *       www.segger.com     Support: support@segger.com               *
   9:.\utilities\src/segger_rtt_printf.c **** *                                                                    *
  10:.\utilities\src/segger_rtt_printf.c **** **********************************************************************
  11:.\utilities\src/segger_rtt_printf.c **** *                                                                    *
  12:.\utilities\src/segger_rtt_printf.c **** *       SEGGER RTT * Real Time Transfer for embedded targets         *
  13:.\utilities\src/segger_rtt_printf.c **** *                                                                    *
  14:.\utilities\src/segger_rtt_printf.c **** **********************************************************************
  15:.\utilities\src/segger_rtt_printf.c **** *                                                                    *
  16:.\utilities\src/segger_rtt_printf.c **** * All rights reserved.                                               *
  17:.\utilities\src/segger_rtt_printf.c **** *                                                                    *
  18:.\utilities\src/segger_rtt_printf.c **** * * This software may in its unmodified form be freely redistributed *
  19:.\utilities\src/segger_rtt_printf.c **** *   in source form.                                                  *
  20:.\utilities\src/segger_rtt_printf.c **** * * The source code may be modified, provided the source code        *
  21:.\utilities\src/segger_rtt_printf.c **** *   retains the above copyright notice, this list of conditions and  *
  22:.\utilities\src/segger_rtt_printf.c **** *   the following disclaimer.                                        *
  23:.\utilities\src/segger_rtt_printf.c **** * * Modified versions of this software in source or linkable form    *
  24:.\utilities\src/segger_rtt_printf.c **** *   may not be distributed without prior consent of SEGGER.          *
  25:.\utilities\src/segger_rtt_printf.c **** * * This software may only be used for communication with SEGGER     *
  26:.\utilities\src/segger_rtt_printf.c **** *   J-Link debug probes.                                             *
  27:.\utilities\src/segger_rtt_printf.c **** *                                                                    *
  28:.\utilities\src/segger_rtt_printf.c **** * THIS SOFTWARE IS PROVIDED BY THE COPYRIGHT HOLDERS AND             *
  29:.\utilities\src/segger_rtt_printf.c **** * CONTRIBUTORS "AS IS" AND ANY EXPRESS OR IMPLIED WARRANTIES,        *
  30:.\utilities\src/segger_rtt_printf.c **** * INCLUDING, BUT NOT LIMITED TO, THE IMPLIED WARRANTIES OF           *
  31:.\utilities\src/segger_rtt_printf.c **** * MERCHANTABILITY AND FITNESS FOR A PARTICULAR PURPOSE ARE           *
  32:.\utilities\src/segger_rtt_printf.c **** * DISCLAIMED. IN NO EVENT SHALL SEGGER Microcontroller BE LIABLE FOR *
  33:.\utilities\src/segger_rtt_printf.c **** * ANY DIRECT, INDIRECT, INCIDENTAL, SPECIAL, EXEMPLARY, OR           *
ARM GAS  C:\Users\claym\AppData\Local\Temp\ccGxEn0u.s 			page 3


  34:.\utilities\src/segger_rtt_printf.c **** * CONSEQUENTIAL DAMAGES (INCLUDING, BUT NOT LIMITED TO, PROCUREMENT  *
  35:.\utilities\src/segger_rtt_printf.c **** * OF SUBSTITUTE GOODS OR SERVICES; LOSS OF USE, DATA, OR PROFITS;    *
  36:.\utilities\src/segger_rtt_printf.c **** * OR BUSINESS INTERRUPTION) HOWEVER CAUSED AND ON ANY THEORY OF      *
  37:.\utilities\src/segger_rtt_printf.c **** * LIABILITY, WHETHER IN CONTRACT, STRICT LIABILITY, OR TORT          *
  38:.\utilities\src/segger_rtt_printf.c **** * (INCLUDING NEGLIGENCE OR OTHERWISE) ARISING IN ANY WAY OUT OF THE  *
  39:.\utilities\src/segger_rtt_printf.c **** * USE OF THIS SOFTWARE, EVEN IF ADVISED OF THE POSSIBILITY OF SUCH   *
  40:.\utilities\src/segger_rtt_printf.c **** * DAMAGE.                                                            *
  41:.\utilities\src/segger_rtt_printf.c **** *                                                                    *
  42:.\utilities\src/segger_rtt_printf.c **** **********************************************************************
  43:.\utilities\src/segger_rtt_printf.c **** *                                                                    *
  44:.\utilities\src/segger_rtt_printf.c **** *       RTT version: 5.10p                                           *
  45:.\utilities\src/segger_rtt_printf.c **** *                                                                    *
  46:.\utilities\src/segger_rtt_printf.c **** **********************************************************************
  47:.\utilities\src/segger_rtt_printf.c **** ---------------------------END-OF-HEADER------------------------------
  48:.\utilities\src/segger_rtt_printf.c **** File    : SEGGER_RTT_printf.c
  49:.\utilities\src/segger_rtt_printf.c **** Purpose : Replacement for printf to write formatted data via RTT
  50:.\utilities\src/segger_rtt_printf.c **** ----------------------------------------------------------------------
  51:.\utilities\src/segger_rtt_printf.c **** */
  52:.\utilities\src/segger_rtt_printf.c **** #include "SEGGER_RTT.h"
  53:.\utilities\src/segger_rtt_printf.c **** #include "SEGGER_RTT_Conf.h"
  54:.\utilities\src/segger_rtt_printf.c **** 
  55:.\utilities\src/segger_rtt_printf.c **** /*********************************************************************
  56:.\utilities\src/segger_rtt_printf.c **** *
  57:.\utilities\src/segger_rtt_printf.c **** *       Defines, configurable
  58:.\utilities\src/segger_rtt_printf.c **** *
  59:.\utilities\src/segger_rtt_printf.c **** **********************************************************************
  60:.\utilities\src/segger_rtt_printf.c **** */
  61:.\utilities\src/segger_rtt_printf.c **** 
  62:.\utilities\src/segger_rtt_printf.c **** #ifndef SEGGER_RTT_PRINTF_BUFFER_SIZE
  63:.\utilities\src/segger_rtt_printf.c ****   #define SEGGER_RTT_PRINTF_BUFFER_SIZE (64)
  64:.\utilities\src/segger_rtt_printf.c **** #endif
  65:.\utilities\src/segger_rtt_printf.c **** 
  66:.\utilities\src/segger_rtt_printf.c **** #include <stdlib.h>
  67:.\utilities\src/segger_rtt_printf.c **** #include <stdarg.h>
  68:.\utilities\src/segger_rtt_printf.c **** 
  69:.\utilities\src/segger_rtt_printf.c **** 
  70:.\utilities\src/segger_rtt_printf.c **** #define FORMAT_FLAG_LEFT_JUSTIFY   (1u << 0)
  71:.\utilities\src/segger_rtt_printf.c **** #define FORMAT_FLAG_PAD_ZERO       (1u << 1)
  72:.\utilities\src/segger_rtt_printf.c **** #define FORMAT_FLAG_PRINT_SIGN     (1u << 2)
  73:.\utilities\src/segger_rtt_printf.c **** #define FORMAT_FLAG_ALTERNATE      (1u << 3)
  74:.\utilities\src/segger_rtt_printf.c **** 
  75:.\utilities\src/segger_rtt_printf.c **** /*********************************************************************
  76:.\utilities\src/segger_rtt_printf.c **** *
  77:.\utilities\src/segger_rtt_printf.c **** *       Types
  78:.\utilities\src/segger_rtt_printf.c **** *
  79:.\utilities\src/segger_rtt_printf.c **** **********************************************************************
  80:.\utilities\src/segger_rtt_printf.c **** */
  81:.\utilities\src/segger_rtt_printf.c **** 
  82:.\utilities\src/segger_rtt_printf.c **** typedef struct {
  83:.\utilities\src/segger_rtt_printf.c ****   char*     pBuffer;
  84:.\utilities\src/segger_rtt_printf.c ****   unsigned  BufferSize;
  85:.\utilities\src/segger_rtt_printf.c ****   unsigned  Cnt;
  86:.\utilities\src/segger_rtt_printf.c **** 
  87:.\utilities\src/segger_rtt_printf.c ****   int   ReturnValue;
  88:.\utilities\src/segger_rtt_printf.c **** 
  89:.\utilities\src/segger_rtt_printf.c ****   unsigned RTTBufferIndex;
  90:.\utilities\src/segger_rtt_printf.c **** } SEGGER_RTT_PRINTF_DESC;
ARM GAS  C:\Users\claym\AppData\Local\Temp\ccGxEn0u.s 			page 4


  91:.\utilities\src/segger_rtt_printf.c **** 
  92:.\utilities\src/segger_rtt_printf.c **** /*********************************************************************
  93:.\utilities\src/segger_rtt_printf.c **** *
  94:.\utilities\src/segger_rtt_printf.c **** *       Function prototypes
  95:.\utilities\src/segger_rtt_printf.c **** *
  96:.\utilities\src/segger_rtt_printf.c **** **********************************************************************
  97:.\utilities\src/segger_rtt_printf.c **** */
  98:.\utilities\src/segger_rtt_printf.c **** int SEGGER_RTT_vprintf(unsigned BufferIndex, const char * sFormat, va_list * pParamList);
  99:.\utilities\src/segger_rtt_printf.c **** 
 100:.\utilities\src/segger_rtt_printf.c **** /*********************************************************************
 101:.\utilities\src/segger_rtt_printf.c **** *
 102:.\utilities\src/segger_rtt_printf.c **** *       Static code
 103:.\utilities\src/segger_rtt_printf.c **** *
 104:.\utilities\src/segger_rtt_printf.c **** **********************************************************************
 105:.\utilities\src/segger_rtt_printf.c **** */
 106:.\utilities\src/segger_rtt_printf.c **** /*********************************************************************
 107:.\utilities\src/segger_rtt_printf.c **** *
 108:.\utilities\src/segger_rtt_printf.c **** *       _StoreChar
 109:.\utilities\src/segger_rtt_printf.c **** */
 110:.\utilities\src/segger_rtt_printf.c **** static void _StoreChar(SEGGER_RTT_PRINTF_DESC * p, char c) {
  82              		.loc 1 110 0
  83              		.cfi_startproc
  84              		@ args = 0, pretend = 0, frame = 0
  85              		@ frame_needed = 0, uses_anonymous_args = 0
  86              	.LVL0:
  87              	@ .\utilities\src\segger_rtt_printf.c:113:   Cnt = p->Cnt;
 111:.\utilities\src/segger_rtt_printf.c ****   unsigned Cnt;
 112:.\utilities\src/segger_rtt_printf.c **** 
 113:.\utilities\src/segger_rtt_printf.c ****   Cnt = p->Cnt;
  88              		.loc 1 113 0
  89 0000 8268     		ldr	r2, [r0, #8]	@ Cnt, p_16(D)->Cnt
  90              	.LVL1:
  91              	@ .\utilities\src\segger_rtt_printf.c:110: static void _StoreChar(SEGGER_RTT_PRINTF_DESC * p, char 
 110:.\utilities\src/segger_rtt_printf.c ****   unsigned Cnt;
  92              		.loc 1 110 0
  93 0002 10B5     		push	{r4, lr}	@
  94              	.LCFI0:
  95              		.cfi_def_cfa_offset 8
  96              		.cfi_offset 4, -8
  97              		.cfi_offset 14, -4
  98              	@ .\utilities\src\segger_rtt_printf.c:110: static void _StoreChar(SEGGER_RTT_PRINTF_DESC * p, char 
 110:.\utilities\src/segger_rtt_printf.c ****   unsigned Cnt;
  99              		.loc 1 110 0
 100 0004 0400     		movs	r4, r0	@ p, p
 101              	@ .\utilities\src\segger_rtt_printf.c:114:   if ((Cnt + 1u) <= p->BufferSize) {
 114:.\utilities\src/segger_rtt_printf.c ****   if ((Cnt + 1u) <= p->BufferSize) {
 102              		.loc 1 114 0
 103 0006 4068     		ldr	r0, [r0, #4]	@ tmp135, p_16(D)->BufferSize
 104              	.LVL2:
 105 0008 531C     		adds	r3, r2, #1	@ _1, Cnt,
 106 000a 8342     		cmp	r3, r0	@ _1, tmp135
 107 000c 05D8     		bhi	.L2	@,
 108              	@ .\utilities\src\segger_rtt_printf.c:115:     *(p->pBuffer + Cnt) = c;
 115:.\utilities\src/segger_rtt_printf.c ****     *(p->pBuffer + Cnt) = c;
 109              		.loc 1 115 0
 110 000e 2068     		ldr	r0, [r4]	@ tmp137, p_16(D)->pBuffer
 111 0010 8154     		strb	r1, [r0, r2]	@ c, *_4
ARM GAS  C:\Users\claym\AppData\Local\Temp\ccGxEn0u.s 			page 5


 112              	@ .\utilities\src\segger_rtt_printf.c:116:     p->Cnt = Cnt + 1u;
 116:.\utilities\src/segger_rtt_printf.c ****     p->Cnt = Cnt + 1u;
 113              		.loc 1 116 0
 114 0012 A360     		str	r3, [r4, #8]	@ _1, p_16(D)->Cnt
 115              	@ .\utilities\src\segger_rtt_printf.c:117:     p->ReturnValue++;
 117:.\utilities\src/segger_rtt_printf.c ****     p->ReturnValue++;
 116              		.loc 1 117 0
 117 0014 E368     		ldr	r3, [r4, #12]	@ tmp138, p_16(D)->ReturnValue
 118 0016 0133     		adds	r3, r3, #1	@ tmp128,
 119 0018 E360     		str	r3, [r4, #12]	@ tmp128, p_16(D)->ReturnValue
 120              	.L2:
 121              	@ .\utilities\src\segger_rtt_printf.c:122:   if (p->Cnt == p->BufferSize) {
 118:.\utilities\src/segger_rtt_printf.c ****   }
 119:.\utilities\src/segger_rtt_printf.c ****   //
 120:.\utilities\src/segger_rtt_printf.c ****   // Write part of string, when the buffer is full
 121:.\utilities\src/segger_rtt_printf.c ****   //
 122:.\utilities\src/segger_rtt_printf.c ****   if (p->Cnt == p->BufferSize) {
 122              		.loc 1 122 0
 123 001a A268     		ldr	r2, [r4, #8]	@ _7, p_16(D)->Cnt
 124              	.LVL3:
 125 001c 6368     		ldr	r3, [r4, #4]	@ tmp139, p_16(D)->BufferSize
 126 001e 9A42     		cmp	r2, r3	@ _7, tmp139
 127 0020 09D1     		bne	.L1	@,
 128              	@ .\utilities\src\segger_rtt_printf.c:123:     if (SEGGER_RTT_Write(p->RTTBufferIndex, p->pBuffer, 
 123:.\utilities\src/segger_rtt_printf.c ****     if (SEGGER_RTT_Write(p->RTTBufferIndex, p->pBuffer, p->Cnt) != p->Cnt) {
 129              		.loc 1 123 0
 130 0022 2168     		ldr	r1, [r4]	@, p_16(D)->pBuffer
 131              	.LVL4:
 132 0024 2069     		ldr	r0, [r4, #16]	@, p_16(D)->RTTBufferIndex
 133 0026 FFF7FEFF 		bl	SEGGER_RTT_Write	@
 134              	.LVL5:
 135 002a A368     		ldr	r3, [r4, #8]	@ tmp141, p_16(D)->Cnt
 136 002c 9842     		cmp	r0, r3	@ _11, tmp141
 137 002e 03D0     		beq	.L4	@,
 138              	@ .\utilities\src\segger_rtt_printf.c:124:       p->ReturnValue = -1;
 124:.\utilities\src/segger_rtt_printf.c ****       p->ReturnValue = -1;
 139              		.loc 1 124 0
 140 0030 0123     		movs	r3, #1	@ tmp132,
 141 0032 5B42     		rsbs	r3, r3, #0	@ tmp132, tmp132
 142 0034 E360     		str	r3, [r4, #12]	@ tmp132, p_16(D)->ReturnValue
 143              	.L1:
 144              	@ .\utilities\src\segger_rtt_printf.c:129: }
 125:.\utilities\src/segger_rtt_printf.c ****     } else {
 126:.\utilities\src/segger_rtt_printf.c ****       p->Cnt = 0u;
 127:.\utilities\src/segger_rtt_printf.c ****     }
 128:.\utilities\src/segger_rtt_printf.c ****   }
 129:.\utilities\src/segger_rtt_printf.c **** }
 145              		.loc 1 129 0
 146              		@ sp needed	@
 147              	.LVL6:
 148 0036 10BD     		pop	{r4, pc}
 149              	.LVL7:
 150              	.L4:
 151              	@ .\utilities\src\segger_rtt_printf.c:126:       p->Cnt = 0u;
 126:.\utilities\src/segger_rtt_printf.c ****     }
 152              		.loc 1 126 0
 153 0038 0023     		movs	r3, #0	@ tmp133,
ARM GAS  C:\Users\claym\AppData\Local\Temp\ccGxEn0u.s 			page 6


 154 003a A360     		str	r3, [r4, #8]	@ tmp133, p_16(D)->Cnt
 155              	@ .\utilities\src\segger_rtt_printf.c:129: }
 156              		.loc 1 129 0
 157 003c FBE7     		b	.L1	@
 158              		.cfi_endproc
 159              	.LFE0:
 160              		.size	_StoreChar, .-_StoreChar
 161              		.global	__aeabi_uidiv
 162              		.global	__aeabi_uidivmod
 163              		.align	1
 164              		.syntax unified
 165              		.code	16
 166              		.thumb_func
 167              		.fpu softvfp
 168              		.type	_PrintUnsigned, %function
 169              	_PrintUnsigned:
 170              	.LFB1:
 130:.\utilities\src/segger_rtt_printf.c **** 
 131:.\utilities\src/segger_rtt_printf.c **** /*********************************************************************
 132:.\utilities\src/segger_rtt_printf.c **** *
 133:.\utilities\src/segger_rtt_printf.c **** *       _PrintUnsigned
 134:.\utilities\src/segger_rtt_printf.c **** */
 135:.\utilities\src/segger_rtt_printf.c **** static void _PrintUnsigned(SEGGER_RTT_PRINTF_DESC * pBufferDesc, unsigned v, unsigned Base, unsigne
 171              		.loc 1 135 0
 172              		.cfi_startproc
 173              		@ args = 8, pretend = 0, frame = 16
 174              		@ frame_needed = 0, uses_anonymous_args = 0
 175              	.LVL8:
 176 003e F0B5     		push	{r4, r5, r6, r7, lr}	@
 177              	.LCFI1:
 178              		.cfi_def_cfa_offset 20
 179              		.cfi_offset 4, -20
 180              		.cfi_offset 5, -16
 181              		.cfi_offset 6, -12
 182              		.cfi_offset 7, -8
 183              		.cfi_offset 14, -4
 184 0040 0500     		movs	r5, r0	@ pBufferDesc, pBufferDesc
 185 0042 1F00     		movs	r7, r3	@ NumDigits, NumDigits
 186              	@ .\utilities\src\segger_rtt_printf.c:143:   Number = v;
 136:.\utilities\src/segger_rtt_printf.c ****   static const char _aV2C[16] = {'0', '1', '2', '3', '4', '5', '6', '7', '8', '9', 'A', 'B', 'C', '
 137:.\utilities\src/segger_rtt_printf.c ****   unsigned Div;
 138:.\utilities\src/segger_rtt_printf.c ****   unsigned Digit;
 139:.\utilities\src/segger_rtt_printf.c ****   unsigned Number;
 140:.\utilities\src/segger_rtt_printf.c ****   unsigned Width;
 141:.\utilities\src/segger_rtt_printf.c ****   char c;
 142:.\utilities\src/segger_rtt_printf.c **** 
 143:.\utilities\src/segger_rtt_printf.c ****   Number = v;
 187              		.loc 1 143 0
 188 0044 0800     		movs	r0, r1	@ Number, v
 189              	.LVL9:
 190              	@ .\utilities\src\segger_rtt_printf.c:148:   Width = 1u;
 144:.\utilities\src/segger_rtt_printf.c ****   Digit = 1u;
 145:.\utilities\src/segger_rtt_printf.c ****   //
 146:.\utilities\src/segger_rtt_printf.c ****   // Get actual field width
 147:.\utilities\src/segger_rtt_printf.c ****   //
 148:.\utilities\src/segger_rtt_printf.c ****   Width = 1u;
 191              		.loc 1 148 0
ARM GAS  C:\Users\claym\AppData\Local\Temp\ccGxEn0u.s 			page 7


 192 0046 0126     		movs	r6, #1	@ Width,
 193              	@ .\utilities\src\segger_rtt_printf.c:135: static void _PrintUnsigned(SEGGER_RTT_PRINTF_DESC * pBuf
 135:.\utilities\src/segger_rtt_printf.c ****   static const char _aV2C[16] = {'0', '1', '2', '3', '4', '5', '6', '7', '8', '9', 'A', 'B', 'C', '
 194              		.loc 1 135 0
 195 0048 85B0     		sub	sp, sp, #20	@,,
 196              	.LCFI2:
 197              		.cfi_def_cfa_offset 40
 198              	.LVL10:
 199              	@ .\utilities\src\segger_rtt_printf.c:135: static void _PrintUnsigned(SEGGER_RTT_PRINTF_DESC * pBuf
 135:.\utilities\src/segger_rtt_printf.c ****   static const char _aV2C[16] = {'0', '1', '2', '3', '4', '5', '6', '7', '8', '9', 'A', 'B', 'C', '
 200              		.loc 1 135 0
 201 004a 0A9C     		ldr	r4, [sp, #40]	@ FieldWidth, FieldWidth
 202 004c 0291     		str	r1, [sp, #8]	@ v, %sfp
 203              	.LVL11:
 204 004e 0092     		str	r2, [sp]	@ Base, %sfp
 205              	.LVL12:
 206              	.L6:
 207              	@ .\utilities\src\segger_rtt_printf.c:149:   while (Number >= Base) {
 149:.\utilities\src/segger_rtt_printf.c ****   while (Number >= Base) {
 208              		.loc 1 149 0
 209 0050 009B     		ldr	r3, [sp]	@ Base, %sfp
 210 0052 9842     		cmp	r0, r3	@ Number, Base
 211 0054 1AD2     		bcs	.L7	@,
 212 0056 0196     		str	r6, [sp, #4]	@ Width, %sfp
 213 0058 BE42     		cmp	r6, r7	@ Width, NumDigits
 214 005a 00D2     		bcs	.L8	@,
 215 005c 0197     		str	r7, [sp, #4]	@ NumDigits, %sfp
 216              	.L8:
 217              	.LVL13:
 218              	@ .\utilities\src\segger_rtt_printf.c:159:   if ((FormatFlags & FORMAT_FLAG_LEFT_JUSTIFY) == 0u) {
 150:.\utilities\src/segger_rtt_printf.c ****     Number = (Number / Base);
 151:.\utilities\src/segger_rtt_printf.c ****     Width++;
 152:.\utilities\src/segger_rtt_printf.c ****   }
 153:.\utilities\src/segger_rtt_printf.c ****   if (NumDigits > Width) {
 154:.\utilities\src/segger_rtt_printf.c ****     Width = NumDigits;
 155:.\utilities\src/segger_rtt_printf.c ****   }
 156:.\utilities\src/segger_rtt_printf.c ****   //
 157:.\utilities\src/segger_rtt_printf.c ****   // Print leading chars if necessary
 158:.\utilities\src/segger_rtt_printf.c ****   //
 159:.\utilities\src/segger_rtt_printf.c ****   if ((FormatFlags & FORMAT_FLAG_LEFT_JUSTIFY) == 0u) {
 219              		.loc 1 159 0
 220 005e 0123     		movs	r3, #1	@ tmp135,
 221 0060 0B9A     		ldr	r2, [sp, #44]	@ _1, FormatFlags
 222 0062 1A40     		ands	r2, r3	@ _1, tmp135
 223 0064 0392     		str	r2, [sp, #12]	@ _1, %sfp
 224 0066 0CD1     		bne	.L9	@,
 225              	@ .\utilities\src\segger_rtt_printf.c:160:     if (FieldWidth != 0u) {
 160:.\utilities\src/segger_rtt_printf.c ****     if (FieldWidth != 0u) {
 226              		.loc 1 160 0
 227 0068 002C     		cmp	r4, #0	@ FieldWidth,
 228 006a 0AD0     		beq	.L9	@,
 229              	@ .\utilities\src\segger_rtt_printf.c:161:       if (((FormatFlags & FORMAT_FLAG_PAD_ZERO) == FORMA
 161:.\utilities\src/segger_rtt_printf.c ****       if (((FormatFlags & FORMAT_FLAG_PAD_ZERO) == FORMAT_FLAG_PAD_ZERO) && (NumDigits == 0u)) {
 230              		.loc 1 161 0
 231 006c 0B9B     		ldr	r3, [sp, #44]	@ tmp170, FormatFlags
 232              	@ .\utilities\src\segger_rtt_printf.c:164:         c = ' ';
 162:.\utilities\src/segger_rtt_printf.c ****         c = '0';
ARM GAS  C:\Users\claym\AppData\Local\Temp\ccGxEn0u.s 			page 8


 163:.\utilities\src/segger_rtt_printf.c ****       } else {
 164:.\utilities\src/segger_rtt_printf.c ****         c = ' ';
 233              		.loc 1 164 0
 234 006e 2026     		movs	r6, #32	@ c,
 235              	@ .\utilities\src\segger_rtt_printf.c:161:       if (((FormatFlags & FORMAT_FLAG_PAD_ZERO) == FORMA
 161:.\utilities\src/segger_rtt_printf.c ****       if (((FormatFlags & FORMAT_FLAG_PAD_ZERO) == FORMAT_FLAG_PAD_ZERO) && (NumDigits == 0u)) {
 236              		.loc 1 161 0
 237 0070 9B07     		lsls	r3, r3, #30	@ tmp163, tmp170,
 238 0072 03D5     		bpl	.L12	@,
 239              	@ .\utilities\src\segger_rtt_printf.c:162:         c = '0';
 162:.\utilities\src/segger_rtt_printf.c ****         c = '0';
 240              		.loc 1 162 0 discriminator 1
 241 0074 1036     		adds	r6, r6, #16	@ c,
 242              	@ .\utilities\src\segger_rtt_printf.c:161:       if (((FormatFlags & FORMAT_FLAG_PAD_ZERO) == FORMA
 161:.\utilities\src/segger_rtt_printf.c ****       if (((FormatFlags & FORMAT_FLAG_PAD_ZERO) == FORMAT_FLAG_PAD_ZERO) && (NumDigits == 0u)) {
 243              		.loc 1 161 0 discriminator 1
 244 0076 002F     		cmp	r7, #0	@ NumDigits,
 245 0078 00D0     		beq	.L12	@,
 246              	@ .\utilities\src\segger_rtt_printf.c:164:         c = ' ';
 247              		.loc 1 164 0
 248 007a 103E     		subs	r6, r6, #16	@ c,
 249              	.LVL14:
 250              	.L12:
 251              	@ .\utilities\src\segger_rtt_printf.c:166:       while ((FieldWidth != 0u) && (Width < FieldWidth))
 165:.\utilities\src/segger_rtt_printf.c ****       }
 166:.\utilities\src/segger_rtt_printf.c ****       while ((FieldWidth != 0u) && (Width < FieldWidth)) {
 252              		.loc 1 166 0 discriminator 1
 253 007c 019B     		ldr	r3, [sp, #4]	@ Width, %sfp
 254 007e A342     		cmp	r3, r4	@ Width, FieldWidth
 255 0080 09D3     		bcc	.L14	@,
 256              	.LVL15:
 257              	.L9:
 258              	@ .\utilities\src\segger_rtt_printf.c:175:   if (pBufferDesc->ReturnValue >= 0) {
 167:.\utilities\src/segger_rtt_printf.c ****         FieldWidth--;
 168:.\utilities\src/segger_rtt_printf.c ****         _StoreChar(pBufferDesc, c);
 169:.\utilities\src/segger_rtt_printf.c ****         if (pBufferDesc->ReturnValue < 0) {
 170:.\utilities\src/segger_rtt_printf.c ****           break;
 171:.\utilities\src/segger_rtt_printf.c ****         }
 172:.\utilities\src/segger_rtt_printf.c ****       }
 173:.\utilities\src/segger_rtt_printf.c ****     }
 174:.\utilities\src/segger_rtt_printf.c ****   }
 175:.\utilities\src/segger_rtt_printf.c ****   if (pBufferDesc->ReturnValue >= 0) {
 259              		.loc 1 175 0
 260 0082 EB68     		ldr	r3, [r5, #12]	@ tmp174, pBufferDesc_33(D)->ReturnValue
 261 0084 002B     		cmp	r3, #0	@ tmp174,
 262 0086 10DA     		bge	.L13	@,
 263              	.LVL16:
 264              	.L5:
 265              	@ .\utilities\src\segger_rtt_printf.c:219: }
 176:.\utilities\src/segger_rtt_printf.c ****     //
 177:.\utilities\src/segger_rtt_printf.c ****     // Compute Digit.
 178:.\utilities\src/segger_rtt_printf.c ****     // Loop until Digit has the value of the highest digit required.
 179:.\utilities\src/segger_rtt_printf.c ****     // Example: If the output is 345 (Base 10), loop 2 times until Digit is 100.
 180:.\utilities\src/segger_rtt_printf.c ****     //
 181:.\utilities\src/segger_rtt_printf.c ****     while (1) {
 182:.\utilities\src/segger_rtt_printf.c ****       if (NumDigits > 1u) {       // User specified a min number of digits to print? => Make sure w
 183:.\utilities\src/segger_rtt_printf.c ****         NumDigits--;
ARM GAS  C:\Users\claym\AppData\Local\Temp\ccGxEn0u.s 			page 9


 184:.\utilities\src/segger_rtt_printf.c ****       } else {
 185:.\utilities\src/segger_rtt_printf.c ****         Div = v / Digit;
 186:.\utilities\src/segger_rtt_printf.c ****         if (Div < Base) {        // Is our divider big enough to extract the highest digit from val
 187:.\utilities\src/segger_rtt_printf.c ****           break;
 188:.\utilities\src/segger_rtt_printf.c ****         }
 189:.\utilities\src/segger_rtt_printf.c ****       }
 190:.\utilities\src/segger_rtt_printf.c ****       Digit *= Base;
 191:.\utilities\src/segger_rtt_printf.c ****     }
 192:.\utilities\src/segger_rtt_printf.c ****     //
 193:.\utilities\src/segger_rtt_printf.c ****     // Output digits
 194:.\utilities\src/segger_rtt_printf.c ****     //
 195:.\utilities\src/segger_rtt_printf.c ****     do {
 196:.\utilities\src/segger_rtt_printf.c ****       Div = v / Digit;
 197:.\utilities\src/segger_rtt_printf.c ****       v -= Div * Digit;
 198:.\utilities\src/segger_rtt_printf.c ****       _StoreChar(pBufferDesc, _aV2C[Div]);
 199:.\utilities\src/segger_rtt_printf.c ****       if (pBufferDesc->ReturnValue < 0) {
 200:.\utilities\src/segger_rtt_printf.c ****         break;
 201:.\utilities\src/segger_rtt_printf.c ****       }
 202:.\utilities\src/segger_rtt_printf.c ****       Digit /= Base;
 203:.\utilities\src/segger_rtt_printf.c ****     } while (Digit);
 204:.\utilities\src/segger_rtt_printf.c ****     //
 205:.\utilities\src/segger_rtt_printf.c ****     // Print trailing spaces if necessary
 206:.\utilities\src/segger_rtt_printf.c ****     //
 207:.\utilities\src/segger_rtt_printf.c ****     if ((FormatFlags & FORMAT_FLAG_LEFT_JUSTIFY) == FORMAT_FLAG_LEFT_JUSTIFY) {
 208:.\utilities\src/segger_rtt_printf.c ****       if (FieldWidth != 0u) {
 209:.\utilities\src/segger_rtt_printf.c ****         while ((FieldWidth != 0u) && (Width < FieldWidth)) {
 210:.\utilities\src/segger_rtt_printf.c ****           FieldWidth--;
 211:.\utilities\src/segger_rtt_printf.c ****           _StoreChar(pBufferDesc, ' ');
 212:.\utilities\src/segger_rtt_printf.c ****           if (pBufferDesc->ReturnValue < 0) {
 213:.\utilities\src/segger_rtt_printf.c ****             break;
 214:.\utilities\src/segger_rtt_printf.c ****           }
 215:.\utilities\src/segger_rtt_printf.c ****         }
 216:.\utilities\src/segger_rtt_printf.c ****       }
 217:.\utilities\src/segger_rtt_printf.c ****     }
 218:.\utilities\src/segger_rtt_printf.c ****   }
 219:.\utilities\src/segger_rtt_printf.c **** }
 266              		.loc 1 219 0
 267 0088 05B0     		add	sp, sp, #20	@,,
 268              	.LVL17:
 269              		@ sp needed	@
 270              	.LVL18:
 271              	.LVL19:
 272              	.LVL20:
 273 008a F0BD     		pop	{r4, r5, r6, r7, pc}
 274              	.LVL21:
 275              	.L7:
 276              	@ .\utilities\src\segger_rtt_printf.c:150:     Number = (Number / Base);
 150:.\utilities\src/segger_rtt_printf.c ****     Width++;
 277              		.loc 1 150 0
 278 008c 0099     		ldr	r1, [sp]	@, %sfp
 279 008e FFF7FEFF 		bl	__aeabi_uidiv	@
 280              	.LVL22:
 281              	@ .\utilities\src\segger_rtt_printf.c:151:     Width++;
 151:.\utilities\src/segger_rtt_printf.c ****   }
 282              		.loc 1 151 0
 283 0092 0136     		adds	r6, r6, #1	@ Width,
 284              	.LVL23:
ARM GAS  C:\Users\claym\AppData\Local\Temp\ccGxEn0u.s 			page 10


 285 0094 DCE7     		b	.L6	@
 286              	.LVL24:
 287              	.L14:
 288              	@ .\utilities\src\segger_rtt_printf.c:168:         _StoreChar(pBufferDesc, c);
 168:.\utilities\src/segger_rtt_printf.c ****         if (pBufferDesc->ReturnValue < 0) {
 289              		.loc 1 168 0
 290 0096 3100     		movs	r1, r6	@, c
 291 0098 2800     		movs	r0, r5	@, pBufferDesc
 292 009a FFF7B1FF 		bl	_StoreChar	@
 293              	.LVL25:
 294              	@ .\utilities\src\segger_rtt_printf.c:169:         if (pBufferDesc->ReturnValue < 0) {
 169:.\utilities\src/segger_rtt_printf.c ****           break;
 295              		.loc 1 169 0
 296 009e EB68     		ldr	r3, [r5, #12]	@ tmp171, pBufferDesc_33(D)->ReturnValue
 297              	@ .\utilities\src\segger_rtt_printf.c:167:         FieldWidth--;
 167:.\utilities\src/segger_rtt_printf.c ****         _StoreChar(pBufferDesc, c);
 298              		.loc 1 167 0
 299 00a0 013C     		subs	r4, r4, #1	@ FieldWidth,
 300              	.LVL26:
 301              	@ .\utilities\src\segger_rtt_printf.c:169:         if (pBufferDesc->ReturnValue < 0) {
 169:.\utilities\src/segger_rtt_printf.c ****           break;
 302              		.loc 1 169 0
 303 00a2 002B     		cmp	r3, #0	@ tmp171,
 304 00a4 EDDB     		blt	.L9	@,
 305              	@ .\utilities\src\segger_rtt_printf.c:166:       while ((FieldWidth != 0u) && (Width < FieldWidth))
 166:.\utilities\src/segger_rtt_printf.c ****         FieldWidth--;
 306              		.loc 1 166 0
 307 00a6 002C     		cmp	r4, #0	@ FieldWidth,
 308 00a8 E8D1     		bne	.L12	@,
 309              	.LVL27:
 310              	.L13:
 311              	@ .\utilities\src\segger_rtt_printf.c:164:         c = ' ';
 164:.\utilities\src/segger_rtt_printf.c ****       }
 312              		.loc 1 164 0
 313 00aa 0126     		movs	r6, #1	@ Digit,
 314              	.LVL28:
 315              	.L18:
 316              	@ .\utilities\src\segger_rtt_printf.c:182:       if (NumDigits > 1u) {       // User specified a mi
 182:.\utilities\src/segger_rtt_printf.c ****         NumDigits--;
 317              		.loc 1 182 0
 318 00ac 012F     		cmp	r7, #1	@ NumDigits,
 319 00ae 03D9     		bls	.L15	@,
 320              	@ .\utilities\src\segger_rtt_printf.c:183:         NumDigits--;
 183:.\utilities\src/segger_rtt_printf.c ****       } else {
 321              		.loc 1 183 0
 322 00b0 013F     		subs	r7, r7, #1	@ NumDigits,
 323              	.LVL29:
 324              	.L16:
 325              	@ .\utilities\src\segger_rtt_printf.c:190:       Digit *= Base;
 190:.\utilities\src/segger_rtt_printf.c ****     }
 326              		.loc 1 190 0
 327 00b2 009B     		ldr	r3, [sp]	@ Base, %sfp
 328 00b4 5E43     		muls	r6, r3	@ Digit, Base
 329              	.LVL30:
 330              	@ .\utilities\src\segger_rtt_printf.c:182:       if (NumDigits > 1u) {       // User specified a mi
 182:.\utilities\src/segger_rtt_printf.c ****         NumDigits--;
 331              		.loc 1 182 0
ARM GAS  C:\Users\claym\AppData\Local\Temp\ccGxEn0u.s 			page 11


 332 00b6 F9E7     		b	.L18	@
 333              	.L15:
 334              	.LVL31:
 335              	@ .\utilities\src\segger_rtt_printf.c:185:         Div = v / Digit;
 185:.\utilities\src/segger_rtt_printf.c ****         if (Div < Base) {        // Is our divider big enough to extract the highest digit from val
 336              		.loc 1 185 0
 337 00b8 3100     		movs	r1, r6	@, Digit
 338 00ba 0298     		ldr	r0, [sp, #8]	@, %sfp
 339 00bc FFF7FEFF 		bl	__aeabi_uidiv	@
 340              	.LVL32:
 341              	@ .\utilities\src\segger_rtt_printf.c:186:         if (Div < Base) {        // Is our divider big e
 186:.\utilities\src/segger_rtt_printf.c ****           break;
 342              		.loc 1 186 0
 343 00c0 009B     		ldr	r3, [sp]	@ Base, %sfp
 344 00c2 8342     		cmp	r3, r0	@ Base, Div
 345 00c4 F5D9     		bls	.L16	@,
 346              	.LVL33:
 347              	.L17:
 348 00c6 0298     		ldr	r0, [sp, #8]	@, %sfp
 349 00c8 3100     		movs	r1, r6	@, Digit
 350 00ca FFF7FEFF 		bl	__aeabi_uidivmod	@
 351              	.LVL34:
 352              	@ .\utilities\src\segger_rtt_printf.c:198:       _StoreChar(pBufferDesc, _aV2C[Div]);
 198:.\utilities\src/segger_rtt_printf.c ****       if (pBufferDesc->ReturnValue < 0) {
 353              		.loc 1 198 0
 354 00ce 104B     		ldr	r3, .L43	@ tmp144,
 355 00d0 0291     		str	r1, [sp, #8]	@, %sfp
 356              	.LVL35:
 357 00d2 195C     		ldrb	r1, [r3, r0]	@ tmp145, _aV2C
 358              	.LVL36:
 359 00d4 2800     		movs	r0, r5	@, pBufferDesc
 360              	.LVL37:
 361 00d6 FFF793FF 		bl	_StoreChar	@
 362              	.LVL38:
 363              	@ .\utilities\src\segger_rtt_printf.c:199:       if (pBufferDesc->ReturnValue < 0) {
 199:.\utilities\src/segger_rtt_printf.c ****         break;
 364              		.loc 1 199 0
 365 00da EB68     		ldr	r3, [r5, #12]	@ tmp178, pBufferDesc_33(D)->ReturnValue
 366 00dc 002B     		cmp	r3, #0	@ tmp178,
 367 00de 05DB     		blt	.L19	@,
 368              	@ .\utilities\src\segger_rtt_printf.c:202:       Digit /= Base;
 202:.\utilities\src/segger_rtt_printf.c ****     } while (Digit);
 369              		.loc 1 202 0
 370 00e0 3000     		movs	r0, r6	@, Digit
 371 00e2 0099     		ldr	r1, [sp]	@, %sfp
 372 00e4 FFF7FEFF 		bl	__aeabi_uidiv	@
 373              	.LVL39:
 374 00e8 061E     		subs	r6, r0, #0	@ Digit,,
 375              	.LVL40:
 376              	@ .\utilities\src\segger_rtt_printf.c:203:     } while (Digit);
 203:.\utilities\src/segger_rtt_printf.c ****     //
 377              		.loc 1 203 0
 378 00ea ECD1     		bne	.L17	@,
 379              	.LVL41:
 380              	.L19:
 381              	@ .\utilities\src\segger_rtt_printf.c:207:     if ((FormatFlags & FORMAT_FLAG_LEFT_JUSTIFY) == FORM
 207:.\utilities\src/segger_rtt_printf.c ****       if (FieldWidth != 0u) {
ARM GAS  C:\Users\claym\AppData\Local\Temp\ccGxEn0u.s 			page 12


 382              		.loc 1 207 0
 383 00ec 039B     		ldr	r3, [sp, #12]	@ _1, %sfp
 384 00ee 002B     		cmp	r3, #0	@ _1,
 385 00f0 CAD0     		beq	.L5	@,
 386              	.L42:
 387              	@ .\utilities\src\segger_rtt_printf.c:209:         while ((FieldWidth != 0u) && (Width < FieldWidth
 209:.\utilities\src/segger_rtt_printf.c ****           FieldWidth--;
 388              		.loc 1 209 0
 389 00f2 002C     		cmp	r4, #0	@ FieldWidth,
 390 00f4 C8D0     		beq	.L5	@,
 391              	@ .\utilities\src\segger_rtt_printf.c:209:         while ((FieldWidth != 0u) && (Width < FieldWidth
 209:.\utilities\src/segger_rtt_printf.c ****           FieldWidth--;
 392              		.loc 1 209 0 is_stmt 0 discriminator 1
 393 00f6 019B     		ldr	r3, [sp, #4]	@ Width, %sfp
 394 00f8 A342     		cmp	r3, r4	@ Width, FieldWidth
 395 00fa C5D2     		bcs	.L5	@,
 396              	@ .\utilities\src\segger_rtt_printf.c:211:           _StoreChar(pBufferDesc, ' ');
 211:.\utilities\src/segger_rtt_printf.c ****           if (pBufferDesc->ReturnValue < 0) {
 397              		.loc 1 211 0 is_stmt 1
 398 00fc 2021     		movs	r1, #32	@,
 399 00fe 2800     		movs	r0, r5	@, pBufferDesc
 400 0100 FFF77EFF 		bl	_StoreChar	@
 401              	.LVL42:
 402              	@ .\utilities\src\segger_rtt_printf.c:212:           if (pBufferDesc->ReturnValue < 0) {
 212:.\utilities\src/segger_rtt_printf.c ****             break;
 403              		.loc 1 212 0
 404 0104 EB68     		ldr	r3, [r5, #12]	@ tmp180, pBufferDesc_33(D)->ReturnValue
 405              	@ .\utilities\src\segger_rtt_printf.c:210:           FieldWidth--;
 210:.\utilities\src/segger_rtt_printf.c ****           _StoreChar(pBufferDesc, ' ');
 406              		.loc 1 210 0
 407 0106 013C     		subs	r4, r4, #1	@ FieldWidth,
 408              	.LVL43:
 409              	@ .\utilities\src\segger_rtt_printf.c:212:           if (pBufferDesc->ReturnValue < 0) {
 212:.\utilities\src/segger_rtt_printf.c ****             break;
 410              		.loc 1 212 0
 411 0108 002B     		cmp	r3, #0	@ tmp180,
 412 010a F2DA     		bge	.L42	@,
 413 010c BCE7     		b	.L5	@
 414              	.L44:
 415 010e C046     		.align	2
 416              	.L43:
 417 0110 00000000 		.word	.LANCHOR0
 418              		.cfi_endproc
 419              	.LFE1:
 420              		.size	_PrintUnsigned, .-_PrintUnsigned
 421              		.global	__aeabi_idiv
 422              		.align	1
 423              		.global	SEGGER_RTT_vprintf
 424              		.syntax unified
 425              		.code	16
 426              		.thumb_func
 427              		.fpu softvfp
 428              		.type	SEGGER_RTT_vprintf, %function
 429              	SEGGER_RTT_vprintf:
 430              	.LFB3:
 220:.\utilities\src/segger_rtt_printf.c **** 
 221:.\utilities\src/segger_rtt_printf.c **** /*********************************************************************
ARM GAS  C:\Users\claym\AppData\Local\Temp\ccGxEn0u.s 			page 13


 222:.\utilities\src/segger_rtt_printf.c **** *
 223:.\utilities\src/segger_rtt_printf.c **** *       _PrintInt
 224:.\utilities\src/segger_rtt_printf.c **** */
 225:.\utilities\src/segger_rtt_printf.c **** static void _PrintInt(SEGGER_RTT_PRINTF_DESC * pBufferDesc, int v, unsigned Base, unsigned NumDigit
 226:.\utilities\src/segger_rtt_printf.c ****   unsigned Width;
 227:.\utilities\src/segger_rtt_printf.c ****   int Number;
 228:.\utilities\src/segger_rtt_printf.c **** 
 229:.\utilities\src/segger_rtt_printf.c ****   Number = (v < 0) ? -v : v;
 230:.\utilities\src/segger_rtt_printf.c **** 
 231:.\utilities\src/segger_rtt_printf.c ****   //
 232:.\utilities\src/segger_rtt_printf.c ****   // Get actual field width
 233:.\utilities\src/segger_rtt_printf.c ****   //
 234:.\utilities\src/segger_rtt_printf.c ****   Width = 1u;
 235:.\utilities\src/segger_rtt_printf.c ****   while (Number >= (int)Base) {
 236:.\utilities\src/segger_rtt_printf.c ****     Number = (Number / (int)Base);
 237:.\utilities\src/segger_rtt_printf.c ****     Width++;
 238:.\utilities\src/segger_rtt_printf.c ****   }
 239:.\utilities\src/segger_rtt_printf.c ****   if (NumDigits > Width) {
 240:.\utilities\src/segger_rtt_printf.c ****     Width = NumDigits;
 241:.\utilities\src/segger_rtt_printf.c ****   }
 242:.\utilities\src/segger_rtt_printf.c ****   if ((FieldWidth > 0u) && ((v < 0) || ((FormatFlags & FORMAT_FLAG_PRINT_SIGN) == FORMAT_FLAG_PRINT
 243:.\utilities\src/segger_rtt_printf.c ****     FieldWidth--;
 244:.\utilities\src/segger_rtt_printf.c ****   }
 245:.\utilities\src/segger_rtt_printf.c **** 
 246:.\utilities\src/segger_rtt_printf.c ****   //
 247:.\utilities\src/segger_rtt_printf.c ****   // Print leading spaces if necessary
 248:.\utilities\src/segger_rtt_printf.c ****   //
 249:.\utilities\src/segger_rtt_printf.c ****   if ((((FormatFlags & FORMAT_FLAG_PAD_ZERO) == 0u) || (NumDigits != 0u)) && ((FormatFlags & FORMAT
 250:.\utilities\src/segger_rtt_printf.c ****     if (FieldWidth != 0u) {
 251:.\utilities\src/segger_rtt_printf.c ****       while ((FieldWidth != 0u) && (Width < FieldWidth)) {
 252:.\utilities\src/segger_rtt_printf.c ****         FieldWidth--;
 253:.\utilities\src/segger_rtt_printf.c ****         _StoreChar(pBufferDesc, ' ');
 254:.\utilities\src/segger_rtt_printf.c ****         if (pBufferDesc->ReturnValue < 0) {
 255:.\utilities\src/segger_rtt_printf.c ****           break;
 256:.\utilities\src/segger_rtt_printf.c ****         }
 257:.\utilities\src/segger_rtt_printf.c ****       }
 258:.\utilities\src/segger_rtt_printf.c ****     }
 259:.\utilities\src/segger_rtt_printf.c ****   }
 260:.\utilities\src/segger_rtt_printf.c ****   //
 261:.\utilities\src/segger_rtt_printf.c ****   // Print sign if necessary
 262:.\utilities\src/segger_rtt_printf.c ****   //
 263:.\utilities\src/segger_rtt_printf.c ****   if (pBufferDesc->ReturnValue >= 0) {
 264:.\utilities\src/segger_rtt_printf.c ****     if (v < 0) {
 265:.\utilities\src/segger_rtt_printf.c ****       v = -v;
 266:.\utilities\src/segger_rtt_printf.c ****       _StoreChar(pBufferDesc, '-');
 267:.\utilities\src/segger_rtt_printf.c ****     } else if ((FormatFlags & FORMAT_FLAG_PRINT_SIGN) == FORMAT_FLAG_PRINT_SIGN) {
 268:.\utilities\src/segger_rtt_printf.c ****       _StoreChar(pBufferDesc, '+');
 269:.\utilities\src/segger_rtt_printf.c ****     } else {
 270:.\utilities\src/segger_rtt_printf.c **** 
 271:.\utilities\src/segger_rtt_printf.c ****     }
 272:.\utilities\src/segger_rtt_printf.c ****     if (pBufferDesc->ReturnValue >= 0) {
 273:.\utilities\src/segger_rtt_printf.c ****       //
 274:.\utilities\src/segger_rtt_printf.c ****       // Print leading zeros if necessary
 275:.\utilities\src/segger_rtt_printf.c ****       //
 276:.\utilities\src/segger_rtt_printf.c ****       if (((FormatFlags & FORMAT_FLAG_PAD_ZERO) == FORMAT_FLAG_PAD_ZERO) && ((FormatFlags & FORMAT_
 277:.\utilities\src/segger_rtt_printf.c ****         if (FieldWidth != 0u) {
 278:.\utilities\src/segger_rtt_printf.c ****           while ((FieldWidth != 0u) && (Width < FieldWidth)) {
ARM GAS  C:\Users\claym\AppData\Local\Temp\ccGxEn0u.s 			page 14


 279:.\utilities\src/segger_rtt_printf.c ****             FieldWidth--;
 280:.\utilities\src/segger_rtt_printf.c ****             _StoreChar(pBufferDesc, '0');
 281:.\utilities\src/segger_rtt_printf.c ****             if (pBufferDesc->ReturnValue < 0) {
 282:.\utilities\src/segger_rtt_printf.c ****               break;
 283:.\utilities\src/segger_rtt_printf.c ****             }
 284:.\utilities\src/segger_rtt_printf.c ****           }
 285:.\utilities\src/segger_rtt_printf.c ****         }
 286:.\utilities\src/segger_rtt_printf.c ****       }
 287:.\utilities\src/segger_rtt_printf.c ****       if (pBufferDesc->ReturnValue >= 0) {
 288:.\utilities\src/segger_rtt_printf.c ****         //
 289:.\utilities\src/segger_rtt_printf.c ****         // Print number without sign
 290:.\utilities\src/segger_rtt_printf.c ****         //
 291:.\utilities\src/segger_rtt_printf.c ****         _PrintUnsigned(pBufferDesc, (unsigned)v, Base, NumDigits, FieldWidth, FormatFlags);
 292:.\utilities\src/segger_rtt_printf.c ****       }
 293:.\utilities\src/segger_rtt_printf.c ****     }
 294:.\utilities\src/segger_rtt_printf.c ****   }
 295:.\utilities\src/segger_rtt_printf.c **** }
 296:.\utilities\src/segger_rtt_printf.c **** 
 297:.\utilities\src/segger_rtt_printf.c **** /*********************************************************************
 298:.\utilities\src/segger_rtt_printf.c **** *
 299:.\utilities\src/segger_rtt_printf.c **** *       Public code
 300:.\utilities\src/segger_rtt_printf.c **** *
 301:.\utilities\src/segger_rtt_printf.c **** **********************************************************************
 302:.\utilities\src/segger_rtt_printf.c **** */
 303:.\utilities\src/segger_rtt_printf.c **** /*********************************************************************
 304:.\utilities\src/segger_rtt_printf.c **** *
 305:.\utilities\src/segger_rtt_printf.c **** *       SEGGER_RTT_vprintf
 306:.\utilities\src/segger_rtt_printf.c **** *
 307:.\utilities\src/segger_rtt_printf.c **** *  Function description
 308:.\utilities\src/segger_rtt_printf.c **** *    Stores a formatted string in SEGGER RTT control block.
 309:.\utilities\src/segger_rtt_printf.c **** *    This data is read by the host.
 310:.\utilities\src/segger_rtt_printf.c **** *
 311:.\utilities\src/segger_rtt_printf.c **** *  Parameters
 312:.\utilities\src/segger_rtt_printf.c **** *    BufferIndex  Index of "Up"-buffer to be used. (e.g. 0 for "Terminal")
 313:.\utilities\src/segger_rtt_printf.c **** *    sFormat      Pointer to format string
 314:.\utilities\src/segger_rtt_printf.c **** *    pParamList   Pointer to the list of arguments for the format string
 315:.\utilities\src/segger_rtt_printf.c **** *
 316:.\utilities\src/segger_rtt_printf.c **** *  Return values
 317:.\utilities\src/segger_rtt_printf.c **** *    >= 0:  Number of bytes which have been stored in the "Up"-buffer.
 318:.\utilities\src/segger_rtt_printf.c **** *     < 0:  Error
 319:.\utilities\src/segger_rtt_printf.c **** */
 320:.\utilities\src/segger_rtt_printf.c **** int SEGGER_RTT_vprintf(unsigned BufferIndex, const char * sFormat, va_list * pParamList) {
 431              		.loc 1 320 0
 432              		.cfi_startproc
 433              		@ args = 0, pretend = 0, frame = 112
 434              		@ frame_needed = 0, uses_anonymous_args = 0
 435              	.LVL44:
 436 0114 F0B5     		push	{r4, r5, r6, r7, lr}	@
 437              	.LCFI3:
 438              		.cfi_def_cfa_offset 20
 439              		.cfi_offset 4, -20
 440              		.cfi_offset 5, -16
 441              		.cfi_offset 6, -12
 442              		.cfi_offset 7, -8
 443              		.cfi_offset 14, -4
 444 0116 9FB0     		sub	sp, sp, #124	@,,
 445              	.LCFI4:
ARM GAS  C:\Users\claym\AppData\Local\Temp\ccGxEn0u.s 			page 15


 446              		.cfi_def_cfa_offset 144
 447              	@ .\utilities\src\segger_rtt_printf.c:329:   BufferDesc.pBuffer        = acBuffer;
 321:.\utilities\src/segger_rtt_printf.c ****   char c;
 322:.\utilities\src/segger_rtt_printf.c ****   SEGGER_RTT_PRINTF_DESC BufferDesc;
 323:.\utilities\src/segger_rtt_printf.c ****   int v;
 324:.\utilities\src/segger_rtt_printf.c ****   unsigned NumDigits;
 325:.\utilities\src/segger_rtt_printf.c ****   unsigned FormatFlags;
 326:.\utilities\src/segger_rtt_printf.c ****   unsigned FieldWidth;
 327:.\utilities\src/segger_rtt_printf.c ****   char acBuffer[SEGGER_RTT_PRINTF_BUFFER_SIZE];
 328:.\utilities\src/segger_rtt_printf.c **** 
 329:.\utilities\src/segger_rtt_printf.c ****   BufferDesc.pBuffer        = acBuffer;
 448              		.loc 1 329 0
 449 0118 0EAB     		add	r3, sp, #56	@ tmp205,,
 450 011a 0993     		str	r3, [sp, #36]	@ tmp205, BufferDesc.pBuffer
 451              	@ .\utilities\src\segger_rtt_printf.c:330:   BufferDesc.BufferSize     = SEGGER_RTT_PRINTF_BUFFER_S
 330:.\utilities\src/segger_rtt_printf.c ****   BufferDesc.BufferSize     = SEGGER_RTT_PRINTF_BUFFER_SIZE;
 452              		.loc 1 330 0
 453 011c 4023     		movs	r3, #64	@ tmp207,
 454 011e 0A93     		str	r3, [sp, #40]	@ tmp207, BufferDesc.BufferSize
 455              	@ .\utilities\src\segger_rtt_printf.c:331:   BufferDesc.Cnt            = 0u;
 331:.\utilities\src/segger_rtt_printf.c ****   BufferDesc.Cnt            = 0u;
 456              		.loc 1 331 0
 457 0120 0023     		movs	r3, #0	@ tmp209,
 458              	@ .\utilities\src\segger_rtt_printf.c:320: int SEGGER_RTT_vprintf(unsigned BufferIndex, const char 
 320:.\utilities\src/segger_rtt_printf.c ****   char c;
 459              		.loc 1 320 0
 460 0122 0E00     		movs	r6, r1	@ sFormat, sFormat
 461 0124 1500     		movs	r5, r2	@ pParamList, pParamList
 462 0126 0790     		str	r0, [sp, #28]	@ BufferIndex, %sfp
 463              	@ .\utilities\src\segger_rtt_printf.c:331:   BufferDesc.Cnt            = 0u;
 464              		.loc 1 331 0
 465 0128 0B93     		str	r3, [sp, #44]	@ tmp209, BufferDesc.Cnt
 466              	@ .\utilities\src\segger_rtt_printf.c:332:   BufferDesc.RTTBufferIndex = BufferIndex;
 332:.\utilities\src/segger_rtt_printf.c ****   BufferDesc.RTTBufferIndex = BufferIndex;
 467              		.loc 1 332 0
 468 012a 0D90     		str	r0, [sp, #52]	@ BufferIndex, BufferDesc.RTTBufferIndex
 469              	@ .\utilities\src\segger_rtt_printf.c:333:   BufferDesc.ReturnValue    = 0;
 333:.\utilities\src/segger_rtt_printf.c ****   BufferDesc.ReturnValue    = 0;
 470              		.loc 1 333 0
 471 012c 0C93     		str	r3, [sp, #48]	@ tmp209, BufferDesc.ReturnValue
 472              	.LVL45:
 473              	.L90:
 474              	@ .\utilities\src\segger_rtt_printf.c:336:     c = *sFormat;
 334:.\utilities\src/segger_rtt_printf.c **** 
 335:.\utilities\src/segger_rtt_printf.c ****   do {
 336:.\utilities\src/segger_rtt_printf.c ****     c = *sFormat;
 475              		.loc 1 336 0
 476 012e 3178     		ldrb	r1, [r6]	@ c, *sFormat_21
 477              	.LVL46:
 478              	@ .\utilities\src\segger_rtt_printf.c:337:     sFormat++;
 337:.\utilities\src/segger_rtt_printf.c ****     sFormat++;
 479              		.loc 1 337 0
 480 0130 0136     		adds	r6, r6, #1	@ sFormat,
 481              	.LVL47:
 482              	@ .\utilities\src\segger_rtt_printf.c:338:     if (c == 0u) {
 338:.\utilities\src/segger_rtt_printf.c ****     if (c == 0u) {
 483              		.loc 1 338 0
ARM GAS  C:\Users\claym\AppData\Local\Temp\ccGxEn0u.s 			page 16


 484 0132 0029     		cmp	r1, #0	@ c,
 485 0134 5DD0     		beq	.L46	@,
 486              	@ .\utilities\src\segger_rtt_printf.c:341:     if (c == '%') {
 339:.\utilities\src/segger_rtt_printf.c ****       break;
 340:.\utilities\src/segger_rtt_printf.c ****     }
 341:.\utilities\src/segger_rtt_printf.c ****     if (c == '%') {
 487              		.loc 1 341 0
 488 0136 2529     		cmp	r1, #37	@ c,
 489 0138 00D0     		beq	.LCB373	@
 490 013a 0FE1     		b	.L137	@long jump	@
 491              	.LCB373:
 492              	@ .\utilities\src\segger_rtt_printf.c:345:       FormatFlags = 0u;
 342:.\utilities\src/segger_rtt_printf.c ****       //
 343:.\utilities\src/segger_rtt_printf.c ****       // Filter out flags
 344:.\utilities\src/segger_rtt_printf.c ****       //
 345:.\utilities\src/segger_rtt_printf.c ****       FormatFlags = 0u;
 493              		.loc 1 345 0
 494 013c 0027     		movs	r7, #0	@ FormatFlags,
 495              	@ .\utilities\src\segger_rtt_printf.c:351:         case '0': FormatFlags |= FORMAT_FLAG_PAD_ZERO;  
 346:.\utilities\src/segger_rtt_printf.c ****       v = 1;
 347:.\utilities\src/segger_rtt_printf.c ****       do {
 348:.\utilities\src/segger_rtt_printf.c ****         c = *sFormat;
 349:.\utilities\src/segger_rtt_printf.c ****         switch (c) {
 350:.\utilities\src/segger_rtt_printf.c ****         case '-': FormatFlags |= FORMAT_FLAG_LEFT_JUSTIFY; sFormat++; break;
 351:.\utilities\src/segger_rtt_printf.c ****         case '0': FormatFlags |= FORMAT_FLAG_PAD_ZERO;     sFormat++; break;
 496              		.loc 1 351 0
 497 013e 0220     		movs	r0, #2	@ tmp319,
 498              	@ .\utilities\src\segger_rtt_printf.c:353:         case '#': FormatFlags |= FORMAT_FLAG_ALTERNATE; 
 352:.\utilities\src/segger_rtt_printf.c ****         case '+': FormatFlags |= FORMAT_FLAG_PRINT_SIGN;   sFormat++; break;
 353:.\utilities\src/segger_rtt_printf.c ****         case '#': FormatFlags |= FORMAT_FLAG_ALTERNATE;    sFormat++; break;
 499              		.loc 1 353 0
 500 0140 0822     		movs	r2, #8	@ tmp320,
 501 0142 05E0     		b	.L47	@
 502              	.LVL48:
 503              	.L51:
 504              	@ .\utilities\src\segger_rtt_printf.c:349:         switch (c) {
 349:.\utilities\src/segger_rtt_printf.c ****         case '-': FormatFlags |= FORMAT_FLAG_LEFT_JUSTIFY; sFormat++; break;
 505              		.loc 1 349 0
 506 0144 2D2B     		cmp	r3, #45	@ c_58,
 507 0146 17D0     		beq	.L53	@,
 508 0148 302B     		cmp	r3, #48	@ c_58,
 509 014a 08D1     		bne	.L95	@,
 510              	@ .\utilities\src\segger_rtt_printf.c:351:         case '0': FormatFlags |= FORMAT_FLAG_PAD_ZERO;  
 351:.\utilities\src/segger_rtt_printf.c ****         case '+': FormatFlags |= FORMAT_FLAG_PRINT_SIGN;   sFormat++; break;
 511              		.loc 1 351 0
 512 014c 0743     		orrs	r7, r0	@ FormatFlags, tmp319
 513              	.LVL49:
 514              	.L55:
 515              	@ .\utilities\src\segger_rtt_printf.c:320: int SEGGER_RTT_vprintf(unsigned BufferIndex, const char 
 320:.\utilities\src/segger_rtt_printf.c ****   char c;
 516              		.loc 1 320 0
 517 014e 0E00     		movs	r6, r1	@ sFormat, _72
 518              	.LVL50:
 519              	.L47:
 520              	@ .\utilities\src\segger_rtt_printf.c:349:         switch (c) {
 349:.\utilities\src/segger_rtt_printf.c ****         case '-': FormatFlags |= FORMAT_FLAG_LEFT_JUSTIFY; sFormat++; break;
 521              		.loc 1 349 0
ARM GAS  C:\Users\claym\AppData\Local\Temp\ccGxEn0u.s 			page 17


 522 0150 3378     		ldrb	r3, [r6]	@ c_58, MEM[base: sFormat_22, offset: 0B]
 523 0152 711C     		adds	r1, r6, #1	@ _72, sFormat,
 524 0154 2B2B     		cmp	r3, #43	@ c_58,
 525 0156 12D0     		beq	.L50	@,
 526 0158 F4D8     		bhi	.L51	@,
 527 015a 232B     		cmp	r3, #35	@ c_58,
 528 015c 11D0     		beq	.L52	@,
 529              	.L95:
 530              	@ .\utilities\src\segger_rtt_printf.c:360:       FieldWidth = 0u;
 354:.\utilities\src/segger_rtt_printf.c ****         default:  v = 0; break;
 355:.\utilities\src/segger_rtt_printf.c ****         }
 356:.\utilities\src/segger_rtt_printf.c ****       } while (v);
 357:.\utilities\src/segger_rtt_printf.c ****       //
 358:.\utilities\src/segger_rtt_printf.c ****       // filter out field with
 359:.\utilities\src/segger_rtt_printf.c ****       //
 360:.\utilities\src/segger_rtt_printf.c ****       FieldWidth = 0u;
 531              		.loc 1 360 0
 532 015e 0024     		movs	r4, #0	@ FieldWidth,
 533              	@ .\utilities\src\segger_rtt_printf.c:367:         FieldWidth = (FieldWidth * 10u) + ((unsigned)c -
 361:.\utilities\src/segger_rtt_printf.c ****       do {
 362:.\utilities\src/segger_rtt_printf.c ****         c = *sFormat;
 363:.\utilities\src/segger_rtt_printf.c ****         if ((c < '0') || (c > '9')) {
 364:.\utilities\src/segger_rtt_printf.c ****           break;
 365:.\utilities\src/segger_rtt_printf.c ****         }
 366:.\utilities\src/segger_rtt_printf.c ****         sFormat++;
 367:.\utilities\src/segger_rtt_printf.c ****         FieldWidth = (FieldWidth * 10u) + ((unsigned)c - '0');
 534              		.loc 1 367 0
 535 0160 0A21     		movs	r1, #10	@ tmp316,
 536              	.LVL51:
 537              	.L49:
 538              	@ .\utilities\src\segger_rtt_printf.c:362:         c = *sFormat;
 362:.\utilities\src/segger_rtt_printf.c ****         if ((c < '0') || (c > '9')) {
 539              		.loc 1 362 0
 540 0162 3378     		ldrb	r3, [r6]	@ c, MEM[base: sFormat_24, offset: 0B]
 541              	.LVL52:
 542 0164 721C     		adds	r2, r6, #1	@ sFormat, sFormat,
 543              	@ .\utilities\src\segger_rtt_printf.c:363:         if ((c < '0') || (c > '9')) {
 363:.\utilities\src/segger_rtt_printf.c ****           break;
 544              		.loc 1 363 0
 545 0166 1800     		movs	r0, r3	@ tmp233, c
 546 0168 3038     		subs	r0, r0, #48	@ tmp233,
 547 016a 0928     		cmp	r0, #9	@ tmp233,
 548 016c 0BD8     		bhi	.L56	@,
 549              	.LVL53:
 550              	@ .\utilities\src\segger_rtt_printf.c:367:         FieldWidth = (FieldWidth * 10u) + ((unsigned)c -
 551              		.loc 1 367 0
 552 016e 4C43     		muls	r4, r1	@ tmp235, tmp316
 553              	.LVL54:
 554 0170 303C     		subs	r4, r4, #48	@ _67,
 555 0172 1C19     		adds	r4, r3, r4	@ FieldWidth, c, _67
 556              	.LVL55:
 557              	@ .\utilities\src\segger_rtt_printf.c:362:         c = *sFormat;
 362:.\utilities\src/segger_rtt_printf.c ****         if ((c < '0') || (c > '9')) {
 558              		.loc 1 362 0
 559 0174 1600     		movs	r6, r2	@ sFormat, sFormat
 560 0176 F4E7     		b	.L49	@
 561              	.LVL56:
ARM GAS  C:\Users\claym\AppData\Local\Temp\ccGxEn0u.s 			page 18


 562              	.L53:
 563              	@ .\utilities\src\segger_rtt_printf.c:350:         case '-': FormatFlags |= FORMAT_FLAG_LEFT_JUSTIF
 350:.\utilities\src/segger_rtt_printf.c ****         case '0': FormatFlags |= FORMAT_FLAG_PAD_ZERO;     sFormat++; break;
 564              		.loc 1 350 0
 565 0178 0123     		movs	r3, #1	@ tmp326,
 566              	.L139:
 567              	@ .\utilities\src\segger_rtt_printf.c:352:         case '+': FormatFlags |= FORMAT_FLAG_PRINT_SIGN;
 352:.\utilities\src/segger_rtt_printf.c ****         case '#': FormatFlags |= FORMAT_FLAG_ALTERNATE;    sFormat++; break;
 568              		.loc 1 352 0
 569 017a 1F43     		orrs	r7, r3	@ FormatFlags, tmp327
 570              	.LVL57:
 571 017c E7E7     		b	.L55	@
 572              	.LVL58:
 573              	.L50:
 574 017e 0423     		movs	r3, #4	@ tmp327,
 575 0180 FBE7     		b	.L139	@
 576              	.L52:
 577              	@ .\utilities\src\segger_rtt_printf.c:353:         case '#': FormatFlags |= FORMAT_FLAG_ALTERNATE; 
 353:.\utilities\src/segger_rtt_printf.c ****         default:  v = 0; break;
 578              		.loc 1 353 0
 579 0182 1743     		orrs	r7, r2	@ FormatFlags, tmp320
 580              	.LVL59:
 581 0184 E3E7     		b	.L55	@
 582              	.LVL60:
 583              	.L56:
 584              	@ .\utilities\src\segger_rtt_printf.c:373:       NumDigits = 0u;
 368:.\utilities\src/segger_rtt_printf.c ****       } while (1);
 369:.\utilities\src/segger_rtt_printf.c **** 
 370:.\utilities\src/segger_rtt_printf.c ****       //
 371:.\utilities\src/segger_rtt_printf.c ****       // Filter out precision (number of digits to display)
 372:.\utilities\src/segger_rtt_printf.c ****       //
 373:.\utilities\src/segger_rtt_printf.c ****       NumDigits = 0u;
 585              		.loc 1 373 0
 586 0186 0021     		movs	r1, #0	@ NumDigits,
 587 0188 0391     		str	r1, [sp, #12]	@ NumDigits, %sfp
 588              	@ .\utilities\src\segger_rtt_printf.c:375:       if (c == '.') {
 374:.\utilities\src/segger_rtt_printf.c ****       c = *sFormat;
 375:.\utilities\src/segger_rtt_printf.c ****       if (c == '.') {
 589              		.loc 1 375 0
 590 018a 2E2B     		cmp	r3, #46	@ c,
 591 018c 0ED1     		bne	.L57	@,
 592              	.LVL61:
 593 018e 1600     		movs	r6, r2	@ sFormat, sFormat
 594              	@ .\utilities\src\segger_rtt_printf.c:383:           NumDigits = NumDigits * 10u + ((unsigned)c - '
 376:.\utilities\src/segger_rtt_printf.c ****         sFormat++;
 377:.\utilities\src/segger_rtt_printf.c ****         do {
 378:.\utilities\src/segger_rtt_printf.c ****           c = *sFormat;
 379:.\utilities\src/segger_rtt_printf.c ****           if ((c < '0') || (c > '9')) {
 380:.\utilities\src/segger_rtt_printf.c ****             break;
 381:.\utilities\src/segger_rtt_printf.c ****           }
 382:.\utilities\src/segger_rtt_printf.c ****           sFormat++;
 383:.\utilities\src/segger_rtt_printf.c ****           NumDigits = NumDigits * 10u + ((unsigned)c - '0');
 595              		.loc 1 383 0
 596 0190 0A20     		movs	r0, #10	@ tmp315,
 597              	.LVL62:
 598              	.L58:
 599              	@ .\utilities\src\segger_rtt_printf.c:378:           c = *sFormat;
ARM GAS  C:\Users\claym\AppData\Local\Temp\ccGxEn0u.s 			page 19


 378:.\utilities\src/segger_rtt_printf.c ****           if ((c < '0') || (c > '9')) {
 600              		.loc 1 378 0
 601 0192 3278     		ldrb	r2, [r6]	@ c, MEM[base: sFormat_25, offset: 0B]
 602              	.LVL63:
 603 0194 711C     		adds	r1, r6, #1	@ sFormat, sFormat,
 604              	@ .\utilities\src\segger_rtt_printf.c:379:           if ((c < '0') || (c > '9')) {
 379:.\utilities\src/segger_rtt_printf.c ****             break;
 605              		.loc 1 379 0
 606 0196 1300     		movs	r3, r2	@ tmp237, c
 607 0198 303B     		subs	r3, r3, #48	@ tmp237,
 608 019a 092B     		cmp	r3, #9	@ tmp237,
 609 019c 06D8     		bhi	.L57	@,
 610              	.LVL64:
 611              	@ .\utilities\src\segger_rtt_printf.c:383:           NumDigits = NumDigits * 10u + ((unsigned)c - '
 612              		.loc 1 383 0
 613 019e 039B     		ldr	r3, [sp, #12]	@ NumDigits, %sfp
 614              	@ .\utilities\src\segger_rtt_printf.c:382:           sFormat++;
 382:.\utilities\src/segger_rtt_printf.c ****           NumDigits = NumDigits * 10u + ((unsigned)c - '0');
 615              		.loc 1 382 0
 616 01a0 0E00     		movs	r6, r1	@ sFormat, sFormat
 617              	.LVL65:
 618              	@ .\utilities\src\segger_rtt_printf.c:383:           NumDigits = NumDigits * 10u + ((unsigned)c - '
 619              		.loc 1 383 0
 620 01a2 4343     		muls	r3, r0	@ NumDigits, tmp315
 621 01a4 303B     		subs	r3, r3, #48	@ _35,
 622 01a6 D318     		adds	r3, r2, r3	@ NumDigits, c, _35
 623 01a8 0393     		str	r3, [sp, #12]	@ NumDigits, %sfp
 624              	.LVL66:
 625              	@ .\utilities\src\segger_rtt_printf.c:378:           c = *sFormat;
 378:.\utilities\src/segger_rtt_printf.c ****           if ((c < '0') || (c > '9')) {
 626              		.loc 1 378 0
 627 01aa F2E7     		b	.L58	@
 628              	.LVL67:
 629              	.L57:
 630              	@ .\utilities\src\segger_rtt_printf.c:389:       c = *sFormat;
 384:.\utilities\src/segger_rtt_printf.c ****         } while (1);
 385:.\utilities\src/segger_rtt_printf.c ****       }
 386:.\utilities\src/segger_rtt_printf.c ****       //
 387:.\utilities\src/segger_rtt_printf.c ****       // Filter out length modifier
 388:.\utilities\src/segger_rtt_printf.c ****       //
 389:.\utilities\src/segger_rtt_printf.c ****       c = *sFormat;
 631              		.loc 1 389 0
 632 01ac 3178     		ldrb	r1, [r6]	@ c, *sFormat_26
 633              	.LVL68:
 634              	.L60:
 635 01ae 731C     		adds	r3, r6, #1	@ sFormat, sFormat,
 636 01b0 0693     		str	r3, [sp, #24]	@ sFormat, %sfp
 637              	@ .\utilities\src\segger_rtt_printf.c:391:         if ((c == 'l') || (c == 'h')) {
 390:.\utilities\src/segger_rtt_printf.c ****       do {
 391:.\utilities\src/segger_rtt_printf.c ****         if ((c == 'l') || (c == 'h')) {
 638              		.loc 1 391 0
 639 01b2 0422     		movs	r2, #4	@ tmp335,
 640 01b4 0B00     		movs	r3, r1	@ tmp242, c
 641 01b6 9343     		bics	r3, r2	@ tmp242, tmp335
 642 01b8 682B     		cmp	r3, #104	@ tmp242,
 643 01ba 02D1     		bne	.L59	@,
 644              	@ .\utilities\src\segger_rtt_printf.c:392:           c = *sFormat;
ARM GAS  C:\Users\claym\AppData\Local\Temp\ccGxEn0u.s 			page 20


 392:.\utilities\src/segger_rtt_printf.c ****           c = *sFormat;
 645              		.loc 1 392 0
 646 01bc 3178     		ldrb	r1, [r6]	@ c, MEM[base: _70, offset: 0B]
 647              	.LVL69:
 648              	@ .\utilities\src\segger_rtt_printf.c:391:         if ((c == 'l') || (c == 'h')) {
 391:.\utilities\src/segger_rtt_printf.c ****           c = *sFormat;
 649              		.loc 1 391 0
 650 01be 069E     		ldr	r6, [sp, #24]	@ sFormat, %sfp
 651 01c0 F5E7     		b	.L60	@
 652              	.LVL70:
 653              	.L59:
 654              	@ .\utilities\src\segger_rtt_printf.c:401:       switch (c) {
 393:.\utilities\src/segger_rtt_printf.c ****           sFormat++;
 394:.\utilities\src/segger_rtt_printf.c ****         } else {
 395:.\utilities\src/segger_rtt_printf.c ****           break;
 396:.\utilities\src/segger_rtt_printf.c ****         }
 397:.\utilities\src/segger_rtt_printf.c ****       } while (1);
 398:.\utilities\src/segger_rtt_printf.c ****       //
 399:.\utilities\src/segger_rtt_printf.c ****       // Handle specifiers
 400:.\utilities\src/segger_rtt_printf.c ****       //
 401:.\utilities\src/segger_rtt_printf.c ****       switch (c) {
 655              		.loc 1 401 0
 656 01c2 6429     		cmp	r1, #100	@ c,
 657 01c4 3ED0     		beq	.L62	@,
 658 01c6 09D8     		bhi	.L63	@,
 659 01c8 5829     		cmp	r1, #88	@ c,
 660 01ca 2DD0     		beq	.L64	@,
 661 01cc 6329     		cmp	r1, #99	@ c,
 662 01ce 33D0     		beq	.L65	@,
 663 01d0 2529     		cmp	r1, #37	@ c,
 664 01d2 0AD1     		bne	.L61	@,
 665              	.LVL71:
 666              	.L66:
 667              	@ .\utilities\src\segger_rtt_printf.c:440:         _StoreChar(&BufferDesc, '%');
 402:.\utilities\src/segger_rtt_printf.c ****       case 'c': {
 403:.\utilities\src/segger_rtt_printf.c ****         char c0;
 404:.\utilities\src/segger_rtt_printf.c ****         v = va_arg(*pParamList, int);
 405:.\utilities\src/segger_rtt_printf.c ****         c0 = (char)v;
 406:.\utilities\src/segger_rtt_printf.c ****         _StoreChar(&BufferDesc, c0);
 407:.\utilities\src/segger_rtt_printf.c ****         break;
 408:.\utilities\src/segger_rtt_printf.c ****       }
 409:.\utilities\src/segger_rtt_printf.c ****       case 'd':
 410:.\utilities\src/segger_rtt_printf.c ****         v = va_arg(*pParamList, int);
 411:.\utilities\src/segger_rtt_printf.c ****         _PrintInt(&BufferDesc, v, 10u, NumDigits, FieldWidth, FormatFlags);
 412:.\utilities\src/segger_rtt_printf.c ****         break;
 413:.\utilities\src/segger_rtt_printf.c ****       case 'u':
 414:.\utilities\src/segger_rtt_printf.c ****         v = va_arg(*pParamList, int);
 415:.\utilities\src/segger_rtt_printf.c ****         _PrintUnsigned(&BufferDesc, (unsigned)v, 10u, NumDigits, FieldWidth, FormatFlags);
 416:.\utilities\src/segger_rtt_printf.c ****         break;
 417:.\utilities\src/segger_rtt_printf.c ****       case 'x':
 418:.\utilities\src/segger_rtt_printf.c ****       case 'X':
 419:.\utilities\src/segger_rtt_printf.c ****         v = va_arg(*pParamList, int);
 420:.\utilities\src/segger_rtt_printf.c ****         _PrintUnsigned(&BufferDesc, (unsigned)v, 16u, NumDigits, FieldWidth, FormatFlags);
 421:.\utilities\src/segger_rtt_printf.c ****         break;
 422:.\utilities\src/segger_rtt_printf.c ****       case 's':
 423:.\utilities\src/segger_rtt_printf.c ****         {
 424:.\utilities\src/segger_rtt_printf.c ****           const char * s = va_arg(*pParamList, const char *);
ARM GAS  C:\Users\claym\AppData\Local\Temp\ccGxEn0u.s 			page 21


 425:.\utilities\src/segger_rtt_printf.c ****           do {
 426:.\utilities\src/segger_rtt_printf.c ****             c = *s;
 427:.\utilities\src/segger_rtt_printf.c ****             s++;
 428:.\utilities\src/segger_rtt_printf.c ****             if (c == '\0') {
 429:.\utilities\src/segger_rtt_printf.c ****               break;
 430:.\utilities\src/segger_rtt_printf.c ****             }
 431:.\utilities\src/segger_rtt_printf.c ****            _StoreChar(&BufferDesc, c);
 432:.\utilities\src/segger_rtt_printf.c ****           } while (BufferDesc.ReturnValue >= 0);
 433:.\utilities\src/segger_rtt_printf.c ****         }
 434:.\utilities\src/segger_rtt_printf.c ****         break;
 435:.\utilities\src/segger_rtt_printf.c ****       case 'p':
 436:.\utilities\src/segger_rtt_printf.c ****         v = va_arg(*pParamList, int);
 437:.\utilities\src/segger_rtt_printf.c ****         _PrintUnsigned(&BufferDesc, (unsigned)v, 16u, 8u, 8u, 0u);
 438:.\utilities\src/segger_rtt_printf.c ****         break;
 439:.\utilities\src/segger_rtt_printf.c ****       case '%':
 440:.\utilities\src/segger_rtt_printf.c ****         _StoreChar(&BufferDesc, '%');
 668              		.loc 1 440 0
 669 01d4 09A8     		add	r0, sp, #36	@ tmp368,,
 670 01d6 FFF713FF 		bl	_StoreChar	@
 671              	.LVL72:
 672              	@ .\utilities\src\segger_rtt_printf.c:441:         break;
 441:.\utilities\src/segger_rtt_printf.c ****         break;
 673              		.loc 1 441 0
 674 01da 06E0     		b	.L61	@
 675              	.LVL73:
 676              	.L63:
 677              	@ .\utilities\src\segger_rtt_printf.c:401:       switch (c) {
 401:.\utilities\src/segger_rtt_printf.c ****       case 'c': {
 678              		.loc 1 401 0
 679 01dc 7329     		cmp	r1, #115	@ c,
 680 01de 00D1     		bne	.LCB589	@
 681 01e0 A3E0     		b	.L67	@long jump	@
 682              	.LCB589:
 683 01e2 1DD8     		bhi	.L68	@,
 684 01e4 7029     		cmp	r1, #112	@ c,
 685 01e6 00D1     		bne	.LCB593	@
 686 01e8 B0E0     		b	.L69	@long jump	@
 687              	.LCB593:
 688              	.LVL74:
 689              	.L61:
 690 01ea 069E     		ldr	r6, [sp, #24]	@ sFormat, %sfp
 691              	.LVL75:
 692              	.L89:
 693              	@ .\utilities\src\segger_rtt_printf.c:449:   } while (BufferDesc.ReturnValue >= 0);
 442:.\utilities\src/segger_rtt_printf.c ****       default:
 443:.\utilities\src/segger_rtt_printf.c ****         break;
 444:.\utilities\src/segger_rtt_printf.c ****       }
 445:.\utilities\src/segger_rtt_printf.c ****       sFormat++;
 446:.\utilities\src/segger_rtt_printf.c ****     } else {
 447:.\utilities\src/segger_rtt_printf.c ****       _StoreChar(&BufferDesc, c);
 448:.\utilities\src/segger_rtt_printf.c ****     }
 449:.\utilities\src/segger_rtt_printf.c ****   } while (BufferDesc.ReturnValue >= 0);
 694              		.loc 1 449 0
 695 01ec 0C9B     		ldr	r3, [sp, #48]	@ tmp369, BufferDesc.ReturnValue
 696 01ee 002B     		cmp	r3, #0	@ tmp369,
 697 01f0 9DDA     		bge	.L90	@,
 698              	.L46:
ARM GAS  C:\Users\claym\AppData\Local\Temp\ccGxEn0u.s 			page 22


 699              	@ .\utilities\src\segger_rtt_printf.c:451:   if (BufferDesc.ReturnValue > 0) {
 450:.\utilities\src/segger_rtt_printf.c **** 
 451:.\utilities\src/segger_rtt_printf.c ****   if (BufferDesc.ReturnValue > 0) {
 700              		.loc 1 451 0
 701 01f2 0C9B     		ldr	r3, [sp, #48]	@ BufferDesc.ReturnValue, BufferDesc.ReturnValue
 702 01f4 0393     		str	r3, [sp, #12]	@ BufferDesc.ReturnValue, %sfp
 703 01f6 002B     		cmp	r3, #0	@ BufferDesc.ReturnValue,
 704 01f8 0FDD     		ble	.L91	@,
 705              	@ .\utilities\src\segger_rtt_printf.c:455:     if (BufferDesc.Cnt != 0u) {
 452:.\utilities\src/segger_rtt_printf.c ****     //
 453:.\utilities\src/segger_rtt_printf.c ****     // Write remaining data, if any
 454:.\utilities\src/segger_rtt_printf.c ****     //
 455:.\utilities\src/segger_rtt_printf.c ****     if (BufferDesc.Cnt != 0u) {
 706              		.loc 1 455 0
 707 01fa 0B9A     		ldr	r2, [sp, #44]	@ _15, BufferDesc.Cnt
 708 01fc 002A     		cmp	r2, #0	@ _15,
 709 01fe 03D0     		beq	.L92	@,
 710              	@ .\utilities\src\segger_rtt_printf.c:456:       SEGGER_RTT_Write(BufferIndex, acBuffer, BufferDesc
 456:.\utilities\src/segger_rtt_printf.c ****       SEGGER_RTT_Write(BufferIndex, acBuffer, BufferDesc.Cnt);
 711              		.loc 1 456 0
 712 0200 0EA9     		add	r1, sp, #56	@,,
 713 0202 0798     		ldr	r0, [sp, #28]	@, %sfp
 714 0204 FFF7FEFF 		bl	SEGGER_RTT_Write	@
 715              	.LVL76:
 716              	.L92:
 717              	@ .\utilities\src\segger_rtt_printf.c:458:     BufferDesc.ReturnValue += (int)BufferDesc.Cnt;
 457:.\utilities\src/segger_rtt_printf.c ****     }
 458:.\utilities\src/segger_rtt_printf.c ****     BufferDesc.ReturnValue += (int)BufferDesc.Cnt;
 718              		.loc 1 458 0
 719 0208 0C9B     		ldr	r3, [sp, #48]	@ BufferDesc.ReturnValue, BufferDesc.ReturnValue
 720 020a 0393     		str	r3, [sp, #12]	@ BufferDesc.ReturnValue, %sfp
 721 020c 0B9B     		ldr	r3, [sp, #44]	@ BufferDesc.Cnt, BufferDesc.Cnt
 722 020e 0493     		str	r3, [sp, #16]	@ BufferDesc.Cnt, %sfp
 723 0210 049A     		ldr	r2, [sp, #16]	@ BufferDesc.Cnt, %sfp
 724 0212 039B     		ldr	r3, [sp, #12]	@ BufferDesc.ReturnValue, %sfp
 725 0214 9446     		mov	ip, r2	@ BufferDesc.Cnt, BufferDesc.Cnt
 726 0216 6344     		add	r3, r3, ip	@ BufferDesc.ReturnValue, BufferDesc.Cnt
 727 0218 0C93     		str	r3, [sp, #48]	@ tmp305, BufferDesc.ReturnValue
 728              	.L91:
 729              	@ .\utilities\src\segger_rtt_printf.c:460:   return BufferDesc.ReturnValue;
 459:.\utilities\src/segger_rtt_printf.c ****   }
 460:.\utilities\src/segger_rtt_printf.c ****   return BufferDesc.ReturnValue;
 730              		.loc 1 460 0
 731 021a 0C98     		ldr	r0, [sp, #48]	@ <retval>, BufferDesc.ReturnValue
 732              	@ .\utilities\src\segger_rtt_printf.c:461: }
 461:.\utilities\src/segger_rtt_printf.c **** }
 733              		.loc 1 461 0
 734 021c 1FB0     		add	sp, sp, #124	@,,
 735              		@ sp needed	@
 736              	.LVL77:
 737              	.LVL78:
 738 021e F0BD     		pop	{r4, r5, r6, r7, pc}
 739              	.LVL79:
 740              	.L68:
 741              	@ .\utilities\src\segger_rtt_printf.c:401:       switch (c) {
 401:.\utilities\src/segger_rtt_printf.c ****       case 'c': {
 742              		.loc 1 401 0
ARM GAS  C:\Users\claym\AppData\Local\Temp\ccGxEn0u.s 			page 23


 743 0220 7529     		cmp	r1, #117	@ c,
 744 0222 79D0     		beq	.L70	@,
 745 0224 7829     		cmp	r1, #120	@ c,
 746 0226 E0D1     		bne	.L61	@,
 747              	.L64:
 748              	@ .\utilities\src\segger_rtt_printf.c:419:         v = va_arg(*pParamList, int);
 419:.\utilities\src/segger_rtt_printf.c ****         _PrintUnsigned(&BufferDesc, (unsigned)v, 16u, NumDigits, FieldWidth, FormatFlags);
 749              		.loc 1 419 0
 750 0228 2968     		ldr	r1, [r5]	@ D.5096, pParamList_79(D)->__ap
 751              	.LVL80:
 752              	@ .\utilities\src\segger_rtt_printf.c:420:         _PrintUnsigned(&BufferDesc, (unsigned)v, 16u, Nu
 420:.\utilities\src/segger_rtt_printf.c ****         break;
 753              		.loc 1 420 0
 754 022a 0197     		str	r7, [sp, #4]	@ FormatFlags,
 755              	@ .\utilities\src\segger_rtt_printf.c:419:         v = va_arg(*pParamList, int);
 419:.\utilities\src/segger_rtt_printf.c ****         _PrintUnsigned(&BufferDesc, (unsigned)v, 16u, NumDigits, FieldWidth, FormatFlags);
 756              		.loc 1 419 0
 757 022c 0B1D     		adds	r3, r1, #4	@ D.5097, D.5096,
 758 022e 2B60     		str	r3, [r5]	@ D.5097, pParamList_79(D)->__ap
 759              	.LVL81:
 760              	@ .\utilities\src\segger_rtt_printf.c:420:         _PrintUnsigned(&BufferDesc, (unsigned)v, 16u, Nu
 420:.\utilities\src/segger_rtt_printf.c ****         break;
 761              		.loc 1 420 0
 762 0230 039B     		ldr	r3, [sp, #12]	@, %sfp
 763 0232 0094     		str	r4, [sp]	@ FieldWidth,
 764              	.L145:
 765              	@ .\utilities\src\segger_rtt_printf.c:437:         _PrintUnsigned(&BufferDesc, (unsigned)v, 16u, 8u
 437:.\utilities\src/segger_rtt_printf.c ****         break;
 766              		.loc 1 437 0
 767 0234 1022     		movs	r2, #16	@,
 768 0236 76E0     		b	.L144	@
 769              	.LVL82:
 770              	.L65:
 771              	.LBB6:
 772              	@ .\utilities\src\segger_rtt_printf.c:404:         v = va_arg(*pParamList, int);
 404:.\utilities\src/segger_rtt_printf.c ****         c0 = (char)v;
 773              		.loc 1 404 0
 774 0238 2B68     		ldr	r3, [r5]	@ D.5090, pParamList_79(D)->__ap
 775              	@ .\utilities\src\segger_rtt_printf.c:405:         c0 = (char)v;
 405:.\utilities\src/segger_rtt_printf.c ****         _StoreChar(&BufferDesc, c0);
 776              		.loc 1 405 0
 777 023a 1968     		ldr	r1, [r3]	@ MEM[(int *)_202], MEM[(int *)_202]
 778              	.LVL83:
 779              	@ .\utilities\src\segger_rtt_printf.c:404:         v = va_arg(*pParamList, int);
 404:.\utilities\src/segger_rtt_printf.c ****         c0 = (char)v;
 780              		.loc 1 404 0
 781 023c 1A1D     		adds	r2, r3, #4	@ D.5091, D.5090,
 782 023e 2A60     		str	r2, [r5]	@ D.5091, pParamList_79(D)->__ap
 783              	.LVL84:
 784              	@ .\utilities\src\segger_rtt_printf.c:406:         _StoreChar(&BufferDesc, c0);
 406:.\utilities\src/segger_rtt_printf.c ****         break;
 785              		.loc 1 406 0
 786 0240 C9B2     		uxtb	r1, r1	@ c0, MEM[(int *)_202]
 787 0242 C7E7     		b	.L66	@
 788              	.LVL85:
 789              	.L62:
 790              	.LBE6:
ARM GAS  C:\Users\claym\AppData\Local\Temp\ccGxEn0u.s 			page 24


 791              	@ .\utilities\src\segger_rtt_printf.c:410:         v = va_arg(*pParamList, int);
 410:.\utilities\src/segger_rtt_printf.c ****         _PrintInt(&BufferDesc, v, 10u, NumDigits, FieldWidth, FormatFlags);
 792              		.loc 1 410 0
 793 0244 2B68     		ldr	r3, [r5]	@ D.5092, pParamList_79(D)->__ap
 794 0246 1E68     		ldr	r6, [r3]	@ v, MEM[(int *)_204]
 795              	.LVL86:
 796 0248 1A1D     		adds	r2, r3, #4	@ D.5093, D.5092,
 797              	.LBB7:
 798              	.LBB8:
 799              	@ .\utilities\src\segger_rtt_printf.c:229:   Number = (v < 0) ? -v : v;
 229:.\utilities\src/segger_rtt_printf.c **** 
 800              		.loc 1 229 0
 801 024a F317     		asrs	r3, r6, #31	@ tmp323, v,
 802 024c F018     		adds	r0, r6, r3	@ Number, v, tmp323
 803 024e 5840     		eors	r0, r3	@ Number, tmp323
 804              	.LVL87:
 805              	@ .\utilities\src\segger_rtt_printf.c:234:   Width = 1u;
 234:.\utilities\src/segger_rtt_printf.c ****   while (Number >= (int)Base) {
 806              		.loc 1 234 0
 807 0250 0123     		movs	r3, #1	@ Width,
 808              	.LBE8:
 809              	.LBE7:
 810              	@ .\utilities\src\segger_rtt_printf.c:410:         v = va_arg(*pParamList, int);
 410:.\utilities\src/segger_rtt_printf.c ****         _PrintInt(&BufferDesc, v, 10u, NumDigits, FieldWidth, FormatFlags);
 811              		.loc 1 410 0
 812 0252 2A60     		str	r2, [r5]	@ D.5093, pParamList_79(D)->__ap
 813              	.LVL88:
 814              	.L140:
 815              	.LBB12:
 816              	.LBB9:
 817              	@ .\utilities\src\segger_rtt_printf.c:237:     Width++;
 237:.\utilities\src/segger_rtt_printf.c ****   }
 818              		.loc 1 237 0
 819 0254 0493     		str	r3, [sp, #16]	@ Width, %sfp
 820              	.LVL89:
 821              	@ .\utilities\src\segger_rtt_printf.c:235:   while (Number >= (int)Base) {
 235:.\utilities\src/segger_rtt_printf.c ****     Number = (Number / (int)Base);
 822              		.loc 1 235 0
 823 0256 0928     		cmp	r0, #9	@ Number,
 824 0258 45DC     		bgt	.L72	@,
 825 025a 039B     		ldr	r3, [sp, #12]	@ NumDigits, %sfp
 826              	.LVL90:
 827 025c 049A     		ldr	r2, [sp, #16]	@ Width, %sfp
 828 025e 0593     		str	r3, [sp, #20]	@ NumDigits, %sfp
 829 0260 9342     		cmp	r3, r2	@ NumDigits, Width
 830 0262 00D2     		bcs	.L73	@,
 831 0264 0592     		str	r2, [sp, #20]	@ Width, %sfp
 832              	.LVL91:
 833              	.L73:
 834              	@ .\utilities\src\segger_rtt_printf.c:242:   if ((FieldWidth > 0u) && ((v < 0) || ((FormatFlags & F
 242:.\utilities\src/segger_rtt_printf.c ****     FieldWidth--;
 835              		.loc 1 242 0
 836 0266 002C     		cmp	r4, #0	@ FieldWidth,
 837 0268 05D0     		beq	.L74	@,
 838 026a 002E     		cmp	r6, #0	@ v,
 839 026c 02DB     		blt	.L75	@,
 840 026e 0423     		movs	r3, #4	@ tmp345,
ARM GAS  C:\Users\claym\AppData\Local\Temp\ccGxEn0u.s 			page 25


 841 0270 1F42     		tst	r7, r3	@ FormatFlags, tmp345
 842 0272 00D0     		beq	.L74	@,
 843              	.L75:
 844              	@ .\utilities\src\segger_rtt_printf.c:243:     FieldWidth--;
 243:.\utilities\src/segger_rtt_printf.c ****   }
 845              		.loc 1 243 0
 846 0274 013C     		subs	r4, r4, #1	@ FieldWidth,
 847              	.LVL92:
 848              	.L74:
 849              	@ .\utilities\src\segger_rtt_printf.c:249:   if ((((FormatFlags & FORMAT_FLAG_PAD_ZERO) == 0u) || (
 249:.\utilities\src/segger_rtt_printf.c ****     if (FieldWidth != 0u) {
 850              		.loc 1 249 0
 851 0276 BB07     		lsls	r3, r7, #30	@ tmp324, FormatFlags,
 852 0278 02D5     		bpl	.L76	@,
 853 027a 039B     		ldr	r3, [sp, #12]	@ NumDigits, %sfp
 854 027c 002B     		cmp	r3, #0	@ NumDigits,
 855 027e 04D0     		beq	.L77	@,
 856              	.L76:
 857 0280 0123     		movs	r3, #1	@ tmp347,
 858 0282 1F42     		tst	r7, r3	@ FormatFlags, tmp347
 859 0284 01D1     		bne	.L77	@,
 860              	@ .\utilities\src\segger_rtt_printf.c:250:     if (FieldWidth != 0u) {
 250:.\utilities\src/segger_rtt_printf.c ****       while ((FieldWidth != 0u) && (Width < FieldWidth)) {
 861              		.loc 1 250 0
 862 0286 002C     		cmp	r4, #0	@ FieldWidth,
 863 0288 3DD1     		bne	.L78	@,
 864              	.LVL93:
 865              	.L77:
 866              	@ .\utilities\src\segger_rtt_printf.c:263:   if (pBufferDesc->ReturnValue >= 0) {
 263:.\utilities\src/segger_rtt_printf.c ****     if (v < 0) {
 867              		.loc 1 263 0
 868 028a 0C9B     		ldr	r3, [sp, #48]	@ tmp351, BufferDesc.ReturnValue
 869 028c 002B     		cmp	r3, #0	@ tmp351,
 870 028e ACDB     		blt	.L61	@,
 871              	.L79:
 872              	@ .\utilities\src\segger_rtt_printf.c:264:     if (v < 0) {
 264:.\utilities\src/segger_rtt_printf.c ****       v = -v;
 873              		.loc 1 264 0
 874 0290 002E     		cmp	r6, #0	@ v,
 875 0292 3CDA     		bge	.L81	@,
 876              	@ .\utilities\src\segger_rtt_printf.c:266:       _StoreChar(pBufferDesc, '-');
 266:.\utilities\src/segger_rtt_printf.c ****     } else if ((FormatFlags & FORMAT_FLAG_PRINT_SIGN) == FORMAT_FLAG_PRINT_SIGN) {
 877              		.loc 1 266 0
 878 0294 2D21     		movs	r1, #45	@,
 879              	@ .\utilities\src\segger_rtt_printf.c:265:       v = -v;
 265:.\utilities\src/segger_rtt_printf.c ****       _StoreChar(pBufferDesc, '-');
 880              		.loc 1 265 0
 881 0296 7642     		rsbs	r6, r6, #0	@ v, v
 882              	.LVL94:
 883              	.L141:
 884              	@ .\utilities\src\segger_rtt_printf.c:268:       _StoreChar(pBufferDesc, '+');
 268:.\utilities\src/segger_rtt_printf.c ****     } else {
 885              		.loc 1 268 0
 886 0298 09A8     		add	r0, sp, #36	@ tmp354,,
 887              	.LVL95:
 888 029a FFF7B1FE 		bl	_StoreChar	@
 889              	.LVL96:
ARM GAS  C:\Users\claym\AppData\Local\Temp\ccGxEn0u.s 			page 26


 890              	.L82:
 891              	@ .\utilities\src\segger_rtt_printf.c:272:     if (pBufferDesc->ReturnValue >= 0) {
 272:.\utilities\src/segger_rtt_printf.c ****       //
 892              		.loc 1 272 0
 893 029e 0C9B     		ldr	r3, [sp, #48]	@ tmp355, BufferDesc.ReturnValue
 894 02a0 002B     		cmp	r3, #0	@ tmp355,
 895 02a2 A2DB     		blt	.L61	@,
 896              	@ .\utilities\src\segger_rtt_printf.c:276:       if (((FormatFlags & FORMAT_FLAG_PAD_ZERO) == FORMA
 276:.\utilities\src/segger_rtt_printf.c ****         if (FieldWidth != 0u) {
 897              		.loc 1 276 0
 898 02a4 0323     		movs	r3, #3	@ tmp275,
 899 02a6 3B40     		ands	r3, r7	@ tmp274, FormatFlags
 900 02a8 022B     		cmp	r3, #2	@ tmp274,
 901 02aa 0FD1     		bne	.L84	@,
 902 02ac 039B     		ldr	r3, [sp, #12]	@ NumDigits, %sfp
 903 02ae 002B     		cmp	r3, #0	@ NumDigits,
 904 02b0 0CD1     		bne	.L84	@,
 905              	.L142:
 906              	@ .\utilities\src\segger_rtt_printf.c:278:           while ((FieldWidth != 0u) && (Width < FieldWid
 278:.\utilities\src/segger_rtt_printf.c ****             FieldWidth--;
 907              		.loc 1 278 0
 908 02b2 002C     		cmp	r4, #0	@ FieldWidth,
 909 02b4 56D0     		beq	.L86	@,
 910 02b6 059B     		ldr	r3, [sp, #20]	@ Width, %sfp
 911 02b8 A342     		cmp	r3, r4	@ Width, FieldWidth
 912 02ba 07D2     		bcs	.L84	@,
 913              	@ .\utilities\src\segger_rtt_printf.c:280:             _StoreChar(pBufferDesc, '0');
 280:.\utilities\src/segger_rtt_printf.c ****             if (pBufferDesc->ReturnValue < 0) {
 914              		.loc 1 280 0
 915 02bc 3021     		movs	r1, #48	@,
 916 02be 09A8     		add	r0, sp, #36	@ tmp357,,
 917              	.LVL97:
 918 02c0 FFF79EFE 		bl	_StoreChar	@
 919              	.LVL98:
 920              	@ .\utilities\src\segger_rtt_printf.c:281:             if (pBufferDesc->ReturnValue < 0) {
 281:.\utilities\src/segger_rtt_printf.c ****               break;
 921              		.loc 1 281 0
 922 02c4 0C9B     		ldr	r3, [sp, #48]	@ BufferDesc.ReturnValue, BufferDesc.ReturnValue
 923              	@ .\utilities\src\segger_rtt_printf.c:279:             FieldWidth--;
 279:.\utilities\src/segger_rtt_printf.c ****             _StoreChar(pBufferDesc, '0');
 924              		.loc 1 279 0
 925 02c6 013C     		subs	r4, r4, #1	@ FieldWidth,
 926              	.LVL99:
 927              	@ .\utilities\src\segger_rtt_printf.c:281:             if (pBufferDesc->ReturnValue < 0) {
 281:.\utilities\src/segger_rtt_printf.c ****               break;
 928              		.loc 1 281 0
 929 02c8 002B     		cmp	r3, #0	@ BufferDesc.ReturnValue,
 930 02ca F2DA     		bge	.L142	@,
 931              	.L84:
 932              	@ .\utilities\src\segger_rtt_printf.c:287:       if (pBufferDesc->ReturnValue >= 0) {
 287:.\utilities\src/segger_rtt_printf.c ****         //
 933              		.loc 1 287 0
 934 02cc 0C9B     		ldr	r3, [sp, #48]	@ tmp360, BufferDesc.ReturnValue
 935 02ce 002B     		cmp	r3, #0	@ tmp360,
 936 02d0 00DA     		bge	.LCB865	@
 937 02d2 8AE7     		b	.L61	@long jump	@
 938              	.LCB865:
ARM GAS  C:\Users\claym\AppData\Local\Temp\ccGxEn0u.s 			page 27


 939              	.LVL100:
 940              	.L93:
 941              	@ .\utilities\src\segger_rtt_printf.c:291:         _PrintUnsigned(pBufferDesc, (unsigned)v, Base, N
 291:.\utilities\src/segger_rtt_printf.c ****       }
 942              		.loc 1 291 0
 943 02d4 0A22     		movs	r2, #10	@,
 944 02d6 3100     		movs	r1, r6	@, v
 945 02d8 039B     		ldr	r3, [sp, #12]	@, %sfp
 946 02da 0197     		str	r7, [sp, #4]	@ FormatFlags,
 947 02dc 0094     		str	r4, [sp]	@ FieldWidth,
 948              	.LVL101:
 949              	.L143:
 950              	.LBE9:
 951              	.LBE12:
 952              	@ .\utilities\src\segger_rtt_printf.c:437:         _PrintUnsigned(&BufferDesc, (unsigned)v, 16u, 8u
 437:.\utilities\src/segger_rtt_printf.c ****         break;
 953              		.loc 1 437 0
 954 02de 09A8     		add	r0, sp, #36	@ tmp367,,
 955 02e0 FFF7ADFE 		bl	_PrintUnsigned	@
 956              	.LVL102:
 957              	@ .\utilities\src\segger_rtt_printf.c:438:         break;
 438:.\utilities\src/segger_rtt_printf.c ****       case '%':
 958              		.loc 1 438 0
 959 02e4 81E7     		b	.L61	@
 960              	.LVL103:
 961              	.L72:
 962              	.LBB13:
 963              	.LBB10:
 964              	@ .\utilities\src\segger_rtt_printf.c:236:     Number = (Number / (int)Base);
 236:.\utilities\src/segger_rtt_printf.c ****     Width++;
 965              		.loc 1 236 0
 966 02e6 0A21     		movs	r1, #10	@,
 967 02e8 FFF7FEFF 		bl	__aeabi_idiv	@
 968              	.LVL104:
 969              	@ .\utilities\src\segger_rtt_printf.c:237:     Width++;
 237:.\utilities\src/segger_rtt_printf.c ****   }
 970              		.loc 1 237 0
 971 02ec 049B     		ldr	r3, [sp, #16]	@ Width, %sfp
 972 02ee 0133     		adds	r3, r3, #1	@ Width,
 973 02f0 B0E7     		b	.L140	@
 974              	.LVL105:
 975              	.L80:
 976              	@ .\utilities\src\segger_rtt_printf.c:253:         _StoreChar(pBufferDesc, ' ');
 253:.\utilities\src/segger_rtt_printf.c ****         if (pBufferDesc->ReturnValue < 0) {
 977              		.loc 1 253 0
 978 02f2 2021     		movs	r1, #32	@,
 979 02f4 09A8     		add	r0, sp, #36	@ tmp348,,
 980              	.LVL106:
 981 02f6 FFF783FE 		bl	_StoreChar	@
 982              	.LVL107:
 983              	@ .\utilities\src\segger_rtt_printf.c:254:         if (pBufferDesc->ReturnValue < 0) {
 254:.\utilities\src/segger_rtt_printf.c ****           break;
 984              		.loc 1 254 0
 985 02fa 0C9B     		ldr	r3, [sp, #48]	@ BufferDesc.ReturnValue, BufferDesc.ReturnValue
 986              	@ .\utilities\src\segger_rtt_printf.c:252:         FieldWidth--;
 252:.\utilities\src/segger_rtt_printf.c ****         _StoreChar(pBufferDesc, ' ');
 987              		.loc 1 252 0
ARM GAS  C:\Users\claym\AppData\Local\Temp\ccGxEn0u.s 			page 28


 988 02fc 013C     		subs	r4, r4, #1	@ FieldWidth,
 989              	.LVL108:
 990              	@ .\utilities\src\segger_rtt_printf.c:254:         if (pBufferDesc->ReturnValue < 0) {
 254:.\utilities\src/segger_rtt_printf.c ****           break;
 991              		.loc 1 254 0
 992 02fe 002B     		cmp	r3, #0	@ BufferDesc.ReturnValue,
 993 0300 C3DB     		blt	.L77	@,
 994              	@ .\utilities\src\segger_rtt_printf.c:251:       while ((FieldWidth != 0u) && (Width < FieldWidth))
 251:.\utilities\src/segger_rtt_printf.c ****         FieldWidth--;
 995              		.loc 1 251 0
 996 0302 002C     		cmp	r4, #0	@ FieldWidth,
 997 0304 C4D0     		beq	.L79	@,
 998              	.L78:
 999 0306 059B     		ldr	r3, [sp, #20]	@ Width, %sfp
 1000 0308 A342     		cmp	r3, r4	@ Width, FieldWidth
 1001 030a F2D3     		bcc	.L80	@,
 1002 030c BDE7     		b	.L77	@
 1003              	.L81:
 1004              	@ .\utilities\src\segger_rtt_printf.c:267:     } else if ((FormatFlags & FORMAT_FLAG_PRINT_SIGN) ==
 267:.\utilities\src/segger_rtt_printf.c ****       _StoreChar(pBufferDesc, '+');
 1005              		.loc 1 267 0
 1006 030e 0423     		movs	r3, #4	@ tmp353,
 1007 0310 1F42     		tst	r7, r3	@ FormatFlags, tmp353
 1008 0312 C4D0     		beq	.L82	@,
 1009              	@ .\utilities\src\segger_rtt_printf.c:268:       _StoreChar(pBufferDesc, '+');
 268:.\utilities\src/segger_rtt_printf.c ****     } else {
 1010              		.loc 1 268 0
 1011 0314 2B21     		movs	r1, #43	@,
 1012 0316 BFE7     		b	.L141	@
 1013              	.LVL109:
 1014              	.L70:
 1015              	.LBE10:
 1016              	.LBE13:
 1017              	@ .\utilities\src\segger_rtt_printf.c:415:         _PrintUnsigned(&BufferDesc, (unsigned)v, 10u, Nu
 415:.\utilities\src/segger_rtt_printf.c ****         break;
 1018              		.loc 1 415 0
 1019 0318 0A22     		movs	r2, #10	@,
 1020              	@ .\utilities\src\segger_rtt_printf.c:414:         v = va_arg(*pParamList, int);
 414:.\utilities\src/segger_rtt_printf.c ****         _PrintUnsigned(&BufferDesc, (unsigned)v, 10u, NumDigits, FieldWidth, FormatFlags);
 1021              		.loc 1 414 0
 1022 031a 2968     		ldr	r1, [r5]	@ D.5094, pParamList_79(D)->__ap
 1023              	.LVL110:
 1024              	@ .\utilities\src\segger_rtt_printf.c:415:         _PrintUnsigned(&BufferDesc, (unsigned)v, 10u, Nu
 415:.\utilities\src/segger_rtt_printf.c ****         break;
 1025              		.loc 1 415 0
 1026 031c 0197     		str	r7, [sp, #4]	@ FormatFlags,
 1027              	@ .\utilities\src\segger_rtt_printf.c:414:         v = va_arg(*pParamList, int);
 414:.\utilities\src/segger_rtt_printf.c ****         _PrintUnsigned(&BufferDesc, (unsigned)v, 10u, NumDigits, FieldWidth, FormatFlags);
 1028              		.loc 1 414 0
 1029 031e 0B1D     		adds	r3, r1, #4	@ D.5095, D.5094,
 1030 0320 2B60     		str	r3, [r5]	@ D.5095, pParamList_79(D)->__ap
 1031              	.LVL111:
 1032              	@ .\utilities\src\segger_rtt_printf.c:415:         _PrintUnsigned(&BufferDesc, (unsigned)v, 10u, Nu
 415:.\utilities\src/segger_rtt_printf.c ****         break;
 1033              		.loc 1 415 0
 1034 0322 039B     		ldr	r3, [sp, #12]	@, %sfp
 1035 0324 0094     		str	r4, [sp]	@ FieldWidth,
ARM GAS  C:\Users\claym\AppData\Local\Temp\ccGxEn0u.s 			page 29


 1036              	.L144:
 1037              	@ .\utilities\src\segger_rtt_printf.c:437:         _PrintUnsigned(&BufferDesc, (unsigned)v, 16u, 8u
 437:.\utilities\src/segger_rtt_printf.c ****         break;
 1038              		.loc 1 437 0
 1039 0326 0968     		ldr	r1, [r1]	@,* D.5100
 1040 0328 D9E7     		b	.L143	@
 1041              	.LVL112:
 1042              	.L67:
 1043              	.LBB14:
 1044              	@ .\utilities\src\segger_rtt_printf.c:424:           const char * s = va_arg(*pParamList, const cha
 424:.\utilities\src/segger_rtt_printf.c ****           do {
 1045              		.loc 1 424 0
 1046 032a 2B68     		ldr	r3, [r5]	@ D.5098, pParamList_79(D)->__ap
 1047 032c 1A1D     		adds	r2, r3, #4	@ D.5099, D.5098,
 1048 032e 2A60     		str	r2, [r5]	@ D.5099, pParamList_79(D)->__ap
 1049 0330 1C68     		ldr	r4, [r3]	@ s, MEM[(const char * *)_142]
 1050              	.LVL113:
 1051              	.L88:
 1052              	@ .\utilities\src\segger_rtt_printf.c:426:             c = *s;
 426:.\utilities\src/segger_rtt_printf.c ****             s++;
 1053              		.loc 1 426 0
 1054 0332 2178     		ldrb	r1, [r4]	@ c, MEM[base: s_37, offset: 0B]
 1055              	.LVL114:
 1056              	@ .\utilities\src\segger_rtt_printf.c:427:             s++;
 427:.\utilities\src/segger_rtt_printf.c ****             if (c == '\0') {
 1057              		.loc 1 427 0
 1058 0334 0134     		adds	r4, r4, #1	@ s,
 1059              	.LVL115:
 1060              	@ .\utilities\src\segger_rtt_printf.c:428:             if (c == '\0') {
 428:.\utilities\src/segger_rtt_printf.c ****               break;
 1061              		.loc 1 428 0
 1062 0336 0029     		cmp	r1, #0	@ c,
 1063 0338 00D1     		bne	.LCB1017	@
 1064 033a 56E7     		b	.L61	@long jump	@
 1065              	.LCB1017:
 1066              	@ .\utilities\src\segger_rtt_printf.c:431:            _StoreChar(&BufferDesc, c);
 431:.\utilities\src/segger_rtt_printf.c ****           } while (BufferDesc.ReturnValue >= 0);
 1067              		.loc 1 431 0
 1068 033c 09A8     		add	r0, sp, #36	@ tmp364,,
 1069 033e FFF75FFE 		bl	_StoreChar	@
 1070              	.LVL116:
 1071              	@ .\utilities\src\segger_rtt_printf.c:432:           } while (BufferDesc.ReturnValue >= 0);
 432:.\utilities\src/segger_rtt_printf.c ****         }
 1072              		.loc 1 432 0
 1073 0342 0C9B     		ldr	r3, [sp, #48]	@ BufferDesc.ReturnValue, BufferDesc.ReturnValue
 1074 0344 0393     		str	r3, [sp, #12]	@ BufferDesc.ReturnValue, %sfp
 1075 0346 002B     		cmp	r3, #0	@ BufferDesc.ReturnValue,
 1076 0348 F3DA     		bge	.L88	@,
 1077 034a 4EE7     		b	.L61	@
 1078              	.LVL117:
 1079              	.L69:
 1080              	.LBE14:
 1081              	@ .\utilities\src\segger_rtt_printf.c:436:         v = va_arg(*pParamList, int);
 436:.\utilities\src/segger_rtt_printf.c ****         _PrintUnsigned(&BufferDesc, (unsigned)v, 16u, 8u, 8u, 0u);
 1082              		.loc 1 436 0
 1083 034c 2968     		ldr	r1, [r5]	@ D.5100, pParamList_79(D)->__ap
 1084              	.LVL118:
ARM GAS  C:\Users\claym\AppData\Local\Temp\ccGxEn0u.s 			page 30


 1085 034e 0B1D     		adds	r3, r1, #4	@ D.5101, D.5100,
 1086 0350 2B60     		str	r3, [r5]	@ D.5101, pParamList_79(D)->__ap
 1087              	.LVL119:
 1088              	@ .\utilities\src\segger_rtt_printf.c:437:         _PrintUnsigned(&BufferDesc, (unsigned)v, 16u, 8u
 437:.\utilities\src/segger_rtt_printf.c ****         break;
 1089              		.loc 1 437 0
 1090 0352 0023     		movs	r3, #0	@ tmp292,
 1091 0354 0193     		str	r3, [sp, #4]	@ tmp292,
 1092 0356 0833     		adds	r3, r3, #8	@ tmp293,
 1093 0358 0093     		str	r3, [sp]	@ tmp293,
 1094 035a 6BE7     		b	.L145	@
 1095              	.LVL120:
 1096              	.L137:
 1097              	@ .\utilities\src\segger_rtt_printf.c:447:       _StoreChar(&BufferDesc, c);
 447:.\utilities\src/segger_rtt_printf.c ****     }
 1098              		.loc 1 447 0
 1099 035c 09A8     		add	r0, sp, #36	@,,
 1100 035e FFF74FFE 		bl	_StoreChar	@
 1101              	.LVL121:
 1102 0362 43E7     		b	.L89	@
 1103              	.LVL122:
 1104              	.L86:
 1105              	.LBB15:
 1106              	.LBB11:
 1107              	@ .\utilities\src\segger_rtt_printf.c:234:   Width = 1u;
 234:.\utilities\src/segger_rtt_printf.c ****   while (Number >= (int)Base) {
 1108              		.loc 1 234 0
 1109 0364 0024     		movs	r4, #0	@ FieldWidth,
 1110 0366 B5E7     		b	.L93	@
 1111              	.LBE11:
 1112              	.LBE15:
 1113              		.cfi_endproc
 1114              	.LFE3:
 1115              		.size	SEGGER_RTT_vprintf, .-SEGGER_RTT_vprintf
 1116              		.align	1
 1117              		.global	SEGGER_RTT_printf
 1118              		.syntax unified
 1119              		.code	16
 1120              		.thumb_func
 1121              		.fpu softvfp
 1122              		.type	SEGGER_RTT_printf, %function
 1123              	SEGGER_RTT_printf:
 1124              	.LFB4:
 462:.\utilities\src/segger_rtt_printf.c **** 
 463:.\utilities\src/segger_rtt_printf.c **** /*********************************************************************
 464:.\utilities\src/segger_rtt_printf.c **** *
 465:.\utilities\src/segger_rtt_printf.c **** *       SEGGER_RTT_printf
 466:.\utilities\src/segger_rtt_printf.c **** *
 467:.\utilities\src/segger_rtt_printf.c **** *  Function description
 468:.\utilities\src/segger_rtt_printf.c **** *    Stores a formatted string in SEGGER RTT control block.
 469:.\utilities\src/segger_rtt_printf.c **** *    This data is read by the host.
 470:.\utilities\src/segger_rtt_printf.c **** *
 471:.\utilities\src/segger_rtt_printf.c **** *  Parameters
 472:.\utilities\src/segger_rtt_printf.c **** *    BufferIndex  Index of "Up"-buffer to be used. (e.g. 0 for "Terminal")
 473:.\utilities\src/segger_rtt_printf.c **** *    sFormat      Pointer to format string, followed by the arguments for conversion
 474:.\utilities\src/segger_rtt_printf.c **** *
 475:.\utilities\src/segger_rtt_printf.c **** *  Return values
ARM GAS  C:\Users\claym\AppData\Local\Temp\ccGxEn0u.s 			page 31


 476:.\utilities\src/segger_rtt_printf.c **** *    >= 0:  Number of bytes which have been stored in the "Up"-buffer.
 477:.\utilities\src/segger_rtt_printf.c **** *     < 0:  Error
 478:.\utilities\src/segger_rtt_printf.c **** *
 479:.\utilities\src/segger_rtt_printf.c **** *  Notes
 480:.\utilities\src/segger_rtt_printf.c **** *    (1) Conversion specifications have following syntax:
 481:.\utilities\src/segger_rtt_printf.c **** *          %[flags][FieldWidth][.Precision]ConversionSpecifier
 482:.\utilities\src/segger_rtt_printf.c **** *    (2) Supported flags:
 483:.\utilities\src/segger_rtt_printf.c **** *          -: Left justify within the field width
 484:.\utilities\src/segger_rtt_printf.c **** *          +: Always print sign extension for signed conversions
 485:.\utilities\src/segger_rtt_printf.c **** *          0: Pad with 0 instead of spaces. Ignored when using '-'-flag or precision
 486:.\utilities\src/segger_rtt_printf.c **** *        Supported conversion specifiers:
 487:.\utilities\src/segger_rtt_printf.c **** *          c: Print the argument as one char
 488:.\utilities\src/segger_rtt_printf.c **** *          d: Print the argument as a signed integer
 489:.\utilities\src/segger_rtt_printf.c **** *          u: Print the argument as an unsigned integer
 490:.\utilities\src/segger_rtt_printf.c **** *          x: Print the argument as an hexadecimal integer
 491:.\utilities\src/segger_rtt_printf.c **** *          s: Print the string pointed to by the argument
 492:.\utilities\src/segger_rtt_printf.c **** *          p: Print the argument as an 8-digit hexadecimal integer. (Argument shall be a pointer to
 493:.\utilities\src/segger_rtt_printf.c **** */
 494:.\utilities\src/segger_rtt_printf.c **** int SEGGER_RTT_printf(unsigned BufferIndex, const char * sFormat, ...) {
 1125              		.loc 1 494 0
 1126              		.cfi_startproc
 1127              		@ args = 4, pretend = 12, frame = 8
 1128              		@ frame_needed = 0, uses_anonymous_args = 1
 1129              	.LVL123:
 1130 0368 0EB4     		push	{r1, r2, r3}	@
 1131              	.LCFI5:
 1132              		.cfi_def_cfa_offset 12
 1133 036a 03B5     		push	{r0, r1, lr}	@
 1134              	.LCFI6:
 1135              		.cfi_def_cfa_offset 24
 1136              		.cfi_offset 0, -24
 1137              		.cfi_offset 1, -20
 1138              		.cfi_offset 14, -16
 1139              	@ .\utilities\src\segger_rtt_printf.c:494: int SEGGER_RTT_printf(unsigned BufferIndex, const char *
 1140              		.loc 1 494 0
 1141 036c 03AB     		add	r3, sp, #12	@ tmp113,,
 1142 036e 02CB     		ldmia	r3!, {r1}	@ sFormat, sFormat
 1143              	@ .\utilities\src\segger_rtt_printf.c:498:   return SEGGER_RTT_vprintf(BufferIndex, sFormat, &Param
 495:.\utilities\src/segger_rtt_printf.c ****   va_list ParamList;
 496:.\utilities\src/segger_rtt_printf.c **** 
 497:.\utilities\src/segger_rtt_printf.c ****   va_start(ParamList, sFormat);
 498:.\utilities\src/segger_rtt_printf.c ****   return SEGGER_RTT_vprintf(BufferIndex, sFormat, &ParamList);
 1144              		.loc 1 498 0
 1145 0370 01AA     		add	r2, sp, #4	@,,
 1146              	@ .\utilities\src\segger_rtt_printf.c:497:   va_start(ParamList, sFormat);
 497:.\utilities\src/segger_rtt_printf.c ****   return SEGGER_RTT_vprintf(BufferIndex, sFormat, &ParamList);
 1147              		.loc 1 497 0
 1148 0372 0193     		str	r3, [sp, #4]	@ tmp113, MEM[(struct  *)&ParamList].__ap
 1149              	@ .\utilities\src\segger_rtt_printf.c:498:   return SEGGER_RTT_vprintf(BufferIndex, sFormat, &Param
 1150              		.loc 1 498 0
 1151 0374 FFF7FEFF 		bl	SEGGER_RTT_vprintf	@
 1152              	.LVL124:
 1153              	@ .\utilities\src\segger_rtt_printf.c:499: }
 499:.\utilities\src/segger_rtt_printf.c **** }
 1154              		.loc 1 499 0
 1155 0378 02B0     		add	sp, sp, #8	@,,
 1156              		@ sp needed	@
ARM GAS  C:\Users\claym\AppData\Local\Temp\ccGxEn0u.s 			page 32


 1157 037a 08BC     		pop	{r3}
 1158 037c 03B0     		add	sp, sp, #12
 1159 037e 1847     		bx	r3
 1160              		.cfi_endproc
 1161              	.LFE4:
 1162              		.size	SEGGER_RTT_printf, .-SEGGER_RTT_printf
 1163              		.section	.rodata
 1164              		.set	.LANCHOR0,. + 0
 1165              		.type	_aV2C.4856, %object
 1166              		.size	_aV2C.4856, 16
 1167              	_aV2C.4856:
 1168 0000 30       		.byte	48
 1169 0001 31       		.byte	49
 1170 0002 32       		.byte	50
 1171 0003 33       		.byte	51
 1172 0004 34       		.byte	52
 1173 0005 35       		.byte	53
 1174 0006 36       		.byte	54
 1175 0007 37       		.byte	55
 1176 0008 38       		.byte	56
 1177 0009 39       		.byte	57
 1178 000a 41       		.byte	65
 1179 000b 42       		.byte	66
 1180 000c 43       		.byte	67
 1181 000d 44       		.byte	68
 1182 000e 45       		.byte	69
 1183 000f 46       		.byte	70
 1184              		.text
 1185              	.Letext0:
 1186              		.file 2 ".\\utilities\\hdr/SEGGER_RTT.h"
 1187              		.file 3 "c:\\program files (x86)\\gnu tools arm embedded\\7 2017-q4-major\\arm-none-eabi\\include\
 1188              		.file 4 "c:\\program files (x86)\\gnu tools arm embedded\\7 2017-q4-major\\arm-none-eabi\\include\
 1189              		.file 5 "c:\\program files (x86)\\gnu tools arm embedded\\7 2017-q4-major\\lib\\gcc\\arm-none-eabi
 1190              		.file 6 "c:\\program files (x86)\\gnu tools arm embedded\\7 2017-q4-major\\arm-none-eabi\\include\
 1191              		.file 7 "c:\\program files (x86)\\gnu tools arm embedded\\7 2017-q4-major\\arm-none-eabi\\include\
 1192              		.file 8 "c:\\program files (x86)\\gnu tools arm embedded\\7 2017-q4-major\\lib\\gcc\\arm-none-eabi
 1193              		.file 9 "<built-in>"