ARM GAS  C:\Users\claym\AppData\Local\Temp\ccxpUFUu.s 			page 1


   1              		.cpu cortex-m0
   2              		.eabi_attribute 20, 1	@ Tag_ABI_FP_denormal
   3              		.eabi_attribute 21, 1	@ Tag_ABI_FP_exceptions
   4              		.eabi_attribute 23, 3	@ Tag_ABI_FP_number_model
   5              		.eabi_attribute 24, 1	@ Tag_ABI_align8_needed
   6              		.eabi_attribute 25, 1	@ Tag_ABI_align8_preserved
   7              		.eabi_attribute 26, 1	@ Tag_ABI_enum_size
   8              		.eabi_attribute 30, 4	@ Tag_ABI_optimization_goals
   9              		.eabi_attribute 34, 0	@ Tag_CPU_unaligned_access
  10              		.eabi_attribute 18, 4	@ Tag_ABI_PCS_wchar_t
  11              		.file	"i2c_va108xx.c"
  12              	@ GNU C11 (GNU Tools for Arm Embedded Processors 7-2017-q4-major) version 7.2.1 20170904 (release) 
  13              	@	compiled by GNU C version 5.3.1 20160211, GMP version 6.1.0, MPFR version 3.1.4, MPC version 1.0.
  14              	
  15              	@ GGC heuristics: --param ggc-min-expand=100 --param ggc-min-heapsize=131072
  16              	@ options passed:  -I . -I .\common\hdr -I .\driver\hdr -I .\utilities\hdr
  17              	@ -I .\inc -I .\driver\hdr -I .\hdr -imultilib thumb/v6-m
  18              	@ -iprefix c:\program files (x86)\gnu tools arm embedded\7 2017-q4-major\bin\../lib/gcc/arm-none-ea
  19              	@ -isysroot c:\program files (x86)\gnu tools arm embedded\7 2017-q4-major\bin\../arm-none-eabi
  20              	@ -D__USES_INITFINI__ -D RUN_FROM_FLASH=1 .\driver\src\i2c_va108xx.c
  21              	@ -mcpu=cortex-m0 -mthumb -auxbase-strip .\driver\src\i2c_va108xx.o
  22              	@ -gdwarf-2 -Os -Wall -Wstrict-prototypes -fomit-frame-pointer
  23              	@ -fverbose-asm
  24              	@ options enabled:  -faggressive-loop-optimizations -falign-jumps
  25              	@ -falign-labels -falign-loops -fauto-inc-dec -fbranch-count-reg
  26              	@ -fcaller-saves -fchkp-check-incomplete-type -fchkp-check-read
  27              	@ -fchkp-check-write -fchkp-instrument-calls -fchkp-narrow-bounds
  28              	@ -fchkp-optimize -fchkp-store-bounds -fchkp-use-static-bounds
  29              	@ -fchkp-use-static-const-bounds -fchkp-use-wrappers -fcode-hoisting
  30              	@ -fcombine-stack-adjustments -fcommon -fcompare-elim -fcprop-registers
  31              	@ -fcrossjumping -fcse-follow-jumps -fdefer-pop
  32              	@ -fdelete-null-pointer-checks -fdevirtualize -fdevirtualize-speculatively
  33              	@ -fdwarf2-cfi-asm -fearly-inlining -feliminate-unused-debug-types
  34              	@ -fexpensive-optimizations -fforward-propagate -ffp-int-builtin-inexact
  35              	@ -ffunction-cse -fgcse -fgcse-lm -fgnu-runtime -fgnu-unique
  36              	@ -fguess-branch-probability -fhoist-adjacent-loads -fident -fif-conversion
  37              	@ -fif-conversion2 -findirect-inlining -finline -finline-atomics
  38              	@ -finline-functions -finline-functions-called-once
  39              	@ -finline-small-functions -fipa-bit-cp -fipa-cp -fipa-icf
  40              	@ -fipa-icf-functions -fipa-icf-variables -fipa-profile -fipa-pure-const
  41              	@ -fipa-reference -fipa-sra -fipa-vrp -fira-hoist-pressure
  42              	@ -fira-share-save-slots -fira-share-spill-slots
  43              	@ -fisolate-erroneous-paths-dereference -fivopts -fkeep-static-consts
  44              	@ -fleading-underscore -flifetime-dse -flra-remat -flto-odr-type-merging
  45              	@ -fmath-errno -fmerge-constants -fmerge-debug-strings
  46              	@ -fmove-loop-invariants -fomit-frame-pointer -foptimize-sibling-calls
  47              	@ -fpartial-inlining -fpeephole -fpeephole2 -fplt -fprefetch-loop-arrays
  48              	@ -freg-struct-return -freorder-blocks -freorder-functions
  49              	@ -frerun-cse-after-loop -fsched-critical-path-heuristic
  50              	@ -fsched-dep-count-heuristic -fsched-group-heuristic -fsched-interblock
  51              	@ -fsched-last-insn-heuristic -fsched-pressure -fsched-rank-heuristic
  52              	@ -fsched-spec -fsched-spec-insn-heuristic -fsched-stalled-insns-dep
  53              	@ -fschedule-insns2 -fsection-anchors -fsemantic-interposition
  54              	@ -fshow-column -fshrink-wrap -fshrink-wrap-separate -fsigned-zeros
  55              	@ -fsplit-ivs-in-unroller -fsplit-wide-types -fssa-backprop -fssa-phiopt
  56              	@ -fstdarg-opt -fstore-merging -fstrict-aliasing -fstrict-overflow
  57              	@ -fstrict-volatile-bitfields -fsync-libcalls -fthread-jumps
ARM GAS  C:\Users\claym\AppData\Local\Temp\ccxpUFUu.s 			page 2


  58              	@ -ftoplevel-reorder -ftrapping-math -ftree-bit-ccp -ftree-builtin-call-dce
  59              	@ -ftree-ccp -ftree-ch -ftree-coalesce-vars -ftree-copy-prop -ftree-cselim
  60              	@ -ftree-dce -ftree-dominator-opts -ftree-dse -ftree-forwprop -ftree-fre
  61              	@ -ftree-loop-if-convert -ftree-loop-im -ftree-loop-ivcanon
  62              	@ -ftree-loop-optimize -ftree-parallelize-loops= -ftree-phiprop -ftree-pre
  63              	@ -ftree-pta -ftree-reassoc -ftree-scev-cprop -ftree-sink -ftree-slsr
  64              	@ -ftree-sra -ftree-switch-conversion -ftree-tail-merge -ftree-ter
  65              	@ -ftree-vrp -funit-at-a-time -fvar-tracking -fvar-tracking-assignments
  66              	@ -fverbose-asm -fzero-initialized-in-bss -mlittle-endian
  67              	@ -mpic-data-is-text-relative -msched-prolog -mthumb
  68              	@ -mvectorize-with-neon-quad
  69              	
  70              		.text
  71              	.Ltext0:
  72              		.cfi_sections	.debug_frame
  73              		.align	1
  74              		.syntax unified
  75              		.code	16
  76              		.thumb_func
  77              		.fpu softvfp
  78              		.type	VOR_I2C_Setup, %function
  79              	VOR_I2C_Setup:
  80              	.LFB58:
  81              		.file 1 ".\\driver\\src\\i2c_va108xx.c"
   1:.\driver\src/i2c_va108xx.c **** /***************************************************************************************
   2:.\driver\src/i2c_va108xx.c ****  * @file     i2c_va108xx.c
   3:.\driver\src/i2c_va108xx.c ****  * @version  V1.0
   4:.\driver\src/i2c_va108xx.c ****  * @date     31. March 2016
   5:.\driver\src/i2c_va108xx.c ****  *
   6:.\driver\src/i2c_va108xx.c ****  * @note
   7:.\driver\src/i2c_va108xx.c ****  * VORAGO Technologies 
   8:.\driver\src/i2c_va108xx.c ****  *
   9:.\driver\src/i2c_va108xx.c ****  * @note
  10:.\driver\src/i2c_va108xx.c ****  * Copyright (c) 2013-2016 VORAGO Technologies. 
  11:.\driver\src/i2c_va108xx.c ****  *
  12:.\driver\src/i2c_va108xx.c ****  * @par
  13:.\driver\src/i2c_va108xx.c ****  * BY DOWNLOADING, INSTALLING OR USING THIS SOFTWARE, YOU AGREE TO BE BOUND BY 
  14:.\driver\src/i2c_va108xx.c ****  * ALL THE TERMS AND CONDITIONS OF THE VORAGO TECHNOLOGIES END USER LICENSE AGREEMENT. 
  15:.\driver\src/i2c_va108xx.c ****  * THIS SOFTWARE IS PROVIDED "AS IS". NO WARRANTIES, WHETHER EXPRESS, IMPLIED
  16:.\driver\src/i2c_va108xx.c ****  * OR STATUTORY, INCLUDING, BUT NOT LIMITED TO, IMPLIED WARRANTIES OF MERCHANTABILITY 
  17:.\driver\src/i2c_va108xx.c ****  * AND FITNESS FOR A PARTICULAR PURPOSE APPLY TO THIS SOFTWARE. VORAGO TECHNOLOGIES 
  18:.\driver\src/i2c_va108xx.c ****  * SHALL NOT, IN ANY CIRCUMSTANCES, BE LIABLE FOR SPECIAL, INCIDENTAL, OR CONSEQUENTIAL 
  19:.\driver\src/i2c_va108xx.c ****  * DAMAGES, FOR ANY REASON WHATSOEVER.
  20:.\driver\src/i2c_va108xx.c ****  *
  21:.\driver\src/i2c_va108xx.c ****  ****************************************************************************************/
  22:.\driver\src/i2c_va108xx.c **** #include <stdlib.h>
  23:.\driver\src/i2c_va108xx.c **** #include <stdio.h>
  24:.\driver\src/i2c_va108xx.c **** #include <string.h>
  25:.\driver\src/i2c_va108xx.c **** 
  26:.\driver\src/i2c_va108xx.c **** #include "i2c_va108xx.h"
  27:.\driver\src/i2c_va108xx.c **** #include "irq_va108xx.h"
  28:.\driver\src/i2c_va108xx.c **** 
  29:.\driver\src/i2c_va108xx.c **** /* I2C core clock (system_PA03CSA.c) */
  30:.\driver\src/i2c_va108xx.c **** extern uint32_t VOR_Get_ClockFreq (void);
  31:.\driver\src/i2c_va108xx.c **** extern uint32_t VOR_Get_SysTime(void);
  32:.\driver\src/i2c_va108xx.c **** 
  33:.\driver\src/i2c_va108xx.c ****  /* I2C0 Resources */
ARM GAS  C:\Users\claym\AppData\Local\Temp\ccxpUFUu.s 			page 3


  34:.\driver\src/i2c_va108xx.c **** I2C_RESOURCES I2C0_Resources = {
  35:.\driver\src/i2c_va108xx.c ****   0,&VOR_I2C->BANK[0], &Driver_I2C0, {0},I2C0_CLK_EN_MASK
  36:.\driver\src/i2c_va108xx.c **** };
  37:.\driver\src/i2c_va108xx.c **** 
  38:.\driver\src/i2c_va108xx.c ****  /* I2C0 Resources */
  39:.\driver\src/i2c_va108xx.c **** I2C_RESOURCES I2C1_Resources = {
  40:.\driver\src/i2c_va108xx.c ****   1,&VOR_I2C->BANK[1], &Driver_I2C1, {0},I2C1_CLK_EN_MASK
  41:.\driver\src/i2c_va108xx.c **** };
  42:.\driver\src/i2c_va108xx.c **** 
  43:.\driver\src/i2c_va108xx.c **** /**
  44:.\driver\src/i2c_va108xx.c ****   function:    VOR_DRIVER_VERSION I2Cx_GetVersion (void)
  45:.\driver\src/i2c_va108xx.c ****   brief:       Get driver version.
  46:.\driver\src/i2c_va108xx.c ****   return:      VOR_DRIVER_VERSION
  47:.\driver\src/i2c_va108xx.c **** */
  48:.\driver\src/i2c_va108xx.c **** VOR_DRIVER_VERSION VOR_I2Cx_GetVersion (void) {
  49:.\driver\src/i2c_va108xx.c ****   return i2c_driver_version;
  50:.\driver\src/i2c_va108xx.c **** }
  51:.\driver\src/i2c_va108xx.c **** 
  52:.\driver\src/i2c_va108xx.c **** 
  53:.\driver\src/i2c_va108xx.c **** /**
  54:.\driver\src/i2c_va108xx.c ****   function:    int32_t VOR_I2C_Initialize (VOR_I2C_SignalEvent_t cb_event,
  55:.\driver\src/i2c_va108xx.c ****                                         I2C_RESOURCES         *i2c)
  56:.\driver\src/i2c_va108xx.c ****   brief:       Initialize I2C Interface.
  57:.\driver\src/i2c_va108xx.c ****   Input:       cb_event  Pointer to VOR_I2C_SignalEvent
  58:.\driver\src/i2c_va108xx.c ****   Input:       i2c   Pointer to I2C resources
  59:.\driver\src/i2c_va108xx.c ****   return:      execution_status
  60:.\driver\src/i2c_va108xx.c **** */
  61:.\driver\src/i2c_va108xx.c **** int32_t VOR_I2C_Initialize (VOR_I2C_SignalEvent_t cb_event, I2C_RESOURCES *i2c) {
  62:.\driver\src/i2c_va108xx.c **** 
  63:.\driver\src/i2c_va108xx.c ****   if((i2c == NULL) || (i2c->reg ==NULL))
  64:.\driver\src/i2c_va108xx.c **** 	return VOR_DRIVER_ERROR_PARAMETER;
  65:.\driver\src/i2c_va108xx.c **** 
  66:.\driver\src/i2c_va108xx.c ****   if (i2c->info.flags & I2C_FLAG_INIT) {
  67:.\driver\src/i2c_va108xx.c ****     /* Driver already initialized */
  68:.\driver\src/i2c_va108xx.c ****     return VOR_I2C_ERROR_MULTIPLEINIT;
  69:.\driver\src/i2c_va108xx.c ****   }
  70:.\driver\src/i2c_va108xx.c ****   i2c->info.flags = I2C_FLAG_INIT;
  71:.\driver\src/i2c_va108xx.c **** 
  72:.\driver\src/i2c_va108xx.c ****   /* Register driver callback function */
  73:.\driver\src/i2c_va108xx.c ****   i2c->info.cb_event = cb_event;
  74:.\driver\src/i2c_va108xx.c **** 
  75:.\driver\src/i2c_va108xx.c ****   /* Clear driver status */
  76:.\driver\src/i2c_va108xx.c ****   memset(&i2c->info.status, 0, sizeof(VOR_I2C_STATUS));
  77:.\driver\src/i2c_va108xx.c **** 
  78:.\driver\src/i2c_va108xx.c **** 	// Switch-on clocks to I2C module 
  79:.\driver\src/i2c_va108xx.c **** 	VOR_SYSCONFIG->PERIPHERAL_CLK_ENABLE |=  i2c->i2cClkEn; 
  80:.\driver\src/i2c_va108xx.c **** 	
  81:.\driver\src/i2c_va108xx.c ****   return VOR_DRIVER_OK;
  82:.\driver\src/i2c_va108xx.c **** }
  83:.\driver\src/i2c_va108xx.c **** 
  84:.\driver\src/i2c_va108xx.c **** /**
  85:.\driver\src/i2c_va108xx.c ****   function:    int32_t VOR_I2C_Uninitialize (I2C_RESOURCES *i2c)
  86:.\driver\src/i2c_va108xx.c ****   brief:       De-initialize I2C Interface.
  87:.\driver\src/i2c_va108xx.c ****   Input:       i2c   Pointer to I2C resources
  88:.\driver\src/i2c_va108xx.c ****   return:      execution_status
  89:.\driver\src/i2c_va108xx.c **** */
  90:.\driver\src/i2c_va108xx.c **** int32_t VOR_I2C_Uninitialize (I2C_RESOURCES *i2c) {
ARM GAS  C:\Users\claym\AppData\Local\Temp\ccxpUFUu.s 			page 4


  91:.\driver\src/i2c_va108xx.c **** 
  92:.\driver\src/i2c_va108xx.c ****   if (!(i2c->info.flags & I2C_FLAG_INIT)) {
  93:.\driver\src/i2c_va108xx.c ****     /* Driver not initialized */
  94:.\driver\src/i2c_va108xx.c ****     return VOR_DRIVER_OK;
  95:.\driver\src/i2c_va108xx.c ****   }
  96:.\driver\src/i2c_va108xx.c ****   i2c->info.flags = 0;
  97:.\driver\src/i2c_va108xx.c ****   i2c->info.cb_event = NULL;
  98:.\driver\src/i2c_va108xx.c **** 
  99:.\driver\src/i2c_va108xx.c ****   VOR_SYSCONFIG->PERIPHERAL_CLK_ENABLE &=  ~i2c->i2cClkEn; 
 100:.\driver\src/i2c_va108xx.c ****   return VOR_DRIVER_OK;
 101:.\driver\src/i2c_va108xx.c **** }
 102:.\driver\src/i2c_va108xx.c **** 
 103:.\driver\src/i2c_va108xx.c **** /**
 104:.\driver\src/i2c_va108xx.c ****   function:    int32_t VOR_I2C_Drv_Mode (uint32_t       arg,
 105:.\driver\src/i2c_va108xx.c ****                                      I2C_RESOURCES *i2c)
 106:.\driver\src/i2c_va108xx.c ****   brief:       Set I2C driver mode.
 107:.\driver\src/i2c_va108xx.c ****   Input:       arg      argument of operation 
 108:.\driver\src/i2c_va108xx.c ****   Input:       i2c      pointer to I2C resources
 109:.\driver\src/i2c_va108xx.c ****   return:      execution_status
 110:.\driver\src/i2c_va108xx.c **** */
 111:.\driver\src/i2c_va108xx.c **** static int32_t VOR_I2C_Drv_Mode (uint32_t       arg, I2C_RESOURCES *i2c) {
 112:.\driver\src/i2c_va108xx.c ****   i2c->info.poll_mode = arg;
 113:.\driver\src/i2c_va108xx.c ****   return VOR_DRIVER_OK;
 114:.\driver\src/i2c_va108xx.c **** }
 115:.\driver\src/i2c_va108xx.c **** 
 116:.\driver\src/i2c_va108xx.c **** /**
 117:.\driver\src/i2c_va108xx.c ****   function:    int32_t VOR_I2C_Poll_Tout (uint32_t       arg,
 118:.\driver\src/i2c_va108xx.c ****                                      I2C_RESOURCES *i2c)
 119:.\driver\src/i2c_va108xx.c ****   brief:       Set I2C Polling Mode Time out.
 120:.\driver\src/i2c_va108xx.c ****   Input:       arg      argument of operation 
 121:.\driver\src/i2c_va108xx.c ****   Input:       i2c      pointer to I2C resources
 122:.\driver\src/i2c_va108xx.c ****   return:      execution_status
 123:.\driver\src/i2c_va108xx.c **** */
 124:.\driver\src/i2c_va108xx.c **** static int32_t VOR_I2C_Poll_Tout (uint32_t       arg, I2C_RESOURCES *i2c) {
 125:.\driver\src/i2c_va108xx.c ****   i2c->info.poll_tout = arg;
 126:.\driver\src/i2c_va108xx.c ****   return VOR_DRIVER_OK;
 127:.\driver\src/i2c_va108xx.c **** }
 128:.\driver\src/i2c_va108xx.c **** 
 129:.\driver\src/i2c_va108xx.c **** /**
 130:.\driver\src/i2c_va108xx.c ****   function:    int32_t VOR_I2C_busSpeed (uint32_t       arg,
 131:.\driver\src/i2c_va108xx.c ****                                      I2C_RESOURCES *i2c)
 132:.\driver\src/i2c_va108xx.c ****   brief:       Set I2C driver mode.
 133:.\driver\src/i2c_va108xx.c ****   Input:       arg      argument of operation 
 134:.\driver\src/i2c_va108xx.c ****   Input:       i2c      pointer to I2C resources
 135:.\driver\src/i2c_va108xx.c ****   return:      execution_status
 136:.\driver\src/i2c_va108xx.c **** */
 137:.\driver\src/i2c_va108xx.c **** 
 138:.\driver\src/i2c_va108xx.c **** static int32_t VOR_I2C_busSpeed (uint32_t       arg, I2C_RESOURCES *i2c) {
 139:.\driver\src/i2c_va108xx.c ****   uint32_t clkscale= 0;
 140:.\driver\src/i2c_va108xx.c ****   switch (arg) {
 141:.\driver\src/i2c_va108xx.c **** 	case VOR_I2C_BUS_SPEED_STANDARD :
 142:.\driver\src/i2c_va108xx.c **** 				clkscale = 	((VOR_Get_ClockFreq() / I2C_STD_SPEED_CLK) / I2C_STD_SPEED_MULTI)-1;
 143:.\driver\src/i2c_va108xx.c **** 				i2c->reg->CLKSCALE = clkscale;
 144:.\driver\src/i2c_va108xx.c **** 				i2c->info.speed = arg; 
 145:.\driver\src/i2c_va108xx.c **** 				break;
 146:.\driver\src/i2c_va108xx.c **** 	case VOR_I2C_BUS_SPEED_FAST     : 
 147:.\driver\src/i2c_va108xx.c **** 	      clkscale = 	((VOR_Get_ClockFreq() / I2C_FAST_SPEED_CLK) / I2C_FAST_SPEED_MULT)-1;
ARM GAS  C:\Users\claym\AppData\Local\Temp\ccxpUFUu.s 			page 5


 148:.\driver\src/i2c_va108xx.c **** 				i2c->reg->CLKSCALE = (clkscale | I2C_PERIPHERAL_CLKSCALE_FASTMODE_Msk);
 149:.\driver\src/i2c_va108xx.c **** 	            i2c->info.speed = arg; 
 150:.\driver\src/i2c_va108xx.c **** 				break;
 151:.\driver\src/i2c_va108xx.c **** 	default                         : return VOR_DRIVER_ERROR_UNSUPPORTED;
 152:.\driver\src/i2c_va108xx.c ****   };
 153:.\driver\src/i2c_va108xx.c ****   return VOR_DRIVER_OK;
 154:.\driver\src/i2c_va108xx.c **** }
 155:.\driver\src/i2c_va108xx.c **** 
 156:.\driver\src/i2c_va108xx.c **** 
 157:.\driver\src/i2c_va108xx.c **** /**
 158:.\driver\src/i2c_va108xx.c ****   function:    int32_t VOR_I2C_OwnAddr (uint32_t       arg,
 159:.\driver\src/i2c_va108xx.c ****                                      I2C_RESOURCES *i2c)
 160:.\driver\src/i2c_va108xx.c ****   brief:       Set I2C Own Slave address.
 161:.\driver\src/i2c_va108xx.c ****   Input:       arg      argument of operation 
 162:.\driver\src/i2c_va108xx.c ****   Input:       i2c      pointer to I2C resources
 163:.\driver\src/i2c_va108xx.c ****   return:      execution_status
 164:.\driver\src/i2c_va108xx.c **** */
 165:.\driver\src/i2c_va108xx.c **** static int32_t VOR_I2C_OwnAddr (uint32_t       arg, I2C_RESOURCES *i2c) {
 166:.\driver\src/i2c_va108xx.c ****   i2c->info.slv_addr = arg;
 167:.\driver\src/i2c_va108xx.c ****   return VOR_DRIVER_OK;
 168:.\driver\src/i2c_va108xx.c **** }
 169:.\driver\src/i2c_va108xx.c **** 
 170:.\driver\src/i2c_va108xx.c **** /**
 171:.\driver\src/i2c_va108xx.c ****   function:    int32_t VOR_I2C_Addr10Bit (uint32_t       arg,
 172:.\driver\src/i2c_va108xx.c ****                                      I2C_RESOURCES *i2c)
 173:.\driver\src/i2c_va108xx.c ****   brief:       Set I2C 7/10 bit address mode.
 174:.\driver\src/i2c_va108xx.c ****   Input:       arg      argument of operation 
 175:.\driver\src/i2c_va108xx.c ****   Input:       i2c      pointer to I2C resources
 176:.\driver\src/i2c_va108xx.c ****   return:      execution_status
 177:.\driver\src/i2c_va108xx.c **** */
 178:.\driver\src/i2c_va108xx.c **** static int32_t VOR_I2C_Addr10Bit (uint32_t       arg, I2C_RESOURCES *i2c) {
 179:.\driver\src/i2c_va108xx.c ****   i2c->info.addr_mode = arg;
 180:.\driver\src/i2c_va108xx.c ****   return VOR_DRIVER_OK;
 181:.\driver\src/i2c_va108xx.c **** }
 182:.\driver\src/i2c_va108xx.c **** 
 183:.\driver\src/i2c_va108xx.c **** /**
 184:.\driver\src/i2c_va108xx.c ****   function:    int32_t VOR_I2C_FifoClr (uint32_t       arg,
 185:.\driver\src/i2c_va108xx.c ****                                      I2C_RESOURCES *i2c)
 186:.\driver\src/i2c_va108xx.c ****   brief:       RX/TX Fifo Clear.
 187:.\driver\src/i2c_va108xx.c ****   Input:       arg      argument of operation 
 188:.\driver\src/i2c_va108xx.c ****   Input:       i2c      pointer to I2C resources
 189:.\driver\src/i2c_va108xx.c ****   return:      execution_status
 190:.\driver\src/i2c_va108xx.c **** */
 191:.\driver\src/i2c_va108xx.c **** static int32_t VOR_I2C_FifoClr (uint32_t       arg, I2C_RESOURCES *i2c) {
 192:.\driver\src/i2c_va108xx.c **** 	
 193:.\driver\src/i2c_va108xx.c ****   if(i2c->info.status.mode) {
 194:.\driver\src/i2c_va108xx.c **** 	i2c->reg->FIFO_CLR     = (arg & 0x3);
 195:.\driver\src/i2c_va108xx.c **** 	i2c->reg->FIFO_CLR     = 0;
 196:.\driver\src/i2c_va108xx.c ****   } else {
 197:.\driver\src/i2c_va108xx.c **** 	i2c->reg->S0_FIFO_CLR = (arg & 0x3);
 198:.\driver\src/i2c_va108xx.c **** 	i2c->reg->S0_FIFO_CLR = 0;
 199:.\driver\src/i2c_va108xx.c ****   }
 200:.\driver\src/i2c_va108xx.c ****   return VOR_DRIVER_OK;
 201:.\driver\src/i2c_va108xx.c **** }
 202:.\driver\src/i2c_va108xx.c **** 
 203:.\driver\src/i2c_va108xx.c **** /**
 204:.\driver\src/i2c_va108xx.c ****   function:    int32_t VOR_I2C_Loopback (uint32_t       arg,
ARM GAS  C:\Users\claym\AppData\Local\Temp\ccxpUFUu.s 			page 6


 205:.\driver\src/i2c_va108xx.c ****                                      I2C_RESOURCES *i2c)
 206:.\driver\src/i2c_va108xx.c ****   brief:       Set Loopback mode.
 207:.\driver\src/i2c_va108xx.c ****   Input:       arg      argument of operation 
 208:.\driver\src/i2c_va108xx.c ****   Input:       i2c      pointer to I2C resources
 209:.\driver\src/i2c_va108xx.c ****   return:      execution_status
 210:.\driver\src/i2c_va108xx.c **** */
 211:.\driver\src/i2c_va108xx.c **** static int32_t VOR_I2C_Loopback (uint32_t       arg, I2C_RESOURCES *i2c) {
 212:.\driver\src/i2c_va108xx.c **** 	
 213:.\driver\src/i2c_va108xx.c **** 	if(arg)
 214:.\driver\src/i2c_va108xx.c **** 		i2c->reg->CTRL |= I2C_PERIPHERAL_CTRL_LOOPBACK_Msk;
 215:.\driver\src/i2c_va108xx.c **** 	else
 216:.\driver\src/i2c_va108xx.c **** 		i2c->reg->CTRL &= ~(I2C_PERIPHERAL_CTRL_LOOPBACK_Msk);
 217:.\driver\src/i2c_va108xx.c ****   return VOR_DRIVER_OK;
 218:.\driver\src/i2c_va108xx.c **** }
 219:.\driver\src/i2c_va108xx.c **** 
 220:.\driver\src/i2c_va108xx.c **** /**
 221:.\driver\src/i2c_va108xx.c ****   function:    int32_t VOR_I2C_Txfemd (uint32_t       arg,
 222:.\driver\src/i2c_va108xx.c ****                                      I2C_RESOURCES *i2c)
 223:.\driver\src/i2c_va108xx.c ****   brief:       Set Transmit Empty FIFO Mode.
 224:.\driver\src/i2c_va108xx.c ****   Input:       arg      argument of operation 
 225:.\driver\src/i2c_va108xx.c ****   Input:       i2c      pointer to I2C resources
 226:.\driver\src/i2c_va108xx.c ****   return:      execution_status
 227:.\driver\src/i2c_va108xx.c **** */
 228:.\driver\src/i2c_va108xx.c **** static int32_t VOR_I2C_Txfemd (uint32_t       arg, I2C_RESOURCES *i2c) {
 229:.\driver\src/i2c_va108xx.c ****   i2c->info.txfemd = arg;
 230:.\driver\src/i2c_va108xx.c ****   return VOR_DRIVER_OK;
 231:.\driver\src/i2c_va108xx.c **** }
 232:.\driver\src/i2c_va108xx.c **** 
 233:.\driver\src/i2c_va108xx.c **** /**
 234:.\driver\src/i2c_va108xx.c ****   function:    int32_t VOR_I2C_Rxffmd (uint32_t       arg,
 235:.\driver\src/i2c_va108xx.c ****                                      I2C_RESOURCES *i2c)
 236:.\driver\src/i2c_va108xx.c ****   brief:       Set Receive Full FIFO Mode.
 237:.\driver\src/i2c_va108xx.c ****   Input:       arg      argument of operation 
 238:.\driver\src/i2c_va108xx.c ****   Input:       i2c      pointer to I2C resources
 239:.\driver\src/i2c_va108xx.c ****   return:      execution_status
 240:.\driver\src/i2c_va108xx.c **** */
 241:.\driver\src/i2c_va108xx.c **** static int32_t VOR_I2C_Rxffmd (uint32_t       arg, I2C_RESOURCES *i2c) {
 242:.\driver\src/i2c_va108xx.c ****   i2c->info.rxffmd = arg;
 243:.\driver\src/i2c_va108xx.c ****   return VOR_DRIVER_OK;
 244:.\driver\src/i2c_va108xx.c **** }
 245:.\driver\src/i2c_va108xx.c **** 
 246:.\driver\src/i2c_va108xx.c **** /**
 247:.\driver\src/i2c_va108xx.c ****   function:    int32_t VOR_I2C_AlgFilter (uint32_t       arg,
 248:.\driver\src/i2c_va108xx.c ****                                      I2C_RESOURCES *i2c)
 249:.\driver\src/i2c_va108xx.c ****   brief:       Set Analog filter.
 250:.\driver\src/i2c_va108xx.c ****   Input:       arg      argument of operation 
 251:.\driver\src/i2c_va108xx.c ****   Input:       i2c      pointer to I2C resources
 252:.\driver\src/i2c_va108xx.c ****   return:      execution_status
 253:.\driver\src/i2c_va108xx.c **** */
 254:.\driver\src/i2c_va108xx.c **** static int32_t VOR_I2C_AlgFilter (uint32_t       arg, I2C_RESOURCES *i2c) {
 255:.\driver\src/i2c_va108xx.c ****   i2c->info.algfilter = arg;
 256:.\driver\src/i2c_va108xx.c ****   return VOR_DRIVER_OK;
 257:.\driver\src/i2c_va108xx.c **** }
 258:.\driver\src/i2c_va108xx.c **** 
 259:.\driver\src/i2c_va108xx.c **** /**
 260:.\driver\src/i2c_va108xx.c ****   function:    int32_t VOR_I2C_DigFilter (uint32_t       arg,
 261:.\driver\src/i2c_va108xx.c ****                                      I2C_RESOURCES *i2c)
ARM GAS  C:\Users\claym\AppData\Local\Temp\ccxpUFUu.s 			page 7


 262:.\driver\src/i2c_va108xx.c ****   brief:       Set Digital filter.
 263:.\driver\src/i2c_va108xx.c ****   Input:       arg      argument of operation 
 264:.\driver\src/i2c_va108xx.c ****   Input:       i2c      pointer to I2C resources
 265:.\driver\src/i2c_va108xx.c ****   return:      execution_status
 266:.\driver\src/i2c_va108xx.c **** */
 267:.\driver\src/i2c_va108xx.c **** static int32_t VOR_I2C_DigFilter (uint32_t       arg, I2C_RESOURCES *i2c) {
 268:.\driver\src/i2c_va108xx.c ****   i2c->info.digfilter = arg;
 269:.\driver\src/i2c_va108xx.c ****   return VOR_DRIVER_OK;
 270:.\driver\src/i2c_va108xx.c **** }
 271:.\driver\src/i2c_va108xx.c **** 
 272:.\driver\src/i2c_va108xx.c **** /**
 273:.\driver\src/i2c_va108xx.c ****   function:    int32_t VOR_I2C_RxFifoTrg (uint32_t       arg,
 274:.\driver\src/i2c_va108xx.c ****                                      I2C_RESOURCES *i2c)
 275:.\driver\src/i2c_va108xx.c ****   brief:       Set Rx fifo trigger.
 276:.\driver\src/i2c_va108xx.c ****   Input:       arg      argument of operation 
 277:.\driver\src/i2c_va108xx.c ****   Input:       i2c      pointer to I2C resources
 278:.\driver\src/i2c_va108xx.c ****   return:      execution_status
 279:.\driver\src/i2c_va108xx.c **** */
 280:.\driver\src/i2c_va108xx.c **** static int32_t VOR_I2C_RxFifoTrg (uint32_t       arg, I2C_RESOURCES *i2c) {
 281:.\driver\src/i2c_va108xx.c ****   i2c->info.rxfifotrg = arg;
 282:.\driver\src/i2c_va108xx.c ****   return VOR_DRIVER_OK;
 283:.\driver\src/i2c_va108xx.c **** }
 284:.\driver\src/i2c_va108xx.c **** 
 285:.\driver\src/i2c_va108xx.c **** /**
 286:.\driver\src/i2c_va108xx.c ****   function:    int32_t VOR_I2C_TxFifoTrg (uint32_t       arg,
 287:.\driver\src/i2c_va108xx.c ****                                      I2C_RESOURCES *i2c)
 288:.\driver\src/i2c_va108xx.c ****   brief:       Set Tx fifo trigger
 289:.\driver\src/i2c_va108xx.c ****   Input:       arg      argument of operation 
 290:.\driver\src/i2c_va108xx.c ****   Input:       i2c      pointer to I2C resources
 291:.\driver\src/i2c_va108xx.c ****   return:      execution_status
 292:.\driver\src/i2c_va108xx.c **** */
 293:.\driver\src/i2c_va108xx.c **** static int32_t VOR_I2C_TxFifoTrg (uint32_t       arg, I2C_RESOURCES *i2c) {
 294:.\driver\src/i2c_va108xx.c ****   i2c->info.txfifotrg = arg;
 295:.\driver\src/i2c_va108xx.c ****   return VOR_DRIVER_OK;
 296:.\driver\src/i2c_va108xx.c **** }
 297:.\driver\src/i2c_va108xx.c **** 
 298:.\driver\src/i2c_va108xx.c **** /**
 299:.\driver\src/i2c_va108xx.c ****   function:    int32_t VOR_I2C_ClkToLimit (uint32_t       arg,
 300:.\driver\src/i2c_va108xx.c ****                                      I2C_RESOURCES *i2c)
 301:.\driver\src/i2c_va108xx.c ****   brief:       Set Low clock limit
 302:.\driver\src/i2c_va108xx.c ****   Input:       arg      argument of operation 
 303:.\driver\src/i2c_va108xx.c ****   Input:       i2c      pointer to I2C resources
 304:.\driver\src/i2c_va108xx.c ****   return:      execution_status
 305:.\driver\src/i2c_va108xx.c **** */
 306:.\driver\src/i2c_va108xx.c **** static int32_t VOR_I2C_ClkToLimit (uint32_t       arg, I2C_RESOURCES *i2c) {
 307:.\driver\src/i2c_va108xx.c ****   i2c->info.clktolimit = arg;
 308:.\driver\src/i2c_va108xx.c ****   return VOR_DRIVER_OK;
 309:.\driver\src/i2c_va108xx.c **** }
 310:.\driver\src/i2c_va108xx.c **** 
 311:.\driver\src/i2c_va108xx.c **** /**
 312:.\driver\src/i2c_va108xx.c ****   function:    int32_t VOR_I2C_TmConfig (uint32_t       arg,
 313:.\driver\src/i2c_va108xx.c ****                                      I2C_RESOURCES *i2c)
 314:.\driver\src/i2c_va108xx.c ****   brief:       Set Timing configuration
 315:.\driver\src/i2c_va108xx.c ****   Input:       arg      argument of operation 
 316:.\driver\src/i2c_va108xx.c ****   Input:       i2c      pointer to I2C resources
 317:.\driver\src/i2c_va108xx.c ****   return:      execution_status
 318:.\driver\src/i2c_va108xx.c **** */
ARM GAS  C:\Users\claym\AppData\Local\Temp\ccxpUFUu.s 			page 8


 319:.\driver\src/i2c_va108xx.c **** static int32_t VOR_I2C_TmConfig (uint32_t       arg, I2C_RESOURCES *i2c) {
 320:.\driver\src/i2c_va108xx.c ****   i2c->info.tmconfig.val = arg;
 321:.\driver\src/i2c_va108xx.c ****   return VOR_DRIVER_OK;
 322:.\driver\src/i2c_va108xx.c **** }
 323:.\driver\src/i2c_va108xx.c **** 
 324:.\driver\src/i2c_va108xx.c **** /**
 325:.\driver\src/i2c_va108xx.c ****   function:    int32_t VOR_I2C_abort_transfer (uint32_t       arg,
 326:.\driver\src/i2c_va108xx.c ****                                      I2C_RESOURCES *i2c)
 327:.\driver\src/i2c_va108xx.c ****   brief:       Abort I2C transfer
 328:.\driver\src/i2c_va108xx.c ****   Input:       arg      argument of operation 
 329:.\driver\src/i2c_va108xx.c ****   Input:       i2c      pointer to I2C resources
 330:.\driver\src/i2c_va108xx.c ****   return:      execution_status
 331:.\driver\src/i2c_va108xx.c **** */
 332:.\driver\src/i2c_va108xx.c **** int32_t VOR_I2C_abort_transfer(uint32_t       arg, I2C_RESOURCES *i2c) {
 333:.\driver\src/i2c_va108xx.c ****   VOR_Disable_Irq(VOR_IRQ_I2C_MS, i2c->i2cId);
 334:.\driver\src/i2c_va108xx.c ****   VOR_Disable_Irq(VOR_IRQ_I2C_SL, i2c->i2cId);
 335:.\driver\src/i2c_va108xx.c **** 	i2c->reg->IRQ_ENB = 0;
 336:.\driver\src/i2c_va108xx.c **** 	i2c->reg->S0_IRQ_ENB = 0;
 337:.\driver\src/i2c_va108xx.c **** 	// Clear FIFO
 338:.\driver\src/i2c_va108xx.c **** 	i2c->reg->FIFO_CLR = 0xffffffff;
 339:.\driver\src/i2c_va108xx.c **** 	i2c->reg->S0_FIFO_CLR = 0xffffffff;
 340:.\driver\src/i2c_va108xx.c **** 	i2c->reg->CTRL    &=  ~I2C_PERIPHERAL_CTRL_ENABLE_Msk;
 341:.\driver\src/i2c_va108xx.c **** 	i2c->reg->S0_CTRL &=  ~I2C_PERIPHERAL_S0_CTRL_ENABLE_Msk;
 342:.\driver\src/i2c_va108xx.c ****   return VOR_DRIVER_OK;
 343:.\driver\src/i2c_va108xx.c **** }
 344:.\driver\src/i2c_va108xx.c **** 
 345:.\driver\src/i2c_va108xx.c **** /**
 346:.\driver\src/i2c_va108xx.c ****   function:    int32_t VOR_I2C_Control (uint32_t       control,
 347:.\driver\src/i2c_va108xx.c ****                                      uint32_t       arg,
 348:.\driver\src/i2c_va108xx.c ****                                      I2C_RESOURCES *i2c)
 349:.\driver\src/i2c_va108xx.c ****   brief:       Control I2C Interface.
 350:.\driver\src/i2c_va108xx.c ****   Input:       control  operation
 351:.\driver\src/i2c_va108xx.c ****   Input:       arg      argument of operation (optional)
 352:.\driver\src/i2c_va108xx.c ****   Input:       i2c      pointer to I2C resources
 353:.\driver\src/i2c_va108xx.c ****   return:      execution_status
 354:.\driver\src/i2c_va108xx.c **** */
 355:.\driver\src/i2c_va108xx.c **** int32_t VOR_I2C_Control (uint32_t control, uint32_t arg, I2C_RESOURCES *i2c) {
 356:.\driver\src/i2c_va108xx.c **** 
 357:.\driver\src/i2c_va108xx.c ****   if((i2c == NULL) || (i2c->reg ==NULL))
 358:.\driver\src/i2c_va108xx.c **** 	return VOR_DRIVER_ERROR_PARAMETER;
 359:.\driver\src/i2c_va108xx.c ****   
 360:.\driver\src/i2c_va108xx.c ****   
 361:.\driver\src/i2c_va108xx.c ****   switch (control) {
 362:.\driver\src/i2c_va108xx.c **** 	case VOR_I2C_DRV_POLL            : return VOR_I2C_Drv_Mode(arg,i2c);
 363:.\driver\src/i2c_va108xx.c **** 	case VOR_I2C_POLL_TOUT           : return VOR_I2C_Poll_Tout(arg,i2c);
 364:.\driver\src/i2c_va108xx.c **** 	case VOR_I2C_BUS_SPEED           : return VOR_I2C_busSpeed(arg,i2c);
 365:.\driver\src/i2c_va108xx.c **** 	case VOR_I2C_OWN_ADDRESS         : return VOR_I2C_OwnAddr(arg,i2c);
 366:.\driver\src/i2c_va108xx.c **** 	case VOR_I2C_ADDRESS_10BIT       : return VOR_I2C_Addr10Bit(arg,i2c);
 367:.\driver\src/i2c_va108xx.c **** 	case VOR_I2C_FIFO_CLR            : return VOR_I2C_FifoClr(arg,i2c);
 368:.\driver\src/i2c_va108xx.c **** 	case VOR_I2C_LOOPBACK            : return VOR_I2C_Loopback(arg,i2c);
 369:.\driver\src/i2c_va108xx.c **** 	case VOR_I2C_ABORT_TRANSFER      : return VOR_I2C_abort_transfer(arg,i2c);
 370:.\driver\src/i2c_va108xx.c **** 	case VOR_I2C_TXFEMD_MODE         : return VOR_I2C_Txfemd(arg,i2c);
 371:.\driver\src/i2c_va108xx.c **** 	case VOR_I2C_RXFFMD_MODE         : return VOR_I2C_Rxffmd(arg,i2c);
 372:.\driver\src/i2c_va108xx.c **** 	case VOR_I2C_ALGFILTER           : return VOR_I2C_AlgFilter(arg,i2c);
 373:.\driver\src/i2c_va108xx.c **** 	case VOR_I2C_DIGFILTER           : return VOR_I2C_DigFilter(arg,i2c);
 374:.\driver\src/i2c_va108xx.c **** 	case VOR_I2C_RXFIFOIRQTRG        : return VOR_I2C_RxFifoTrg(arg,i2c);
 375:.\driver\src/i2c_va108xx.c **** 	case VOR_I2C_TXFIFOIRQTRG        : return VOR_I2C_TxFifoTrg(arg,i2c);
ARM GAS  C:\Users\claym\AppData\Local\Temp\ccxpUFUu.s 			page 9


 376:.\driver\src/i2c_va108xx.c **** 	case VOR_I2C_CLKTOLIMIT          : return VOR_I2C_ClkToLimit(arg,i2c);
 377:.\driver\src/i2c_va108xx.c **** 	case VOR_I2C_TMCONFIG            : return VOR_I2C_TmConfig(arg,i2c);
 378:.\driver\src/i2c_va108xx.c **** 	default                          : return VOR_I2C_ERROR_CTRL;
 379:.\driver\src/i2c_va108xx.c ****   }
 380:.\driver\src/i2c_va108xx.c **** }
 381:.\driver\src/i2c_va108xx.c **** 
 382:.\driver\src/i2c_va108xx.c **** /**
 383:.\driver\src/i2c_va108xx.c ****   function:    VOR_I2C_STATUS VOR_I2C_GetStatus (I2C_RESOURCES *I2C)
 384:.\driver\src/i2c_va108xx.c ****   brief:       Get I2C status.
 385:.\driver\src/i2c_va108xx.c ****   Input:       I2C     Pointer to I2C resources
 386:.\driver\src/i2c_va108xx.c ****   return:      I2C status VOR_I2C_STATUS
 387:.\driver\src/i2c_va108xx.c **** */
 388:.\driver\src/i2c_va108xx.c **** VOR_I2C_STATUS VOR_I2C_GetStatus (I2C_RESOURCES *i2c) {
 389:.\driver\src/i2c_va108xx.c **** 
 390:.\driver\src/i2c_va108xx.c ****   if(i2c->info.status.mode == I2C_MODE_MASTER) {
 391:.\driver\src/i2c_va108xx.c ****     // Bus Idle Status
 392:.\driver\src/i2c_va108xx.c ****     i2c->info.status.i2cIdle   = (i2c->reg->STATUS & I2C_PERIPHERAL_STATUS_I2CIDLE_Msk) ? 1: 0;
 393:.\driver\src/i2c_va108xx.c ****     // Controller Idle Status
 394:.\driver\src/i2c_va108xx.c ****     i2c->info.status.Idle      = (i2c->reg->STATUS & I2C_PERIPHERAL_STATUS_IDLE_Msk)    ? 1: 0;
 395:.\driver\src/i2c_va108xx.c ****     // Controller Waiting Status
 396:.\driver\src/i2c_va108xx.c ****     i2c->info.status.waiting   = (i2c->reg->STATUS & I2C_PERIPHERAL_STATUS_WAITING_Msk) ? 1: 0;
 397:.\driver\src/i2c_va108xx.c ****     // Controller Stalled Status
 398:.\driver\src/i2c_va108xx.c ****     i2c->info.status.stalled   = (i2c->reg->STATUS & I2C_PERIPHERAL_STATUS_STALLED_Msk) ? 1: 0;
 399:.\driver\src/i2c_va108xx.c ****     // Lost arbitration Status
 400:.\driver\src/i2c_va108xx.c ****     i2c->info.status.arb_lost  = (i2c->reg->STATUS & I2C_PERIPHERAL_STATUS_ARBLOST_Msk) ? 1: 0;
 401:.\driver\src/i2c_va108xx.c ****     // Address failed Status
 402:.\driver\src/i2c_va108xx.c ****     i2c->info.status.nackAddr  = (i2c->reg->STATUS & I2C_PERIPHERAL_STATUS_NACKADDR_Msk)? 1: 0;
 403:.\driver\src/i2c_va108xx.c ****     // Receive negative Ack 
 404:.\driver\src/i2c_va108xx.c ****     i2c->info.status.nackData  = (i2c->reg->STATUS & I2C_PERIPHERAL_STATUS_NACKDATA_Msk)? 1: 0;
 405:.\driver\src/i2c_va108xx.c ****     // Receive FIFO is not empty 
 406:.\driver\src/i2c_va108xx.c ****     i2c->info.status.rxNEmpty  = (i2c->reg->STATUS & I2C_PERIPHERAL_STATUS_RXNEMPTY_Msk)? 1: 0;
 407:.\driver\src/i2c_va108xx.c ****     // Receive FIFO is full
 408:.\driver\src/i2c_va108xx.c ****     i2c->info.status.rxFull    = (i2c->reg->STATUS & I2C_PERIPHERAL_STATUS_RXFULL_Msk)  ? 1: 0;
 409:.\driver\src/i2c_va108xx.c ****     // Receive FIFO >= Trigger level
 410:.\driver\src/i2c_va108xx.c ****     i2c->info.status.rxFifoTrg = (i2c->reg->STATUS & I2C_PERIPHERAL_STATUS_RXTRIGGER_Msk)? 1: 0;
 411:.\driver\src/i2c_va108xx.c ****     // Transmit FIFO is empty 
 412:.\driver\src/i2c_va108xx.c ****     i2c->info.status.txEmpty   = (i2c->reg->STATUS & I2C_PERIPHERAL_STATUS_TXEMPTY_Msk) ? 1: 0;
 413:.\driver\src/i2c_va108xx.c ****     // Transmit FIFO is not full 
 414:.\driver\src/i2c_va108xx.c ****     i2c->info.status.txNFull   = (i2c->reg->STATUS & I2C_PERIPHERAL_STATUS_TXNFULL_Msk) ? 1: 0;
 415:.\driver\src/i2c_va108xx.c ****     // Transmit FIFO >= Trigger level 
 416:.\driver\src/i2c_va108xx.c ****     i2c->info.status.txFifoTrg = (i2c->reg->STATUS & I2C_PERIPHERAL_STATUS_TXTRIGGER_Msk)? 1: 0;
 417:.\driver\src/i2c_va108xx.c ****     // Raw I2C Data value 
 418:.\driver\src/i2c_va108xx.c ****     i2c->info.status.rawSDA    = (i2c->reg->STATUS & I2C_PERIPHERAL_STATUS_RAW_SDA_Msk) ? 1: 0;
 419:.\driver\src/i2c_va108xx.c ****     // Raw I2C Clock value 
 420:.\driver\src/i2c_va108xx.c ****     i2c->info.status.rawSCL    = (i2c->reg->STATUS & I2C_PERIPHERAL_STATUS_RAW_SCL_Msk) ? 1: 0;
 421:.\driver\src/i2c_va108xx.c ****   }
 422:.\driver\src/i2c_va108xx.c ****  
 423:.\driver\src/i2c_va108xx.c ****   return i2c->info.status;
 424:.\driver\src/i2c_va108xx.c **** }
 425:.\driver\src/i2c_va108xx.c **** 
 426:.\driver\src/i2c_va108xx.c **** 
 427:.\driver\src/i2c_va108xx.c **** /**
 428:.\driver\src/i2c_va108xx.c ****   function:    int32_t VOR_I2C_Setup (uint32_t       addr,
 429:.\driver\src/i2c_va108xx.c ****                                       const uint8_t *data,
 430:.\driver\src/i2c_va108xx.c ****                                       uint32_t       num,
 431:.\driver\src/i2c_va108xx.c ****                                       I2C_RESOURCES *i2c)
 432:.\driver\src/i2c_va108xx.c ****   brief:       Set up I2C control
ARM GAS  C:\Users\claym\AppData\Local\Temp\ccxpUFUu.s 			page 10


 433:.\driver\src/i2c_va108xx.c ****   Input:       addr          Slave address (7-bit or 10-bit)
 434:.\driver\src/i2c_va108xx.c ****   Input:       num           Number of data bytes to transmit
 435:.\driver\src/i2c_va108xx.c ****   Input:       i2c           Pointer to I2C resources
 436:.\driver\src/i2c_va108xx.c ****   return:      execution_status
 437:.\driver\src/i2c_va108xx.c **** */
 438:.\driver\src/i2c_va108xx.c **** static int32_t VOR_I2C_Setup (uint32_t       addr,
 439:.\driver\src/i2c_va108xx.c ****                                     uint32_t       num,
 440:.\driver\src/i2c_va108xx.c ****                                     I2C_RESOURCES *i2c) 
 441:.\driver\src/i2c_va108xx.c **** {
  82              		.loc 1 441 0
  83              		.cfi_startproc
  84              		@ args = 0, pretend = 0, frame = 8
  85              		@ frame_needed = 0, uses_anonymous_args = 0
  86              	.LVL0:
  87              	@ .\driver\src\i2c_va108xx.c:445:   if(i2c->info.status.mode == I2C_MODE_MASTER) {
 442:.\driver\src/i2c_va108xx.c **** 	uint32_t control ;
 443:.\driver\src/i2c_va108xx.c **** 	
 444:.\driver\src/i2c_va108xx.c ****   // Enable Master for Slave Mode
 445:.\driver\src/i2c_va108xx.c ****   if(i2c->info.status.mode == I2C_MODE_MASTER) {
  88              		.loc 1 445 0
  89 0000 537C     		ldrb	r3, [r2, #17]	@ *i2c_90(D), *i2c_90(D)
  90              	@ .\driver\src\i2c_va108xx.c:441: {
 441:.\driver\src/i2c_va108xx.c **** 	uint32_t control ;
  91              		.loc 1 441 0
  92 0002 F7B5     		push	{r0, r1, r2, r4, r5, r6, r7, lr}	@
  93              	.LCFI0:
  94              		.cfi_def_cfa_offset 32
  95              		.cfi_offset 0, -32
  96              		.cfi_offset 1, -28
  97              		.cfi_offset 2, -24
  98              		.cfi_offset 4, -20
  99              		.cfi_offset 5, -16
 100              		.cfi_offset 6, -12
 101              		.cfi_offset 7, -8
 102              		.cfi_offset 14, -4
 103              	@ .\driver\src\i2c_va108xx.c:445:   if(i2c->info.status.mode == I2C_MODE_MASTER) {
 104              		.loc 1 445 0
 105 0004 9C46     		mov	ip, r3	@ *i2c_90(D), *i2c_90(D)
 106 0006 5768     		ldr	r7, [r2, #4]	@ pretmp_52, i2c_90(D)->reg
 107              	@ .\driver\src\i2c_va108xx.c:441: {
 441:.\driver\src/i2c_va108xx.c **** 	uint32_t control ;
 108              		.loc 1 441 0
 109 0008 0190     		str	r0, [sp, #4]	@ addr, %sfp
 110 000a 3D00     		movs	r5, r7	@ tmp265, pretmp_52
 111              	@ .\driver\src\i2c_va108xx.c:445:   if(i2c->info.status.mode == I2C_MODE_MASTER) {
 112              		.loc 1 445 0
 113 000c 6046     		mov	r0, ip	@ *i2c_90(D), *i2c_90(D)
 114              	.LVL1:
 115 000e 146B     		ldr	r4, [r2, #48]	@ pretmp_23, i2c_90(D)->info.txfemd
 116 0010 FC35     		adds	r5, r5, #252	@ tmp265,
 117 0012 0423     		movs	r3, #4	@ tmp266,
 118 0014 967C     		ldrb	r6, [r2, #18]	@ *i2c_90(D), *i2c_90(D)
 119 0016 7F28     		cmp	r0, #127	@ *i2c_90(D),
 120 0018 59D9     		bls	.L2	@,
 121              	.LVL2:
 122              	@ .\driver\src\i2c_va108xx.c:447: 		i2c->reg->S0_CTRL &=  ~I2C_PERIPHERAL_S0_CTRL_ENABLE_Msk;
 446:.\driver\src/i2c_va108xx.c **** 	  control = I2C_PERIPHERAL_CTRL_ENABLE_Msk;
ARM GAS  C:\Users\claym\AppData\Local\Temp\ccxpUFUu.s 			page 11


 447:.\driver\src/i2c_va108xx.c **** 		i2c->reg->S0_CTRL &=  ~I2C_PERIPHERAL_S0_CTRL_ENABLE_Msk;
 123              		.loc 1 447 0
 124 001a 6868     		ldr	r0, [r5, #4]	@ _3, pretmp_52->S0_CTRL
 125 001c 9843     		bics	r0, r3	@ _3, tmp266
 126 001e 6860     		str	r0, [r5, #4]	@ _4, pretmp_52->S0_CTRL
 127              	@ .\driver\src\i2c_va108xx.c:455: 	  if(i2c->info.txfemd)	
 448:.\driver\src/i2c_va108xx.c ****   }else {
 449:.\driver\src/i2c_va108xx.c **** 	  control = I2C_PERIPHERAL_S0_CTRL_ENABLE_Msk;
 450:.\driver\src/i2c_va108xx.c **** 		i2c->reg->CTRL &=  ~I2C_PERIPHERAL_CTRL_ENABLE_Msk;
 451:.\driver\src/i2c_va108xx.c ****   }
 452:.\driver\src/i2c_va108xx.c **** 	
 453:.\driver\src/i2c_va108xx.c ****   if(i2c->info.status.mode == I2C_MODE_MASTER) {
 454:.\driver\src/i2c_va108xx.c ****     // Configure TXFEMD
 455:.\driver\src/i2c_va108xx.c **** 	  if(i2c->info.txfemd)	
 128              		.loc 1 455 0
 129 0020 002C     		cmp	r4, #0	@ pretmp_23,
 130 0022 00D0     		beq	.LCB37	@
 131 0024 84E0     		b	.L3	@long jump	@
 132              	.LCB37:
 133              	.LVL3:
 134              	.L4:
 135              	@ .\driver\src\i2c_va108xx.c:458: 	  if(i2c->info.rxffmd)
 456:.\driver\src/i2c_va108xx.c **** 			control |= ((i2c->info.txfemd & 1)<<I2C_PERIPHERAL_CTRL_TXFEMD_Pos);
 457:.\driver\src/i2c_va108xx.c **** 	  // Configure RXFFMD
 458:.\driver\src/i2c_va108xx.c **** 	  if(i2c->info.rxffmd)
 136              		.loc 1 458 0
 137 0026 546B     		ldr	r4, [r2, #52]	@ _11, i2c_90(D)->info.rxffmd
 138 0028 002C     		cmp	r4, #0	@ _11,
 139 002a 03D0     		beq	.L7	@,
 140              	@ .\driver\src\i2c_va108xx.c:459:   		control |= ((i2c->info.rxffmd & 1)<<I2C_PERIPHERAL_CTRL_RXFFM
 459:.\driver\src/i2c_va108xx.c ****   		control |= ((i2c->info.rxffmd & 1)<<I2C_PERIPHERAL_CTRL_RXFFMD_Pos);
 141              		.loc 1 459 0
 142 002c 1025     		movs	r5, #16	@ tmp193,
 143 002e 2401     		lsls	r4, r4, #4	@ tmp191, _11,
 144 0030 2C40     		ands	r4, r5	@ tmp192, tmp193
 145 0032 2343     		orrs	r3, r4	@ control, tmp192
 146              	.LVL4:
 147              	.L7:
 148              	@ .\driver\src\i2c_va108xx.c:461: 	  if(i2c->info.algfilter)
 460:.\driver\src/i2c_va108xx.c **** 	  // Configure ALGFILTER
 461:.\driver\src/i2c_va108xx.c **** 	  if(i2c->info.algfilter)
 149              		.loc 1 461 0
 150 0034 946B     		ldr	r4, [r2, #56]	@ _14, i2c_90(D)->info.algfilter
 151 0036 002C     		cmp	r4, #0	@ _14,
 152 0038 03D0     		beq	.L8	@,
 153              	@ .\driver\src\i2c_va108xx.c:462: 		  control |= ((i2c->info.algfilter & 1)<<I2C_PERIPHERAL_CTRL_AL
 462:.\driver\src/i2c_va108xx.c **** 		  control |= ((i2c->info.algfilter & 1)<<I2C_PERIPHERAL_CTRL_ALGFILTER_Pos);
 154              		.loc 1 462 0
 155 003a 2025     		movs	r5, #32	@ tmp196,
 156 003c 6401     		lsls	r4, r4, #5	@ tmp194, _14,
 157 003e 2C40     		ands	r4, r5	@ tmp195, tmp196
 158 0040 2343     		orrs	r3, r4	@ control, tmp195
 159              	.LVL5:
 160              	.L8:
 161              	@ .\driver\src\i2c_va108xx.c:464: 	  if(i2c->info.digfilter)
 463:.\driver\src/i2c_va108xx.c **** 	  // Configure DLGFILTER
 464:.\driver\src/i2c_va108xx.c **** 	  if(i2c->info.digfilter)
ARM GAS  C:\Users\claym\AppData\Local\Temp\ccxpUFUu.s 			page 12


 162              		.loc 1 464 0
 163 0042 D46B     		ldr	r4, [r2, #60]	@ _17, i2c_90(D)->info.digfilter
 164 0044 002C     		cmp	r4, #0	@ _17,
 165 0046 03D0     		beq	.L9	@,
 166              	@ .\driver\src\i2c_va108xx.c:465:   		control |= ((i2c->info.digfilter & 1)<<I2C_PERIPHERAL_CTRL_DL
 465:.\driver\src/i2c_va108xx.c ****   		control |= ((i2c->info.digfilter & 1)<<I2C_PERIPHERAL_CTRL_DLGFILTER_Pos);
 167              		.loc 1 465 0
 168 0048 4025     		movs	r5, #64	@ tmp199,
 169 004a A401     		lsls	r4, r4, #6	@ tmp197, _17,
 170 004c 2C40     		ands	r4, r5	@ tmp198, tmp199
 171 004e 2343     		orrs	r3, r4	@ control, tmp198
 172              	.LVL6:
 173              	.L9:
 174              	@ .\driver\src\i2c_va108xx.c:467: 	  if(i2c->info.loopback)
 466:.\driver\src/i2c_va108xx.c **** 	  // Configure Internal Loopback
 467:.\driver\src/i2c_va108xx.c **** 	  if(i2c->info.loopback)
 175              		.loc 1 467 0
 176 0050 D46A     		ldr	r4, [r2, #44]	@ _20, i2c_90(D)->info.loopback
 177 0052 002C     		cmp	r4, #0	@ _20,
 178 0054 04D0     		beq	.L10	@,
 179              	@ .\driver\src\i2c_va108xx.c:469:   		control |= ((i2c->info.loopback & 1)<<I2C_PERIPHERAL_CTRL_LOO
 468:.\driver\src/i2c_va108xx.c **** 	  {
 469:.\driver\src/i2c_va108xx.c ****   		control |= ((i2c->info.loopback & 1)<<I2C_PERIPHERAL_CTRL_LOOPBACK_Pos);
 180              		.loc 1 469 0
 181 0056 8025     		movs	r5, #128	@ tmp202,
 182 0058 2402     		lsls	r4, r4, #8	@ tmp200, _20,
 183 005a 6D00     		lsls	r5, r5, #1	@ tmp202, tmp202,
 184 005c 2C40     		ands	r4, r5	@ tmp201, tmp202
 185 005e 2343     		orrs	r3, r4	@ control, tmp201
 186              	.LVL7:
 187              	.L10:
 188              	@ .\driver\src\i2c_va108xx.c:473: 	  if(i2c->info.tmconfig.val) {
 470:.\driver\src/i2c_va108xx.c **** 	  }
 471:.\driver\src/i2c_va108xx.c **** 		i2c->reg->CTRL = control;
 472:.\driver\src/i2c_va108xx.c ****   	// Configure I2C Timming 
 473:.\driver\src/i2c_va108xx.c **** 	  if(i2c->info.tmconfig.val) {
 189              		.loc 1 473 0
 190 0060 D46C     		ldr	r4, [r2, #76]	@ _24, i2c_90(D)->info.tmconfig.val
 191              	@ .\driver\src\i2c_va108xx.c:471: 		i2c->reg->CTRL = control;
 471:.\driver\src/i2c_va108xx.c ****   	// Configure I2C Timming 
 192              		.loc 1 471 0
 193 0062 3B60     		str	r3, [r7]	@ control, pretmp_52->CTRL
 194              	@ .\driver\src\i2c_va108xx.c:473: 	  if(i2c->info.tmconfig.val) {
 195              		.loc 1 473 0
 196 0064 002C     		cmp	r4, #0	@ _24,
 197 0066 09D0     		beq	.L11	@,
 198              	@ .\driver\src\i2c_va108xx.c:474: 		  i2c->reg->CTRL |= ((1)<<I2C_PERIPHERAL_CTRL_TMCONFIGENB_Pos);
 474:.\driver\src/i2c_va108xx.c **** 		  i2c->reg->CTRL |= ((1)<<I2C_PERIPHERAL_CTRL_TMCONFIGENB_Pos);
 199              		.loc 1 474 0
 200 0068 8023     		movs	r3, #128	@ tmp203,
 201              	.LVL8:
 202 006a 3D68     		ldr	r5, [r7]	@ _25, pretmp_52->CTRL
 203 006c 9B00     		lsls	r3, r3, #2	@ tmp203, tmp203,
 204 006e 2B43     		orrs	r3, r5	@ _26, _25
 205 0070 3B60     		str	r3, [r7]	@ _26, pretmp_52->CTRL
 206              	.LVL9:
 207              	@ .\driver\src\i2c_va108xx.c:475: 		  i2c->reg->TMCONFIG = i2c->info.tmconfig.val;
ARM GAS  C:\Users\claym\AppData\Local\Temp\ccxpUFUu.s 			page 13


 475:.\driver\src/i2c_va108xx.c **** 		  i2c->reg->TMCONFIG = i2c->info.tmconfig.val;
 208              		.loc 1 475 0
 209 0072 7C64     		str	r4, [r7, #68]	@ _24, pretmp_52->TMCONFIG
 210              	@ .\driver\src\i2c_va108xx.c:476: 		  i2c->reg->CTRL &= ~((1)<<I2C_PERIPHERAL_CTRL_TMCONFIGENB_Pos)
 476:.\driver\src/i2c_va108xx.c **** 		  i2c->reg->CTRL &= ~((1)<<I2C_PERIPHERAL_CTRL_TMCONFIGENB_Pos);
 211              		.loc 1 476 0
 212 0074 3B68     		ldr	r3, [r7]	@ _27, pretmp_52->CTRL
 213 0076 334C     		ldr	r4, .L68	@ tmp204,
 214 0078 2340     		ands	r3, r4	@ _28, tmp204
 215 007a 3B60     		str	r3, [r7]	@ _28, pretmp_52->CTRL
 216              	.L11:
 217              	@ .\driver\src\i2c_va108xx.c:481: 	  i2c->reg->ADDRESS = 0;
 477:.\driver\src/i2c_va108xx.c **** 	  }
 478:.\driver\src/i2c_va108xx.c **** 	  // Configure Number of bytes
 479:.\driver\src/i2c_va108xx.c **** 	  i2c->reg->WORDS = num;
 480:.\driver\src/i2c_va108xx.c **** 	  // Configure Address
 481:.\driver\src/i2c_va108xx.c **** 	  i2c->reg->ADDRESS = 0;
 218              		.loc 1 481 0
 219 007c 0023     		movs	r3, #0	@ tmp205,
 220              	@ .\driver\src\i2c_va108xx.c:479: 	  i2c->reg->WORDS = num;
 479:.\driver\src/i2c_va108xx.c **** 	  // Configure Address
 221              		.loc 1 479 0
 222 007e B960     		str	r1, [r7, #8]	@ num, pretmp_52->WORDS
 223              	@ .\driver\src\i2c_va108xx.c:481: 	  i2c->reg->ADDRESS = 0;
 224              		.loc 1 481 0
 225 0080 FB60     		str	r3, [r7, #12]	@ tmp205, pretmp_52->ADDRESS
 226              	@ .\driver\src\i2c_va108xx.c:482: 	  i2c->reg->ADDRESS |= ((addr)<<I2C_ADDR_BITS);
 482:.\driver\src/i2c_va108xx.c **** 	  i2c->reg->ADDRESS |= ((addr)<<I2C_ADDR_BITS);
 227              		.loc 1 482 0
 228 0082 0199     		ldr	r1, [sp, #4]	@ addr, %sfp
 229              	.LVL10:
 230 0084 FB68     		ldr	r3, [r7, #12]	@ _29, pretmp_52->ADDRESS
 231 0086 4800     		lsls	r0, r1, #1	@ tmp206, addr,
 232 0088 1843     		orrs	r0, r3	@ _31, _29
 233 008a F860     		str	r0, [r7, #12]	@ _31, pretmp_52->ADDRESS
 234              	@ .\driver\src\i2c_va108xx.c:484: 	  if(i2c->info.status.direction)
 483:.\driver\src/i2c_va108xx.c **** 	  // Configure Direction
 484:.\driver\src/i2c_va108xx.c **** 	  if(i2c->info.status.direction)
 235              		.loc 1 484 0
 236 008c F307     		lsls	r3, r6, #31	@ tmp270, *i2c_90(D),
 237 008e 04D5     		bpl	.L12	@,
 238              	@ .\driver\src\i2c_va108xx.c:485: 		  i2c->reg->ADDRESS |= ((i2c->info.status.direction & 1)<<I2C_A
 485:.\driver\src/i2c_va108xx.c **** 		  i2c->reg->ADDRESS |= ((i2c->info.status.direction & 1)<<I2C_ADDR_DIR);
 239              		.loc 1 485 0
 240 0090 F968     		ldr	r1, [r7, #12]	@ _34, pretmp_52->ADDRESS
 241 0092 F307     		lsls	r3, r6, #31	@ tmp217, *i2c_90(D),
 242 0094 DB0F     		lsrs	r3, r3, #31	@ tmp218, tmp217,
 243 0096 0B43     		orrs	r3, r1	@ _37, _34
 244 0098 FB60     		str	r3, [r7, #12]	@ _37, pretmp_52->ADDRESS
 245              	.L12:
 246              	@ .\driver\src\i2c_va108xx.c:487: 	  if(i2c->info.addr_mode)
 486:.\driver\src/i2c_va108xx.c **** 	  // Configure Address Mode
 487:.\driver\src/i2c_va108xx.c **** 	  if(i2c->info.addr_mode)
 247              		.loc 1 487 0
 248 009a 936A     		ldr	r3, [r2, #40]	@ _38, i2c_90(D)->info.addr_mode
 249 009c 002B     		cmp	r3, #0	@ _38,
 250 009e 04D0     		beq	.L13	@,
ARM GAS  C:\Users\claym\AppData\Local\Temp\ccxpUFUu.s 			page 14


 251              	@ .\driver\src\i2c_va108xx.c:488:   		i2c->reg->ADDRESS |= ((i2c->info.addr_mode & 1)<<I2C_ADDR_MOD
 488:.\driver\src/i2c_va108xx.c ****   		i2c->reg->ADDRESS |= ((i2c->info.addr_mode & 1)<<I2C_ADDR_MODE);
 252              		.loc 1 488 0
 253 00a0 F968     		ldr	r1, [r7, #12]	@ _39, pretmp_52->ADDRESS
 254 00a2 DB07     		lsls	r3, r3, #31	@ tmp221, _38,
 255 00a4 1B0C     		lsrs	r3, r3, #16	@ tmp220, tmp221,
 256 00a6 0B43     		orrs	r3, r1	@ _42, _39
 257 00a8 FB60     		str	r3, [r7, #12]	@ _42, pretmp_52->ADDRESS
 258              	.L13:
 259              	@ .\driver\src\i2c_va108xx.c:490:   	if(i2c->info.clktolimit)
 489:.\driver\src/i2c_va108xx.c ****   	// Configure Low clock limit
 490:.\driver\src/i2c_va108xx.c ****   	if(i2c->info.clktolimit)
 260              		.loc 1 490 0
 261 00aa 936C     		ldr	r3, [r2, #72]	@ _43, i2c_90(D)->info.clktolimit
 262 00ac 002B     		cmp	r3, #0	@ _43,
 263 00ae 00D0     		beq	.L14	@,
 264              	@ .\driver\src\i2c_va108xx.c:491: 		  i2c->reg->CLKTOLIMIT = i2c->info.clktolimit;
 491:.\driver\src/i2c_va108xx.c **** 		  i2c->reg->CLKTOLIMIT = i2c->info.clktolimit;
 265              		.loc 1 491 0
 266 00b0 BB64     		str	r3, [r7, #72]	@ _43, pretmp_52->CLKTOLIMIT
 267              	.L14:
 268              	@ .\driver\src\i2c_va108xx.c:493: 	  if(i2c->info.rxfifotrg)
 492:.\driver\src/i2c_va108xx.c **** 	  // Configure RX FIFO TRG
 493:.\driver\src/i2c_va108xx.c **** 	  if(i2c->info.rxfifotrg)
 269              		.loc 1 493 0
 270 00b2 136C     		ldr	r3, [r2, #64]	@ _44, i2c_90(D)->info.rxfifotrg
 271 00b4 002B     		cmp	r3, #0	@ _44,
 272 00b6 00D0     		beq	.L15	@,
 273              	@ .\driver\src\i2c_va108xx.c:494:   		i2c->reg->RXFIFOIRQTRG = i2c->info.rxfifotrg;
 494:.\driver\src/i2c_va108xx.c ****   		i2c->reg->RXFIFOIRQTRG = i2c->info.rxfifotrg;
 274              		.loc 1 494 0
 275 00b8 BB63     		str	r3, [r7, #56]	@ _44, pretmp_52->RXFIFOIRQTRG
 276              	.L15:
 277              	@ .\driver\src\i2c_va108xx.c:496:   	if(i2c->info.txfifotrg)
 495:.\driver\src/i2c_va108xx.c ****   	// Configure TX FIFO TRG
 496:.\driver\src/i2c_va108xx.c ****   	if(i2c->info.txfifotrg)
 278              		.loc 1 496 0
 279 00ba 536C     		ldr	r3, [r2, #68]	@ _45, i2c_90(D)->info.txfifotrg
 280 00bc 002B     		cmp	r3, #0	@ _45,
 281 00be 00D0     		beq	.L16	@,
 282              	@ .\driver\src\i2c_va108xx.c:497: 		  i2c->reg->TXFIFOIRQTRG = i2c->info.txfifotrg;
 497:.\driver\src/i2c_va108xx.c **** 		  i2c->reg->TXFIFOIRQTRG = i2c->info.txfifotrg;
 283              		.loc 1 497 0
 284 00c0 FB63     		str	r3, [r7, #60]	@ _45, pretmp_52->TXFIFOIRQTRG
 285              	.L16:
 286              	@ .\driver\src\i2c_va108xx.c:499: 	  i2c->reg->FIFO_CLR = 0x3;
 498:.\driver\src/i2c_va108xx.c ****     // Clear TX Fifo
 499:.\driver\src/i2c_va108xx.c **** 	  i2c->reg->FIFO_CLR = 0x3;
 287              		.loc 1 499 0
 288 00c2 0323     		movs	r3, #3	@ tmp222,
 289 00c4 3B64     		str	r3, [r7, #64]	@ tmp222, pretmp_52->FIFO_CLR
 290              	@ .\driver\src\i2c_va108xx.c:500: 	  i2c->reg->FIFO_CLR = 0x0;
 500:.\driver\src/i2c_va108xx.c **** 	  i2c->reg->FIFO_CLR = 0x0;
 291              		.loc 1 500 0
 292 00c6 0023     		movs	r3, #0	@ tmp223,
 293 00c8 3B64     		str	r3, [r7, #64]	@ tmp223, pretmp_52->FIFO_CLR
 294              	.L17:
ARM GAS  C:\Users\claym\AppData\Local\Temp\ccxpUFUu.s 			page 15


 295              	@ .\driver\src\i2c_va108xx.c:533: }
 501:.\driver\src/i2c_va108xx.c ****   } else {
 502:.\driver\src/i2c_va108xx.c **** 	  // Configure TXFEMD
 503:.\driver\src/i2c_va108xx.c **** 	  if(i2c->info.txfemd)	
 504:.\driver\src/i2c_va108xx.c **** 		  control |= ((i2c->info.txfemd & 1)<<I2C_PERIPHERAL_S0_CTRL_TXFEMD_Pos);
 505:.\driver\src/i2c_va108xx.c **** 	  // Configure RXFFMD
 506:.\driver\src/i2c_va108xx.c **** 	  if(i2c->info.rxffmd)
 507:.\driver\src/i2c_va108xx.c **** 	  {
 508:.\driver\src/i2c_va108xx.c ****   		control |= ((i2c->info.rxffmd & 1)<<I2C_PERIPHERAL_S0_CTRL_RXFFMD_Pos);
 509:.\driver\src/i2c_va108xx.c **** 	  }
 510:.\driver\src/i2c_va108xx.c **** 		i2c->reg->S0_CTRL = control;
 511:.\driver\src/i2c_va108xx.c ****   	// Configure Number of bytes
 512:.\driver\src/i2c_va108xx.c ****   	i2c->reg->S0_MAXWORDS = num;
 513:.\driver\src/i2c_va108xx.c ****   	// Configure Address
 514:.\driver\src/i2c_va108xx.c ****   	i2c->reg->S0_ADDRESS = 0;
 515:.\driver\src/i2c_va108xx.c ****   	i2c->reg->S0_ADDRESS |= ((i2c->info.slv_addr)<<I2C_ADDR_BITS);
 516:.\driver\src/i2c_va108xx.c ****   	// Configure Direction
 517:.\driver\src/i2c_va108xx.c **** 	  if(i2c->info.status.direction)
 518:.\driver\src/i2c_va108xx.c ****   		i2c->reg->S0_ADDRESS |= ((i2c->info.status.direction & 1)<<I2C_ADDR_DIR);
 519:.\driver\src/i2c_va108xx.c ****   	// Configure Address Mode
 520:.\driver\src/i2c_va108xx.c ****   	if(i2c->info.addr_mode)
 521:.\driver\src/i2c_va108xx.c **** 		  i2c->reg->S0_ADDRESS |= ((i2c->info.addr_mode & 1)<<I2C_ADDR_MODE);
 522:.\driver\src/i2c_va108xx.c **** 	  // Configure RX FIFO TRG
 523:.\driver\src/i2c_va108xx.c **** 	  if(i2c->info.rxfifotrg)
 524:.\driver\src/i2c_va108xx.c ****   		i2c->reg->S0_RXFIFOIRQTRG = i2c->info.rxfifotrg;
 525:.\driver\src/i2c_va108xx.c ****   	// Configure TX FIFO TRG
 526:.\driver\src/i2c_va108xx.c ****   	if(i2c->info.txfifotrg)
 527:.\driver\src/i2c_va108xx.c **** 		  i2c->reg->S0_TXFIFOIRQTRG = i2c->info.txfifotrg;
 528:.\driver\src/i2c_va108xx.c ****     // Clear TX Fifo
 529:.\driver\src/i2c_va108xx.c ****   	i2c->reg->S0_FIFO_CLR = 0x3;
 530:.\driver\src/i2c_va108xx.c **** 	  i2c->reg->S0_FIFO_CLR = 0x0;
 531:.\driver\src/i2c_va108xx.c ****   }	
 532:.\driver\src/i2c_va108xx.c ****   return VOR_DRIVER_OK;						
 533:.\driver\src/i2c_va108xx.c **** }
 296              		.loc 1 533 0
 297 00ca 0020     		movs	r0, #0	@,
 298              		@ sp needed	@
 299 00cc FEBD     		pop	{r1, r2, r3, r4, r5, r6, r7, pc}
 300              	.LVL11:
 301              	.L2:
 302              	@ .\driver\src\i2c_va108xx.c:450: 		i2c->reg->CTRL &=  ~I2C_PERIPHERAL_CTRL_ENABLE_Msk;
 450:.\driver\src/i2c_va108xx.c ****   }
 303              		.loc 1 450 0
 304 00ce 3868     		ldr	r0, [r7]	@ _6, pretmp_52->CTRL
 305 00d0 9843     		bics	r0, r3	@ _7, tmp266
 306 00d2 3860     		str	r0, [r7]	@ _7, pretmp_52->CTRL
 307              	@ .\driver\src\i2c_va108xx.c:503: 	  if(i2c->info.txfemd)	
 503:.\driver\src/i2c_va108xx.c **** 		  control |= ((i2c->info.txfemd & 1)<<I2C_PERIPHERAL_S0_CTRL_TXFEMD_Pos);
 308              		.loc 1 503 0
 309 00d4 002C     		cmp	r4, #0	@ pretmp_23,
 310 00d6 30D1     		bne	.L5	@,
 311              	.LVL12:
 312              	.L6:
 313              	@ .\driver\src\i2c_va108xx.c:506: 	  if(i2c->info.rxffmd)
 506:.\driver\src/i2c_va108xx.c **** 	  {
 314              		.loc 1 506 0
 315 00d8 506B     		ldr	r0, [r2, #52]	@ _49, i2c_90(D)->info.rxffmd
ARM GAS  C:\Users\claym\AppData\Local\Temp\ccxpUFUu.s 			page 16


 316 00da 0028     		cmp	r0, #0	@ _49,
 317 00dc 03D0     		beq	.L18	@,
 318              	@ .\driver\src\i2c_va108xx.c:508:   		control |= ((i2c->info.rxffmd & 1)<<I2C_PERIPHERAL_S0_CTRL_RX
 508:.\driver\src/i2c_va108xx.c **** 	  }
 319              		.loc 1 508 0
 320 00de 1024     		movs	r4, #16	@ tmp230,
 321 00e0 0001     		lsls	r0, r0, #4	@ tmp228, _49,
 322 00e2 2040     		ands	r0, r4	@ tmp229, tmp230
 323 00e4 0343     		orrs	r3, r0	@ control, tmp229
 324              	.LVL13:
 325              	.L18:
 326              	@ .\driver\src\i2c_va108xx.c:510: 		i2c->reg->S0_CTRL = control;
 510:.\driver\src/i2c_va108xx.c ****   	// Configure Number of bytes
 327              		.loc 1 510 0
 328 00e6 6B60     		str	r3, [r5, #4]	@ control, pretmp_52->S0_CTRL
 329              	@ .\driver\src\i2c_va108xx.c:514:   	i2c->reg->S0_ADDRESS = 0;
 514:.\driver\src/i2c_va108xx.c ****   	i2c->reg->S0_ADDRESS |= ((i2c->info.slv_addr)<<I2C_ADDR_BITS);
 330              		.loc 1 514 0
 331 00e8 0023     		movs	r3, #0	@ tmp234,
 332              	.LVL14:
 333              	@ .\driver\src\i2c_va108xx.c:512:   	i2c->reg->S0_MAXWORDS = num;
 512:.\driver\src/i2c_va108xx.c ****   	// Configure Address
 334              		.loc 1 512 0
 335 00ea A960     		str	r1, [r5, #8]	@ num, pretmp_52->S0_MAXWORDS
 336              	.LVL15:
 337              	@ .\driver\src\i2c_va108xx.c:514:   	i2c->reg->S0_ADDRESS = 0;
 514:.\driver\src/i2c_va108xx.c ****   	i2c->reg->S0_ADDRESS |= ((i2c->info.slv_addr)<<I2C_ADDR_BITS);
 338              		.loc 1 514 0
 339 00ec EB60     		str	r3, [r5, #12]	@ tmp234, pretmp_52->S0_ADDRESS
 340              	@ .\driver\src\i2c_va108xx.c:515:   	i2c->reg->S0_ADDRESS |= ((i2c->info.slv_addr)<<I2C_ADDR_BITS);
 515:.\driver\src/i2c_va108xx.c ****   	// Configure Direction
 341              		.loc 1 515 0
 342 00ee 536A     		ldr	r3, [r2, #36]	@ tmp278, i2c_90(D)->info.slv_addr
 343 00f0 E968     		ldr	r1, [r5, #12]	@ _53, pretmp_52->S0_ADDRESS
 344              	.LVL16:
 345 00f2 5B00     		lsls	r3, r3, #1	@ tmp236, tmp278,
 346 00f4 0B43     		orrs	r3, r1	@ _56, _53
 347 00f6 EB60     		str	r3, [r5, #12]	@ _56, pretmp_52->S0_ADDRESS
 348              	@ .\driver\src\i2c_va108xx.c:517: 	  if(i2c->info.status.direction)
 517:.\driver\src/i2c_va108xx.c ****   		i2c->reg->S0_ADDRESS |= ((i2c->info.status.direction & 1)<<I2C_ADDR_DIR);
 349              		.loc 1 517 0
 350 00f8 F307     		lsls	r3, r6, #31	@ tmp271, *i2c_90(D),
 351 00fa 04D5     		bpl	.L19	@,
 352              	@ .\driver\src\i2c_va108xx.c:518:   		i2c->reg->S0_ADDRESS |= ((i2c->info.status.direction & 1)<<I2
 518:.\driver\src/i2c_va108xx.c ****   	// Configure Address Mode
 353              		.loc 1 518 0
 354 00fc E968     		ldr	r1, [r5, #12]	@ _59, pretmp_52->S0_ADDRESS
 355 00fe F307     		lsls	r3, r6, #31	@ tmp250, *i2c_90(D),
 356 0100 DB0F     		lsrs	r3, r3, #31	@ tmp251, tmp250,
 357 0102 0B43     		orrs	r3, r1	@ _62, _59
 358 0104 EB60     		str	r3, [r5, #12]	@ _62, pretmp_52->S0_ADDRESS
 359              	.L19:
 360              	@ .\driver\src\i2c_va108xx.c:520:   	if(i2c->info.addr_mode)
 520:.\driver\src/i2c_va108xx.c **** 		  i2c->reg->S0_ADDRESS |= ((i2c->info.addr_mode & 1)<<I2C_ADDR_MODE);
 361              		.loc 1 520 0
 362 0106 936A     		ldr	r3, [r2, #40]	@ _63, i2c_90(D)->info.addr_mode
 363 0108 002B     		cmp	r3, #0	@ _63,
ARM GAS  C:\Users\claym\AppData\Local\Temp\ccxpUFUu.s 			page 17


 364 010a 04D0     		beq	.L20	@,
 365              	@ .\driver\src\i2c_va108xx.c:521: 		  i2c->reg->S0_ADDRESS |= ((i2c->info.addr_mode & 1)<<I2C_ADDR_
 521:.\driver\src/i2c_va108xx.c **** 	  // Configure RX FIFO TRG
 366              		.loc 1 521 0
 367 010c E968     		ldr	r1, [r5, #12]	@ _64, pretmp_52->S0_ADDRESS
 368 010e DB07     		lsls	r3, r3, #31	@ tmp256, _63,
 369 0110 1B0C     		lsrs	r3, r3, #16	@ tmp255, tmp256,
 370 0112 0B43     		orrs	r3, r1	@ _67, _64
 371 0114 EB60     		str	r3, [r5, #12]	@ _67, pretmp_52->S0_ADDRESS
 372              	.L20:
 373              	@ .\driver\src\i2c_va108xx.c:523: 	  if(i2c->info.rxfifotrg)
 523:.\driver\src/i2c_va108xx.c ****   		i2c->reg->S0_RXFIFOIRQTRG = i2c->info.rxfifotrg;
 374              		.loc 1 523 0
 375 0116 136C     		ldr	r3, [r2, #64]	@ _68, i2c_90(D)->info.rxfifotrg
 376 0118 002B     		cmp	r3, #0	@ _68,
 377 011a 00D0     		beq	.L21	@,
 378              	@ .\driver\src\i2c_va108xx.c:524:   		i2c->reg->S0_RXFIFOIRQTRG = i2c->info.rxfifotrg;
 524:.\driver\src/i2c_va108xx.c ****   	// Configure TX FIFO TRG
 379              		.loc 1 524 0
 380 011c EB63     		str	r3, [r5, #60]	@ _68, pretmp_52->S0_RXFIFOIRQTRG
 381              	.L21:
 382              	@ .\driver\src\i2c_va108xx.c:526:   	if(i2c->info.txfifotrg)
 526:.\driver\src/i2c_va108xx.c **** 		  i2c->reg->S0_TXFIFOIRQTRG = i2c->info.txfifotrg;
 383              		.loc 1 526 0
 384 011e 536C     		ldr	r3, [r2, #68]	@ _69, i2c_90(D)->info.txfifotrg
 385 0120 002B     		cmp	r3, #0	@ _69,
 386 0122 00D0     		beq	.L22	@,
 387              	@ .\driver\src\i2c_va108xx.c:527: 		  i2c->reg->S0_TXFIFOIRQTRG = i2c->info.txfifotrg;
 527:.\driver\src/i2c_va108xx.c ****     // Clear TX Fifo
 388              		.loc 1 527 0
 389 0124 2B64     		str	r3, [r5, #64]	@ _69, pretmp_52->S0_TXFIFOIRQTRG
 390              	.L22:
 391              	@ .\driver\src\i2c_va108xx.c:529:   	i2c->reg->S0_FIFO_CLR = 0x3;
 529:.\driver\src/i2c_va108xx.c **** 	  i2c->reg->S0_FIFO_CLR = 0x0;
 392              		.loc 1 529 0
 393 0126 0323     		movs	r3, #3	@ tmp261,
 394 0128 6B64     		str	r3, [r5, #68]	@ tmp261, pretmp_52->S0_FIFO_CLR
 395              	@ .\driver\src\i2c_va108xx.c:530: 	  i2c->reg->S0_FIFO_CLR = 0x0;
 530:.\driver\src/i2c_va108xx.c ****   }	
 396              		.loc 1 530 0
 397 012a 0023     		movs	r3, #0	@ tmp263,
 398 012c 6B64     		str	r3, [r5, #68]	@ tmp263, pretmp_52->S0_FIFO_CLR
 399 012e CCE7     		b	.L17	@
 400              	.LVL17:
 401              	.L3:
 402              	@ .\driver\src\i2c_va108xx.c:456: 			control |= ((i2c->info.txfemd & 1)<<I2C_PERIPHERAL_CTRL_TXFEMD
 456:.\driver\src/i2c_va108xx.c **** 	  // Configure RXFFMD
 403              		.loc 1 456 0
 404 0130 0825     		movs	r5, #8	@ tmp189,
 405 0132 E400     		lsls	r4, r4, #3	@ tmp187, pretmp_23,
 406 0134 2C40     		ands	r4, r5	@ tmp188, tmp189
 407 0136 2343     		orrs	r3, r4	@ control, tmp188
 408              	.LVL18:
 409 0138 75E7     		b	.L4	@
 410              	.LVL19:
 411              	.L5:
 412              	@ .\driver\src\i2c_va108xx.c:504: 		  control |= ((i2c->info.txfemd & 1)<<I2C_PERIPHERAL_S0_CTRL_TX
ARM GAS  C:\Users\claym\AppData\Local\Temp\ccxpUFUu.s 			page 18


 504:.\driver\src/i2c_va108xx.c **** 	  // Configure RXFFMD
 413              		.loc 1 504 0
 414 013a 0820     		movs	r0, #8	@ tmp226,
 415 013c E400     		lsls	r4, r4, #3	@ tmp224, pretmp_23,
 416 013e 0440     		ands	r4, r0	@ tmp225, tmp226
 417 0140 2343     		orrs	r3, r4	@ control, tmp225
 418              	.LVL20:
 419 0142 C9E7     		b	.L6	@
 420              	.L69:
 421              		.align	2
 422              	.L68:
 423 0144 FFFDFFFF 		.word	-513
 424              		.cfi_endproc
 425              	.LFE58:
 426              		.size	VOR_I2C_Setup, .-VOR_I2C_Setup
 427              		.align	1
 428              		.syntax unified
 429              		.code	16
 430              		.thumb_func
 431              		.fpu softvfp
 432              		.type	VOR_I2C_Stop, %function
 433              	VOR_I2C_Stop:
 434              	.LFB59:
 534:.\driver\src/i2c_va108xx.c **** 
 535:.\driver\src/i2c_va108xx.c **** /**
 536:.\driver\src/i2c_va108xx.c ****   function:    int32_t VOR_I2C_Stop (I2C_RESOURCES *i2c)
 537:.\driver\src/i2c_va108xx.c ****   brief:       Stop I2C
 538:.\driver\src/i2c_va108xx.c ****   Input:       i2c           Pointer to I2C resources
 539:.\driver\src/i2c_va108xx.c ****   return:      execution_status
 540:.\driver\src/i2c_va108xx.c **** */
 541:.\driver\src/i2c_va108xx.c **** static int32_t VOR_I2C_Stop (I2C_RESOURCES *i2c) 
 542:.\driver\src/i2c_va108xx.c **** {
 435              		.loc 1 542 0
 436              		.cfi_startproc
 437              		@ args = 0, pretend = 0, frame = 0
 438              		@ frame_needed = 0, uses_anonymous_args = 0
 439              	.LVL21:
 440              	@ .\driver\src\i2c_va108xx.c:543: 	i2c->reg->CMD |= I2C_CMD_STOP;
 543:.\driver\src/i2c_va108xx.c **** 	i2c->reg->CMD |= I2C_CMD_STOP;
 441              		.loc 1 543 0
 442 0148 0223     		movs	r3, #2	@ tmp118,
 443              	@ .\driver\src\i2c_va108xx.c:542: {
 542:.\driver\src/i2c_va108xx.c **** 	i2c->reg->CMD |= I2C_CMD_STOP;
 444              		.loc 1 542 0
 445 014a 10B5     		push	{r4, lr}	@
 446              	.LCFI1:
 447              		.cfi_def_cfa_offset 8
 448              		.cfi_offset 4, -8
 449              		.cfi_offset 14, -4
 450              	@ .\driver\src\i2c_va108xx.c:542: {
 542:.\driver\src/i2c_va108xx.c **** 	i2c->reg->CMD |= I2C_CMD_STOP;
 451              		.loc 1 542 0
 452 014c 0400     		movs	r4, r0	@ i2c, i2c
 453              	@ .\driver\src\i2c_va108xx.c:543: 	i2c->reg->CMD |= I2C_CMD_STOP;
 454              		.loc 1 543 0
 455 014e 4268     		ldr	r2, [r0, #4]	@ _1, i2c_8(D)->reg
 456              	@ .\driver\src\i2c_va108xx.c:544: 	VOR_Sleep(1);
ARM GAS  C:\Users\claym\AppData\Local\Temp\ccxpUFUu.s 			page 19


 544:.\driver\src/i2c_va108xx.c **** 	VOR_Sleep(1);
 457              		.loc 1 544 0
 458 0150 0120     		movs	r0, #1	@,
 459              	.LVL22:
 460              	@ .\driver\src\i2c_va108xx.c:543: 	i2c->reg->CMD |= I2C_CMD_STOP;
 543:.\driver\src/i2c_va108xx.c **** 	i2c->reg->CMD |= I2C_CMD_STOP;
 461              		.loc 1 543 0
 462 0152 5169     		ldr	r1, [r2, #20]	@ _2, _1->CMD
 463 0154 0B43     		orrs	r3, r1	@ _3, _2
 464 0156 5361     		str	r3, [r2, #20]	@ _3, _1->CMD
 465              	@ .\driver\src\i2c_va108xx.c:544: 	VOR_Sleep(1);
 466              		.loc 1 544 0
 467 0158 FFF7FEFF 		bl	VOR_Sleep	@
 468              	.LVL23:
 469              	@ .\driver\src\i2c_va108xx.c:545:   i2c->reg->CTRL    = 0;
 545:.\driver\src/i2c_va108xx.c ****   i2c->reg->CTRL    = 0;
 470              		.loc 1 545 0
 471 015c 6268     		ldr	r2, [r4, #4]	@ _4, i2c_8(D)->reg
 472 015e 0023     		movs	r3, #0	@ tmp119,
 473              	@ .\driver\src\i2c_va108xx.c:546:   i2c->reg->S0_CTRL = 0;
 546:.\driver\src/i2c_va108xx.c ****   i2c->reg->S0_CTRL = 0;
 474              		.loc 1 546 0
 475 0160 1100     		movs	r1, r2	@ tmp120, _4
 476              	@ .\driver\src\i2c_va108xx.c:549:   if(i2c->info.status.mode == I2C_MODE_MASTER) {
 547:.\driver\src/i2c_va108xx.c **** 	
 548:.\driver\src/i2c_va108xx.c **** 	
 549:.\driver\src/i2c_va108xx.c ****   if(i2c->info.status.mode == I2C_MODE_MASTER) {
 477              		.loc 1 549 0
 478 0162 647C     		ldrb	r4, [r4, #17]	@ *i2c_8(D), *i2c_8(D)
 479              	.LVL24:
 480              	@ .\driver\src\i2c_va108xx.c:546:   i2c->reg->S0_CTRL = 0;
 546:.\driver\src/i2c_va108xx.c ****   i2c->reg->S0_CTRL = 0;
 481              		.loc 1 546 0
 482 0164 FC31     		adds	r1, r1, #252	@ tmp120,
 483              	@ .\driver\src\i2c_va108xx.c:545:   i2c->reg->CTRL    = 0;
 545:.\driver\src/i2c_va108xx.c ****   i2c->reg->S0_CTRL = 0;
 484              		.loc 1 545 0
 485 0166 1360     		str	r3, [r2]	@ tmp119, _4->CTRL
 486 0168 0320     		movs	r0, #3	@ tmp136,
 487              	@ .\driver\src\i2c_va108xx.c:546:   i2c->reg->S0_CTRL = 0;
 546:.\driver\src/i2c_va108xx.c ****   i2c->reg->S0_CTRL = 0;
 488              		.loc 1 546 0
 489 016a 4B60     		str	r3, [r1, #4]	@ tmp119, _4->S0_CTRL
 490              	@ .\driver\src\i2c_va108xx.c:549:   if(i2c->info.status.mode == I2C_MODE_MASTER) {
 491              		.loc 1 549 0
 492 016c 7F2C     		cmp	r4, #127	@ *i2c_8(D),
 493 016e 05D9     		bls	.L71	@,
 494              	@ .\driver\src\i2c_va108xx.c:551: 	i2c->reg->WORDS = 0;
 550:.\driver\src/i2c_va108xx.c ****  	// Configure Number of bytes
 551:.\driver\src/i2c_va108xx.c **** 	i2c->reg->WORDS = 0;
 495              		.loc 1 551 0
 496 0170 9360     		str	r3, [r2, #8]	@ tmp119, _4->WORDS
 497              	@ .\driver\src\i2c_va108xx.c:553: 	i2c->reg->ADDRESS = 0;
 552:.\driver\src/i2c_va108xx.c **** 	// Configure Address
 553:.\driver\src/i2c_va108xx.c **** 	i2c->reg->ADDRESS = 0;
 498              		.loc 1 553 0
 499 0172 D360     		str	r3, [r2, #12]	@ tmp119, _4->ADDRESS
ARM GAS  C:\Users\claym\AppData\Local\Temp\ccxpUFUu.s 			page 20


 500              	@ .\driver\src\i2c_va108xx.c:555: 	i2c->reg->FIFO_CLR = 0x3;
 554:.\driver\src/i2c_va108xx.c ****     // Clear TX Fifo
 555:.\driver\src/i2c_va108xx.c **** 	i2c->reg->FIFO_CLR = 0x3;
 501              		.loc 1 555 0
 502 0174 1064     		str	r0, [r2, #64]	@ tmp136, _4->FIFO_CLR
 503              	@ .\driver\src\i2c_va108xx.c:556: 	i2c->reg->FIFO_CLR = 0x0;
 556:.\driver\src/i2c_va108xx.c **** 	i2c->reg->FIFO_CLR = 0x0;
 504              		.loc 1 556 0
 505 0176 1364     		str	r3, [r2, #64]	@ tmp119, _4->FIFO_CLR
 506              	.L72:
 507              	@ .\driver\src\i2c_va108xx.c:567: }
 557:.\driver\src/i2c_va108xx.c **** 
 558:.\driver\src/i2c_va108xx.c ****   } else {
 559:.\driver\src/i2c_va108xx.c **** 	i2c->reg->S0_MAXWORDS = 0;
 560:.\driver\src/i2c_va108xx.c **** 	// Configure Address
 561:.\driver\src/i2c_va108xx.c **** 	i2c->reg->S0_ADDRESS = 0;
 562:.\driver\src/i2c_va108xx.c ****     // Clear TX Fifo
 563:.\driver\src/i2c_va108xx.c **** 	i2c->reg->S0_FIFO_CLR = 0x3;
 564:.\driver\src/i2c_va108xx.c **** 	i2c->reg->S0_FIFO_CLR = 0x0;
 565:.\driver\src/i2c_va108xx.c ****   }	
 566:.\driver\src/i2c_va108xx.c ****   return VOR_DRIVER_OK;						
 567:.\driver\src/i2c_va108xx.c **** }
 508              		.loc 1 567 0
 509 0178 0020     		movs	r0, #0	@,
 510              		@ sp needed	@
 511 017a 10BD     		pop	{r4, pc}
 512              	.L71:
 513              	@ .\driver\src\i2c_va108xx.c:559: 	i2c->reg->S0_MAXWORDS = 0;
 559:.\driver\src/i2c_va108xx.c **** 	// Configure Address
 514              		.loc 1 559 0
 515 017c 8B60     		str	r3, [r1, #8]	@ tmp119, _4->S0_MAXWORDS
 516              	@ .\driver\src\i2c_va108xx.c:561: 	i2c->reg->S0_ADDRESS = 0;
 561:.\driver\src/i2c_va108xx.c ****     // Clear TX Fifo
 517              		.loc 1 561 0
 518 017e CB60     		str	r3, [r1, #12]	@ tmp119, _4->S0_ADDRESS
 519              	@ .\driver\src\i2c_va108xx.c:563: 	i2c->reg->S0_FIFO_CLR = 0x3;
 563:.\driver\src/i2c_va108xx.c **** 	i2c->reg->S0_FIFO_CLR = 0x0;
 520              		.loc 1 563 0
 521 0180 4864     		str	r0, [r1, #68]	@ tmp136, _4->S0_FIFO_CLR
 522              	@ .\driver\src\i2c_va108xx.c:564: 	i2c->reg->S0_FIFO_CLR = 0x0;
 564:.\driver\src/i2c_va108xx.c ****   }	
 523              		.loc 1 564 0
 524 0182 4B64     		str	r3, [r1, #68]	@ tmp119, _4->S0_FIFO_CLR
 525 0184 F8E7     		b	.L72	@
 526              		.cfi_endproc
 527              	.LFE59:
 528              		.size	VOR_I2C_Stop, .-VOR_I2C_Stop
 529              		.align	1
 530              		.global	VOR_I2Cx_GetVersion
 531              		.syntax unified
 532              		.code	16
 533              		.thumb_func
 534              		.fpu softvfp
 535              		.type	VOR_I2Cx_GetVersion, %function
 536              	VOR_I2Cx_GetVersion:
 537              	.LFB37:
  48:.\driver\src/i2c_va108xx.c ****   return i2c_driver_version;
ARM GAS  C:\Users\claym\AppData\Local\Temp\ccxpUFUu.s 			page 21


 538              		.loc 1 48 0
 539              		.cfi_startproc
 540              		@ args = 0, pretend = 0, frame = 8
 541              		@ frame_needed = 0, uses_anonymous_args = 0
 542 0186 13B5     		push	{r0, r1, r4, lr}	@
 543              	.LCFI2:
 544              		.cfi_def_cfa_offset 16
 545              		.cfi_offset 0, -16
 546              		.cfi_offset 1, -12
 547              		.cfi_offset 4, -8
 548              		.cfi_offset 14, -4
 549              	@ .\driver\src\i2c_va108xx.c:49:   return i2c_driver_version;
  49:.\driver\src/i2c_va108xx.c **** }
 550              		.loc 1 49 0
 551 0188 01AC     		add	r4, sp, #4	@ tmp111,,
 552 018a 0422     		movs	r2, #4	@,
 553 018c 0449     		ldr	r1, .L74	@,
 554 018e 2000     		movs	r0, r4	@, tmp111
 555 0190 FFF7FEFF 		bl	memcpy	@
 556              	.LVL25:
 557 0194 6388     		ldrh	r3, [r4, #2]	@ D.6665, D.6665
 558 0196 2088     		ldrh	r0, [r4]	@ tmp128, D.6665
 559 0198 1B04     		lsls	r3, r3, #16	@ tmp127, D.6665,
 560 019a 1843     		orrs	r0, r3	@ tmp130, tmp127
 561              	@ .\driver\src\i2c_va108xx.c:50: }
  50:.\driver\src/i2c_va108xx.c **** 
 562              		.loc 1 50 0
 563              		@ sp needed	@
 564 019c 16BD     		pop	{r1, r2, r4, pc}
 565              	.L75:
 566 019e C046     		.align	2
 567              	.L74:
 568 01a0 00000000 		.word	.LANCHOR0
 569              		.cfi_endproc
 570              	.LFE37:
 571              		.size	VOR_I2Cx_GetVersion, .-VOR_I2Cx_GetVersion
 572              		.align	1
 573              		.global	VOR_I2C_Initialize
 574              		.syntax unified
 575              		.code	16
 576              		.thumb_func
 577              		.fpu softvfp
 578              		.type	VOR_I2C_Initialize, %function
 579              	VOR_I2C_Initialize:
 580              	.LFB38:
  61:.\driver\src/i2c_va108xx.c **** 
 581              		.loc 1 61 0
 582              		.cfi_startproc
 583              		@ args = 0, pretend = 0, frame = 0
 584              		@ frame_needed = 0, uses_anonymous_args = 0
 585              	.LVL26:
 586 01a4 70B5     		push	{r4, r5, r6, lr}	@
 587              	.LCFI3:
 588              		.cfi_def_cfa_offset 16
 589              		.cfi_offset 4, -16
 590              		.cfi_offset 5, -12
 591              		.cfi_offset 6, -8
ARM GAS  C:\Users\claym\AppData\Local\Temp\ccxpUFUu.s 			page 22


 592              		.cfi_offset 14, -4
 593              	@ .\driver\src\i2c_va108xx.c:61: int32_t VOR_I2C_Initialize (VOR_I2C_SignalEvent_t cb_event, I2C_RE
  61:.\driver\src/i2c_va108xx.c **** 
 594              		.loc 1 61 0
 595 01a6 0C1E     		subs	r4, r1, #0	@ i2c, i2c,
 596              	@ .\driver\src\i2c_va108xx.c:63:   if((i2c == NULL) || (i2c->reg ==NULL))
  63:.\driver\src/i2c_va108xx.c **** 	return VOR_DRIVER_ERROR_PARAMETER;
 597              		.loc 1 63 0
 598 01a8 17D0     		beq	.L79	@,
 599              	@ .\driver\src\i2c_va108xx.c:63:   if((i2c == NULL) || (i2c->reg ==NULL))
  63:.\driver\src/i2c_va108xx.c **** 	return VOR_DRIVER_ERROR_PARAMETER;
 600              		.loc 1 63 0 is_stmt 0 discriminator 1
 601 01aa 4B68     		ldr	r3, [r1, #4]	@ tmp142, i2c_10(D)->reg
 602 01ac 002B     		cmp	r3, #0	@ tmp142,
 603 01ae 14D0     		beq	.L79	@,
 604              	@ .\driver\src\i2c_va108xx.c:66:   if (i2c->info.flags & I2C_FLAG_INIT) {
  66:.\driver\src/i2c_va108xx.c ****     /* Driver already initialized */
 605              		.loc 1 66 0 is_stmt 1
 606 01b0 0123     		movs	r3, #1	@ tmp123,
 607 01b2 4D69     		ldr	r5, [r1, #20]	@ tmp121, i2c_10(D)->info.flags
 608 01b4 1D40     		ands	r5, r3	@ tmp121, tmp123
 609 01b6 13D1     		bne	.L80	@,
 610              	@ .\driver\src\i2c_va108xx.c:73:   i2c->info.cb_event = cb_event;
  73:.\driver\src/i2c_va108xx.c **** 
 611              		.loc 1 73 0
 612 01b8 C860     		str	r0, [r1, #12]	@ cb_event, i2c_10(D)->info.cb_event
 613              	@ .\driver\src\i2c_va108xx.c:76:   memset(&i2c->info.status, 0, sizeof(VOR_I2C_STATUS));
  76:.\driver\src/i2c_va108xx.c **** 
 614              		.loc 1 76 0
 615 01ba 0800     		movs	r0, r1	@ tmp125, i2c
 616              	.LVL27:
 617              	@ .\driver\src\i2c_va108xx.c:70:   i2c->info.flags = I2C_FLAG_INIT;
  70:.\driver\src/i2c_va108xx.c **** 
 618              		.loc 1 70 0
 619 01bc 4B61     		str	r3, [r1, #20]	@ tmp123, i2c_10(D)->info.flags
 620              	@ .\driver\src\i2c_va108xx.c:76:   memset(&i2c->info.status, 0, sizeof(VOR_I2C_STATUS));
  76:.\driver\src/i2c_va108xx.c **** 
 621              		.loc 1 76 0
 622 01be 0422     		movs	r2, #4	@,
 623 01c0 2900     		movs	r1, r5	@, tmp121
 624              	.LVL28:
 625 01c2 1030     		adds	r0, r0, #16	@ tmp125,
 626              	.LVL29:
 627 01c4 FFF7FEFF 		bl	memset	@
 628              	.LVL30:
 629              	@ .\driver\src\i2c_va108xx.c:79: 	VOR_SYSCONFIG->PERIPHERAL_CLK_ENABLE |=  i2c->i2cClkEn; 
  79:.\driver\src/i2c_va108xx.c **** 	
 630              		.loc 1 79 0
 631 01c8 8022     		movs	r2, #128	@ tmp131,
 632              	@ .\driver\src\i2c_va108xx.c:81:   return VOR_DRIVER_OK;
  81:.\driver\src/i2c_va108xx.c **** }
 633              		.loc 1 81 0
 634 01ca 2800     		movs	r0, r5	@ <retval>, tmp121
 635              	@ .\driver\src\i2c_va108xx.c:79: 	VOR_SYSCONFIG->PERIPHERAL_CLK_ENABLE |=  i2c->i2cClkEn; 
  79:.\driver\src/i2c_va108xx.c **** 	
 636              		.loc 1 79 0
 637 01cc D205     		lsls	r2, r2, #23	@ tmp131, tmp131,
ARM GAS  C:\Users\claym\AppData\Local\Temp\ccxpUFUu.s 			page 23


 638 01ce E434     		adds	r4, r4, #228	@ tmp134,
 639              	.LVL31:
 640 01d0 D36F     		ldr	r3, [r2, #124]	@ _5, MEM[(struct VOR_SYSCONFIG_Type *)1073741824B].PERIPHERAL_CLK_ENABLE
 641 01d2 2168     		ldr	r1, [r4]	@ i2c_10(D)->i2cClkEn, i2c_10(D)->i2cClkEn
 642 01d4 0B43     		orrs	r3, r1	@ _7, i2c_10(D)->i2cClkEn
 643 01d6 D367     		str	r3, [r2, #124]	@ _7, MEM[(struct VOR_SYSCONFIG_Type *)1073741824B].PERIPHERAL_CLK_ENABLE
 644              	.LVL32:
 645              	.L76:
 646              	@ .\driver\src\i2c_va108xx.c:82: }
  82:.\driver\src/i2c_va108xx.c **** 
 647              		.loc 1 82 0
 648              		@ sp needed	@
 649 01d8 70BD     		pop	{r4, r5, r6, pc}
 650              	.LVL33:
 651              	.L79:
 652              	@ .\driver\src\i2c_va108xx.c:64: 	return VOR_DRIVER_ERROR_PARAMETER;
  64:.\driver\src/i2c_va108xx.c **** 
 653              		.loc 1 64 0
 654 01da 0520     		movs	r0, #5	@ <retval>,
 655              	.LVL34:
 656              	.L81:
 657              	@ .\driver\src\i2c_va108xx.c:68:     return VOR_I2C_ERROR_MULTIPLEINIT;
  68:.\driver\src/i2c_va108xx.c ****   }
 658              		.loc 1 68 0
 659 01dc 4042     		rsbs	r0, r0, #0	@ <retval>, <retval>
 660 01de FBE7     		b	.L76	@
 661              	.LVL35:
 662              	.L80:
 663 01e0 0B20     		movs	r0, #11	@ <retval>,
 664              	.LVL36:
 665 01e2 FBE7     		b	.L81	@
 666              		.cfi_endproc
 667              	.LFE38:
 668              		.size	VOR_I2C_Initialize, .-VOR_I2C_Initialize
 669              		.align	1
 670              		.global	VOR_I2C_Uninitialize
 671              		.syntax unified
 672              		.code	16
 673              		.thumb_func
 674              		.fpu softvfp
 675              		.type	VOR_I2C_Uninitialize, %function
 676              	VOR_I2C_Uninitialize:
 677              	.LFB39:
  90:.\driver\src/i2c_va108xx.c **** 
 678              		.loc 1 90 0
 679              		.cfi_startproc
 680              		@ args = 0, pretend = 0, frame = 0
 681              		@ frame_needed = 0, uses_anonymous_args = 0
 682              		@ link register save eliminated.
 683              	.LVL37:
 684              	@ .\driver\src\i2c_va108xx.c:92:   if (!(i2c->info.flags & I2C_FLAG_INIT)) {
  92:.\driver\src/i2c_va108xx.c ****     /* Driver not initialized */
 685              		.loc 1 92 0
 686 01e4 4369     		ldr	r3, [r0, #20]	@ tmp133, i2c_9(D)->info.flags
 687 01e6 DB07     		lsls	r3, r3, #31	@ tmp132, tmp133,
 688 01e8 09D5     		bpl	.L83	@,
 689              	@ .\driver\src\i2c_va108xx.c:96:   i2c->info.flags = 0;
ARM GAS  C:\Users\claym\AppData\Local\Temp\ccxpUFUu.s 			page 24


  96:.\driver\src/i2c_va108xx.c ****   i2c->info.cb_event = NULL;
 690              		.loc 1 96 0
 691 01ea 0023     		movs	r3, #0	@ tmp121,
 692              	@ .\driver\src\i2c_va108xx.c:99:   VOR_SYSCONFIG->PERIPHERAL_CLK_ENABLE &=  ~i2c->i2cClkEn; 
  99:.\driver\src/i2c_va108xx.c ****   return VOR_DRIVER_OK;
 693              		.loc 1 99 0
 694 01ec 8022     		movs	r2, #128	@ tmp123,
 695              	@ .\driver\src\i2c_va108xx.c:96:   i2c->info.flags = 0;
  96:.\driver\src/i2c_va108xx.c ****   i2c->info.cb_event = NULL;
 696              		.loc 1 96 0
 697 01ee 4361     		str	r3, [r0, #20]	@ tmp121, i2c_9(D)->info.flags
 698              	@ .\driver\src\i2c_va108xx.c:97:   i2c->info.cb_event = NULL;
  97:.\driver\src/i2c_va108xx.c **** 
 699              		.loc 1 97 0
 700 01f0 C360     		str	r3, [r0, #12]	@ tmp121, i2c_9(D)->info.cb_event
 701              	@ .\driver\src\i2c_va108xx.c:99:   VOR_SYSCONFIG->PERIPHERAL_CLK_ENABLE &=  ~i2c->i2cClkEn; 
  99:.\driver\src/i2c_va108xx.c ****   return VOR_DRIVER_OK;
 702              		.loc 1 99 0
 703 01f2 D205     		lsls	r2, r2, #23	@ tmp123, tmp123,
 704 01f4 E430     		adds	r0, r0, #228	@ tmp126,
 705              	.LVL38:
 706 01f6 D36F     		ldr	r3, [r2, #124]	@ _3, MEM[(struct VOR_SYSCONFIG_Type *)1073741824B].PERIPHERAL_CLK_ENABLE
 707 01f8 0168     		ldr	r1, [r0]	@ i2c_9(D)->i2cClkEn, i2c_9(D)->i2cClkEn
 708 01fa 8B43     		bics	r3, r1	@ _6, i2c_9(D)->i2cClkEn
 709 01fc D367     		str	r3, [r2, #124]	@ _6, MEM[(struct VOR_SYSCONFIG_Type *)1073741824B].PERIPHERAL_CLK_ENABLE
 710              	.LVL39:
 711              	.L83:
 712              	@ .\driver\src\i2c_va108xx.c:101: }
 101:.\driver\src/i2c_va108xx.c **** 
 713              		.loc 1 101 0
 714 01fe 0020     		movs	r0, #0	@,
 715              		@ sp needed	@
 716 0200 7047     		bx	lr
 717              		.cfi_endproc
 718              	.LFE39:
 719              		.size	VOR_I2C_Uninitialize, .-VOR_I2C_Uninitialize
 720              		.align	1
 721              		.global	VOR_I2C_abort_transfer
 722              		.syntax unified
 723              		.code	16
 724              		.thumb_func
 725              		.fpu softvfp
 726              		.type	VOR_I2C_abort_transfer, %function
 727              	VOR_I2C_abort_transfer:
 728              	.LFB55:
 332:.\driver\src/i2c_va108xx.c ****   VOR_Disable_Irq(VOR_IRQ_I2C_MS, i2c->i2cId);
 729              		.loc 1 332 0
 730              		.cfi_startproc
 731              		@ args = 0, pretend = 0, frame = 0
 732              		@ frame_needed = 0, uses_anonymous_args = 0
 733              	.LVL40:
 734 0202 10B5     		push	{r4, lr}	@
 735              	.LCFI4:
 736              		.cfi_def_cfa_offset 8
 737              		.cfi_offset 4, -8
 738              		.cfi_offset 14, -4
 739              	@ .\driver\src\i2c_va108xx.c:332: int32_t VOR_I2C_abort_transfer(uint32_t       arg, I2C_RESOURCES 
ARM GAS  C:\Users\claym\AppData\Local\Temp\ccxpUFUu.s 			page 25


 332:.\driver\src/i2c_va108xx.c ****   VOR_Disable_Irq(VOR_IRQ_I2C_MS, i2c->i2cId);
 740              		.loc 1 332 0
 741 0204 0C00     		movs	r4, r1	@ i2c, i2c
 742              	@ .\driver\src\i2c_va108xx.c:333:   VOR_Disable_Irq(VOR_IRQ_I2C_MS, i2c->i2cId);
 333:.\driver\src/i2c_va108xx.c ****   VOR_Disable_Irq(VOR_IRQ_I2C_SL, i2c->i2cId);
 743              		.loc 1 333 0
 744 0206 0520     		movs	r0, #5	@,
 745              	.LVL41:
 746 0208 0968     		ldr	r1, [r1]	@, i2c_9(D)->i2cId
 747              	.LVL42:
 748 020a FFF7FEFF 		bl	VOR_Disable_Irq	@
 749              	.LVL43:
 750              	@ .\driver\src\i2c_va108xx.c:334:   VOR_Disable_Irq(VOR_IRQ_I2C_SL, i2c->i2cId);
 334:.\driver\src/i2c_va108xx.c **** 	i2c->reg->IRQ_ENB = 0;
 751              		.loc 1 334 0
 752 020e 2168     		ldr	r1, [r4]	@, i2c_9(D)->i2cId
 753 0210 0620     		movs	r0, #6	@,
 754 0212 FFF7FEFF 		bl	VOR_Disable_Irq	@
 755              	.LVL44:
 756              	@ .\driver\src\i2c_va108xx.c:335: 	i2c->reg->IRQ_ENB = 0;
 335:.\driver\src/i2c_va108xx.c **** 	i2c->reg->S0_IRQ_ENB = 0;
 757              		.loc 1 335 0
 758 0216 6368     		ldr	r3, [r4, #4]	@ _3, i2c_9(D)->reg
 759              	@ .\driver\src\i2c_va108xx.c:338: 	i2c->reg->FIFO_CLR = 0xffffffff;
 338:.\driver\src/i2c_va108xx.c **** 	i2c->reg->S0_FIFO_CLR = 0xffffffff;
 760              		.loc 1 338 0
 761 0218 0121     		movs	r1, #1	@ tmp123,
 762              	@ .\driver\src\i2c_va108xx.c:336: 	i2c->reg->S0_IRQ_ENB = 0;
 336:.\driver\src/i2c_va108xx.c **** 	// Clear FIFO
 763              		.loc 1 336 0
 764 021a 1A00     		movs	r2, r3	@ tmp121, _3
 765              	@ .\driver\src\i2c_va108xx.c:335: 	i2c->reg->IRQ_ENB = 0;
 335:.\driver\src/i2c_va108xx.c **** 	i2c->reg->S0_IRQ_ENB = 0;
 766              		.loc 1 335 0
 767 021c 0020     		movs	r0, #0	@ tmp120,
 768              	@ .\driver\src\i2c_va108xx.c:340: 	i2c->reg->CTRL    &=  ~I2C_PERIPHERAL_CTRL_ENABLE_Msk;
 340:.\driver\src/i2c_va108xx.c **** 	i2c->reg->S0_CTRL &=  ~I2C_PERIPHERAL_S0_CTRL_ENABLE_Msk;
 769              		.loc 1 340 0
 770 021e 0424     		movs	r4, #4	@ tmp126,
 771              	.LVL45:
 772              	@ .\driver\src\i2c_va108xx.c:336: 	i2c->reg->S0_IRQ_ENB = 0;
 336:.\driver\src/i2c_va108xx.c **** 	// Clear FIFO
 773              		.loc 1 336 0
 774 0220 FC32     		adds	r2, r2, #252	@ tmp121,
 775              	@ .\driver\src\i2c_va108xx.c:338: 	i2c->reg->FIFO_CLR = 0xffffffff;
 338:.\driver\src/i2c_va108xx.c **** 	i2c->reg->S0_FIFO_CLR = 0xffffffff;
 776              		.loc 1 338 0
 777 0222 4942     		rsbs	r1, r1, #0	@ tmp123, tmp123
 778              	@ .\driver\src\i2c_va108xx.c:335: 	i2c->reg->IRQ_ENB = 0;
 335:.\driver\src/i2c_va108xx.c **** 	i2c->reg->S0_IRQ_ENB = 0;
 779              		.loc 1 335 0
 780 0224 9862     		str	r0, [r3, #40]	@ tmp120, _3->IRQ_ENB
 781              	@ .\driver\src\i2c_va108xx.c:336: 	i2c->reg->S0_IRQ_ENB = 0;
 336:.\driver\src/i2c_va108xx.c **** 	// Clear FIFO
 782              		.loc 1 336 0
 783 0226 D062     		str	r0, [r2, #44]	@ tmp120, _3->S0_IRQ_ENB
 784              	@ .\driver\src\i2c_va108xx.c:338: 	i2c->reg->FIFO_CLR = 0xffffffff;
ARM GAS  C:\Users\claym\AppData\Local\Temp\ccxpUFUu.s 			page 26


 338:.\driver\src/i2c_va108xx.c **** 	i2c->reg->S0_FIFO_CLR = 0xffffffff;
 785              		.loc 1 338 0
 786 0228 1964     		str	r1, [r3, #64]	@ tmp123, _3->FIFO_CLR
 787              	@ .\driver\src\i2c_va108xx.c:339: 	i2c->reg->S0_FIFO_CLR = 0xffffffff;
 339:.\driver\src/i2c_va108xx.c **** 	i2c->reg->CTRL    &=  ~I2C_PERIPHERAL_CTRL_ENABLE_Msk;
 788              		.loc 1 339 0
 789 022a 5164     		str	r1, [r2, #68]	@ tmp123, _3->S0_FIFO_CLR
 790              	@ .\driver\src\i2c_va108xx.c:340: 	i2c->reg->CTRL    &=  ~I2C_PERIPHERAL_CTRL_ENABLE_Msk;
 340:.\driver\src/i2c_va108xx.c **** 	i2c->reg->S0_CTRL &=  ~I2C_PERIPHERAL_S0_CTRL_ENABLE_Msk;
 791              		.loc 1 340 0
 792 022c 1968     		ldr	r1, [r3]	@ _4, _3->CTRL
 793              	@ .\driver\src\i2c_va108xx.c:343: }
 343:.\driver\src/i2c_va108xx.c **** 
 794              		.loc 1 343 0
 795              		@ sp needed	@
 796              	@ .\driver\src\i2c_va108xx.c:340: 	i2c->reg->CTRL    &=  ~I2C_PERIPHERAL_CTRL_ENABLE_Msk;
 340:.\driver\src/i2c_va108xx.c **** 	i2c->reg->S0_CTRL &=  ~I2C_PERIPHERAL_S0_CTRL_ENABLE_Msk;
 797              		.loc 1 340 0
 798 022e A143     		bics	r1, r4	@ _5, tmp126
 799 0230 1960     		str	r1, [r3]	@ _5, _3->CTRL
 800              	@ .\driver\src\i2c_va108xx.c:341: 	i2c->reg->S0_CTRL &=  ~I2C_PERIPHERAL_S0_CTRL_ENABLE_Msk;
 341:.\driver\src/i2c_va108xx.c ****   return VOR_DRIVER_OK;
 801              		.loc 1 341 0
 802 0232 5368     		ldr	r3, [r2, #4]	@ _6, _3->S0_CTRL
 803 0234 A343     		bics	r3, r4	@ _7, tmp126
 804 0236 5360     		str	r3, [r2, #4]	@ _7, _3->S0_CTRL
 805              	@ .\driver\src\i2c_va108xx.c:343: }
 343:.\driver\src/i2c_va108xx.c **** 
 806              		.loc 1 343 0
 807 0238 10BD     		pop	{r4, pc}
 808              		.cfi_endproc
 809              	.LFE55:
 810              		.size	VOR_I2C_abort_transfer, .-VOR_I2C_abort_transfer
 811              		.global	__aeabi_uidiv
 812              		.align	1
 813              		.global	VOR_I2C_Control
 814              		.syntax unified
 815              		.code	16
 816              		.thumb_func
 817              		.fpu softvfp
 818              		.type	VOR_I2C_Control, %function
 819              	VOR_I2C_Control:
 820              	.LFB56:
 355:.\driver\src/i2c_va108xx.c **** 
 821              		.loc 1 355 0
 822              		.cfi_startproc
 823              		@ args = 0, pretend = 0, frame = 0
 824              		@ frame_needed = 0, uses_anonymous_args = 0
 825              	.LVL46:
 826 023a 70B5     		push	{r4, r5, r6, lr}	@
 827              	.LCFI5:
 828              		.cfi_def_cfa_offset 16
 829              		.cfi_offset 4, -16
 830              		.cfi_offset 5, -12
 831              		.cfi_offset 6, -8
 832              		.cfi_offset 14, -4
 833              	@ .\driver\src\i2c_va108xx.c:355: int32_t VOR_I2C_Control (uint32_t control, uint32_t arg, I2C_RESO
ARM GAS  C:\Users\claym\AppData\Local\Temp\ccxpUFUu.s 			page 27


 355:.\driver\src/i2c_va108xx.c **** 
 834              		.loc 1 355 0
 835 023c 0C00     		movs	r4, r1	@ arg, arg
 836 023e 151E     		subs	r5, r2, #0	@ i2c, i2c,
 837              	@ .\driver\src\i2c_va108xx.c:357:   if((i2c == NULL) || (i2c->reg ==NULL))
 357:.\driver\src/i2c_va108xx.c **** 	return VOR_DRIVER_ERROR_PARAMETER;
 838              		.loc 1 357 0
 839 0240 62D0     		beq	.L112	@,
 840              	@ .\driver\src\i2c_va108xx.c:357:   if((i2c == NULL) || (i2c->reg ==NULL))
 357:.\driver\src/i2c_va108xx.c **** 	return VOR_DRIVER_ERROR_PARAMETER;
 841              		.loc 1 357 0 is_stmt 0 discriminator 1
 842 0242 5368     		ldr	r3, [r2, #4]	@ _1, i2c_4(D)->reg
 843 0244 002B     		cmp	r3, #0	@ _1,
 844 0246 5FD0     		beq	.L112	@,
 845              	@ .\driver\src\i2c_va108xx.c:361:   switch (control) {
 361:.\driver\src/i2c_va108xx.c **** 	case VOR_I2C_DRV_POLL            : return VOR_I2C_Drv_Mode(arg,i2c);
 846              		.loc 1 361 0 is_stmt 1
 847 0248 0138     		subs	r0, r0, #1	@ tmp131,
 848              	.LVL47:
 849 024a 0F28     		cmp	r0, #15	@ tmp131,
 850 024c 5FD8     		bhi	.L113	@,
 851 024e FFF7FEFF 		bl	__gnu_thumb1_case_uqi
 852              	.L91:
 853 0252 08       		.byte	(.L90-.L91)/2
 854 0253 0B       		.byte	(.L92-.L91)/2
 855 0254 0D       		.byte	(.L93-.L91)/2
 856 0255 29       		.byte	(.L94-.L91)/2
 857 0256 2B       		.byte	(.L95-.L91)/2
 858 0257 2D       		.byte	(.L96-.L91)/2
 859 0258 3A       		.byte	(.L97-.L91)/2
 860 0259 46       		.byte	(.L98-.L91)/2
 861 025a 4B       		.byte	(.L99-.L91)/2
 862 025b 4D       		.byte	(.L100-.L91)/2
 863 025c 4F       		.byte	(.L101-.L91)/2
 864 025d 51       		.byte	(.L102-.L91)/2
 865 025e 53       		.byte	(.L103-.L91)/2
 866 025f 55       		.byte	(.L104-.L91)/2
 867 0260 57       		.byte	(.L105-.L91)/2
 868 0261 59       		.byte	(.L106-.L91)/2
 869              		.p2align 1
 870              	.L90:
 871              	.LVL48:
 872              	.LBB82:
 873              	.LBB83:
 874              	@ .\driver\src\i2c_va108xx.c:112:   i2c->info.poll_mode = arg;
 112:.\driver\src/i2c_va108xx.c ****   return VOR_DRIVER_OK;
 875              		.loc 1 112 0
 876 0262 A961     		str	r1, [r5, #24]	@ arg, MEM[(uint32_t *)i2c_4(D) + 24B]
 877              	.LVL49:
 878              	.L117:
 879              	.LBE83:
 880              	.LBE82:
 881              	@ .\driver\src\i2c_va108xx.c:377: 	case VOR_I2C_TMCONFIG            : return VOR_I2C_TmConfig(arg,i
 377:.\driver\src/i2c_va108xx.c **** 	default                          : return VOR_I2C_ERROR_CTRL;
 882              		.loc 1 377 0
 883 0264 0020     		movs	r0, #0	@ <retval>,
 884 0266 29E0     		b	.L88	@
ARM GAS  C:\Users\claym\AppData\Local\Temp\ccxpUFUu.s 			page 28


 885              	.LVL50:
 886              	.L92:
 887              	.LBB84:
 888              	.LBB85:
 889              	@ .\driver\src\i2c_va108xx.c:125:   i2c->info.poll_tout = arg;
 125:.\driver\src/i2c_va108xx.c ****   return VOR_DRIVER_OK;
 890              		.loc 1 125 0
 891 0268 E961     		str	r1, [r5, #28]	@ arg, MEM[(uint32_t *)i2c_4(D) + 28B]
 892              	.LVL51:
 893 026a FBE7     		b	.L117	@
 894              	.LVL52:
 895              	.L93:
 896              	.LBE85:
 897              	.LBE84:
 898              	.LBB86:
 899              	.LBB87:
 900              	@ .\driver\src\i2c_va108xx.c:140:   switch (arg) {
 140:.\driver\src/i2c_va108xx.c **** 	case VOR_I2C_BUS_SPEED_STANDARD :
 901              		.loc 1 140 0
 902 026c 0129     		cmp	r1, #1	@ arg,
 903 026e 03D0     		beq	.L107	@,
 904 0270 0229     		cmp	r1, #2	@ arg,
 905 0272 0BD0     		beq	.L108	@,
 906              	@ .\driver\src\i2c_va108xx.c:151: 	default                         : return VOR_DRIVER_ERROR_UNSUPP
 151:.\driver\src/i2c_va108xx.c ****   };
 907              		.loc 1 151 0
 908 0274 0420     		movs	r0, #4	@ <retval>,
 909 0276 48E0     		b	.L116	@
 910              	.L107:
 911              	@ .\driver\src\i2c_va108xx.c:142: 				clkscale = 	((VOR_Get_ClockFreq() / I2C_STD_SPEED_CLK) / I2C_
 142:.\driver\src/i2c_va108xx.c **** 				i2c->reg->CLKSCALE = clkscale;
 912              		.loc 1 142 0
 913 0278 FFF7FEFF 		bl	VOR_Get_ClockFreq	@
 914              	.LVL53:
 915 027c 2549     		ldr	r1, .L120	@,
 916 027e FFF7FEFF 		bl	__aeabi_uidiv	@
 917              	.LVL54:
 918              	@ .\driver\src\i2c_va108xx.c:143: 				i2c->reg->CLKSCALE = clkscale;
 143:.\driver\src/i2c_va108xx.c **** 				i2c->info.speed = arg; 
 919              		.loc 1 143 0
 920 0282 6B68     		ldr	r3, [r5, #4]	@ _31, i2c_4(D)->reg
 921              	@ .\driver\src\i2c_va108xx.c:142: 				clkscale = 	((VOR_Get_ClockFreq() / I2C_STD_SPEED_CLK) / I2C_
 142:.\driver\src/i2c_va108xx.c **** 				i2c->reg->CLKSCALE = clkscale;
 922              		.loc 1 142 0
 923 0284 0138     		subs	r0, r0, #1	@ clkscale,
 924              	.LVL55:
 925              	@ .\driver\src\i2c_va108xx.c:143: 				i2c->reg->CLKSCALE = clkscale;
 143:.\driver\src/i2c_va108xx.c **** 				i2c->info.speed = arg; 
 926              		.loc 1 143 0
 927 0286 5860     		str	r0, [r3, #4]	@ clkscale, _31->CLKSCALE
 928              	.LVL56:
 929              	.L119:
 930              	@ .\driver\src\i2c_va108xx.c:149: 	            i2c->info.speed = arg; 
 149:.\driver\src/i2c_va108xx.c **** 				break;
 931              		.loc 1 149 0
 932 0288 2C62     		str	r4, [r5, #32]	@ arg, i2c_4(D)->info.speed
 933 028a EBE7     		b	.L117	@
ARM GAS  C:\Users\claym\AppData\Local\Temp\ccxpUFUu.s 			page 29


 934              	.LVL57:
 935              	.L108:
 936              	@ .\driver\src\i2c_va108xx.c:147: 	      clkscale = 	((VOR_Get_ClockFreq() / I2C_FAST_SPEED_CLK) / 
 147:.\driver\src/i2c_va108xx.c **** 				i2c->reg->CLKSCALE = (clkscale | I2C_PERIPHERAL_CLKSCALE_FASTMODE_Msk);
 937              		.loc 1 147 0
 938 028c FFF7FEFF 		bl	VOR_Get_ClockFreq	@
 939              	.LVL58:
 940 0290 2149     		ldr	r1, .L120+4	@,
 941 0292 FFF7FEFF 		bl	__aeabi_uidiv	@
 942              	.LVL59:
 943 0296 431E     		subs	r3, r0, #1	@ clkscale, tmp140,
 944              	@ .\driver\src\i2c_va108xx.c:148: 				i2c->reg->CLKSCALE = (clkscale | I2C_PERIPHERAL_CLKSCALE_FAST
 148:.\driver\src/i2c_va108xx.c **** 	            i2c->info.speed = arg; 
 945              		.loc 1 148 0
 946 0298 8020     		movs	r0, #128	@ tmp142,
 947 029a 6E68     		ldr	r6, [r5, #4]	@ _35, i2c_4(D)->reg
 948 029c 0006     		lsls	r0, r0, #24	@ tmp142, tmp142,
 949 029e 1843     		orrs	r0, r3	@ _36, clkscale
 950 02a0 7060     		str	r0, [r6, #4]	@ _36, _35->CLKSCALE
 951 02a2 F1E7     		b	.L119	@
 952              	.LVL60:
 953              	.L94:
 954              	.LBE87:
 955              	.LBE86:
 956              	.LBB89:
 957              	.LBB90:
 958              	@ .\driver\src\i2c_va108xx.c:166:   i2c->info.slv_addr = arg;
 166:.\driver\src/i2c_va108xx.c ****   return VOR_DRIVER_OK;
 959              		.loc 1 166 0
 960 02a4 6962     		str	r1, [r5, #36]	@ arg, MEM[(uint32_t *)i2c_4(D) + 36B]
 961              	.LVL61:
 962 02a6 DDE7     		b	.L117	@
 963              	.LVL62:
 964              	.L95:
 965              	.LBE90:
 966              	.LBE89:
 967              	.LBB91:
 968              	.LBB92:
 969              	@ .\driver\src\i2c_va108xx.c:179:   i2c->info.addr_mode = arg;
 179:.\driver\src/i2c_va108xx.c ****   return VOR_DRIVER_OK;
 970              		.loc 1 179 0
 971 02a8 A962     		str	r1, [r5, #40]	@ arg, MEM[(uint32_t *)i2c_4(D) + 40B]
 972              	.LVL63:
 973 02aa DBE7     		b	.L117	@
 974              	.LVL64:
 975              	.L96:
 976 02ac 0320     		movs	r0, #3	@ tmp144,
 977              	.LBE92:
 978              	.LBE91:
 979              	.LBB93:
 980              	.LBB94:
 981              	@ .\driver\src\i2c_va108xx.c:193:   if(i2c->info.status.mode) {
 193:.\driver\src/i2c_va108xx.c **** 	i2c->reg->FIFO_CLR     = (arg & 0x3);
 982              		.loc 1 193 0
 983 02ae 527C     		ldrb	r2, [r2, #17]	@ *i2c_4(D), *i2c_4(D)
 984              	.LVL65:
 985 02b0 0440     		ands	r4, r0	@ _52, tmp144
ARM GAS  C:\Users\claym\AppData\Local\Temp\ccxpUFUu.s 			page 30


 986 02b2 0020     		movs	r0, #0	@ tmp153,
 987 02b4 7F2A     		cmp	r2, #127	@ *i2c_4(D),
 988 02b6 02D9     		bls	.L109	@,
 989              	@ .\driver\src\i2c_va108xx.c:194: 	i2c->reg->FIFO_CLR     = (arg & 0x3);
 194:.\driver\src/i2c_va108xx.c **** 	i2c->reg->FIFO_CLR     = 0;
 990              		.loc 1 194 0
 991 02b8 1C64     		str	r4, [r3, #64]	@ _52, _1->FIFO_CLR
 992              	@ .\driver\src\i2c_va108xx.c:195: 	i2c->reg->FIFO_CLR     = 0;
 195:.\driver\src/i2c_va108xx.c ****   } else {
 993              		.loc 1 195 0
 994 02ba 1864     		str	r0, [r3, #64]	@ tmp153, _1->FIFO_CLR
 995              	.LVL66:
 996              	.L88:
 997              	.LBE94:
 998              	.LBE93:
 999              	@ .\driver\src\i2c_va108xx.c:380: }
 380:.\driver\src/i2c_va108xx.c **** 
 1000              		.loc 1 380 0
 1001              		@ sp needed	@
 1002              	.LVL67:
 1003 02bc 70BD     		pop	{r4, r5, r6, pc}
 1004              	.LVL68:
 1005              	.L109:
 1006              	.LBB96:
 1007              	.LBB95:
 1008              	@ .\driver\src\i2c_va108xx.c:197: 	i2c->reg->S0_FIFO_CLR = (arg & 0x3);
 197:.\driver\src/i2c_va108xx.c **** 	i2c->reg->S0_FIFO_CLR = 0;
 1009              		.loc 1 197 0
 1010 02be FC33     		adds	r3, r3, #252	@ tmp147,
 1011 02c0 5C64     		str	r4, [r3, #68]	@ _52, _1->S0_FIFO_CLR
 1012              	@ .\driver\src\i2c_va108xx.c:198: 	i2c->reg->S0_FIFO_CLR = 0;
 198:.\driver\src/i2c_va108xx.c ****   }
 1013              		.loc 1 198 0
 1014 02c2 5864     		str	r0, [r3, #68]	@ tmp153, _1->S0_FIFO_CLR
 1015 02c4 FAE7     		b	.L88	@
 1016              	.LVL69:
 1017              	.L97:
 1018              	.LBE95:
 1019              	.LBE96:
 1020              	.LBB97:
 1021              	.LBB98:
 1022              	@ .\driver\src\i2c_va108xx.c:213: 	if(arg)
 213:.\driver\src/i2c_va108xx.c **** 		i2c->reg->CTRL |= I2C_PERIPHERAL_CTRL_LOOPBACK_Msk;
 1023              		.loc 1 213 0
 1024 02c6 0029     		cmp	r1, #0	@ arg,
 1025 02c8 05D0     		beq	.L110	@,
 1026              	@ .\driver\src\i2c_va108xx.c:214: 		i2c->reg->CTRL |= I2C_PERIPHERAL_CTRL_LOOPBACK_Msk;
 214:.\driver\src/i2c_va108xx.c **** 	else
 1027              		.loc 1 214 0
 1028 02ca 8022     		movs	r2, #128	@ tmp150,
 1029              	.LVL70:
 1030 02cc 1968     		ldr	r1, [r3]	@ _45, _1->CTRL
 1031              	.LVL71:
 1032 02ce 5200     		lsls	r2, r2, #1	@ tmp150, tmp150,
 1033 02d0 0A43     		orrs	r2, r1	@ _46, _45
 1034              	.L118:
 1035              	@ .\driver\src\i2c_va108xx.c:216: 		i2c->reg->CTRL &= ~(I2C_PERIPHERAL_CTRL_LOOPBACK_Msk);
ARM GAS  C:\Users\claym\AppData\Local\Temp\ccxpUFUu.s 			page 31


 216:.\driver\src/i2c_va108xx.c ****   return VOR_DRIVER_OK;
 1036              		.loc 1 216 0
 1037 02d2 1A60     		str	r2, [r3]	@ _49,* _1
 1038 02d4 C6E7     		b	.L117	@
 1039              	.LVL72:
 1040              	.L110:
 1041 02d6 1A68     		ldr	r2, [r3]	@ _48, _1->CTRL
 1042              	.LVL73:
 1043 02d8 1049     		ldr	r1, .L120+8	@ tmp151,
 1044              	.LVL74:
 1045 02da 0A40     		ands	r2, r1	@ _49, tmp151
 1046 02dc F9E7     		b	.L118	@
 1047              	.LVL75:
 1048              	.L98:
 1049              	.LBE98:
 1050              	.LBE97:
 1051              	@ .\driver\src\i2c_va108xx.c:369: 	case VOR_I2C_ABORT_TRANSFER      : return VOR_I2C_abort_transfer
 369:.\driver\src/i2c_va108xx.c **** 	case VOR_I2C_TXFEMD_MODE         : return VOR_I2C_Txfemd(arg,i2c);
 1052              		.loc 1 369 0
 1053 02de 1100     		movs	r1, r2	@, i2c
 1054              	.LVL76:
 1055 02e0 2000     		movs	r0, r4	@, arg
 1056 02e2 FFF7FEFF 		bl	VOR_I2C_abort_transfer	@
 1057              	.LVL77:
 1058 02e6 E9E7     		b	.L88	@
 1059              	.LVL78:
 1060              	.L99:
 1061              	.LBB99:
 1062              	.LBB100:
 1063              	@ .\driver\src\i2c_va108xx.c:229:   i2c->info.txfemd = arg;
 229:.\driver\src/i2c_va108xx.c ****   return VOR_DRIVER_OK;
 1064              		.loc 1 229 0
 1065 02e8 2963     		str	r1, [r5, #48]	@ arg, MEM[(uint32_t *)i2c_4(D) + 48B]
 1066              	.LVL79:
 1067 02ea BBE7     		b	.L117	@
 1068              	.LVL80:
 1069              	.L100:
 1070              	.LBE100:
 1071              	.LBE99:
 1072              	.LBB101:
 1073              	.LBB102:
 1074              	@ .\driver\src\i2c_va108xx.c:242:   i2c->info.rxffmd = arg;
 242:.\driver\src/i2c_va108xx.c ****   return VOR_DRIVER_OK;
 1075              		.loc 1 242 0
 1076 02ec 6963     		str	r1, [r5, #52]	@ arg, MEM[(uint32_t *)i2c_4(D) + 52B]
 1077              	.LVL81:
 1078 02ee B9E7     		b	.L117	@
 1079              	.LVL82:
 1080              	.L101:
 1081              	.LBE102:
 1082              	.LBE101:
 1083              	.LBB103:
 1084              	.LBB104:
 1085              	@ .\driver\src\i2c_va108xx.c:255:   i2c->info.algfilter = arg;
 255:.\driver\src/i2c_va108xx.c ****   return VOR_DRIVER_OK;
 1086              		.loc 1 255 0
 1087 02f0 A963     		str	r1, [r5, #56]	@ arg, MEM[(uint32_t *)i2c_4(D) + 56B]
ARM GAS  C:\Users\claym\AppData\Local\Temp\ccxpUFUu.s 			page 32


 1088              	.LVL83:
 1089 02f2 B7E7     		b	.L117	@
 1090              	.LVL84:
 1091              	.L102:
 1092              	.LBE104:
 1093              	.LBE103:
 1094              	.LBB105:
 1095              	.LBB106:
 1096              	@ .\driver\src\i2c_va108xx.c:268:   i2c->info.digfilter = arg;
 268:.\driver\src/i2c_va108xx.c ****   return VOR_DRIVER_OK;
 1097              		.loc 1 268 0
 1098 02f4 E963     		str	r1, [r5, #60]	@ arg, MEM[(uint32_t *)i2c_4(D) + 60B]
 1099              	.LVL85:
 1100 02f6 B5E7     		b	.L117	@
 1101              	.LVL86:
 1102              	.L103:
 1103              	.LBE106:
 1104              	.LBE105:
 1105              	.LBB107:
 1106              	.LBB108:
 1107              	@ .\driver\src\i2c_va108xx.c:281:   i2c->info.rxfifotrg = arg;
 281:.\driver\src/i2c_va108xx.c ****   return VOR_DRIVER_OK;
 1108              		.loc 1 281 0
 1109 02f8 2964     		str	r1, [r5, #64]	@ arg, MEM[(uint32_t *)i2c_4(D) + 64B]
 1110              	.LVL87:
 1111 02fa B3E7     		b	.L117	@
 1112              	.LVL88:
 1113              	.L104:
 1114              	.LBE108:
 1115              	.LBE107:
 1116              	.LBB109:
 1117              	.LBB110:
 1118              	@ .\driver\src\i2c_va108xx.c:294:   i2c->info.txfifotrg = arg;
 294:.\driver\src/i2c_va108xx.c ****   return VOR_DRIVER_OK;
 1119              		.loc 1 294 0
 1120 02fc 6964     		str	r1, [r5, #68]	@ arg, MEM[(uint32_t *)i2c_4(D) + 68B]
 1121              	.LVL89:
 1122 02fe B1E7     		b	.L117	@
 1123              	.LVL90:
 1124              	.L105:
 1125              	.LBE110:
 1126              	.LBE109:
 1127              	.LBB111:
 1128              	.LBB112:
 1129              	@ .\driver\src\i2c_va108xx.c:307:   i2c->info.clktolimit = arg;
 307:.\driver\src/i2c_va108xx.c ****   return VOR_DRIVER_OK;
 1130              		.loc 1 307 0
 1131 0300 A964     		str	r1, [r5, #72]	@ arg, MEM[(uint32_t *)i2c_4(D) + 72B]
 1132              	.LVL91:
 1133 0302 AFE7     		b	.L117	@
 1134              	.LVL92:
 1135              	.L106:
 1136              	.LBE112:
 1137              	.LBE111:
 1138              	.LBB113:
 1139              	.LBB114:
 1140              	@ .\driver\src\i2c_va108xx.c:320:   i2c->info.tmconfig.val = arg;
ARM GAS  C:\Users\claym\AppData\Local\Temp\ccxpUFUu.s 			page 33


 320:.\driver\src/i2c_va108xx.c ****   return VOR_DRIVER_OK;
 1141              		.loc 1 320 0
 1142 0304 E964     		str	r1, [r5, #76]	@ arg, MEM[(uint32_t *)i2c_4(D) + 76B]
 1143 0306 ADE7     		b	.L117	@
 1144              	.LVL93:
 1145              	.L112:
 1146              	.LBE114:
 1147              	.LBE113:
 1148              	@ .\driver\src\i2c_va108xx.c:358: 	return VOR_DRIVER_ERROR_PARAMETER;
 358:.\driver\src/i2c_va108xx.c ****   
 1149              		.loc 1 358 0
 1150 0308 0520     		movs	r0, #5	@ <retval>,
 1151              	.LVL94:
 1152              	.L116:
 1153              	.LBB115:
 1154              	.LBB88:
 1155              	@ .\driver\src\i2c_va108xx.c:151: 	default                         : return VOR_DRIVER_ERROR_UNSUPP
 151:.\driver\src/i2c_va108xx.c ****   };
 1156              		.loc 1 151 0
 1157 030a 4042     		rsbs	r0, r0, #0	@ <retval>, <retval>
 1158 030c D6E7     		b	.L88	@
 1159              	.L113:
 1160              	.LBE88:
 1161              	.LBE115:
 1162              	@ .\driver\src\i2c_va108xx.c:378: 	default                          : return VOR_I2C_ERROR_CTRL;
 378:.\driver\src/i2c_va108xx.c ****   }
 1163              		.loc 1 378 0
 1164 030e 0920     		movs	r0, #9	@ <retval>,
 1165 0310 FBE7     		b	.L116	@
 1166              	.L121:
 1167 0312 C046     		.align	2
 1168              	.L120:
 1169 0314 80841E00 		.word	2000000
 1170 0318 80969800 		.word	10000000
 1171 031c FFFEFFFF 		.word	-257
 1172              		.cfi_endproc
 1173              	.LFE56:
 1174              		.size	VOR_I2C_Control, .-VOR_I2C_Control
 1175              		.align	1
 1176              		.global	VOR_I2C_GetStatus
 1177              		.syntax unified
 1178              		.code	16
 1179              		.thumb_func
 1180              		.fpu softvfp
 1181              		.type	VOR_I2C_GetStatus, %function
 1182              	VOR_I2C_GetStatus:
 1183              	.LFB57:
 388:.\driver\src/i2c_va108xx.c **** 
 1184              		.loc 1 388 0
 1185              		.cfi_startproc
 1186              		@ args = 0, pretend = 0, frame = 8
 1187              		@ frame_needed = 0, uses_anonymous_args = 0
 1188              	.LVL95:
 1189 0320 F7B5     		push	{r0, r1, r2, r4, r5, r6, r7, lr}	@
 1190              	.LCFI6:
 1191              		.cfi_def_cfa_offset 32
 1192              		.cfi_offset 0, -32
ARM GAS  C:\Users\claym\AppData\Local\Temp\ccxpUFUu.s 			page 34


 1193              		.cfi_offset 1, -28
 1194              		.cfi_offset 2, -24
 1195              		.cfi_offset 4, -20
 1196              		.cfi_offset 5, -16
 1197              		.cfi_offset 6, -12
 1198              		.cfi_offset 7, -8
 1199              		.cfi_offset 14, -4
 1200              	@ .\driver\src\i2c_va108xx.c:390:   if(i2c->info.status.mode == I2C_MODE_MASTER) {
 390:.\driver\src/i2c_va108xx.c ****     // Bus Idle Status
 1201              		.loc 1 390 0
 1202 0322 447C     		ldrb	r4, [r0, #17]	@ *i2c_50(D), *i2c_50(D)
 1203 0324 7F2C     		cmp	r4, #127	@ *i2c_50(D),
 1204 0326 00D8     		bhi	.LCB984	@
 1205 0328 82E0     		b	.L123	@long jump	@
 1206              	.LCB984:
 1207              	@ .\driver\src\i2c_va108xx.c:392:     i2c->info.status.i2cIdle   = (i2c->reg->STATUS & I2C_PERIPHER
 392:.\driver\src/i2c_va108xx.c ****     // Controller Idle Status
 1208              		.loc 1 392 0
 1209 032a 0123     		movs	r3, #1	@ tmp165,
 1210 032c 4268     		ldr	r2, [r0, #4]	@ _2, i2c_50(D)->reg
 1211 032e 017C     		ldrb	r1, [r0, #16]	@ i2c_50(D)->info.status.i2cIdle, i2c_50(D)->info.status.i2cIdle
 1212 0330 9569     		ldr	r5, [r2, #24]	@ _3, _2->STATUS
 1213 0332 9943     		bics	r1, r3	@ tmp168, tmp165
 1214 0334 1D40     		ands	r5, r3	@ tmp164, tmp165
 1215 0336 2943     		orrs	r1, r5	@ tmp172, tmp164
 1216 0338 0174     		strb	r1, [r0, #16]	@ tmp172, i2c_50(D)->info.status.i2cIdle
 1217              	@ .\driver\src\i2c_va108xx.c:394:     i2c->info.status.Idle      = (i2c->reg->STATUS & I2C_PERIPHER
 394:.\driver\src/i2c_va108xx.c ****     // Controller Waiting Status
 1218              		.loc 1 394 0
 1219 033a 9169     		ldr	r1, [r2, #24]	@ _6, _2->STATUS
 1220 033c 0226     		movs	r6, #2	@ tmp434,
 1221 033e D940     		lsrs	r1, r1, r3	@ tmp174, _6,
 1222 0340 1940     		ands	r1, r3	@ tmp176, tmp165
 1223 0342 9940     		lsls	r1, r1, r3	@ tmp184, tmp176,
 1224 0344 057C     		ldrb	r5, [r0, #16]	@ i2c_50(D)->info.status.Idle, i2c_50(D)->info.status.Idle
 1225              	@ .\driver\src\i2c_va108xx.c:396:     i2c->info.status.waiting   = (i2c->reg->STATUS & I2C_PERIPHER
 396:.\driver\src/i2c_va108xx.c ****     // Controller Stalled Status
 1226              		.loc 1 396 0
 1227 0346 0427     		movs	r7, #4	@ tmp435,
 1228              	@ .\driver\src\i2c_va108xx.c:394:     i2c->info.status.Idle      = (i2c->reg->STATUS & I2C_PERIPHER
 394:.\driver\src/i2c_va108xx.c ****     // Controller Waiting Status
 1229              		.loc 1 394 0
 1230 0348 B543     		bics	r5, r6	@ tmp187, tmp434
 1231 034a 2943     		orrs	r1, r5	@ tmp191, tmp187
 1232 034c 0174     		strb	r1, [r0, #16]	@ tmp191, i2c_50(D)->info.status.Idle
 1233              	@ .\driver\src\i2c_va108xx.c:396:     i2c->info.status.waiting   = (i2c->reg->STATUS & I2C_PERIPHER
 396:.\driver\src/i2c_va108xx.c ****     // Controller Stalled Status
 1234              		.loc 1 396 0
 1235 034e 9169     		ldr	r1, [r2, #24]	@ _9, _2->STATUS
 1236 0350 057C     		ldrb	r5, [r0, #16]	@ i2c_50(D)->info.status.waiting, i2c_50(D)->info.status.waiting
 1237 0352 F140     		lsrs	r1, r1, r6	@ tmp193, _9,
 1238 0354 1940     		ands	r1, r3	@ tmp195, tmp165
 1239 0356 B140     		lsls	r1, r1, r6	@ tmp203, tmp195,
 1240 0358 BD43     		bics	r5, r7	@ tmp206, tmp435
 1241 035a 2943     		orrs	r1, r5	@ tmp210, tmp206
 1242 035c 0174     		strb	r1, [r0, #16]	@ tmp210, i2c_50(D)->info.status.waiting
 1243              	@ .\driver\src\i2c_va108xx.c:398:     i2c->info.status.stalled   = (i2c->reg->STATUS & I2C_PERIPHER
ARM GAS  C:\Users\claym\AppData\Local\Temp\ccxpUFUu.s 			page 35


 398:.\driver\src/i2c_va108xx.c ****     // Lost arbitration Status
 1244              		.loc 1 398 0
 1245 035e 9169     		ldr	r1, [r2, #24]	@ _12, _2->STATUS
 1246 0360 057C     		ldrb	r5, [r0, #16]	@ i2c_50(D)->info.status.stalled, i2c_50(D)->info.status.stalled
 1247 0362 C908     		lsrs	r1, r1, #3	@ tmp212, _12,
 1248 0364 1940     		ands	r1, r3	@ tmp214, tmp165
 1249 0366 0636     		adds	r6, r6, #6	@ tmp436,
 1250 0368 B543     		bics	r5, r6	@ tmp225, tmp436
 1251 036a C900     		lsls	r1, r1, #3	@ tmp222, tmp214,
 1252 036c 2943     		orrs	r1, r5	@ tmp229, tmp225
 1253 036e 0174     		strb	r1, [r0, #16]	@ tmp229, i2c_50(D)->info.status.stalled
 1254              	@ .\driver\src\i2c_va108xx.c:400:     i2c->info.status.arb_lost  = (i2c->reg->STATUS & I2C_PERIPHER
 400:.\driver\src/i2c_va108xx.c ****     // Address failed Status
 1255              		.loc 1 400 0
 1256 0370 9169     		ldr	r1, [r2, #24]	@ _15, _2->STATUS
 1257 0372 057C     		ldrb	r5, [r0, #16]	@ i2c_50(D)->info.status.arb_lost, i2c_50(D)->info.status.arb_lost
 1258 0374 F940     		lsrs	r1, r1, r7	@ tmp231, _15,
 1259 0376 1940     		ands	r1, r3	@ tmp233, tmp165
 1260 0378 B940     		lsls	r1, r1, r7	@ tmp241, tmp233,
 1261 037a 0C37     		adds	r7, r7, #12	@ tmp245,
 1262 037c BD43     		bics	r5, r7	@ tmp244, tmp245
 1263 037e 2943     		orrs	r1, r5	@ tmp248, tmp244
 1264 0380 0174     		strb	r1, [r0, #16]	@ tmp248, i2c_50(D)->info.status.arb_lost
 1265              	@ .\driver\src\i2c_va108xx.c:402:     i2c->info.status.nackAddr  = (i2c->reg->STATUS & I2C_PERIPHER
 402:.\driver\src/i2c_va108xx.c ****     // Receive negative Ack 
 1266              		.loc 1 402 0
 1267 0382 9169     		ldr	r1, [r2, #24]	@ _18, _2->STATUS
 1268 0384 057C     		ldrb	r5, [r0, #16]	@ i2c_50(D)->info.status.nackAddr, i2c_50(D)->info.status.nackAddr
 1269 0386 4909     		lsrs	r1, r1, #5	@ tmp250, _18,
 1270              	@ .\driver\src\i2c_va108xx.c:400:     i2c->info.status.arb_lost  = (i2c->reg->STATUS & I2C_PERIPHER
 400:.\driver\src/i2c_va108xx.c ****     // Address failed Status
 1271              		.loc 1 400 0
 1272 0388 BC46     		mov	ip, r7	@ tmp245, tmp245
 1273              	@ .\driver\src\i2c_va108xx.c:402:     i2c->info.status.nackAddr  = (i2c->reg->STATUS & I2C_PERIPHER
 402:.\driver\src/i2c_va108xx.c ****     // Receive negative Ack 
 1274              		.loc 1 402 0
 1275 038a 1940     		ands	r1, r3	@ tmp252, tmp165
 1276 038c 1037     		adds	r7, r7, #16	@ tmp264,
 1277 038e BD43     		bics	r5, r7	@ tmp263, tmp264
 1278 0390 4901     		lsls	r1, r1, #5	@ tmp260, tmp252,
 1279 0392 2943     		orrs	r1, r5	@ tmp267, tmp263
 1280 0394 0174     		strb	r1, [r0, #16]	@ tmp267, i2c_50(D)->info.status.nackAddr
 1281              	@ .\driver\src\i2c_va108xx.c:404:     i2c->info.status.nackData  = (i2c->reg->STATUS & I2C_PERIPHER
 404:.\driver\src/i2c_va108xx.c ****     // Receive FIFO is not empty 
 1282              		.loc 1 404 0
 1283 0396 9169     		ldr	r1, [r2, #24]	@ _21, _2->STATUS
 1284 0398 057C     		ldrb	r5, [r0, #16]	@ i2c_50(D)->info.status.nackData, i2c_50(D)->info.status.nackData
 1285 039a 8909     		lsrs	r1, r1, #6	@ tmp269, _21,
 1286 039c 1940     		ands	r1, r3	@ tmp271, tmp165
 1287 039e 3836     		adds	r6, r6, #56	@ tmp283,
 1288 03a0 B543     		bics	r5, r6	@ tmp282, tmp283
 1289 03a2 8901     		lsls	r1, r1, #6	@ tmp279, tmp271,
 1290 03a4 2943     		orrs	r1, r5	@ tmp286, tmp282
 1291 03a6 0174     		strb	r1, [r0, #16]	@ tmp286, i2c_50(D)->info.status.nackData
 1292              	@ .\driver\src\i2c_va108xx.c:406:     i2c->info.status.rxNEmpty  = (i2c->reg->STATUS & I2C_PERIPHER
 406:.\driver\src/i2c_va108xx.c ****     // Receive FIFO is full
 1293              		.loc 1 406 0
ARM GAS  C:\Users\claym\AppData\Local\Temp\ccxpUFUu.s 			page 36


 1294 03a8 9169     		ldr	r1, [r2, #24]	@ _24, _2->STATUS
 1295 03aa 057C     		ldrb	r5, [r0, #16]	@ i2c_50(D)->info.status.rxNEmpty, i2c_50(D)->info.status.rxNEmpty
 1296 03ac 090A     		lsrs	r1, r1, #8	@ tmp288, _24,
 1297 03ae 1940     		ands	r1, r3	@ tmp290, tmp165
 1298 03b0 C901     		lsls	r1, r1, #7	@ tmp295, tmp290,
 1299 03b2 0191     		str	r1, [sp, #4]	@ tmp295, %sfp
 1300 03b4 7F21     		movs	r1, #127	@ tmp439,
 1301 03b6 0D40     		ands	r5, r1	@ tmp298, tmp439
 1302 03b8 0199     		ldr	r1, [sp, #4]	@ tmp295, %sfp
 1303              	@ .\driver\src\i2c_va108xx.c:408:     i2c->info.status.rxFull    = (i2c->reg->STATUS & I2C_PERIPHER
 408:.\driver\src/i2c_va108xx.c ****     // Receive FIFO >= Trigger level
 1304              		.loc 1 408 0
 1305 03ba 9C43     		bics	r4, r3	@ tmp315, tmp165
 1306              	@ .\driver\src\i2c_va108xx.c:406:     i2c->info.status.rxNEmpty  = (i2c->reg->STATUS & I2C_PERIPHER
 406:.\driver\src/i2c_va108xx.c ****     // Receive FIFO is full
 1307              		.loc 1 406 0
 1308 03bc 0D43     		orrs	r5, r1	@ tmp302, tmp295
 1309              	@ .\driver\src\i2c_va108xx.c:408:     i2c->info.status.rxFull    = (i2c->reg->STATUS & I2C_PERIPHER
 408:.\driver\src/i2c_va108xx.c ****     // Receive FIFO >= Trigger level
 1310              		.loc 1 408 0
 1311 03be 9169     		ldr	r1, [r2, #24]	@ _27, _2->STATUS
 1312              	@ .\driver\src\i2c_va108xx.c:406:     i2c->info.status.rxNEmpty  = (i2c->reg->STATUS & I2C_PERIPHER
 406:.\driver\src/i2c_va108xx.c ****     // Receive FIFO is full
 1313              		.loc 1 406 0
 1314 03c0 0574     		strb	r5, [r0, #16]	@ tmp302, i2c_50(D)->info.status.rxNEmpty
 1315              	@ .\driver\src\i2c_va108xx.c:408:     i2c->info.status.rxFull    = (i2c->reg->STATUS & I2C_PERIPHER
 408:.\driver\src/i2c_va108xx.c ****     // Receive FIFO >= Trigger level
 1316              		.loc 1 408 0
 1317 03c2 490A     		lsrs	r1, r1, #9	@ tmp304, _27,
 1318 03c4 1940     		ands	r1, r3	@ tmp306, tmp165
 1319 03c6 0C43     		orrs	r4, r1	@ tmp319, tmp306
 1320 03c8 4474     		strb	r4, [r0, #17]	@ tmp319,
 1321              	@ .\driver\src\i2c_va108xx.c:410:     i2c->info.status.rxFifoTrg = (i2c->reg->STATUS & I2C_PERIPHER
 410:.\driver\src/i2c_va108xx.c ****     // Transmit FIFO is empty 
 1322              		.loc 1 410 0
 1323 03ca 9169     		ldr	r1, [r2, #24]	@ _30, _2->STATUS
 1324 03cc 0225     		movs	r5, #2	@ tmp440,
 1325 03ce C90A     		lsrs	r1, r1, #11	@ tmp321, _30,
 1326 03d0 1940     		ands	r1, r3	@ tmp323, tmp165
 1327 03d2 9940     		lsls	r1, r1, r3	@ tmp331, tmp323,
 1328 03d4 E4B2     		uxtb	r4, r4	@ tmp333,
 1329 03d6 AC43     		bics	r4, r5	@ tmp334, tmp440
 1330 03d8 0C43     		orrs	r4, r1	@ tmp338, tmp331
 1331 03da 4474     		strb	r4, [r0, #17]	@ tmp338,
 1332              	@ .\driver\src\i2c_va108xx.c:412:     i2c->info.status.txEmpty   = (i2c->reg->STATUS & I2C_PERIPHER
 412:.\driver\src/i2c_va108xx.c ****     // Transmit FIFO is not full 
 1333              		.loc 1 412 0
 1334 03dc 9169     		ldr	r1, [r2, #24]	@ _33, _2->STATUS
 1335 03de E4B2     		uxtb	r4, r4	@ tmp352,
 1336 03e0 090B     		lsrs	r1, r1, #12	@ tmp340, _33,
 1337 03e2 1940     		ands	r1, r3	@ tmp342, tmp165
 1338 03e4 A940     		lsls	r1, r1, r5	@ tmp350, tmp342,
 1339 03e6 6D19     		adds	r5, r5, r5	@ tmp441, tmp441,
 1340 03e8 AC43     		bics	r4, r5	@ tmp353, tmp441
 1341 03ea 2143     		orrs	r1, r4	@ tmp357, tmp353
 1342 03ec 4174     		strb	r1, [r0, #17]	@ tmp357,
 1343              	@ .\driver\src\i2c_va108xx.c:414:     i2c->info.status.txNFull   = (i2c->reg->STATUS & I2C_PERIPHER
ARM GAS  C:\Users\claym\AppData\Local\Temp\ccxpUFUu.s 			page 37


 414:.\driver\src/i2c_va108xx.c ****     // Transmit FIFO >= Trigger level 
 1344              		.loc 1 414 0
 1345 03ee 447C     		ldrb	r4, [r0, #17]	@ tmp371,
 1346 03f0 0435     		adds	r5, r5, #4	@ tmp442,
 1347 03f2 AC43     		bics	r4, r5	@ tmp372, tmp442
 1348              	@ .\driver\src\i2c_va108xx.c:416:     i2c->info.status.txFifoTrg = (i2c->reg->STATUS & I2C_PERIPHER
 416:.\driver\src/i2c_va108xx.c ****     // Raw I2C Data value 
 1349              		.loc 1 416 0
 1350 03f4 6546     		mov	r5, ip	@ tmp245, tmp245
 1351              	@ .\driver\src\i2c_va108xx.c:414:     i2c->info.status.txNFull   = (i2c->reg->STATUS & I2C_PERIPHER
 414:.\driver\src/i2c_va108xx.c ****     // Transmit FIFO >= Trigger level 
 1352              		.loc 1 414 0
 1353 03f6 9169     		ldr	r1, [r2, #24]	@ _36, _2->STATUS
 1354 03f8 490B     		lsrs	r1, r1, #13	@ tmp359, _36,
 1355 03fa 1940     		ands	r1, r3	@ tmp361, tmp165
 1356 03fc C900     		lsls	r1, r1, #3	@ tmp369, tmp361,
 1357 03fe 2143     		orrs	r1, r4	@ tmp376, tmp372
 1358 0400 4174     		strb	r1, [r0, #17]	@ tmp376,
 1359              	@ .\driver\src\i2c_va108xx.c:416:     i2c->info.status.txFifoTrg = (i2c->reg->STATUS & I2C_PERIPHER
 416:.\driver\src/i2c_va108xx.c ****     // Raw I2C Data value 
 1360              		.loc 1 416 0
 1361 0402 9169     		ldr	r1, [r2, #24]	@ _39, _2->STATUS
 1362 0404 447C     		ldrb	r4, [r0, #17]	@ tmp390,
 1363 0406 C90B     		lsrs	r1, r1, #15	@ tmp378, _39,
 1364 0408 1940     		ands	r1, r3	@ tmp380, tmp165
 1365 040a 0901     		lsls	r1, r1, #4	@ tmp388, tmp380,
 1366 040c AC43     		bics	r4, r5	@ tmp391, tmp245
 1367 040e 2143     		orrs	r1, r4	@ tmp395, tmp391
 1368 0410 4174     		strb	r1, [r0, #17]	@ tmp395,
 1369              	@ .\driver\src\i2c_va108xx.c:418:     i2c->info.status.rawSDA    = (i2c->reg->STATUS & I2C_PERIPHER
 418:.\driver\src/i2c_va108xx.c ****     // Raw I2C Clock value 
 1370              		.loc 1 418 0
 1371 0412 9169     		ldr	r1, [r2, #24]	@ _42, _2->STATUS
 1372 0414 890F     		lsrs	r1, r1, #30	@ tmp397, _42,
 1373 0416 0B40     		ands	r3, r1	@ tmp399, tmp397
 1374 0418 417C     		ldrb	r1, [r0, #17]	@ tmp409,
 1375 041a 5B01     		lsls	r3, r3, #5	@ tmp407, tmp399,
 1376 041c B943     		bics	r1, r7	@ tmp410, tmp264
 1377 041e 0B43     		orrs	r3, r1	@ tmp414, tmp410
 1378 0420 4374     		strb	r3, [r0, #17]	@ tmp414,
 1379              	@ .\driver\src\i2c_va108xx.c:420:     i2c->info.status.rawSCL    = (i2c->reg->STATUS & I2C_PERIPHER
 420:.\driver\src/i2c_va108xx.c ****   }
 1380              		.loc 1 420 0
 1381 0422 9369     		ldr	r3, [r2, #24]	@ _45, _2->STATUS
 1382 0424 DB0F     		lsrs	r3, r3, #31	@ tmp417, _45,
 1383 0426 9A01     		lsls	r2, r3, #6	@ tmp424, tmp417,
 1384 0428 437C     		ldrb	r3, [r0, #17]	@ tmp426,
 1385 042a B343     		bics	r3, r6	@ tmp427, tmp283
 1386 042c 1343     		orrs	r3, r2	@ tmp431, tmp424
 1387 042e 4374     		strb	r3, [r0, #17]	@ tmp431,
 1388              	.L123:
 1389              	@ .\driver\src\i2c_va108xx.c:423:   return i2c->info.status;
 423:.\driver\src/i2c_va108xx.c **** }
 1390              		.loc 1 423 0
 1391 0430 0069     		ldr	r0, [r0, #16]	@ D.6723, i2c_50(D)->info.status
 1392              	.LVL96:
 1393              	@ .\driver\src\i2c_va108xx.c:424: }
ARM GAS  C:\Users\claym\AppData\Local\Temp\ccxpUFUu.s 			page 38


 424:.\driver\src/i2c_va108xx.c **** 
 1394              		.loc 1 424 0
 1395              		@ sp needed	@
 1396 0432 FEBD     		pop	{r1, r2, r3, r4, r5, r6, r7, pc}
 1397              		.cfi_endproc
 1398              	.LFE57:
 1399              		.size	VOR_I2C_GetStatus, .-VOR_I2C_GetStatus
 1400              		.align	1
 1401              		.global	VOR_I2C_MasterTransmit
 1402              		.syntax unified
 1403              		.code	16
 1404              		.thumb_func
 1405              		.fpu softvfp
 1406              		.type	VOR_I2C_MasterTransmit, %function
 1407              	VOR_I2C_MasterTransmit:
 1408              	.LFB60:
 568:.\driver\src/i2c_va108xx.c **** 
 569:.\driver\src/i2c_va108xx.c **** /**
 570:.\driver\src/i2c_va108xx.c ****   function: int32_t VOR_I2C_MasterTransmit(uint32_t addr,
 571:.\driver\src/i2c_va108xx.c **** 						 							 							   const uint8_t *data,
 572:.\driver\src/i2c_va108xx.c ****                                            uint32_t num,
 573:.\driver\src/i2c_va108xx.c **** 																					 bool xfer_pending,
 574:.\driver\src/i2c_va108xx.c **** 																					 I2C_RESOURCES *i2c)
 575:.\driver\src/i2c_va108xx.c ****   brief:	Start transmitting data as I2C Master.
 576:.\driver\src/i2c_va108xx.c ****   Input:	addr					Slave address (7-bit or 10-bit)
 577:.\driver\src/i2c_va108xx.c ****   Input: 	data					Pointer to buffer with data to transmit to I2C Slave
 578:.\driver\src/i2c_va108xx.c ****   Input:	num						Number of data bytes to transmit
 579:.\driver\src/i2c_va108xx.c ****   Input:	xfer_pending	Transfer operation is pending - Stop condition will not be generated
 580:.\driver\src/i2c_va108xx.c ****   Input:	i2c						Pointer to I2C resources
 581:.\driver\src/i2c_va108xx.c ****   return:	execution_status
 582:.\driver\src/i2c_va108xx.c **** */
 583:.\driver\src/i2c_va108xx.c **** int32_t VOR_I2C_MasterTransmit(uint32_t addr,
 584:.\driver\src/i2c_va108xx.c ****                                const uint8_t *data,
 585:.\driver\src/i2c_va108xx.c ****                                uint32_t num,
 586:.\driver\src/i2c_va108xx.c ****                                bool xfer_pending,
 587:.\driver\src/i2c_va108xx.c ****                                I2C_RESOURCES *i2c) {
 1409              		.loc 1 587 0
 1410              		.cfi_startproc
 1411              		@ args = 4, pretend = 0, frame = 16
 1412              		@ frame_needed = 0, uses_anonymous_args = 0
 1413              	.LVL97:
 1414 0434 F0B5     		push	{r4, r5, r6, r7, lr}	@
 1415              	.LCFI7:
 1416              		.cfi_def_cfa_offset 20
 1417              		.cfi_offset 4, -20
 1418              		.cfi_offset 5, -16
 1419              		.cfi_offset 6, -12
 1420              		.cfi_offset 7, -8
 1421              		.cfi_offset 14, -4
 1422 0436 85B0     		sub	sp, sp, #20	@,,
 1423              	.LCFI8:
 1424              		.cfi_def_cfa_offset 40
 1425              	@ .\driver\src\i2c_va108xx.c:587:                                I2C_RESOURCES *i2c) {
 1426              		.loc 1 587 0
 1427 0438 0290     		str	r0, [sp, #8]	@ addr, %sfp
 1428 043a 0191     		str	r1, [sp, #4]	@ data, %sfp
 1429 043c 1700     		movs	r7, r2	@ num, num
ARM GAS  C:\Users\claym\AppData\Local\Temp\ccxpUFUu.s 			page 39


 1430 043e 0393     		str	r3, [sp, #12]	@ xfer_pending, %sfp
 1431 0440 0A9C     		ldr	r4, [sp, #40]	@ i2c, i2c
 1432              	@ .\driver\src\i2c_va108xx.c:592:   if (!data || (num > I2C_MAX_TXDATA)) {
 588:.\driver\src/i2c_va108xx.c ****   int32_t i = 0;
 589:.\driver\src/i2c_va108xx.c ****   /*uint32_t poll_time, start_time;*/ 
 590:.\driver\src/i2c_va108xx.c **** 	uint32_t status;
 591:.\driver\src/i2c_va108xx.c **** 																	
 592:.\driver\src/i2c_va108xx.c ****   if (!data || (num > I2C_MAX_TXDATA)) {
 1433              		.loc 1 592 0
 1434 0442 0029     		cmp	r1, #0	@ data,
 1435 0444 00D1     		bne	.LCB1181	@
 1436 0446 A6E0     		b	.L137	@long jump	@
 1437              	.LCB1181:
 1438              	@ .\driver\src\i2c_va108xx.c:592:   if (!data || (num > I2C_MAX_TXDATA)) {
 1439              		.loc 1 592 0 is_stmt 0 discriminator 1
 1440 0448 802A     		cmp	r2, #128	@ num,
 1441 044a 00D9     		bls	.LCB1183	@
 1442 044c A3E0     		b	.L137	@long jump	@
 1443              	.LCB1183:
 1444              	@ .\driver\src\i2c_va108xx.c:597:   if (!(i2c->info.flags & I2C_FLAG_INIT)) {
 593:.\driver\src/i2c_va108xx.c ****     /* Invalid parameters */
 594:.\driver\src/i2c_va108xx.c ****     return VOR_DRIVER_ERROR_PARAMETER;
 595:.\driver\src/i2c_va108xx.c ****   }
 596:.\driver\src/i2c_va108xx.c **** 
 597:.\driver\src/i2c_va108xx.c ****   if (!(i2c->info.flags & I2C_FLAG_INIT)) {
 1445              		.loc 1 597 0 is_stmt 1
 1446 044e 0126     		movs	r6, #1	@ tmp157,
 1447 0450 6369     		ldr	r3, [r4, #20]	@ tmp245, i2c_49(D)->info.flags
 1448              	.LVL98:
 1449 0452 3342     		tst	r3, r6	@ tmp245, tmp157
 1450 0454 00D1     		bne	.LCB1190	@
 1451 0456 A0E0     		b	.L138	@long jump	@
 1452              	.LCB1190:
 1453              	@ .\driver\src\i2c_va108xx.c:602:   i2c->reg->IRQ_ENB = 0;
 598:.\driver\src/i2c_va108xx.c ****     /* Driver not yet configured */
 599:.\driver\src/i2c_va108xx.c ****     return VOR_DRIVER_ERROR;
 600:.\driver\src/i2c_va108xx.c ****   }
 601:.\driver\src/i2c_va108xx.c **** 	
 602:.\driver\src/i2c_va108xx.c ****   i2c->reg->IRQ_ENB = 0;
 1454              		.loc 1 602 0
 1455 0458 0022     		movs	r2, #0	@ tmp246,
 1456              	.LVL99:
 1457 045a 6368     		ldr	r3, [r4, #4]	@ _3, i2c_49(D)->reg
 1458              	@ .\driver\src\i2c_va108xx.c:605:   if(i2c->info.poll_mode) {
 603:.\driver\src/i2c_va108xx.c ****   i2c->info.txidx = 0;
 604:.\driver\src/i2c_va108xx.c **** 
 605:.\driver\src/i2c_va108xx.c ****   if(i2c->info.poll_mode) {
 1459              		.loc 1 605 0
 1460 045c A569     		ldr	r5, [r4, #24]	@ i2c_49(D)->info.poll_mode, i2c_49(D)->info.poll_mode
 1461              	@ .\driver\src\i2c_va108xx.c:602:   i2c->reg->IRQ_ENB = 0;
 602:.\driver\src/i2c_va108xx.c ****   i2c->info.txidx = 0;
 1462              		.loc 1 602 0
 1463 045e 9A62     		str	r2, [r3, #40]	@ tmp246, _3->IRQ_ENB
 1464              	@ .\driver\src\i2c_va108xx.c:603:   i2c->info.txidx = 0;
 603:.\driver\src/i2c_va108xx.c ****   i2c->info.txidx = 0;
 1465              		.loc 1 603 0
 1466 0460 A265     		str	r2, [r4, #88]	@ tmp247, i2c_49(D)->info.txidx
ARM GAS  C:\Users\claym\AppData\Local\Temp\ccxpUFUu.s 			page 40


 1467              	@ .\driver\src\i2c_va108xx.c:605:   if(i2c->info.poll_mode) {
 1468              		.loc 1 605 0
 1469 0462 9542     		cmp	r5, r2	@ i2c_49(D)->info.poll_mode,
 1470 0464 00D1     		bne	.LCB1200	@
 1471 0466 6DE0     		b	.L126	@long jump	@
 1472              	.LCB1200:
 1473              	@ .\driver\src\i2c_va108xx.c:607:   	i2c->info.status.mode = I2C_MODE_MASTER;
 606:.\driver\src/i2c_va108xx.c **** 		/* Set Master Mode */ 
 607:.\driver\src/i2c_va108xx.c ****   	i2c->info.status.mode = I2C_MODE_MASTER;
 1474              		.loc 1 607 0
 1475 0468 617C     		ldrb	r1, [r4, #17]	@ tmp164,
 1476              	.LVL100:
 1477 046a 803A     		subs	r2, r2, #128	@ tmp166,
 1478 046c 0A43     		orrs	r2, r1	@ tmp165, tmp164
 1479 046e 6274     		strb	r2, [r4, #17]	@ tmp165,
 1480              	.LVL101:
 1481              	@ .\driver\src\i2c_va108xx.c:610:   	i2c->info.status.direction = I2C_DIR_TRANSMIT;
 608:.\driver\src/i2c_va108xx.c ****   	
 609:.\driver\src/i2c_va108xx.c **** 		/* Set Direction Transmit */ 
 610:.\driver\src/i2c_va108xx.c ****   	i2c->info.status.direction = I2C_DIR_TRANSMIT;
 1482              		.loc 1 610 0
 1483 0470 A27C     		ldrb	r2, [r4, #18]	@ tmp171,
 1484              	@ .\driver\src\i2c_va108xx.c:638:   	  if( status & I2C_PERIPHERAL_STATUS_ARBLOST_Msk ) {
 611:.\driver\src/i2c_va108xx.c ****   	i2c->reg->CTRL |= I2C_PERIPHERAL_CTRL_ENABLE_Msk;
 612:.\driver\src/i2c_va108xx.c **** 		
 613:.\driver\src/i2c_va108xx.c **** 	  /* Enable Start bit */ 
 614:.\driver\src/i2c_va108xx.c ****     VOR_I2C_Setup(addr,num,i2c);
 615:.\driver\src/i2c_va108xx.c **** 	  i2c->reg->CMD |= I2C_CMD_START;
 616:.\driver\src/i2c_va108xx.c **** 
 617:.\driver\src/i2c_va108xx.c ****  		/* Get Current Time */ 
 618:.\driver\src/i2c_va108xx.c **** 	  /* start_time = VOR_Get_SysTime();
 619:.\driver\src/i2c_va108xx.c **** 	  poll_time  = start_time - i2c->info.poll_tout; */ 
 620:.\driver\src/i2c_va108xx.c **** 
 621:.\driver\src/i2c_va108xx.c **** 	  while( (num !=0) /*&& (poll_time <= VOR_Get_SysTime())*/ ) {
 622:.\driver\src/i2c_va108xx.c **** 			__NOP( ); 
 623:.\driver\src/i2c_va108xx.c ****   	  __NOP( ); 
 624:.\driver\src/i2c_va108xx.c **** 	    __NOP( ); 
 625:.\driver\src/i2c_va108xx.c **** 			
 626:.\driver\src/i2c_va108xx.c **** 		  status = i2c->reg->STATUS;
 627:.\driver\src/i2c_va108xx.c **** 		  if((!(status&I2C_PERIPHERAL_STATUS_IDLE_Msk) || (status &I2C_PERIPHERAL_STATUS_WAITING_Msk) || 
 628:.\driver\src/i2c_va108xx.c ****   	    /* Check TX fifo status and Load Remaining Data */ 
 629:.\driver\src/i2c_va108xx.c **** 	      if((status&I2C_PERIPHERAL_STATUS_TXNFULL_Msk)!=0) {
 630:.\driver\src/i2c_va108xx.c ****     	    i2c->reg->DATA=data[i++];
 631:.\driver\src/i2c_va108xx.c **** 		      num--;			
 632:.\driver\src/i2c_va108xx.c **** 					i2c->info.txidx++;
 633:.\driver\src/i2c_va108xx.c **** 			    if((num==0) && (xfer_pending == 0))
 634:.\driver\src/i2c_va108xx.c ****     			  i2c->reg->CMD |= I2C_CMD_STOP;
 635:.\driver\src/i2c_va108xx.c **** 	      }
 636:.\driver\src/i2c_va108xx.c ****   	  }
 637:.\driver\src/i2c_va108xx.c **** 	    /* Check for Arbitration Error */ 
 638:.\driver\src/i2c_va108xx.c ****   	  if( status & I2C_PERIPHERAL_STATUS_ARBLOST_Msk ) {
 1485              		.loc 1 638 0
 1486 0472 1025     		movs	r5, #16	@ tmp229,
 1487              	@ .\driver\src\i2c_va108xx.c:610:   	i2c->info.status.direction = I2C_DIR_TRANSMIT;
 610:.\driver\src/i2c_va108xx.c ****   	i2c->reg->CTRL |= I2C_PERIPHERAL_CTRL_ENABLE_Msk;
 1488              		.loc 1 610 0
 1489 0474 B243     		bics	r2, r6	@ tmp172, tmp157
ARM GAS  C:\Users\claym\AppData\Local\Temp\ccxpUFUu.s 			page 41


 1490 0476 A274     		strb	r2, [r4, #18]	@ tmp172,
 1491              	@ .\driver\src\i2c_va108xx.c:611:   	i2c->reg->CTRL |= I2C_PERIPHERAL_CTRL_ENABLE_Msk;
 611:.\driver\src/i2c_va108xx.c ****   	i2c->reg->CTRL |= I2C_PERIPHERAL_CTRL_ENABLE_Msk;
 1492              		.loc 1 611 0
 1493 0478 0422     		movs	r2, #4	@ tmp175,
 1494 047a 1968     		ldr	r1, [r3]	@ _5, _3->CTRL
 1495              	@ .\driver\src\i2c_va108xx.c:614:     VOR_I2C_Setup(addr,num,i2c);
 614:.\driver\src/i2c_va108xx.c **** 	  i2c->reg->CMD |= I2C_CMD_START;
 1496              		.loc 1 614 0
 1497 047c 0298     		ldr	r0, [sp, #8]	@, %sfp
 1498              	.LVL102:
 1499              	@ .\driver\src\i2c_va108xx.c:611:   	i2c->reg->CTRL |= I2C_PERIPHERAL_CTRL_ENABLE_Msk;
 611:.\driver\src/i2c_va108xx.c ****   	i2c->reg->CTRL |= I2C_PERIPHERAL_CTRL_ENABLE_Msk;
 1500              		.loc 1 611 0
 1501 047e 0A43     		orrs	r2, r1	@ _6, _5
 1502 0480 1A60     		str	r2, [r3]	@ _6, _3->CTRL
 1503              	@ .\driver\src\i2c_va108xx.c:614:     VOR_I2C_Setup(addr,num,i2c);
 614:.\driver\src/i2c_va108xx.c **** 	  i2c->reg->CMD |= I2C_CMD_START;
 1504              		.loc 1 614 0
 1505 0482 3900     		movs	r1, r7	@, num
 1506 0484 2200     		movs	r2, r4	@, i2c
 1507 0486 FFF7BBFD 		bl	VOR_I2C_Setup	@
 1508              	.LVL103:
 1509              	@ .\driver\src\i2c_va108xx.c:615: 	  i2c->reg->CMD |= I2C_CMD_START;
 615:.\driver\src/i2c_va108xx.c **** 
 1510              		.loc 1 615 0
 1511 048a 6268     		ldr	r2, [r4, #4]	@ _7, i2c_49(D)->reg
 1512              	@ .\driver\src\i2c_va108xx.c:588:   int32_t i = 0;
 588:.\driver\src/i2c_va108xx.c ****   /*uint32_t poll_time, start_time;*/ 
 1513              		.loc 1 588 0
 1514 048c 0021     		movs	r1, #0	@ i,
 1515              	@ .\driver\src\i2c_va108xx.c:615: 	  i2c->reg->CMD |= I2C_CMD_START;
 615:.\driver\src/i2c_va108xx.c **** 
 1516              		.loc 1 615 0
 1517 048e 5369     		ldr	r3, [r2, #20]	@ _8, _7->CMD
 1518 0490 1E43     		orrs	r6, r3	@ _9, _8
 1519              	@ .\driver\src\i2c_va108xx.c:627: 		  if((!(status&I2C_PERIPHERAL_STATUS_IDLE_Msk) || (status &I2C_
 627:.\driver\src/i2c_va108xx.c ****   	    /* Check TX fifo status and Load Remaining Data */ 
 1520              		.loc 1 627 0
 1521 0492 0E23     		movs	r3, #14	@ tmp226,
 1522              	@ .\driver\src\i2c_va108xx.c:615: 	  i2c->reg->CMD |= I2C_CMD_START;
 615:.\driver\src/i2c_va108xx.c **** 
 1523              		.loc 1 615 0
 1524 0494 5661     		str	r6, [r2, #20]	@ _9, _7->CMD
 1525              	@ .\driver\src\i2c_va108xx.c:627: 		  if((!(status&I2C_PERIPHERAL_STATUS_IDLE_Msk) || (status &I2C_
 627:.\driver\src/i2c_va108xx.c ****   	    /* Check TX fifo status and Load Remaining Data */ 
 1526              		.loc 1 627 0
 1527 0496 9C46     		mov	ip, r3	@ tmp226, tmp226
 1528              	@ .\driver\src\i2c_va108xx.c:634:     			  i2c->reg->CMD |= I2C_CMD_STOP;
 634:.\driver\src/i2c_va108xx.c **** 	      }
 1529              		.loc 1 634 0
 1530 0498 0226     		movs	r6, #2	@ tmp228,
 1531              	.LVL104:
 1532              	.L127:
 1533              	@ .\driver\src\i2c_va108xx.c:621: 	  while( (num !=0) /*&& (poll_time <= VOR_Get_SysTime())*/ ) {
 621:.\driver\src/i2c_va108xx.c **** 			__NOP( ); 
 1534              		.loc 1 621 0
ARM GAS  C:\Users\claym\AppData\Local\Temp\ccxpUFUu.s 			page 42


 1535 049a 002F     		cmp	r7, #0	@ num,
 1536 049c 0ED1     		bne	.L131	@,
 1537              	@ .\driver\src\i2c_va108xx.c:660: 	  while( !(i2c->reg->STATUS & I2C_PERIPHERAL_STATUS_TXEMPTY_Msk)
 639:.\driver\src/i2c_va108xx.c **** 	      VOR_I2C_Stop(i2c);
 640:.\driver\src/i2c_va108xx.c ****   		  return VOR_I2C_ERROR_ARBITRATION_LOST;
 641:.\driver\src/i2c_va108xx.c **** 	    }
 642:.\driver\src/i2c_va108xx.c **** 	    /* Check for Address Nack Error */ 
 643:.\driver\src/i2c_va108xx.c **** 	    if(status & I2C_PERIPHERAL_STATUS_NACKADDR_Msk) {
 644:.\driver\src/i2c_va108xx.c **** 	      VOR_I2C_Stop(i2c);
 645:.\driver\src/i2c_va108xx.c **** 	      return VOR_I2C_ERROR_ADDRESS_NACK;
 646:.\driver\src/i2c_va108xx.c **** 	    }
 647:.\driver\src/i2c_va108xx.c **** 	    /* Check for Data Nack Error */ 
 648:.\driver\src/i2c_va108xx.c **** 	    if(status & I2C_PERIPHERAL_STATUS_NACKDATA_Msk) {
 649:.\driver\src/i2c_va108xx.c **** 	      VOR_I2C_Stop(i2c);
 650:.\driver\src/i2c_va108xx.c **** 		    return VOR_I2C_ERROR_TRANSFER_INCOMPLETE;
 651:.\driver\src/i2c_va108xx.c **** 	    }
 652:.\driver\src/i2c_va108xx.c **** 	  }
 653:.\driver\src/i2c_va108xx.c **** 		
 654:.\driver\src/i2c_va108xx.c **** 	  if(num!=0) {
 655:.\driver\src/i2c_va108xx.c ****       VOR_I2C_Stop(i2c);
 656:.\driver\src/i2c_va108xx.c **** 	    return VOR_I2C_ERROR_POLL_TOUT;
 657:.\driver\src/i2c_va108xx.c **** 	  }
 658:.\driver\src/i2c_va108xx.c **** 		
 659:.\driver\src/i2c_va108xx.c **** 	  /* Wait for transaction to complete */ 
 660:.\driver\src/i2c_va108xx.c **** 	  while( !(i2c->reg->STATUS & I2C_PERIPHERAL_STATUS_TXEMPTY_Msk) /* && (poll_time <= VOR_Get_SysTi
 1538              		.loc 1 660 0
 1539 049e 8023     		movs	r3, #128	@ tmp193,
 1540              	@ .\driver\src\i2c_va108xx.c:664: 	    if( i2c->reg->STATUS & I2C_PERIPHERAL_STATUS_NACKDATA_Msk ) 
 661:.\driver\src/i2c_va108xx.c ****   	  __NOP( ); 
 662:.\driver\src/i2c_va108xx.c **** 	    __NOP( ); 
 663:.\driver\src/i2c_va108xx.c **** 	    /* Check for Data Nack Error */ 
 664:.\driver\src/i2c_va108xx.c **** 	    if( i2c->reg->STATUS & I2C_PERIPHERAL_STATUS_NACKDATA_Msk ) {
 1541              		.loc 1 664 0
 1542 04a0 4020     		movs	r0, #64	@ tmp225,
 1543              	@ .\driver\src\i2c_va108xx.c:660: 	  while( !(i2c->reg->STATUS & I2C_PERIPHERAL_STATUS_TXEMPTY_Msk)
 660:.\driver\src/i2c_va108xx.c ****   	  __NOP( ); 
 1544              		.loc 1 660 0
 1545 04a2 5B01     		lsls	r3, r3, #5	@ tmp193, tmp193,
 1546              	.LVL105:
 1547              	.L132:
 1548 04a4 6268     		ldr	r2, [r4, #4]	@ _27, i2c_49(D)->reg
 1549 04a6 9169     		ldr	r1, [r2, #24]	@ _28, _27->STATUS
 1550 04a8 1942     		tst	r1, r3	@ _28, tmp193
 1551 04aa 3AD0     		beq	.L134	@,
 1552              	@ .\driver\src\i2c_va108xx.c:670: 	  if( !(i2c->reg->STATUS & I2C_PERIPHERAL_STATUS_TXEMPTY_Msk) ) 
 665:.\driver\src/i2c_va108xx.c ****         VOR_I2C_Stop(i2c);
 666:.\driver\src/i2c_va108xx.c **** 		    return VOR_I2C_ERROR_TRANSFER_INCOMPLETE;
 667:.\driver\src/i2c_va108xx.c **** 	    }
 668:.\driver\src/i2c_va108xx.c **** 	  }
 669:.\driver\src/i2c_va108xx.c **** 		
 670:.\driver\src/i2c_va108xx.c **** 	  if( !(i2c->reg->STATUS & I2C_PERIPHERAL_STATUS_TXEMPTY_Msk) ) {
 1553              		.loc 1 670 0
 1554 04ac 9269     		ldr	r2, [r2, #24]	@ _30, _27->STATUS
 1555 04ae 1A42     		tst	r2, r3	@ _30, tmp193
 1556 04b0 3ED1     		bne	.L135	@,
 1557              	@ .\driver\src\i2c_va108xx.c:671:       VOR_I2C_Stop(i2c);
 671:.\driver\src/i2c_va108xx.c ****       VOR_I2C_Stop(i2c);
ARM GAS  C:\Users\claym\AppData\Local\Temp\ccxpUFUu.s 			page 43


 1558              		.loc 1 671 0
 1559 04b2 2000     		movs	r0, r4	@, i2c
 1560 04b4 FFF748FE 		bl	VOR_I2C_Stop	@
 1561              	.LVL106:
 1562              	@ .\driver\src\i2c_va108xx.c:672: 	    return VOR_I2C_ERROR_POLL_TOUT;		  
 672:.\driver\src/i2c_va108xx.c **** 	    return VOR_I2C_ERROR_POLL_TOUT;		  
 1563              		.loc 1 672 0
 1564 04b8 0F25     		movs	r5, #15	@ <retval>,
 1565 04ba 22E0     		b	.L150	@
 1566              	.LVL107:
 1567              	.L131:
 1568              	.LBB116:
 1569              	.LBB117:
 1570              	@ .\inc/cmsis_gcc.h:375:   __ASM volatile ("nop");
 1571              		.file 2 ".\\inc/cmsis_gcc.h"
   1:.\inc/cmsis_gcc.h **** /**************************************************************************//**
   2:.\inc/cmsis_gcc.h ****  * @file     cmsis_gcc.h
   3:.\inc/cmsis_gcc.h ****  * @brief    CMSIS Cortex-M Core Function/Instruction Header File
   4:.\inc/cmsis_gcc.h ****  * @version  V4.30
   5:.\inc/cmsis_gcc.h ****  * @date     20. October 2015
   6:.\inc/cmsis_gcc.h ****  ******************************************************************************/
   7:.\inc/cmsis_gcc.h **** /* Copyright (c) 2009 - 2015 ARM LIMITED
   8:.\inc/cmsis_gcc.h **** 
   9:.\inc/cmsis_gcc.h ****    All rights reserved.
  10:.\inc/cmsis_gcc.h ****    Redistribution and use in source and binary forms, with or without
  11:.\inc/cmsis_gcc.h ****    modification, are permitted provided that the following conditions are met:
  12:.\inc/cmsis_gcc.h ****    - Redistributions of source code must retain the above copyright
  13:.\inc/cmsis_gcc.h ****      notice, this list of conditions and the following disclaimer.
  14:.\inc/cmsis_gcc.h ****    - Redistributions in binary form must reproduce the above copyright
  15:.\inc/cmsis_gcc.h ****      notice, this list of conditions and the following disclaimer in the
  16:.\inc/cmsis_gcc.h ****      documentation and/or other materials provided with the distribution.
  17:.\inc/cmsis_gcc.h ****    - Neither the name of ARM nor the names of its contributors may be used
  18:.\inc/cmsis_gcc.h ****      to endorse or promote products derived from this software without
  19:.\inc/cmsis_gcc.h ****      specific prior written permission.
  20:.\inc/cmsis_gcc.h ****    *
  21:.\inc/cmsis_gcc.h ****    THIS SOFTWARE IS PROVIDED BY THE COPYRIGHT HOLDERS AND CONTRIBUTORS "AS IS"
  22:.\inc/cmsis_gcc.h ****    AND ANY EXPRESS OR IMPLIED WARRANTIES, INCLUDING, BUT NOT LIMITED TO, THE
  23:.\inc/cmsis_gcc.h ****    IMPLIED WARRANTIES OF MERCHANTABILITY AND FITNESS FOR A PARTICULAR PURPOSE
  24:.\inc/cmsis_gcc.h ****    ARE DISCLAIMED. IN NO EVENT SHALL COPYRIGHT HOLDERS AND CONTRIBUTORS BE
  25:.\inc/cmsis_gcc.h ****    LIABLE FOR ANY DIRECT, INDIRECT, INCIDENTAL, SPECIAL, EXEMPLARY, OR
  26:.\inc/cmsis_gcc.h ****    CONSEQUENTIAL DAMAGES (INCLUDING, BUT NOT LIMITED TO, PROCUREMENT OF
  27:.\inc/cmsis_gcc.h ****    SUBSTITUTE GOODS OR SERVICES; LOSS OF USE, DATA, OR PROFITS; OR BUSINESS
  28:.\inc/cmsis_gcc.h ****    INTERRUPTION) HOWEVER CAUSED AND ON ANY THEORY OF LIABILITY, WHETHER IN
  29:.\inc/cmsis_gcc.h ****    CONTRACT, STRICT LIABILITY, OR TORT (INCLUDING NEGLIGENCE OR OTHERWISE)
  30:.\inc/cmsis_gcc.h ****    ARISING IN ANY WAY OUT OF THE USE OF THIS SOFTWARE, EVEN IF ADVISED OF THE
  31:.\inc/cmsis_gcc.h ****    POSSIBILITY OF SUCH DAMAGE.
  32:.\inc/cmsis_gcc.h ****    ---------------------------------------------------------------------------*/
  33:.\inc/cmsis_gcc.h **** 
  34:.\inc/cmsis_gcc.h **** 
  35:.\inc/cmsis_gcc.h **** #ifndef __CMSIS_GCC_H
  36:.\inc/cmsis_gcc.h **** #define __CMSIS_GCC_H
  37:.\inc/cmsis_gcc.h **** 
  38:.\inc/cmsis_gcc.h **** /* ignore some GCC warnings */
  39:.\inc/cmsis_gcc.h **** #if defined ( __GNUC__ )
  40:.\inc/cmsis_gcc.h **** #pragma GCC diagnostic push
  41:.\inc/cmsis_gcc.h **** #pragma GCC diagnostic ignored "-Wsign-conversion"
  42:.\inc/cmsis_gcc.h **** #pragma GCC diagnostic ignored "-Wconversion"
ARM GAS  C:\Users\claym\AppData\Local\Temp\ccxpUFUu.s 			page 44


  43:.\inc/cmsis_gcc.h **** #pragma GCC diagnostic ignored "-Wunused-parameter"
  44:.\inc/cmsis_gcc.h **** #endif
  45:.\inc/cmsis_gcc.h **** 
  46:.\inc/cmsis_gcc.h **** 
  47:.\inc/cmsis_gcc.h **** /* ###########################  Core Function Access  ########################### */
  48:.\inc/cmsis_gcc.h **** /** \ingroup  CMSIS_Core_FunctionInterface
  49:.\inc/cmsis_gcc.h ****     \defgroup CMSIS_Core_RegAccFunctions CMSIS Core Register Access Functions
  50:.\inc/cmsis_gcc.h ****   @{
  51:.\inc/cmsis_gcc.h ****  */
  52:.\inc/cmsis_gcc.h **** 
  53:.\inc/cmsis_gcc.h **** /**
  54:.\inc/cmsis_gcc.h ****   \brief   Enable IRQ Interrupts
  55:.\inc/cmsis_gcc.h ****   \details Enables IRQ interrupts by clearing the I-bit in the CPSR.
  56:.\inc/cmsis_gcc.h ****            Can only be executed in Privileged modes.
  57:.\inc/cmsis_gcc.h ****  */
  58:.\inc/cmsis_gcc.h **** __attribute__( ( always_inline ) ) __STATIC_INLINE void __enable_irq(void)
  59:.\inc/cmsis_gcc.h **** {
  60:.\inc/cmsis_gcc.h ****   __ASM volatile ("cpsie i" : : : "memory");
  61:.\inc/cmsis_gcc.h **** }
  62:.\inc/cmsis_gcc.h **** 
  63:.\inc/cmsis_gcc.h **** 
  64:.\inc/cmsis_gcc.h **** /**
  65:.\inc/cmsis_gcc.h ****   \brief   Disable IRQ Interrupts
  66:.\inc/cmsis_gcc.h ****   \details Disables IRQ interrupts by setting the I-bit in the CPSR.
  67:.\inc/cmsis_gcc.h ****   Can only be executed in Privileged modes.
  68:.\inc/cmsis_gcc.h ****  */
  69:.\inc/cmsis_gcc.h **** __attribute__( ( always_inline ) ) __STATIC_INLINE void __disable_irq(void)
  70:.\inc/cmsis_gcc.h **** {
  71:.\inc/cmsis_gcc.h ****   __ASM volatile ("cpsid i" : : : "memory");
  72:.\inc/cmsis_gcc.h **** }
  73:.\inc/cmsis_gcc.h **** 
  74:.\inc/cmsis_gcc.h **** 
  75:.\inc/cmsis_gcc.h **** /**
  76:.\inc/cmsis_gcc.h ****   \brief   Get Control Register
  77:.\inc/cmsis_gcc.h ****   \details Returns the content of the Control Register.
  78:.\inc/cmsis_gcc.h ****   \return               Control Register value
  79:.\inc/cmsis_gcc.h ****  */
  80:.\inc/cmsis_gcc.h **** __attribute__( ( always_inline ) ) __STATIC_INLINE uint32_t __get_CONTROL(void)
  81:.\inc/cmsis_gcc.h **** {
  82:.\inc/cmsis_gcc.h ****   uint32_t result;
  83:.\inc/cmsis_gcc.h **** 
  84:.\inc/cmsis_gcc.h ****   __ASM volatile ("MRS %0, control" : "=r" (result) );
  85:.\inc/cmsis_gcc.h ****   return(result);
  86:.\inc/cmsis_gcc.h **** }
  87:.\inc/cmsis_gcc.h **** 
  88:.\inc/cmsis_gcc.h **** 
  89:.\inc/cmsis_gcc.h **** /**
  90:.\inc/cmsis_gcc.h ****   \brief   Set Control Register
  91:.\inc/cmsis_gcc.h ****   \details Writes the given value to the Control Register.
  92:.\inc/cmsis_gcc.h ****   \param [in]    control  Control Register value to set
  93:.\inc/cmsis_gcc.h ****  */
  94:.\inc/cmsis_gcc.h **** __attribute__( ( always_inline ) ) __STATIC_INLINE void __set_CONTROL(uint32_t control)
  95:.\inc/cmsis_gcc.h **** {
  96:.\inc/cmsis_gcc.h ****   __ASM volatile ("MSR control, %0" : : "r" (control) : "memory");
  97:.\inc/cmsis_gcc.h **** }
  98:.\inc/cmsis_gcc.h **** 
  99:.\inc/cmsis_gcc.h **** 
ARM GAS  C:\Users\claym\AppData\Local\Temp\ccxpUFUu.s 			page 45


 100:.\inc/cmsis_gcc.h **** /**
 101:.\inc/cmsis_gcc.h ****   \brief   Get IPSR Register
 102:.\inc/cmsis_gcc.h ****   \details Returns the content of the IPSR Register.
 103:.\inc/cmsis_gcc.h ****   \return               IPSR Register value
 104:.\inc/cmsis_gcc.h ****  */
 105:.\inc/cmsis_gcc.h **** __attribute__( ( always_inline ) ) __STATIC_INLINE uint32_t __get_IPSR(void)
 106:.\inc/cmsis_gcc.h **** {
 107:.\inc/cmsis_gcc.h ****   uint32_t result;
 108:.\inc/cmsis_gcc.h **** 
 109:.\inc/cmsis_gcc.h ****   __ASM volatile ("MRS %0, ipsr" : "=r" (result) );
 110:.\inc/cmsis_gcc.h ****   return(result);
 111:.\inc/cmsis_gcc.h **** }
 112:.\inc/cmsis_gcc.h **** 
 113:.\inc/cmsis_gcc.h **** 
 114:.\inc/cmsis_gcc.h **** /**
 115:.\inc/cmsis_gcc.h ****   \brief   Get APSR Register
 116:.\inc/cmsis_gcc.h ****   \details Returns the content of the APSR Register.
 117:.\inc/cmsis_gcc.h ****   \return               APSR Register value
 118:.\inc/cmsis_gcc.h ****  */
 119:.\inc/cmsis_gcc.h **** __attribute__( ( always_inline ) ) __STATIC_INLINE uint32_t __get_APSR(void)
 120:.\inc/cmsis_gcc.h **** {
 121:.\inc/cmsis_gcc.h ****   uint32_t result;
 122:.\inc/cmsis_gcc.h **** 
 123:.\inc/cmsis_gcc.h ****   __ASM volatile ("MRS %0, apsr" : "=r" (result) );
 124:.\inc/cmsis_gcc.h ****   return(result);
 125:.\inc/cmsis_gcc.h **** }
 126:.\inc/cmsis_gcc.h **** 
 127:.\inc/cmsis_gcc.h **** 
 128:.\inc/cmsis_gcc.h **** /**
 129:.\inc/cmsis_gcc.h ****   \brief   Get xPSR Register
 130:.\inc/cmsis_gcc.h ****   \details Returns the content of the xPSR Register.
 131:.\inc/cmsis_gcc.h **** 
 132:.\inc/cmsis_gcc.h ****     \return               xPSR Register value
 133:.\inc/cmsis_gcc.h ****  */
 134:.\inc/cmsis_gcc.h **** __attribute__( ( always_inline ) ) __STATIC_INLINE uint32_t __get_xPSR(void)
 135:.\inc/cmsis_gcc.h **** {
 136:.\inc/cmsis_gcc.h ****   uint32_t result;
 137:.\inc/cmsis_gcc.h **** 
 138:.\inc/cmsis_gcc.h ****   __ASM volatile ("MRS %0, xpsr" : "=r" (result) );
 139:.\inc/cmsis_gcc.h ****   return(result);
 140:.\inc/cmsis_gcc.h **** }
 141:.\inc/cmsis_gcc.h **** 
 142:.\inc/cmsis_gcc.h **** 
 143:.\inc/cmsis_gcc.h **** /**
 144:.\inc/cmsis_gcc.h ****   \brief   Get Process Stack Pointer
 145:.\inc/cmsis_gcc.h ****   \details Returns the current value of the Process Stack Pointer (PSP).
 146:.\inc/cmsis_gcc.h ****   \return               PSP Register value
 147:.\inc/cmsis_gcc.h ****  */
 148:.\inc/cmsis_gcc.h **** __attribute__( ( always_inline ) ) __STATIC_INLINE uint32_t __get_PSP(void)
 149:.\inc/cmsis_gcc.h **** {
 150:.\inc/cmsis_gcc.h ****   register uint32_t result;
 151:.\inc/cmsis_gcc.h **** 
 152:.\inc/cmsis_gcc.h ****   __ASM volatile ("MRS %0, psp\n"  : "=r" (result) );
 153:.\inc/cmsis_gcc.h ****   return(result);
 154:.\inc/cmsis_gcc.h **** }
 155:.\inc/cmsis_gcc.h **** 
 156:.\inc/cmsis_gcc.h **** 
ARM GAS  C:\Users\claym\AppData\Local\Temp\ccxpUFUu.s 			page 46


 157:.\inc/cmsis_gcc.h **** /**
 158:.\inc/cmsis_gcc.h ****   \brief   Set Process Stack Pointer
 159:.\inc/cmsis_gcc.h ****   \details Assigns the given value to the Process Stack Pointer (PSP).
 160:.\inc/cmsis_gcc.h ****   \param [in]    topOfProcStack  Process Stack Pointer value to set
 161:.\inc/cmsis_gcc.h ****  */
 162:.\inc/cmsis_gcc.h **** __attribute__( ( always_inline ) ) __STATIC_INLINE void __set_PSP(uint32_t topOfProcStack)
 163:.\inc/cmsis_gcc.h **** {
 164:.\inc/cmsis_gcc.h ****   __ASM volatile ("MSR psp, %0\n" : : "r" (topOfProcStack) : "sp");
 165:.\inc/cmsis_gcc.h **** }
 166:.\inc/cmsis_gcc.h **** 
 167:.\inc/cmsis_gcc.h **** 
 168:.\inc/cmsis_gcc.h **** /**
 169:.\inc/cmsis_gcc.h ****   \brief   Get Main Stack Pointer
 170:.\inc/cmsis_gcc.h ****   \details Returns the current value of the Main Stack Pointer (MSP).
 171:.\inc/cmsis_gcc.h ****   \return               MSP Register value
 172:.\inc/cmsis_gcc.h ****  */
 173:.\inc/cmsis_gcc.h **** __attribute__( ( always_inline ) ) __STATIC_INLINE uint32_t __get_MSP(void)
 174:.\inc/cmsis_gcc.h **** {
 175:.\inc/cmsis_gcc.h ****   register uint32_t result;
 176:.\inc/cmsis_gcc.h **** 
 177:.\inc/cmsis_gcc.h ****   __ASM volatile ("MRS %0, msp\n" : "=r" (result) );
 178:.\inc/cmsis_gcc.h ****   return(result);
 179:.\inc/cmsis_gcc.h **** }
 180:.\inc/cmsis_gcc.h **** 
 181:.\inc/cmsis_gcc.h **** 
 182:.\inc/cmsis_gcc.h **** /**
 183:.\inc/cmsis_gcc.h ****   \brief   Set Main Stack Pointer
 184:.\inc/cmsis_gcc.h ****   \details Assigns the given value to the Main Stack Pointer (MSP).
 185:.\inc/cmsis_gcc.h **** 
 186:.\inc/cmsis_gcc.h ****     \param [in]    topOfMainStack  Main Stack Pointer value to set
 187:.\inc/cmsis_gcc.h ****  */
 188:.\inc/cmsis_gcc.h **** __attribute__( ( always_inline ) ) __STATIC_INLINE void __set_MSP(uint32_t topOfMainStack)
 189:.\inc/cmsis_gcc.h **** {
 190:.\inc/cmsis_gcc.h ****   __ASM volatile ("MSR msp, %0\n" : : "r" (topOfMainStack) : "sp");
 191:.\inc/cmsis_gcc.h **** }
 192:.\inc/cmsis_gcc.h **** 
 193:.\inc/cmsis_gcc.h **** 
 194:.\inc/cmsis_gcc.h **** /**
 195:.\inc/cmsis_gcc.h ****   \brief   Get Priority Mask
 196:.\inc/cmsis_gcc.h ****   \details Returns the current state of the priority mask bit from the Priority Mask Register.
 197:.\inc/cmsis_gcc.h ****   \return               Priority Mask value
 198:.\inc/cmsis_gcc.h ****  */
 199:.\inc/cmsis_gcc.h **** __attribute__( ( always_inline ) ) __STATIC_INLINE uint32_t __get_PRIMASK(void)
 200:.\inc/cmsis_gcc.h **** {
 201:.\inc/cmsis_gcc.h ****   uint32_t result;
 202:.\inc/cmsis_gcc.h **** 
 203:.\inc/cmsis_gcc.h ****   __ASM volatile ("MRS %0, primask" : "=r" (result) );
 204:.\inc/cmsis_gcc.h ****   return(result);
 205:.\inc/cmsis_gcc.h **** }
 206:.\inc/cmsis_gcc.h **** 
 207:.\inc/cmsis_gcc.h **** 
 208:.\inc/cmsis_gcc.h **** /**
 209:.\inc/cmsis_gcc.h ****   \brief   Set Priority Mask
 210:.\inc/cmsis_gcc.h ****   \details Assigns the given value to the Priority Mask Register.
 211:.\inc/cmsis_gcc.h ****   \param [in]    priMask  Priority Mask
 212:.\inc/cmsis_gcc.h ****  */
 213:.\inc/cmsis_gcc.h **** __attribute__( ( always_inline ) ) __STATIC_INLINE void __set_PRIMASK(uint32_t priMask)
ARM GAS  C:\Users\claym\AppData\Local\Temp\ccxpUFUu.s 			page 47


 214:.\inc/cmsis_gcc.h **** {
 215:.\inc/cmsis_gcc.h ****   __ASM volatile ("MSR primask, %0" : : "r" (priMask) : "memory");
 216:.\inc/cmsis_gcc.h **** }
 217:.\inc/cmsis_gcc.h **** 
 218:.\inc/cmsis_gcc.h **** 
 219:.\inc/cmsis_gcc.h **** #if       (__CORTEX_M >= 0x03U)
 220:.\inc/cmsis_gcc.h **** 
 221:.\inc/cmsis_gcc.h **** /**
 222:.\inc/cmsis_gcc.h ****   \brief   Enable FIQ
 223:.\inc/cmsis_gcc.h ****   \details Enables FIQ interrupts by clearing the F-bit in the CPSR.
 224:.\inc/cmsis_gcc.h ****            Can only be executed in Privileged modes.
 225:.\inc/cmsis_gcc.h ****  */
 226:.\inc/cmsis_gcc.h **** __attribute__( ( always_inline ) ) __STATIC_INLINE void __enable_fault_irq(void)
 227:.\inc/cmsis_gcc.h **** {
 228:.\inc/cmsis_gcc.h ****   __ASM volatile ("cpsie f" : : : "memory");
 229:.\inc/cmsis_gcc.h **** }
 230:.\inc/cmsis_gcc.h **** 
 231:.\inc/cmsis_gcc.h **** 
 232:.\inc/cmsis_gcc.h **** /**
 233:.\inc/cmsis_gcc.h ****   \brief   Disable FIQ
 234:.\inc/cmsis_gcc.h ****   \details Disables FIQ interrupts by setting the F-bit in the CPSR.
 235:.\inc/cmsis_gcc.h ****            Can only be executed in Privileged modes.
 236:.\inc/cmsis_gcc.h ****  */
 237:.\inc/cmsis_gcc.h **** __attribute__( ( always_inline ) ) __STATIC_INLINE void __disable_fault_irq(void)
 238:.\inc/cmsis_gcc.h **** {
 239:.\inc/cmsis_gcc.h ****   __ASM volatile ("cpsid f" : : : "memory");
 240:.\inc/cmsis_gcc.h **** }
 241:.\inc/cmsis_gcc.h **** 
 242:.\inc/cmsis_gcc.h **** 
 243:.\inc/cmsis_gcc.h **** /**
 244:.\inc/cmsis_gcc.h ****   \brief   Get Base Priority
 245:.\inc/cmsis_gcc.h ****   \details Returns the current value of the Base Priority register.
 246:.\inc/cmsis_gcc.h ****   \return               Base Priority register value
 247:.\inc/cmsis_gcc.h ****  */
 248:.\inc/cmsis_gcc.h **** __attribute__( ( always_inline ) ) __STATIC_INLINE uint32_t __get_BASEPRI(void)
 249:.\inc/cmsis_gcc.h **** {
 250:.\inc/cmsis_gcc.h ****   uint32_t result;
 251:.\inc/cmsis_gcc.h **** 
 252:.\inc/cmsis_gcc.h ****   __ASM volatile ("MRS %0, basepri" : "=r" (result) );
 253:.\inc/cmsis_gcc.h ****   return(result);
 254:.\inc/cmsis_gcc.h **** }
 255:.\inc/cmsis_gcc.h **** 
 256:.\inc/cmsis_gcc.h **** 
 257:.\inc/cmsis_gcc.h **** /**
 258:.\inc/cmsis_gcc.h ****   \brief   Set Base Priority
 259:.\inc/cmsis_gcc.h ****   \details Assigns the given value to the Base Priority register.
 260:.\inc/cmsis_gcc.h ****   \param [in]    basePri  Base Priority value to set
 261:.\inc/cmsis_gcc.h ****  */
 262:.\inc/cmsis_gcc.h **** __attribute__( ( always_inline ) ) __STATIC_INLINE void __set_BASEPRI(uint32_t value)
 263:.\inc/cmsis_gcc.h **** {
 264:.\inc/cmsis_gcc.h ****   __ASM volatile ("MSR basepri, %0" : : "r" (value) : "memory");
 265:.\inc/cmsis_gcc.h **** }
 266:.\inc/cmsis_gcc.h **** 
 267:.\inc/cmsis_gcc.h **** 
 268:.\inc/cmsis_gcc.h **** /**
 269:.\inc/cmsis_gcc.h ****   \brief   Set Base Priority with condition
 270:.\inc/cmsis_gcc.h ****   \details Assigns the given value to the Base Priority register only if BASEPRI masking is disable
ARM GAS  C:\Users\claym\AppData\Local\Temp\ccxpUFUu.s 			page 48


 271:.\inc/cmsis_gcc.h ****            or the new value increases the BASEPRI priority level.
 272:.\inc/cmsis_gcc.h ****   \param [in]    basePri  Base Priority value to set
 273:.\inc/cmsis_gcc.h ****  */
 274:.\inc/cmsis_gcc.h **** __attribute__( ( always_inline ) ) __STATIC_INLINE void __set_BASEPRI_MAX(uint32_t value)
 275:.\inc/cmsis_gcc.h **** {
 276:.\inc/cmsis_gcc.h ****   __ASM volatile ("MSR basepri_max, %0" : : "r" (value) : "memory");
 277:.\inc/cmsis_gcc.h **** }
 278:.\inc/cmsis_gcc.h **** 
 279:.\inc/cmsis_gcc.h **** 
 280:.\inc/cmsis_gcc.h **** /**
 281:.\inc/cmsis_gcc.h ****   \brief   Get Fault Mask
 282:.\inc/cmsis_gcc.h ****   \details Returns the current value of the Fault Mask register.
 283:.\inc/cmsis_gcc.h ****   \return               Fault Mask register value
 284:.\inc/cmsis_gcc.h ****  */
 285:.\inc/cmsis_gcc.h **** __attribute__( ( always_inline ) ) __STATIC_INLINE uint32_t __get_FAULTMASK(void)
 286:.\inc/cmsis_gcc.h **** {
 287:.\inc/cmsis_gcc.h ****   uint32_t result;
 288:.\inc/cmsis_gcc.h **** 
 289:.\inc/cmsis_gcc.h ****   __ASM volatile ("MRS %0, faultmask" : "=r" (result) );
 290:.\inc/cmsis_gcc.h ****   return(result);
 291:.\inc/cmsis_gcc.h **** }
 292:.\inc/cmsis_gcc.h **** 
 293:.\inc/cmsis_gcc.h **** 
 294:.\inc/cmsis_gcc.h **** /**
 295:.\inc/cmsis_gcc.h ****   \brief   Set Fault Mask
 296:.\inc/cmsis_gcc.h ****   \details Assigns the given value to the Fault Mask register.
 297:.\inc/cmsis_gcc.h ****   \param [in]    faultMask  Fault Mask value to set
 298:.\inc/cmsis_gcc.h ****  */
 299:.\inc/cmsis_gcc.h **** __attribute__( ( always_inline ) ) __STATIC_INLINE void __set_FAULTMASK(uint32_t faultMask)
 300:.\inc/cmsis_gcc.h **** {
 301:.\inc/cmsis_gcc.h ****   __ASM volatile ("MSR faultmask, %0" : : "r" (faultMask) : "memory");
 302:.\inc/cmsis_gcc.h **** }
 303:.\inc/cmsis_gcc.h **** 
 304:.\inc/cmsis_gcc.h **** #endif /* (__CORTEX_M >= 0x03U) */
 305:.\inc/cmsis_gcc.h **** 
 306:.\inc/cmsis_gcc.h **** 
 307:.\inc/cmsis_gcc.h **** #if       (__CORTEX_M == 0x04U) || (__CORTEX_M == 0x07U)
 308:.\inc/cmsis_gcc.h **** 
 309:.\inc/cmsis_gcc.h **** /**
 310:.\inc/cmsis_gcc.h ****   \brief   Get FPSCR
 311:.\inc/cmsis_gcc.h ****   \details Returns the current value of the Floating Point Status/Control register.
 312:.\inc/cmsis_gcc.h ****   \return               Floating Point Status/Control register value
 313:.\inc/cmsis_gcc.h ****  */
 314:.\inc/cmsis_gcc.h **** __attribute__( ( always_inline ) ) __STATIC_INLINE uint32_t __get_FPSCR(void)
 315:.\inc/cmsis_gcc.h **** {
 316:.\inc/cmsis_gcc.h **** #if (__FPU_PRESENT == 1U) && (__FPU_USED == 1U)
 317:.\inc/cmsis_gcc.h ****   uint32_t result;
 318:.\inc/cmsis_gcc.h **** 
 319:.\inc/cmsis_gcc.h ****   /* Empty asm statement works as a scheduling barrier */
 320:.\inc/cmsis_gcc.h ****   __ASM volatile ("");
 321:.\inc/cmsis_gcc.h ****   __ASM volatile ("VMRS %0, fpscr" : "=r" (result) );
 322:.\inc/cmsis_gcc.h ****   __ASM volatile ("");
 323:.\inc/cmsis_gcc.h ****   return(result);
 324:.\inc/cmsis_gcc.h **** #else
 325:.\inc/cmsis_gcc.h ****    return(0);
 326:.\inc/cmsis_gcc.h **** #endif
 327:.\inc/cmsis_gcc.h **** }
ARM GAS  C:\Users\claym\AppData\Local\Temp\ccxpUFUu.s 			page 49


 328:.\inc/cmsis_gcc.h **** 
 329:.\inc/cmsis_gcc.h **** 
 330:.\inc/cmsis_gcc.h **** /**
 331:.\inc/cmsis_gcc.h ****   \brief   Set FPSCR
 332:.\inc/cmsis_gcc.h ****   \details Assigns the given value to the Floating Point Status/Control register.
 333:.\inc/cmsis_gcc.h ****   \param [in]    fpscr  Floating Point Status/Control value to set
 334:.\inc/cmsis_gcc.h ****  */
 335:.\inc/cmsis_gcc.h **** __attribute__( ( always_inline ) ) __STATIC_INLINE void __set_FPSCR(uint32_t fpscr)
 336:.\inc/cmsis_gcc.h **** {
 337:.\inc/cmsis_gcc.h **** #if (__FPU_PRESENT == 1U) && (__FPU_USED == 1U)
 338:.\inc/cmsis_gcc.h ****   /* Empty asm statement works as a scheduling barrier */
 339:.\inc/cmsis_gcc.h ****   __ASM volatile ("");
 340:.\inc/cmsis_gcc.h ****   __ASM volatile ("VMSR fpscr, %0" : : "r" (fpscr) : "vfpcc");
 341:.\inc/cmsis_gcc.h ****   __ASM volatile ("");
 342:.\inc/cmsis_gcc.h **** #endif
 343:.\inc/cmsis_gcc.h **** }
 344:.\inc/cmsis_gcc.h **** 
 345:.\inc/cmsis_gcc.h **** #endif /* (__CORTEX_M == 0x04U) || (__CORTEX_M == 0x07U) */
 346:.\inc/cmsis_gcc.h **** 
 347:.\inc/cmsis_gcc.h **** 
 348:.\inc/cmsis_gcc.h **** 
 349:.\inc/cmsis_gcc.h **** /*@} end of CMSIS_Core_RegAccFunctions */
 350:.\inc/cmsis_gcc.h **** 
 351:.\inc/cmsis_gcc.h **** 
 352:.\inc/cmsis_gcc.h **** /* ##########################  Core Instruction Access  ######################### */
 353:.\inc/cmsis_gcc.h **** /** \defgroup CMSIS_Core_InstructionInterface CMSIS Core Instruction Interface
 354:.\inc/cmsis_gcc.h ****   Access to dedicated instructions
 355:.\inc/cmsis_gcc.h ****   @{
 356:.\inc/cmsis_gcc.h **** */
 357:.\inc/cmsis_gcc.h **** 
 358:.\inc/cmsis_gcc.h **** /* Define macros for porting to both thumb1 and thumb2.
 359:.\inc/cmsis_gcc.h ****  * For thumb1, use low register (r0-r7), specified by constraint "l"
 360:.\inc/cmsis_gcc.h ****  * Otherwise, use general registers, specified by constraint "r" */
 361:.\inc/cmsis_gcc.h **** #if defined (__thumb__) && !defined (__thumb2__)
 362:.\inc/cmsis_gcc.h **** #define __CMSIS_GCC_OUT_REG(r) "=l" (r)
 363:.\inc/cmsis_gcc.h **** #define __CMSIS_GCC_USE_REG(r) "l" (r)
 364:.\inc/cmsis_gcc.h **** #else
 365:.\inc/cmsis_gcc.h **** #define __CMSIS_GCC_OUT_REG(r) "=r" (r)
 366:.\inc/cmsis_gcc.h **** #define __CMSIS_GCC_USE_REG(r) "r" (r)
 367:.\inc/cmsis_gcc.h **** #endif
 368:.\inc/cmsis_gcc.h **** 
 369:.\inc/cmsis_gcc.h **** /**
 370:.\inc/cmsis_gcc.h ****   \brief   No Operation
 371:.\inc/cmsis_gcc.h ****   \details No Operation does nothing. This instruction can be used for code alignment purposes.
 372:.\inc/cmsis_gcc.h ****  */
 373:.\inc/cmsis_gcc.h **** __attribute__((always_inline)) __STATIC_INLINE void __NOP(void)
 374:.\inc/cmsis_gcc.h **** {
 375:.\inc/cmsis_gcc.h ****   __ASM volatile ("nop");
 1572              		.loc 2 375 0
 1573              		.syntax divided
 1574              	@ 375 ".\inc/cmsis_gcc.h" 1
 1575 04bc C046     		nop
 1576              	@ 0 "" 2
 1577              		.thumb
 1578              		.syntax unified
 1579              	.LBE117:
 1580              	.LBE116:
ARM GAS  C:\Users\claym\AppData\Local\Temp\ccxpUFUu.s 			page 50


 1581              	.LBB118:
 1582              	.LBB119:
 1583              		.syntax divided
 1584              	@ 375 ".\inc/cmsis_gcc.h" 1
 1585 04be C046     		nop
 1586              	@ 0 "" 2
 1587              		.thumb
 1588              		.syntax unified
 1589              	.LBE119:
 1590              	.LBE118:
 1591              	.LBB120:
 1592              	.LBB121:
 1593              		.syntax divided
 1594              	@ 375 ".\inc/cmsis_gcc.h" 1
 1595 04c0 C046     		nop
 1596              	@ 0 "" 2
 1597              		.thumb
 1598              		.syntax unified
 1599              	.LBE121:
 1600              	.LBE120:
 1601              	@ .\driver\src\i2c_va108xx.c:627: 		  if((!(status&I2C_PERIPHERAL_STATUS_IDLE_Msk) || (status &I2C_
 627:.\driver\src/i2c_va108xx.c ****   	    /* Check TX fifo status and Load Remaining Data */ 
 1602              		.loc 1 627 0
 1603 04c2 6046     		mov	r0, ip	@ tmp177, tmp226
 1604              	@ .\driver\src\i2c_va108xx.c:626: 		  status = i2c->reg->STATUS;
 626:.\driver\src/i2c_va108xx.c **** 		  if((!(status&I2C_PERIPHERAL_STATUS_IDLE_Msk) || (status &I2C_PERIPHERAL_STATUS_WAITING_Msk) || 
 1605              		.loc 1 626 0
 1606 04c4 6268     		ldr	r2, [r4, #4]	@ _10, i2c_49(D)->reg
 1607 04c6 9369     		ldr	r3, [r2, #24]	@ status, _10->STATUS
 1608              	.LVL108:
 1609              	@ .\driver\src\i2c_va108xx.c:627: 		  if((!(status&I2C_PERIPHERAL_STATUS_IDLE_Msk) || (status &I2C_
 627:.\driver\src/i2c_va108xx.c ****   	    /* Check TX fifo status and Load Remaining Data */ 
 1610              		.loc 1 627 0
 1611 04c8 1840     		ands	r0, r3	@ tmp177, status
 1612 04ca 0228     		cmp	r0, #2	@ tmp177,
 1613 04cc 13D0     		beq	.L128	@,
 1614              	@ .\driver\src\i2c_va108xx.c:629: 	      if((status&I2C_PERIPHERAL_STATUS_TXNFULL_Msk)!=0) {
 629:.\driver\src/i2c_va108xx.c ****     	    i2c->reg->DATA=data[i++];
 1615              		.loc 1 629 0
 1616 04ce 8020     		movs	r0, #128	@ tmp250,
 1617 04d0 8001     		lsls	r0, r0, #6	@ tmp250, tmp250,
 1618 04d2 0342     		tst	r3, r0	@ status, tmp250
 1619 04d4 0FD0     		beq	.L128	@,
 1620              	.LVL109:
 1621              	@ .\driver\src\i2c_va108xx.c:630:     	    i2c->reg->DATA=data[i++];
 630:.\driver\src/i2c_va108xx.c **** 		      num--;			
 1622              		.loc 1 630 0
 1623 04d6 0198     		ldr	r0, [sp, #4]	@ data, %sfp
 1624              	@ .\driver\src\i2c_va108xx.c:631: 		      num--;			
 631:.\driver\src/i2c_va108xx.c **** 					i2c->info.txidx++;
 1625              		.loc 1 631 0
 1626 04d8 013F     		subs	r7, r7, #1	@ num,
 1627              	.LVL110:
 1628              	@ .\driver\src\i2c_va108xx.c:630:     	    i2c->reg->DATA=data[i++];
 630:.\driver\src/i2c_va108xx.c **** 		      num--;			
 1629              		.loc 1 630 0
 1630 04da 405C     		ldrb	r0, [r0, r1]	@ _16, *_14
ARM GAS  C:\Users\claym\AppData\Local\Temp\ccxpUFUu.s 			page 51


 1631 04dc 0131     		adds	r1, r1, #1	@ i,
 1632              	.LVL111:
 1633 04de 1061     		str	r0, [r2, #16]	@ _16, _10->DATA
 1634              	@ .\driver\src\i2c_va108xx.c:632: 					i2c->info.txidx++;
 632:.\driver\src/i2c_va108xx.c **** 			    if((num==0) && (xfer_pending == 0))
 1635              		.loc 1 632 0
 1636 04e0 A06D     		ldr	r0, [r4, #88]	@ tmp252, i2c_49(D)->info.txidx
 1637 04e2 0130     		adds	r0, r0, #1	@ tmp181,
 1638 04e4 A065     		str	r0, [r4, #88]	@ tmp181, i2c_49(D)->info.txidx
 1639              	@ .\driver\src\i2c_va108xx.c:633: 			    if((num==0) && (xfer_pending == 0))
 633:.\driver\src/i2c_va108xx.c ****     			  i2c->reg->CMD |= I2C_CMD_STOP;
 1640              		.loc 1 633 0
 1641 04e6 002F     		cmp	r7, #0	@ num,
 1642 04e8 05D1     		bne	.L128	@,
 1643              	@ .\driver\src\i2c_va108xx.c:633: 			    if((num==0) && (xfer_pending == 0))
 633:.\driver\src/i2c_va108xx.c ****     			  i2c->reg->CMD |= I2C_CMD_STOP;
 1644              		.loc 1 633 0 is_stmt 0 discriminator 1
 1645 04ea 0398     		ldr	r0, [sp, #12]	@ xfer_pending, %sfp
 1646 04ec 0028     		cmp	r0, #0	@ xfer_pending,
 1647 04ee 02D1     		bne	.L128	@,
 1648              	@ .\driver\src\i2c_va108xx.c:634:     			  i2c->reg->CMD |= I2C_CMD_STOP;
 634:.\driver\src/i2c_va108xx.c **** 	      }
 1649              		.loc 1 634 0 is_stmt 1
 1650 04f0 5069     		ldr	r0, [r2, #20]	@ _19, _10->CMD
 1651 04f2 3043     		orrs	r0, r6	@ _20, tmp228
 1652 04f4 5061     		str	r0, [r2, #20]	@ _20, _10->CMD
 1653              	.L128:
 1654              	@ .\driver\src\i2c_va108xx.c:638:   	  if( status & I2C_PERIPHERAL_STATUS_ARBLOST_Msk ) {
 638:.\driver\src/i2c_va108xx.c **** 	      VOR_I2C_Stop(i2c);
 1655              		.loc 1 638 0
 1656 04f6 2B42     		tst	r3, r5	@ status, tmp229
 1657 04f8 05D0     		beq	.L129	@,
 1658              	@ .\driver\src\i2c_va108xx.c:639: 	      VOR_I2C_Stop(i2c);
 639:.\driver\src/i2c_va108xx.c ****   		  return VOR_I2C_ERROR_ARBITRATION_LOST;
 1659              		.loc 1 639 0
 1660 04fa 2000     		movs	r0, r4	@, i2c
 1661 04fc FFF724FE 		bl	VOR_I2C_Stop	@
 1662              	.LVL112:
 1663              	@ .\driver\src\i2c_va108xx.c:640:   		  return VOR_I2C_ERROR_ARBITRATION_LOST;
 640:.\driver\src/i2c_va108xx.c **** 	    }
 1664              		.loc 1 640 0
 1665 0500 0D25     		movs	r5, #13	@ <retval>,
 1666              	.L150:
 1667              	@ .\driver\src\i2c_va108xx.c:599:     return VOR_DRIVER_ERROR;
 599:.\driver\src/i2c_va108xx.c ****   }
 1668              		.loc 1 599 0
 1669 0502 6D42     		rsbs	r5, r5, #0	@ <retval>, <retval>
 1670 0504 1BE0     		b	.L124	@
 1671              	.LVL113:
 1672              	.L129:
 1673              	@ .\driver\src\i2c_va108xx.c:643: 	    if(status & I2C_PERIPHERAL_STATUS_NACKADDR_Msk) {
 643:.\driver\src/i2c_va108xx.c **** 	      VOR_I2C_Stop(i2c);
 1674              		.loc 1 643 0
 1675 0506 9A06     		lsls	r2, r3, #26	@ tmp242, status,
 1676 0508 04D5     		bpl	.L130	@,
 1677              	@ .\driver\src\i2c_va108xx.c:644: 	      VOR_I2C_Stop(i2c);
 644:.\driver\src/i2c_va108xx.c **** 	      return VOR_I2C_ERROR_ADDRESS_NACK;
ARM GAS  C:\Users\claym\AppData\Local\Temp\ccxpUFUu.s 			page 52


 1678              		.loc 1 644 0
 1679 050a 2000     		movs	r0, r4	@, i2c
 1680 050c FFF71CFE 		bl	VOR_I2C_Stop	@
 1681              	.LVL114:
 1682              	@ .\driver\src\i2c_va108xx.c:645: 	      return VOR_I2C_ERROR_ADDRESS_NACK;
 645:.\driver\src/i2c_va108xx.c **** 	    }
 1683              		.loc 1 645 0
 1684 0510 0C25     		movs	r5, #12	@ <retval>,
 1685 0512 F6E7     		b	.L150	@
 1686              	.LVL115:
 1687              	.L130:
 1688              	@ .\driver\src\i2c_va108xx.c:648: 	    if(status & I2C_PERIPHERAL_STATUS_NACKDATA_Msk) {
 648:.\driver\src/i2c_va108xx.c **** 	      VOR_I2C_Stop(i2c);
 1689              		.loc 1 648 0
 1690 0514 5B06     		lsls	r3, r3, #25	@ tmp243, status,
 1691 0516 C0D5     		bpl	.L127	@,
 1692              	.LVL116:
 1693              	.L133:
 1694              	@ .\driver\src\i2c_va108xx.c:649: 	      VOR_I2C_Stop(i2c);
 649:.\driver\src/i2c_va108xx.c **** 		    return VOR_I2C_ERROR_TRANSFER_INCOMPLETE;
 1695              		.loc 1 649 0
 1696 0518 2000     		movs	r0, r4	@, i2c
 1697 051a FFF715FE 		bl	VOR_I2C_Stop	@
 1698              	.LVL117:
 1699              	@ .\driver\src\i2c_va108xx.c:650: 		    return VOR_I2C_ERROR_TRANSFER_INCOMPLETE;
 650:.\driver\src/i2c_va108xx.c **** 	    }
 1700              		.loc 1 650 0
 1701 051e 0E25     		movs	r5, #14	@ <retval>,
 1702 0520 EFE7     		b	.L150	@
 1703              	.L134:
 1704              	.LBB122:
 1705              	.LBB123:
 1706              	@ .\inc/cmsis_gcc.h:375:   __ASM volatile ("nop");
 1707              		.loc 2 375 0
 1708              		.syntax divided
 1709              	@ 375 ".\inc/cmsis_gcc.h" 1
 1710 0522 C046     		nop
 1711              	@ 0 "" 2
 1712              		.thumb
 1713              		.syntax unified
 1714              	.LBE123:
 1715              	.LBE122:
 1716              	.LBB124:
 1717              	.LBB125:
 1718              		.syntax divided
 1719              	@ 375 ".\inc/cmsis_gcc.h" 1
 1720 0524 C046     		nop
 1721              	@ 0 "" 2
 1722              		.thumb
 1723              		.syntax unified
 1724              	.LBE125:
 1725              	.LBE124:
 1726              	@ .\driver\src\i2c_va108xx.c:664: 	    if( i2c->reg->STATUS & I2C_PERIPHERAL_STATUS_NACKDATA_Msk ) 
 664:.\driver\src/i2c_va108xx.c ****         VOR_I2C_Stop(i2c);
 1727              		.loc 1 664 0
 1728 0526 6268     		ldr	r2, [r4, #4]	@ _24, i2c_49(D)->reg
 1729 0528 9269     		ldr	r2, [r2, #24]	@ _25, _24->STATUS
ARM GAS  C:\Users\claym\AppData\Local\Temp\ccxpUFUu.s 			page 53


 1730 052a 0242     		tst	r2, r0	@ _25, tmp225
 1731 052c BAD0     		beq	.L132	@,
 1732 052e F3E7     		b	.L133	@
 1733              	.L135:
 1734              	@ .\driver\src\i2c_va108xx.c:708:   return VOR_DRIVER_OK;
 673:.\driver\src/i2c_va108xx.c **** 	  } 
 674:.\driver\src/i2c_va108xx.c **** 		
 675:.\driver\src/i2c_va108xx.c ****     if(!xfer_pending) 
 676:.\driver\src/i2c_va108xx.c **** 	    VOR_I2C_Stop(i2c);
 677:.\driver\src/i2c_va108xx.c ****   
 678:.\driver\src/i2c_va108xx.c **** 	} else {   /* Interrupt Mode */ 
 679:.\driver\src/i2c_va108xx.c ****     VOR_Disable_Irq(VOR_IRQ_I2C_MS, i2c->i2cId);
 680:.\driver\src/i2c_va108xx.c **** 	  i2c->reg->IRQ_CLR = 0xffffffff;
 681:.\driver\src/i2c_va108xx.c **** 	  i2c->reg->IRQ_CLR = 0;
 682:.\driver\src/i2c_va108xx.c **** 		
 683:.\driver\src/i2c_va108xx.c **** 	  /* Set Master Mode */ 
 684:.\driver\src/i2c_va108xx.c **** 	  i2c->info.status.mode = I2C_MODE_MASTER;
 685:.\driver\src/i2c_va108xx.c **** 		
 686:.\driver\src/i2c_va108xx.c **** 	  /* Set Direction Transmit */ 
 687:.\driver\src/i2c_va108xx.c **** 	  i2c->info.status.direction = I2C_DIR_TRANSMIT;
 688:.\driver\src/i2c_va108xx.c **** 		
 689:.\driver\src/i2c_va108xx.c **** 	  /* Set Up Control parameters */ 
 690:.\driver\src/i2c_va108xx.c ****     VOR_I2C_Setup(addr,num,i2c);
 691:.\driver\src/i2c_va108xx.c **** 	  memcpy(i2c->info.txdata,data,num);
 692:.\driver\src/i2c_va108xx.c **** 	  i2c->info.txidx = 0;
 693:.\driver\src/i2c_va108xx.c **** 	  i2c->info.rxidx = 0;
 694:.\driver\src/i2c_va108xx.c **** 	  i2c->info.txcnt = num;
 695:.\driver\src/i2c_va108xx.c **** 	  i2c->info.rxcnt = 0;
 696:.\driver\src/i2c_va108xx.c **** 	  i2c->reg->CMD = I2C_CMD_START;
 697:.\driver\src/i2c_va108xx.c **** 		
 698:.\driver\src/i2c_va108xx.c **** 	  /* Enable Interrupts */ 
 699:.\driver\src/i2c_va108xx.c **** 	  i2c->reg->IRQ_ENB = (I2C_PERIPHERAL_IRQ_END_IDLE_Msk | \
 700:.\driver\src/i2c_va108xx.c **** 												 I2C_PERIPHERAL_IRQ_END_ARBLOST_Msk | \
 701:.\driver\src/i2c_va108xx.c **** 												 I2C_PERIPHERAL_IRQ_END_NACKADDR_Msk | \
 702:.\driver\src/i2c_va108xx.c **** 												 I2C_PERIPHERAL_IRQ_END_NACKDATA_Msk | \
 703:.\driver\src/i2c_va108xx.c **** 												 I2C_PERIPHERAL_IRQ_END_CLKLOTO_Msk | \
 704:.\driver\src/i2c_va108xx.c **** 												 I2C_PERIPHERAL_IRQ_END_TXREADY_Msk | \
 705:.\driver\src/i2c_va108xx.c **** 												 I2C_PERIPHERAL_IRQ_END_TXEMPTY_Msk );
 706:.\driver\src/i2c_va108xx.c **** 	  VOR_Enable_Irq(VOR_IRQ_I2C_MS, i2c->i2cId);
 707:.\driver\src/i2c_va108xx.c ****   }
 708:.\driver\src/i2c_va108xx.c ****   return VOR_DRIVER_OK;
 1735              		.loc 1 708 0
 1736 0530 0025     		movs	r5, #0	@ <retval>,
 1737              	@ .\driver\src\i2c_va108xx.c:675:     if(!xfer_pending) 
 675:.\driver\src/i2c_va108xx.c **** 	    VOR_I2C_Stop(i2c);
 1738              		.loc 1 675 0
 1739 0532 039B     		ldr	r3, [sp, #12]	@ xfer_pending, %sfp
 1740 0534 AB42     		cmp	r3, r5	@ xfer_pending,
 1741 0536 02D1     		bne	.L124	@,
 1742              	@ .\driver\src\i2c_va108xx.c:676: 	    VOR_I2C_Stop(i2c);
 676:.\driver\src/i2c_va108xx.c ****   
 1743              		.loc 1 676 0
 1744 0538 2000     		movs	r0, r4	@, i2c
 1745 053a FFF705FE 		bl	VOR_I2C_Stop	@
 1746              	.LVL118:
 1747              	.L124:
 1748              	@ .\driver\src\i2c_va108xx.c:709: }
ARM GAS  C:\Users\claym\AppData\Local\Temp\ccxpUFUu.s 			page 54


 709:.\driver\src/i2c_va108xx.c **** }
 1749              		.loc 1 709 0
 1750 053e 2800     		movs	r0, r5	@, <retval>
 1751 0540 05B0     		add	sp, sp, #20	@,,
 1752              		@ sp needed	@
 1753              	.LVL119:
 1754 0542 F0BD     		pop	{r4, r5, r6, r7, pc}
 1755              	.LVL120:
 1756              	.L126:
 1757              	@ .\driver\src\i2c_va108xx.c:679:     VOR_Disable_Irq(VOR_IRQ_I2C_MS, i2c->i2cId);
 679:.\driver\src/i2c_va108xx.c **** 	  i2c->reg->IRQ_CLR = 0xffffffff;
 1758              		.loc 1 679 0
 1759 0544 2168     		ldr	r1, [r4]	@, i2c_49(D)->i2cId
 1760              	.LVL121:
 1761 0546 0520     		movs	r0, #5	@,
 1762              	.LVL122:
 1763 0548 FFF7FEFF 		bl	VOR_Disable_Irq	@
 1764              	.LVL123:
 1765              	@ .\driver\src\i2c_va108xx.c:680: 	  i2c->reg->IRQ_CLR = 0xffffffff;
 680:.\driver\src/i2c_va108xx.c **** 	  i2c->reg->IRQ_CLR = 0;
 1766              		.loc 1 680 0
 1767 054c 0122     		movs	r2, #1	@ tmp196,
 1768 054e 6368     		ldr	r3, [r4, #4]	@ _33, i2c_49(D)->reg
 1769 0550 5242     		rsbs	r2, r2, #0	@ tmp196, tmp196
 1770 0552 5A63     		str	r2, [r3, #52]	@ tmp196, _33->IRQ_CLR
 1771              	@ .\driver\src\i2c_va108xx.c:681: 	  i2c->reg->IRQ_CLR = 0;
 681:.\driver\src/i2c_va108xx.c **** 		
 1772              		.loc 1 681 0
 1773 0554 5D63     		str	r5, [r3, #52]	@ i2c_49(D)->info.poll_mode, _33->IRQ_CLR
 1774              	@ .\driver\src\i2c_va108xx.c:684: 	  i2c->info.status.mode = I2C_MODE_MASTER;
 684:.\driver\src/i2c_va108xx.c **** 		
 1775              		.loc 1 684 0
 1776 0556 8023     		movs	r3, #128	@ tmp203,
 1777 0558 627C     		ldrb	r2, [r4, #17]	@ tmp201,
 1778 055a 5B42     		rsbs	r3, r3, #0	@ tmp203, tmp203
 1779 055c 1343     		orrs	r3, r2	@ tmp202, tmp201
 1780 055e 6374     		strb	r3, [r4, #17]	@ tmp202,
 1781              	.LVL124:
 1782              	@ .\driver\src\i2c_va108xx.c:687: 	  i2c->info.status.direction = I2C_DIR_TRANSMIT;
 687:.\driver\src/i2c_va108xx.c **** 		
 1783              		.loc 1 687 0
 1784 0560 A37C     		ldrb	r3, [r4, #18]	@ tmp208,
 1785              	@ .\driver\src\i2c_va108xx.c:690:     VOR_I2C_Setup(addr,num,i2c);
 690:.\driver\src/i2c_va108xx.c **** 	  memcpy(i2c->info.txdata,data,num);
 1786              		.loc 1 690 0
 1787 0562 2200     		movs	r2, r4	@, i2c
 1788              	@ .\driver\src\i2c_va108xx.c:687: 	  i2c->info.status.direction = I2C_DIR_TRANSMIT;
 687:.\driver\src/i2c_va108xx.c **** 		
 1789              		.loc 1 687 0
 1790 0564 B343     		bics	r3, r6	@ tmp209, tmp157
 1791 0566 A374     		strb	r3, [r4, #18]	@ tmp209,
 1792              	@ .\driver\src\i2c_va108xx.c:690:     VOR_I2C_Setup(addr,num,i2c);
 690:.\driver\src/i2c_va108xx.c **** 	  memcpy(i2c->info.txdata,data,num);
 1793              		.loc 1 690 0
 1794 0568 3900     		movs	r1, r7	@, num
 1795 056a 0298     		ldr	r0, [sp, #8]	@, %sfp
 1796 056c FFF748FD 		bl	VOR_I2C_Setup	@
ARM GAS  C:\Users\claym\AppData\Local\Temp\ccxpUFUu.s 			page 55


 1797              	.LVL125:
 1798              	@ .\driver\src\i2c_va108xx.c:691: 	  memcpy(i2c->info.txdata,data,num);
 691:.\driver\src/i2c_va108xx.c **** 	  i2c->info.txidx = 0;
 1799              		.loc 1 691 0
 1800 0570 2000     		movs	r0, r4	@ tmp212, i2c
 1801 0572 3A00     		movs	r2, r7	@, num
 1802 0574 0199     		ldr	r1, [sp, #4]	@, %sfp
 1803 0576 6030     		adds	r0, r0, #96	@ tmp212,
 1804 0578 FFF7FEFF 		bl	memcpy	@
 1805              	.LVL126:
 1806              	@ .\driver\src\i2c_va108xx.c:696: 	  i2c->reg->CMD = I2C_CMD_START;
 696:.\driver\src/i2c_va108xx.c **** 		
 1807              		.loc 1 696 0
 1808 057c 6368     		ldr	r3, [r4, #4]	@ _35, i2c_49(D)->reg
 1809              	@ .\driver\src\i2c_va108xx.c:699: 	  i2c->reg->IRQ_ENB = (I2C_PERIPHERAL_IRQ_END_IDLE_Msk | \
 699:.\driver\src/i2c_va108xx.c **** 												 I2C_PERIPHERAL_IRQ_END_ARBLOST_Msk | \
 1810              		.loc 1 699 0
 1811 057e 084A     		ldr	r2, .L151	@ tmp222,
 1812              	@ .\driver\src\i2c_va108xx.c:692: 	  i2c->info.txidx = 0;
 692:.\driver\src/i2c_va108xx.c **** 	  i2c->info.rxidx = 0;
 1813              		.loc 1 692 0
 1814 0580 A565     		str	r5, [r4, #88]	@ i2c_49(D)->info.poll_mode, i2c_49(D)->info.txidx
 1815              	@ .\driver\src\i2c_va108xx.c:693: 	  i2c->info.rxidx = 0;
 693:.\driver\src/i2c_va108xx.c **** 	  i2c->info.txcnt = num;
 1816              		.loc 1 693 0
 1817 0582 E565     		str	r5, [r4, #92]	@ i2c_49(D)->info.poll_mode, i2c_49(D)->info.rxidx
 1818              	@ .\driver\src\i2c_va108xx.c:694: 	  i2c->info.txcnt = num;
 694:.\driver\src/i2c_va108xx.c **** 	  i2c->info.rxcnt = 0;
 1819              		.loc 1 694 0
 1820 0584 2765     		str	r7, [r4, #80]	@ num, i2c_49(D)->info.txcnt
 1821              	@ .\driver\src\i2c_va108xx.c:695: 	  i2c->info.rxcnt = 0;
 695:.\driver\src/i2c_va108xx.c **** 	  i2c->reg->CMD = I2C_CMD_START;
 1822              		.loc 1 695 0
 1823 0586 6565     		str	r5, [r4, #84]	@ i2c_49(D)->info.poll_mode, i2c_49(D)->info.rxcnt
 1824              	@ .\driver\src\i2c_va108xx.c:706: 	  VOR_Enable_Irq(VOR_IRQ_I2C_MS, i2c->i2cId);
 706:.\driver\src/i2c_va108xx.c ****   }
 1825              		.loc 1 706 0
 1826 0588 2168     		ldr	r1, [r4]	@, i2c_49(D)->i2cId
 1827              	@ .\driver\src\i2c_va108xx.c:696: 	  i2c->reg->CMD = I2C_CMD_START;
 696:.\driver\src/i2c_va108xx.c **** 		
 1828              		.loc 1 696 0
 1829 058a 5E61     		str	r6, [r3, #20]	@ tmp157, _35->CMD
 1830              	@ .\driver\src\i2c_va108xx.c:706: 	  VOR_Enable_Irq(VOR_IRQ_I2C_MS, i2c->i2cId);
 706:.\driver\src/i2c_va108xx.c ****   }
 1831              		.loc 1 706 0
 1832 058c 0520     		movs	r0, #5	@,
 1833              	@ .\driver\src\i2c_va108xx.c:699: 	  i2c->reg->IRQ_ENB = (I2C_PERIPHERAL_IRQ_END_IDLE_Msk | \
 699:.\driver\src/i2c_va108xx.c **** 												 I2C_PERIPHERAL_IRQ_END_ARBLOST_Msk | \
 1834              		.loc 1 699 0
 1835 058e 9A62     		str	r2, [r3, #40]	@ tmp222, _35->IRQ_ENB
 1836              	@ .\driver\src\i2c_va108xx.c:706: 	  VOR_Enable_Irq(VOR_IRQ_I2C_MS, i2c->i2cId);
 706:.\driver\src/i2c_va108xx.c ****   }
 1837              		.loc 1 706 0
 1838 0590 FFF7FEFF 		bl	VOR_Enable_Irq	@
 1839              	.LVL127:
 1840 0594 D3E7     		b	.L124	@
 1841              	.LVL128:
ARM GAS  C:\Users\claym\AppData\Local\Temp\ccxpUFUu.s 			page 56


 1842              	.L137:
 1843              	@ .\driver\src\i2c_va108xx.c:594:     return VOR_DRIVER_ERROR_PARAMETER;
 594:.\driver\src/i2c_va108xx.c ****   }
 1844              		.loc 1 594 0
 1845 0596 0525     		movs	r5, #5	@ <retval>,
 1846 0598 B3E7     		b	.L150	@
 1847              	.LVL129:
 1848              	.L138:
 1849              	@ .\driver\src\i2c_va108xx.c:599:     return VOR_DRIVER_ERROR;
 599:.\driver\src/i2c_va108xx.c ****   }
 1850              		.loc 1 599 0
 1851 059a 0125     		movs	r5, #1	@ <retval>,
 1852 059c B1E7     		b	.L150	@
 1853              	.L152:
 1854 059e C046     		.align	2
 1855              	.L151:
 1856 05a0 F2500000 		.word	20722
 1857              		.cfi_endproc
 1858              	.LFE60:
 1859              		.size	VOR_I2C_MasterTransmit, .-VOR_I2C_MasterTransmit
 1860              		.align	1
 1861              		.global	VOR_I2C_MasterReceive
 1862              		.syntax unified
 1863              		.code	16
 1864              		.thumb_func
 1865              		.fpu softvfp
 1866              		.type	VOR_I2C_MasterReceive, %function
 1867              	VOR_I2C_MasterReceive:
 1868              	.LFB61:
 710:.\driver\src/i2c_va108xx.c **** 								
 711:.\driver\src/i2c_va108xx.c **** 
 712:.\driver\src/i2c_va108xx.c **** /**
 713:.\driver\src/i2c_va108xx.c ****   function:    int32_t VOR_I2C_MasterReceive (uint32_t       addr,
 714:.\driver\src/i2c_va108xx.c ****                                            uint8_t       *data,
 715:.\driver\src/i2c_va108xx.c ****                                            uint32_t       num,
 716:.\driver\src/i2c_va108xx.c ****                                            bool           xfer_pending,
 717:.\driver\src/i2c_va108xx.c ****                                            I2C_RESOURCES *i2c)
 718:.\driver\src/i2c_va108xx.c ****   brief:       Start receiving data as I2C Master.
 719:.\driver\src/i2c_va108xx.c ****   Input:       addr          Slave address (7-bit or 10-bit)
 720:.\driver\src/i2c_va108xx.c ****   Output:      data          Pointer to buffer for data to receive from I2C Slave
 721:.\driver\src/i2c_va108xx.c ****   Input:       num           Number of data bytes to receive
 722:.\driver\src/i2c_va108xx.c ****   Input:       xfer_pending  Transfer operation is pending - Stop condition will not be generated
 723:.\driver\src/i2c_va108xx.c ****   Input:       i2c           Pointer to I2C resources
 724:.\driver\src/i2c_va108xx.c ****   return:      execution_status
 725:.\driver\src/i2c_va108xx.c **** */
 726:.\driver\src/i2c_va108xx.c **** int32_t VOR_I2C_MasterReceive (uint32_t       addr,
 727:.\driver\src/i2c_va108xx.c ****                                    uint8_t       *data,
 728:.\driver\src/i2c_va108xx.c ****                                    uint32_t       num,
 729:.\driver\src/i2c_va108xx.c ****                                    bool           xfer_pending,
 730:.\driver\src/i2c_va108xx.c ****                                    I2C_RESOURCES *i2c) {
 1869              		.loc 1 730 0
 1870              		.cfi_startproc
 1871              		@ args = 4, pretend = 0, frame = 16
 1872              		@ frame_needed = 0, uses_anonymous_args = 0
 1873              	.LVL130:
 1874 05a4 F0B5     		push	{r4, r5, r6, r7, lr}	@
 1875              	.LCFI9:
ARM GAS  C:\Users\claym\AppData\Local\Temp\ccxpUFUu.s 			page 57


 1876              		.cfi_def_cfa_offset 20
 1877              		.cfi_offset 4, -20
 1878              		.cfi_offset 5, -16
 1879              		.cfi_offset 6, -12
 1880              		.cfi_offset 7, -8
 1881              		.cfi_offset 14, -4
 1882 05a6 85B0     		sub	sp, sp, #20	@,,
 1883              	.LCFI10:
 1884              		.cfi_def_cfa_offset 40
 1885              	@ .\driver\src\i2c_va108xx.c:730:                                    I2C_RESOURCES *i2c) {
 1886              		.loc 1 730 0
 1887 05a8 0290     		str	r0, [sp, #8]	@ addr, %sfp
 1888 05aa 0191     		str	r1, [sp, #4]	@ data, %sfp
 1889 05ac 0092     		str	r2, [sp]	@ num, %sfp
 1890 05ae 0393     		str	r3, [sp, #12]	@ xfer_pending, %sfp
 1891 05b0 0A9F     		ldr	r7, [sp, #40]	@ i2c, i2c
 1892              	@ .\driver\src\i2c_va108xx.c:735:   if (!data || !num ) {
 731:.\driver\src/i2c_va108xx.c **** 
 732:.\driver\src/i2c_va108xx.c ****   int32_t i;
 733:.\driver\src/i2c_va108xx.c ****   // uint32_t poll_time, start_time;
 734:.\driver\src/i2c_va108xx.c **** 	uint32_t status;
 735:.\driver\src/i2c_va108xx.c ****   if (!data || !num ) {
 1893              		.loc 1 735 0
 1894 05b2 0029     		cmp	r1, #0	@ data,
 1895 05b4 00D1     		bne	.LCB1527	@
 1896 05b6 88E0     		b	.L164	@long jump	@
 1897              	.LCB1527:
 1898              	@ .\driver\src\i2c_va108xx.c:735:   if (!data || !num ) {
 1899              		.loc 1 735 0 is_stmt 0 discriminator 1
 1900 05b8 002A     		cmp	r2, #0	@ num,
 1901 05ba 00D1     		bne	.LCB1529	@
 1902 05bc 85E0     		b	.L164	@long jump	@
 1903              	.LCB1529:
 1904              	@ .\driver\src\i2c_va108xx.c:740:   if (!(i2c->info.flags & I2C_FLAG_INIT)) {
 736:.\driver\src/i2c_va108xx.c ****     /* Invalid parameters */
 737:.\driver\src/i2c_va108xx.c ****     return VOR_DRIVER_ERROR_PARAMETER;
 738:.\driver\src/i2c_va108xx.c ****   }
 739:.\driver\src/i2c_va108xx.c **** 
 740:.\driver\src/i2c_va108xx.c ****   if (!(i2c->info.flags & I2C_FLAG_INIT)) {
 1905              		.loc 1 740 0 is_stmt 1
 1906 05be 0126     		movs	r6, #1	@ tmp145,
 1907 05c0 7B69     		ldr	r3, [r7, #20]	@ tmp220, i2c_36(D)->info.flags
 1908              	.LVL131:
 1909 05c2 3342     		tst	r3, r6	@ tmp220, tmp145
 1910 05c4 00D1     		bne	.LCB1536	@
 1911 05c6 82E0     		b	.L165	@long jump	@
 1912              	.LCB1536:
 1913              	@ .\driver\src\i2c_va108xx.c:745:   i2c->info.rxidx = 0;
 741:.\driver\src/i2c_va108xx.c ****     /* Driver not yet configured */
 742:.\driver\src/i2c_va108xx.c ****     return VOR_DRIVER_ERROR;
 743:.\driver\src/i2c_va108xx.c ****   }
 744:.\driver\src/i2c_va108xx.c **** 
 745:.\driver\src/i2c_va108xx.c ****   i2c->info.rxidx = 0;
 1914              		.loc 1 745 0
 1915 05c8 0025     		movs	r5, #0	@ tmp146,
 1916              	@ .\driver\src\i2c_va108xx.c:746:   i2c->reg->IRQ_ENB = 0;
 746:.\driver\src/i2c_va108xx.c ****   i2c->reg->IRQ_ENB = 0;
ARM GAS  C:\Users\claym\AppData\Local\Temp\ccxpUFUu.s 			page 58


 1917              		.loc 1 746 0
 1918 05ca 7B68     		ldr	r3, [r7, #4]	@ _3, i2c_36(D)->reg
 1919              	@ .\driver\src\i2c_va108xx.c:747:   if(i2c->info.poll_mode) {
 747:.\driver\src/i2c_va108xx.c ****   if(i2c->info.poll_mode) {
 1920              		.loc 1 747 0
 1921 05cc BC69     		ldr	r4, [r7, #24]	@ i2c_36(D)->info.poll_mode, i2c_36(D)->info.poll_mode
 1922              	@ .\driver\src\i2c_va108xx.c:745:   i2c->info.rxidx = 0;
 745:.\driver\src/i2c_va108xx.c ****   i2c->reg->IRQ_ENB = 0;
 1923              		.loc 1 745 0
 1924 05ce FD65     		str	r5, [r7, #92]	@ tmp146, i2c_36(D)->info.rxidx
 1925              	@ .\driver\src\i2c_va108xx.c:746:   i2c->reg->IRQ_ENB = 0;
 746:.\driver\src/i2c_va108xx.c ****   i2c->reg->IRQ_ENB = 0;
 1926              		.loc 1 746 0
 1927 05d0 9D62     		str	r5, [r3, #40]	@ tmp146, _3->IRQ_ENB
 1928              	@ .\driver\src\i2c_va108xx.c:747:   if(i2c->info.poll_mode) {
 1929              		.loc 1 747 0
 1930 05d2 AC42     		cmp	r4, r5	@ i2c_36(D)->info.poll_mode,
 1931 05d4 51D0     		beq	.L155	@,
 1932              	@ .\driver\src\i2c_va108xx.c:749: 	  i2c->info.status.mode = I2C_MODE_MASTER;
 748:.\driver\src/i2c_va108xx.c **** 	  // Set Master Mode
 749:.\driver\src/i2c_va108xx.c **** 	  i2c->info.status.mode = I2C_MODE_MASTER;
 1933              		.loc 1 749 0
 1934 05d6 8023     		movs	r3, #128	@ tmp154,
 1935 05d8 7A7C     		ldrb	r2, [r7, #17]	@ tmp152,
 1936              	.LVL132:
 1937 05da 5B42     		rsbs	r3, r3, #0	@ tmp154, tmp154
 1938 05dc 1343     		orrs	r3, r2	@ tmp153, tmp152
 1939 05de 7B74     		strb	r3, [r7, #17]	@ tmp153,
 1940              	.LVL133:
 1941              	@ .\driver\src\i2c_va108xx.c:751: 	  i2c->info.status.direction = I2C_DIR_RECEIVE;
 750:.\driver\src/i2c_va108xx.c **** 	  // Set Direction Transmit
 751:.\driver\src/i2c_va108xx.c **** 	  i2c->info.status.direction = I2C_DIR_RECEIVE;
 1942              		.loc 1 751 0
 1943 05e0 BB7C     		ldrb	r3, [r7, #18]	@ tmp159,
 1944              	@ .\driver\src\i2c_va108xx.c:753:     VOR_I2C_Setup(addr,num,i2c);
 752:.\driver\src/i2c_va108xx.c **** 	  // Set Up Control parameters
 753:.\driver\src/i2c_va108xx.c ****     VOR_I2C_Setup(addr,num,i2c);
 1945              		.loc 1 753 0
 1946 05e2 3A00     		movs	r2, r7	@, i2c
 1947              	@ .\driver\src\i2c_va108xx.c:751: 	  i2c->info.status.direction = I2C_DIR_RECEIVE;
 751:.\driver\src/i2c_va108xx.c **** 	  // Set Up Control parameters
 1948              		.loc 1 751 0
 1949 05e4 3343     		orrs	r3, r6	@ tmp160, tmp145
 1950 05e6 BB74     		strb	r3, [r7, #18]	@ tmp160,
 1951              	@ .\driver\src\i2c_va108xx.c:753:     VOR_I2C_Setup(addr,num,i2c);
 1952              		.loc 1 753 0
 1953 05e8 0099     		ldr	r1, [sp]	@, %sfp
 1954              	.LVL134:
 1955 05ea 0298     		ldr	r0, [sp, #8]	@, %sfp
 1956              	.LVL135:
 1957 05ec FFF708FD 		bl	VOR_I2C_Setup	@
 1958              	.LVL136:
 1959              	@ .\driver\src\i2c_va108xx.c:756: 		i2c->reg->CMD = I2C_CMD_START;
 754:.\driver\src/i2c_va108xx.c **** 	  
 755:.\driver\src/i2c_va108xx.c ****     // Enable Start bit
 756:.\driver\src/i2c_va108xx.c **** 		i2c->reg->CMD = I2C_CMD_START;
 1960              		.loc 1 756 0
ARM GAS  C:\Users\claym\AppData\Local\Temp\ccxpUFUu.s 			page 59


 1961 05f0 7B68     		ldr	r3, [r7, #4]	@ _5, i2c_36(D)->reg
 1962              	@ .\driver\src\i2c_va108xx.c:791: 		  if(status & I2C_PERIPHERAL_STATUS_NACKDATA_Msk) {
 757:.\driver\src/i2c_va108xx.c **** 
 758:.\driver\src/i2c_va108xx.c **** 	  // Get Current Time
 759:.\driver\src/i2c_va108xx.c **** 	  /*start_time = VOR_Get_SysTime();
 760:.\driver\src/i2c_va108xx.c **** 	  poll_time  = start_time - i2c->info.poll_tout;*/ 
 761:.\driver\src/i2c_va108xx.c **** 	  i =0;
 762:.\driver\src/i2c_va108xx.c **** 	  // Load Remaining Data to TX FIFO
 763:.\driver\src/i2c_va108xx.c **** 	  while((i<num) /*&& (poll_time <= VOR_Get_SysTime())*/) {
 764:.\driver\src/i2c_va108xx.c **** 		  __NOP( ); 
 765:.\driver\src/i2c_va108xx.c **** 		  __NOP( ); 
 766:.\driver\src/i2c_va108xx.c **** 	    status = i2c->reg->STATUS;
 767:.\driver\src/i2c_va108xx.c ****       // Check TX fifo status and Load Remaining Data
 768:.\driver\src/i2c_va108xx.c **** 		  if((!(status&I2C_PERIPHERAL_STATUS_IDLE_Msk) || (status &I2C_PERIPHERAL_STATUS_WAITING_Msk)|| (
 769:.\driver\src/i2c_va108xx.c **** 	      // Check RX fifo status 
 770:.\driver\src/i2c_va108xx.c **** 	      if(i2c->reg->STATUS&I2C_PERIPHERAL_STATUS_RXNEMPTY_Msk) {
 771:.\driver\src/i2c_va108xx.c **** 		      data[i++] = i2c->reg->DATA;
 772:.\driver\src/i2c_va108xx.c **** 					i2c->info.rxidx++;
 773:.\driver\src/i2c_va108xx.c **** 					if(i==1)
 774:.\driver\src/i2c_va108xx.c **** 						i2c->reg->CMD = 0;
 775:.\driver\src/i2c_va108xx.c ****   			  if((i == num) && (xfer_pending == 0))
 776:.\driver\src/i2c_va108xx.c ****     			  i2c->reg->CMD = I2C_CMD_STOP;
 777:.\driver\src/i2c_va108xx.c **** 				  continue;
 778:.\driver\src/i2c_va108xx.c **** 	      }
 779:.\driver\src/i2c_va108xx.c **** 	    }			
 780:.\driver\src/i2c_va108xx.c **** 		  // Check for Arbitration Error
 781:.\driver\src/i2c_va108xx.c **** 		  if(status & I2C_PERIPHERAL_STATUS_ARBLOST_Msk) {
 782:.\driver\src/i2c_va108xx.c ****   		  VOR_I2C_Stop(i2c);
 783:.\driver\src/i2c_va108xx.c **** 		    return VOR_I2C_ERROR_ARBITRATION_LOST;
 784:.\driver\src/i2c_va108xx.c **** 		  }
 785:.\driver\src/i2c_va108xx.c **** 		  // Check for Address Nack Error
 786:.\driver\src/i2c_va108xx.c **** 		  if(status & I2C_PERIPHERAL_STATUS_NACKADDR_Msk) {
 787:.\driver\src/i2c_va108xx.c ****   		  VOR_I2C_Stop(i2c);
 788:.\driver\src/i2c_va108xx.c **** 		    return VOR_I2C_ERROR_ADDRESS_NACK;
 789:.\driver\src/i2c_va108xx.c **** 		  }
 790:.\driver\src/i2c_va108xx.c **** 		  // Check for Data Nack Error
 791:.\driver\src/i2c_va108xx.c **** 		  if(status & I2C_PERIPHERAL_STATUS_NACKDATA_Msk) {
 1963              		.loc 1 791 0
 1964 05f2 4020     		movs	r0, #64	@ tmp207,
 1965              	@ .\driver\src\i2c_va108xx.c:756: 		i2c->reg->CMD = I2C_CMD_START;
 756:.\driver\src/i2c_va108xx.c **** 
 1966              		.loc 1 756 0
 1967 05f4 5E61     		str	r6, [r3, #20]	@ tmp145, _5->CMD
 1968              	.LVL137:
 1969              	@ .\driver\src\i2c_va108xx.c:768: 		  if((!(status&I2C_PERIPHERAL_STATUS_IDLE_Msk) || (status &I2C_
 768:.\driver\src/i2c_va108xx.c **** 	      // Check RX fifo status 
 1970              		.loc 1 768 0
 1971 05f6 0E23     		movs	r3, #14	@ tmp204,
 1972 05f8 9C46     		mov	ip, r3	@ tmp204, tmp204
 1973              	@ .\driver\src\i2c_va108xx.c:786: 		  if(status & I2C_PERIPHERAL_STATUS_NACKADDR_Msk) {
 786:.\driver\src/i2c_va108xx.c ****   		  VOR_I2C_Stop(i2c);
 1974              		.loc 1 786 0
 1975 05fa 1F36     		adds	r6, r6, #31	@ tmp206,
 1976              	.LVL138:
 1977              	.L156:
 1978              	@ .\driver\src\i2c_va108xx.c:763: 	  while((i<num) /*&& (poll_time <= VOR_Get_SysTime())*/) {
 763:.\driver\src/i2c_va108xx.c **** 		  __NOP( ); 
ARM GAS  C:\Users\claym\AppData\Local\Temp\ccxpUFUu.s 			page 60


 1979              		.loc 1 763 0
 1980 05fc 009B     		ldr	r3, [sp]	@ num, %sfp
 1981 05fe 2900     		movs	r1, r5	@ i.5_21, i
 1982 0600 9D42     		cmp	r5, r3	@ i, num
 1983 0602 02D3     		bcc	.L162	@,
 1984              	.LVL139:
 1985              	.L176:
 1986              	@ .\driver\src\i2c_va108xx.c:830:   return VOR_DRIVER_OK;
 792:.\driver\src/i2c_va108xx.c ****   		  VOR_I2C_Stop(i2c);
 793:.\driver\src/i2c_va108xx.c **** 		    return VOR_I2C_ERROR_TRANSFER_INCOMPLETE;
 794:.\driver\src/i2c_va108xx.c **** 		  }
 795:.\driver\src/i2c_va108xx.c **** 	 
 796:.\driver\src/i2c_va108xx.c **** 	  }
 797:.\driver\src/i2c_va108xx.c **** 	  if(i<num) {
 798:.\driver\src/i2c_va108xx.c **** 		  VOR_I2C_Stop(i2c);
 799:.\driver\src/i2c_va108xx.c **** 		  return VOR_I2C_ERROR_POLL_TOUT;
 800:.\driver\src/i2c_va108xx.c **** 	  } 
 801:.\driver\src/i2c_va108xx.c ****   } else {   // Interrupt Mode
 802:.\driver\src/i2c_va108xx.c ****     VOR_Disable_Irq(VOR_IRQ_I2C_MS, i2c->i2cId);
 803:.\driver\src/i2c_va108xx.c **** 	  i2c->reg->IRQ_CLR = 0xffffffff;
 804:.\driver\src/i2c_va108xx.c **** 	  i2c->reg->IRQ_CLR = 0;
 805:.\driver\src/i2c_va108xx.c **** 	  // Set Master Mode
 806:.\driver\src/i2c_va108xx.c **** 	  i2c->info.status.mode = I2C_MODE_MASTER;
 807:.\driver\src/i2c_va108xx.c **** 	  // Set Direction Transmit
 808:.\driver\src/i2c_va108xx.c **** 	  i2c->info.status.direction = I2C_DIR_RECEIVE;
 809:.\driver\src/i2c_va108xx.c **** 	
 810:.\driver\src/i2c_va108xx.c **** 	  // Set Up Control parameters
 811:.\driver\src/i2c_va108xx.c ****     VOR_I2C_Setup(addr,num,i2c);
 812:.\driver\src/i2c_va108xx.c **** 	  i2c->info.rxdata = data;
 813:.\driver\src/i2c_va108xx.c **** 	  i2c->info.txidx = 0;
 814:.\driver\src/i2c_va108xx.c **** 	  i2c->info.rxidx = 0;
 815:.\driver\src/i2c_va108xx.c **** 	  i2c->info.txcnt = 0;
 816:.\driver\src/i2c_va108xx.c **** 	  i2c->info.rxcnt = num;
 817:.\driver\src/i2c_va108xx.c ****     // Enable Start bit
 818:.\driver\src/i2c_va108xx.c ****     i2c->reg->CMD = I2C_CMD_START;
 819:.\driver\src/i2c_va108xx.c **** 	  
 820:.\driver\src/i2c_va108xx.c ****     // Enable Interrupts
 821:.\driver\src/i2c_va108xx.c **** 	  i2c->reg->IRQ_ENB = (I2C_PERIPHERAL_IRQ_END_IDLE_Msk | \
 822:.\driver\src/i2c_va108xx.c **** 	                    I2C_PERIPHERAL_IRQ_END_ARBLOST_Msk | \
 823:.\driver\src/i2c_va108xx.c **** 				             I2C_PERIPHERAL_IRQ_END_NACKADDR_Msk | \
 824:.\driver\src/i2c_va108xx.c **** 		                 I2C_PERIPHERAL_IRQ_END_NACKDATA_Msk | \
 825:.\driver\src/i2c_va108xx.c **** 					            I2C_PERIPHERAL_IRQ_END_CLKLOTO_Msk | \
 826:.\driver\src/i2c_va108xx.c **** 					            I2C_PERIPHERAL_IRQ_END_RXREADY_Msk | \
 827:.\driver\src/i2c_va108xx.c **** 					             I2C_PERIPHERAL_IRQ_END_RXFULL_Msk );
 828:.\driver\src/i2c_va108xx.c **** 			VOR_Enable_Irq(VOR_IRQ_I2C_MS, i2c->i2cId);
 829:.\driver\src/i2c_va108xx.c ****   }
 830:.\driver\src/i2c_va108xx.c ****   return VOR_DRIVER_OK;
 1987              		.loc 1 830 0
 1988 0604 0020     		movs	r0, #0	@ <retval>,
 1989              	.L153:
 1990              	@ .\driver\src\i2c_va108xx.c:831: }
 831:.\driver\src/i2c_va108xx.c **** }
 1991              		.loc 1 831 0
 1992 0606 05B0     		add	sp, sp, #20	@,,
 1993              		@ sp needed	@
 1994 0608 F0BD     		pop	{r4, r5, r6, r7, pc}
 1995              	.LVL140:
ARM GAS  C:\Users\claym\AppData\Local\Temp\ccxpUFUu.s 			page 61


 1996              	.L162:
 1997              	.LBB126:
 1998              	.LBB127:
 1999              	@ .\inc/cmsis_gcc.h:375:   __ASM volatile ("nop");
 2000              		.loc 2 375 0
 2001              		.syntax divided
 2002              	@ 375 ".\inc/cmsis_gcc.h" 1
 2003 060a C046     		nop
 2004              	@ 0 "" 2
 2005              		.thumb
 2006              		.syntax unified
 2007              	.LBE127:
 2008              	.LBE126:
 2009              	.LBB128:
 2010              	.LBB129:
 2011              		.syntax divided
 2012              	@ 375 ".\inc/cmsis_gcc.h" 1
 2013 060c C046     		nop
 2014              	@ 0 "" 2
 2015              		.thumb
 2016              		.syntax unified
 2017              	.LBE129:
 2018              	.LBE128:
 2019              	@ .\driver\src\i2c_va108xx.c:768: 		  if((!(status&I2C_PERIPHERAL_STATUS_IDLE_Msk) || (status &I2C_
 768:.\driver\src/i2c_va108xx.c **** 	      // Check RX fifo status 
 2020              		.loc 1 768 0
 2021 060e 6446     		mov	r4, ip	@ tmp164, tmp204
 2022              	@ .\driver\src\i2c_va108xx.c:766: 	    status = i2c->reg->STATUS;
 766:.\driver\src/i2c_va108xx.c ****       // Check TX fifo status and Load Remaining Data
 2023              		.loc 1 766 0
 2024 0610 7A68     		ldr	r2, [r7, #4]	@ _6, i2c_36(D)->reg
 2025 0612 9369     		ldr	r3, [r2, #24]	@ status, _6->STATUS
 2026              	.LVL141:
 2027              	@ .\driver\src\i2c_va108xx.c:768: 		  if((!(status&I2C_PERIPHERAL_STATUS_IDLE_Msk) || (status &I2C_
 768:.\driver\src/i2c_va108xx.c **** 	      // Check RX fifo status 
 2028              		.loc 1 768 0
 2029 0614 1C40     		ands	r4, r3	@ tmp164, status
 2030 0616 022C     		cmp	r4, #2	@ tmp164,
 2031 0618 18D0     		beq	.L157	@,
 2032              	@ .\driver\src\i2c_va108xx.c:770: 	      if(i2c->reg->STATUS&I2C_PERIPHERAL_STATUS_RXNEMPTY_Msk) {
 770:.\driver\src/i2c_va108xx.c **** 		      data[i++] = i2c->reg->DATA;
 2033              		.loc 1 770 0
 2034 061a 9469     		ldr	r4, [r2, #24]	@ _8, _6->STATUS
 2035 061c E405     		lsls	r4, r4, #23	@ tmp217, _8,
 2036 061e 15D5     		bpl	.L157	@,
 2037              	@ .\driver\src\i2c_va108xx.c:771: 		      data[i++] = i2c->reg->DATA;
 771:.\driver\src/i2c_va108xx.c **** 					i2c->info.rxidx++;
 2038              		.loc 1 771 0
 2039 0620 1369     		ldr	r3, [r2, #16]	@ _10, _6->DATA
 2040              	.LVL142:
 2041 0622 019A     		ldr	r2, [sp, #4]	@ data, %sfp
 2042 0624 0135     		adds	r5, r5, #1	@ i,
 2043              	.LVL143:
 2044 0626 5354     		strb	r3, [r2, r1]	@ _10, *_11
 2045              	@ .\driver\src\i2c_va108xx.c:772: 					i2c->info.rxidx++;
 772:.\driver\src/i2c_va108xx.c **** 					if(i==1)
 2046              		.loc 1 772 0
ARM GAS  C:\Users\claym\AppData\Local\Temp\ccxpUFUu.s 			page 62


 2047 0628 FB6D     		ldr	r3, [r7, #92]	@ tmp224, i2c_36(D)->info.rxidx
 2048 062a 0133     		adds	r3, r3, #1	@ tmp169,
 2049 062c FB65     		str	r3, [r7, #92]	@ tmp169, i2c_36(D)->info.rxidx
 2050              	@ .\driver\src\i2c_va108xx.c:773: 					if(i==1)
 773:.\driver\src/i2c_va108xx.c **** 						i2c->reg->CMD = 0;
 2051              		.loc 1 773 0
 2052 062e 012D     		cmp	r5, #1	@ i,
 2053 0630 02D1     		bne	.L158	@,
 2054              	@ .\driver\src\i2c_va108xx.c:774: 						i2c->reg->CMD = 0;
 774:.\driver\src/i2c_va108xx.c ****   			  if((i == num) && (xfer_pending == 0))
 2055              		.loc 1 774 0
 2056 0632 0022     		movs	r2, #0	@ tmp171,
 2057 0634 7B68     		ldr	r3, [r7, #4]	@ _15, i2c_36(D)->reg
 2058 0636 5A61     		str	r2, [r3, #20]	@ tmp171, _15->CMD
 2059              	.L158:
 2060              	@ .\driver\src\i2c_va108xx.c:775:   			  if((i == num) && (xfer_pending == 0))
 775:.\driver\src/i2c_va108xx.c ****     			  i2c->reg->CMD = I2C_CMD_STOP;
 2061              		.loc 1 775 0
 2062 0638 009B     		ldr	r3, [sp]	@ num, %sfp
 2063 063a 9D42     		cmp	r5, r3	@ i, num
 2064 063c DED1     		bne	.L156	@,
 2065              	@ .\driver\src\i2c_va108xx.c:775:   			  if((i == num) && (xfer_pending == 0))
 775:.\driver\src/i2c_va108xx.c ****     			  i2c->reg->CMD = I2C_CMD_STOP;
 2066              		.loc 1 775 0 is_stmt 0 discriminator 1
 2067 063e 039B     		ldr	r3, [sp, #12]	@ xfer_pending, %sfp
 2068 0640 002B     		cmp	r3, #0	@ xfer_pending,
 2069 0642 DBD1     		bne	.L156	@,
 2070              	@ .\driver\src\i2c_va108xx.c:776:     			  i2c->reg->CMD = I2C_CMD_STOP;
 776:.\driver\src/i2c_va108xx.c **** 				  continue;
 2071              		.loc 1 776 0 is_stmt 1
 2072 0644 0222     		movs	r2, #2	@ tmp172,
 2073 0646 7B68     		ldr	r3, [r7, #4]	@ _17, i2c_36(D)->reg
 2074 0648 5A61     		str	r2, [r3, #20]	@ tmp172, _17->CMD
 2075 064a D7E7     		b	.L156	@
 2076              	.LVL144:
 2077              	.L157:
 2078              	@ .\driver\src\i2c_va108xx.c:781: 		  if(status & I2C_PERIPHERAL_STATUS_ARBLOST_Msk) {
 781:.\driver\src/i2c_va108xx.c ****   		  VOR_I2C_Stop(i2c);
 2079              		.loc 1 781 0
 2080 064c 1022     		movs	r2, #16	@ tmp228,
 2081 064e 1342     		tst	r3, r2	@ status, tmp228
 2082 0650 05D0     		beq	.L160	@,
 2083              	@ .\driver\src\i2c_va108xx.c:782:   		  VOR_I2C_Stop(i2c);
 782:.\driver\src/i2c_va108xx.c **** 		    return VOR_I2C_ERROR_ARBITRATION_LOST;
 2084              		.loc 1 782 0
 2085 0652 3800     		movs	r0, r7	@, i2c
 2086 0654 FFF778FD 		bl	VOR_I2C_Stop	@
 2087              	.LVL145:
 2088              	@ .\driver\src\i2c_va108xx.c:783: 		    return VOR_I2C_ERROR_ARBITRATION_LOST;
 783:.\driver\src/i2c_va108xx.c **** 		  }
 2089              		.loc 1 783 0
 2090 0658 0D20     		movs	r0, #13	@ <retval>,
 2091              	.LVL146:
 2092              	.L175:
 2093              	@ .\driver\src\i2c_va108xx.c:742:     return VOR_DRIVER_ERROR;
 742:.\driver\src/i2c_va108xx.c ****   }
 2094              		.loc 1 742 0
ARM GAS  C:\Users\claym\AppData\Local\Temp\ccxpUFUu.s 			page 63


 2095 065a 4042     		rsbs	r0, r0, #0	@ <retval>, <retval>
 2096 065c D3E7     		b	.L153	@
 2097              	.LVL147:
 2098              	.L160:
 2099              	@ .\driver\src\i2c_va108xx.c:786: 		  if(status & I2C_PERIPHERAL_STATUS_NACKADDR_Msk) {
 786:.\driver\src/i2c_va108xx.c ****   		  VOR_I2C_Stop(i2c);
 2100              		.loc 1 786 0
 2101 065e 3342     		tst	r3, r6	@ status, tmp206
 2102 0660 04D0     		beq	.L161	@,
 2103              	@ .\driver\src\i2c_va108xx.c:787:   		  VOR_I2C_Stop(i2c);
 787:.\driver\src/i2c_va108xx.c **** 		    return VOR_I2C_ERROR_ADDRESS_NACK;
 2104              		.loc 1 787 0
 2105 0662 3800     		movs	r0, r7	@, i2c
 2106 0664 FFF770FD 		bl	VOR_I2C_Stop	@
 2107              	.LVL148:
 2108              	@ .\driver\src\i2c_va108xx.c:788: 		    return VOR_I2C_ERROR_ADDRESS_NACK;
 788:.\driver\src/i2c_va108xx.c **** 		  }
 2109              		.loc 1 788 0
 2110 0668 0C20     		movs	r0, #12	@ <retval>,
 2111 066a F6E7     		b	.L175	@
 2112              	.LVL149:
 2113              	.L161:
 2114              	@ .\driver\src\i2c_va108xx.c:791: 		  if(status & I2C_PERIPHERAL_STATUS_NACKDATA_Msk) {
 791:.\driver\src/i2c_va108xx.c ****   		  VOR_I2C_Stop(i2c);
 2115              		.loc 1 791 0
 2116 066c 0342     		tst	r3, r0	@ status, tmp207
 2117 066e C5D0     		beq	.L156	@,
 2118              	@ .\driver\src\i2c_va108xx.c:792:   		  VOR_I2C_Stop(i2c);
 792:.\driver\src/i2c_va108xx.c **** 		    return VOR_I2C_ERROR_TRANSFER_INCOMPLETE;
 2119              		.loc 1 792 0
 2120 0670 3800     		movs	r0, r7	@, i2c
 2121 0672 FFF769FD 		bl	VOR_I2C_Stop	@
 2122              	.LVL150:
 2123              	@ .\driver\src\i2c_va108xx.c:793: 		    return VOR_I2C_ERROR_TRANSFER_INCOMPLETE;
 793:.\driver\src/i2c_va108xx.c **** 		  }
 2124              		.loc 1 793 0
 2125 0676 0E20     		movs	r0, #14	@ <retval>,
 2126 0678 EFE7     		b	.L175	@
 2127              	.LVL151:
 2128              	.L155:
 2129              	@ .\driver\src\i2c_va108xx.c:802:     VOR_Disable_Irq(VOR_IRQ_I2C_MS, i2c->i2cId);
 802:.\driver\src/i2c_va108xx.c **** 	  i2c->reg->IRQ_CLR = 0xffffffff;
 2130              		.loc 1 802 0
 2131 067a 3968     		ldr	r1, [r7]	@, i2c_36(D)->i2cId
 2132              	.LVL152:
 2133 067c 0520     		movs	r0, #5	@,
 2134              	.LVL153:
 2135 067e FFF7FEFF 		bl	VOR_Disable_Irq	@
 2136              	.LVL154:
 2137              	@ .\driver\src\i2c_va108xx.c:803: 	  i2c->reg->IRQ_CLR = 0xffffffff;
 803:.\driver\src/i2c_va108xx.c **** 	  i2c->reg->IRQ_CLR = 0;
 2138              		.loc 1 803 0
 2139 0682 0122     		movs	r2, #1	@ tmp179,
 2140 0684 7B68     		ldr	r3, [r7, #4]	@ _23, i2c_36(D)->reg
 2141 0686 5242     		rsbs	r2, r2, #0	@ tmp179, tmp179
 2142 0688 5A63     		str	r2, [r3, #52]	@ tmp179, _23->IRQ_CLR
 2143              	@ .\driver\src\i2c_va108xx.c:804: 	  i2c->reg->IRQ_CLR = 0;
ARM GAS  C:\Users\claym\AppData\Local\Temp\ccxpUFUu.s 			page 64


 804:.\driver\src/i2c_va108xx.c **** 	  // Set Master Mode
 2144              		.loc 1 804 0
 2145 068a 5C63     		str	r4, [r3, #52]	@ i2c_36(D)->info.poll_mode, _23->IRQ_CLR
 2146              	@ .\driver\src\i2c_va108xx.c:806: 	  i2c->info.status.mode = I2C_MODE_MASTER;
 806:.\driver\src/i2c_va108xx.c **** 	  // Set Direction Transmit
 2147              		.loc 1 806 0
 2148 068c 8023     		movs	r3, #128	@ tmp186,
 2149 068e 7A7C     		ldrb	r2, [r7, #17]	@ tmp184,
 2150 0690 5B42     		rsbs	r3, r3, #0	@ tmp186, tmp186
 2151 0692 1343     		orrs	r3, r2	@ tmp185, tmp184
 2152 0694 7B74     		strb	r3, [r7, #17]	@ tmp185,
 2153              	.LVL155:
 2154              	@ .\driver\src\i2c_va108xx.c:808: 	  i2c->info.status.direction = I2C_DIR_RECEIVE;
 808:.\driver\src/i2c_va108xx.c **** 	
 2155              		.loc 1 808 0
 2156 0696 BB7C     		ldrb	r3, [r7, #18]	@ tmp191,
 2157              	@ .\driver\src\i2c_va108xx.c:811:     VOR_I2C_Setup(addr,num,i2c);
 811:.\driver\src/i2c_va108xx.c **** 	  i2c->info.rxdata = data;
 2158              		.loc 1 811 0
 2159 0698 3A00     		movs	r2, r7	@, i2c
 2160              	@ .\driver\src\i2c_va108xx.c:808: 	  i2c->info.status.direction = I2C_DIR_RECEIVE;
 808:.\driver\src/i2c_va108xx.c **** 	
 2161              		.loc 1 808 0
 2162 069a 3343     		orrs	r3, r6	@ tmp192, tmp145
 2163 069c BB74     		strb	r3, [r7, #18]	@ tmp192,
 2164              	@ .\driver\src\i2c_va108xx.c:811:     VOR_I2C_Setup(addr,num,i2c);
 811:.\driver\src/i2c_va108xx.c **** 	  i2c->info.rxdata = data;
 2165              		.loc 1 811 0
 2166 069e 0099     		ldr	r1, [sp]	@, %sfp
 2167 06a0 0298     		ldr	r0, [sp, #8]	@, %sfp
 2168 06a2 FFF7ADFC 		bl	VOR_I2C_Setup	@
 2169              	.LVL156:
 2170              	@ .\driver\src\i2c_va108xx.c:812: 	  i2c->info.rxdata = data;
 812:.\driver\src/i2c_va108xx.c **** 	  i2c->info.txidx = 0;
 2171              		.loc 1 812 0
 2172 06a6 3B00     		movs	r3, r7	@ tmp197, i2c
 2173 06a8 019A     		ldr	r2, [sp, #4]	@ data, %sfp
 2174 06aa E033     		adds	r3, r3, #224	@ tmp197,
 2175 06ac 1A60     		str	r2, [r3]	@ data, i2c_36(D)->info.rxdata
 2176              	@ .\driver\src\i2c_va108xx.c:816: 	  i2c->info.rxcnt = num;
 816:.\driver\src/i2c_va108xx.c ****     // Enable Start bit
 2177              		.loc 1 816 0
 2178 06ae 009B     		ldr	r3, [sp]	@ num, %sfp
 2179              	@ .\driver\src\i2c_va108xx.c:821: 	  i2c->reg->IRQ_ENB = (I2C_PERIPHERAL_IRQ_END_IDLE_Msk | \
 821:.\driver\src/i2c_va108xx.c **** 	                    I2C_PERIPHERAL_IRQ_END_ARBLOST_Msk | \
 2180              		.loc 1 821 0
 2181 06b0 084A     		ldr	r2, .L177	@ tmp202,
 2182              	@ .\driver\src\i2c_va108xx.c:816: 	  i2c->info.rxcnt = num;
 816:.\driver\src/i2c_va108xx.c ****     // Enable Start bit
 2183              		.loc 1 816 0
 2184 06b2 7B65     		str	r3, [r7, #84]	@ num, i2c_36(D)->info.rxcnt
 2185              	@ .\driver\src\i2c_va108xx.c:818:     i2c->reg->CMD = I2C_CMD_START;
 818:.\driver\src/i2c_va108xx.c **** 	  
 2186              		.loc 1 818 0
 2187 06b4 7B68     		ldr	r3, [r7, #4]	@ _25, i2c_36(D)->reg
 2188              	@ .\driver\src\i2c_va108xx.c:813: 	  i2c->info.txidx = 0;
 813:.\driver\src/i2c_va108xx.c **** 	  i2c->info.rxidx = 0;
ARM GAS  C:\Users\claym\AppData\Local\Temp\ccxpUFUu.s 			page 65


 2189              		.loc 1 813 0
 2190 06b6 BC65     		str	r4, [r7, #88]	@ i2c_36(D)->info.poll_mode, i2c_36(D)->info.txidx
 2191              	@ .\driver\src\i2c_va108xx.c:814: 	  i2c->info.rxidx = 0;
 814:.\driver\src/i2c_va108xx.c **** 	  i2c->info.txcnt = 0;
 2192              		.loc 1 814 0
 2193 06b8 FC65     		str	r4, [r7, #92]	@ i2c_36(D)->info.poll_mode, i2c_36(D)->info.rxidx
 2194              	@ .\driver\src\i2c_va108xx.c:815: 	  i2c->info.txcnt = 0;
 815:.\driver\src/i2c_va108xx.c **** 	  i2c->info.rxcnt = num;
 2195              		.loc 1 815 0
 2196 06ba 3C65     		str	r4, [r7, #80]	@ i2c_36(D)->info.poll_mode, i2c_36(D)->info.txcnt
 2197              	@ .\driver\src\i2c_va108xx.c:828: 			VOR_Enable_Irq(VOR_IRQ_I2C_MS, i2c->i2cId);
 828:.\driver\src/i2c_va108xx.c ****   }
 2198              		.loc 1 828 0
 2199 06bc 3968     		ldr	r1, [r7]	@, i2c_36(D)->i2cId
 2200              	@ .\driver\src\i2c_va108xx.c:818:     i2c->reg->CMD = I2C_CMD_START;
 818:.\driver\src/i2c_va108xx.c **** 	  
 2201              		.loc 1 818 0
 2202 06be 5E61     		str	r6, [r3, #20]	@ tmp145, _25->CMD
 2203              	@ .\driver\src\i2c_va108xx.c:828: 			VOR_Enable_Irq(VOR_IRQ_I2C_MS, i2c->i2cId);
 828:.\driver\src/i2c_va108xx.c ****   }
 2204              		.loc 1 828 0
 2205 06c0 0520     		movs	r0, #5	@,
 2206              	@ .\driver\src\i2c_va108xx.c:821: 	  i2c->reg->IRQ_ENB = (I2C_PERIPHERAL_IRQ_END_IDLE_Msk | \
 821:.\driver\src/i2c_va108xx.c **** 	                    I2C_PERIPHERAL_IRQ_END_ARBLOST_Msk | \
 2207              		.loc 1 821 0
 2208 06c2 9A62     		str	r2, [r3, #40]	@ tmp202, _25->IRQ_ENB
 2209              	@ .\driver\src\i2c_va108xx.c:828: 			VOR_Enable_Irq(VOR_IRQ_I2C_MS, i2c->i2cId);
 828:.\driver\src/i2c_va108xx.c ****   }
 2210              		.loc 1 828 0
 2211 06c4 FFF7FEFF 		bl	VOR_Enable_Irq	@
 2212              	.LVL157:
 2213 06c8 9CE7     		b	.L176	@
 2214              	.LVL158:
 2215              	.L164:
 2216              	@ .\driver\src\i2c_va108xx.c:737:     return VOR_DRIVER_ERROR_PARAMETER;
 737:.\driver\src/i2c_va108xx.c ****   }
 2217              		.loc 1 737 0
 2218 06ca 0520     		movs	r0, #5	@ <retval>,
 2219              	.LVL159:
 2220 06cc C5E7     		b	.L175	@
 2221              	.LVL160:
 2222              	.L165:
 2223              	@ .\driver\src\i2c_va108xx.c:742:     return VOR_DRIVER_ERROR;
 742:.\driver\src/i2c_va108xx.c ****   }
 2224              		.loc 1 742 0
 2225 06ce 0120     		movs	r0, #1	@ <retval>,
 2226              	.LVL161:
 2227 06d0 C3E7     		b	.L175	@
 2228              	.L178:
 2229 06d2 C046     		.align	2
 2230              	.L177:
 2231 06d4 F2A00000 		.word	41202
 2232              		.cfi_endproc
 2233              	.LFE61:
 2234              		.size	VOR_I2C_MasterReceive, .-VOR_I2C_MasterReceive
 2235              		.align	1
 2236              		.global	VOR_I2C_SlaveTransmit
ARM GAS  C:\Users\claym\AppData\Local\Temp\ccxpUFUu.s 			page 66


 2237              		.syntax unified
 2238              		.code	16
 2239              		.thumb_func
 2240              		.fpu softvfp
 2241              		.type	VOR_I2C_SlaveTransmit, %function
 2242              	VOR_I2C_SlaveTransmit:
 2243              	.LFB62:
 832:.\driver\src/i2c_va108xx.c **** 
 833:.\driver\src/i2c_va108xx.c **** /**
 834:.\driver\src/i2c_va108xx.c ****   function:    int32_t VOR_I2C_SlaveTransmit (const uint8_t *data,
 835:.\driver\src/i2c_va108xx.c ****                                            uint32_t       num,
 836:.\driver\src/i2c_va108xx.c ****                                            I2C_RESOURCES *i2c)
 837:.\driver\src/i2c_va108xx.c ****   brief:       Start transmitting data as I2C Slave.
 838:.\driver\src/i2c_va108xx.c ****   Input:       data  Pointer to buffer with data to transmit to I2C Master
 839:.\driver\src/i2c_va108xx.c ****   Input:       num   Number of data bytes to transmit
 840:.\driver\src/i2c_va108xx.c ****   Input:       i2c   Pointer to I2C resources
 841:.\driver\src/i2c_va108xx.c ****   return:      execution_status
 842:.\driver\src/i2c_va108xx.c **** */
 843:.\driver\src/i2c_va108xx.c **** int32_t VOR_I2C_SlaveTransmit (const uint8_t *data,
 844:.\driver\src/i2c_va108xx.c ****                                    uint32_t       num,
 845:.\driver\src/i2c_va108xx.c ****                                    I2C_RESOURCES *i2c) {
 2244              		.loc 1 845 0
 2245              		.cfi_startproc
 2246              		@ args = 0, pretend = 0, frame = 8
 2247              		@ frame_needed = 0, uses_anonymous_args = 0
 2248              	.LVL162:
 2249 06d8 F7B5     		push	{r0, r1, r2, r4, r5, r6, r7, lr}	@
 2250              	.LCFI11:
 2251              		.cfi_def_cfa_offset 32
 2252              		.cfi_offset 0, -32
 2253              		.cfi_offset 1, -28
 2254              		.cfi_offset 2, -24
 2255              		.cfi_offset 4, -20
 2256              		.cfi_offset 5, -16
 2257              		.cfi_offset 6, -12
 2258              		.cfi_offset 7, -8
 2259              		.cfi_offset 14, -4
 2260              	@ .\driver\src\i2c_va108xx.c:845:                                    I2C_RESOURCES *i2c) {
 2261              		.loc 1 845 0
 2262 06da 0700     		movs	r7, r0	@ data, data
 2263 06dc 0D00     		movs	r5, r1	@ num, num
 2264 06de 1400     		movs	r4, r2	@ i2c, i2c
 2265              	@ .\driver\src\i2c_va108xx.c:850:   if (!data || !num ) {
 846:.\driver\src/i2c_va108xx.c **** 
 847:.\driver\src/i2c_va108xx.c ****   int32_t i;
 848:.\driver\src/i2c_va108xx.c ****   uint32_t poll_time, start_time;
 849:.\driver\src/i2c_va108xx.c **** 	uint32_t status, irq_raw;																			
 850:.\driver\src/i2c_va108xx.c ****   if (!data || !num ) {
 2266              		.loc 1 850 0
 2267 06e0 0028     		cmp	r0, #0	@ data,
 2268 06e2 00D1     		bne	.LCB1804	@
 2269 06e4 B3E0     		b	.L200	@long jump	@
 2270              	.LCB1804:
 2271              	@ .\driver\src\i2c_va108xx.c:850:   if (!data || !num ) {
 2272              		.loc 1 850 0 is_stmt 0 discriminator 1
 2273 06e6 0029     		cmp	r1, #0	@ num,
 2274 06e8 00D1     		bne	.LCB1806	@
ARM GAS  C:\Users\claym\AppData\Local\Temp\ccxpUFUu.s 			page 67


 2275 06ea B0E0     		b	.L200	@long jump	@
 2276              	.LCB1806:
 2277              	@ .\driver\src\i2c_va108xx.c:857:     return VOR_DRIVER_ERROR;
 851:.\driver\src/i2c_va108xx.c ****     /* Invalid parameters */
 852:.\driver\src/i2c_va108xx.c ****     return VOR_DRIVER_ERROR_PARAMETER;
 853:.\driver\src/i2c_va108xx.c ****   }
 854:.\driver\src/i2c_va108xx.c **** 
 855:.\driver\src/i2c_va108xx.c ****   if (!(i2c->info.flags & I2C_FLAG_INIT)) {
 856:.\driver\src/i2c_va108xx.c ****     /* Driver not yet configured */
 857:.\driver\src/i2c_va108xx.c ****     return VOR_DRIVER_ERROR;
 2278              		.loc 1 857 0 is_stmt 1
 2279 06ec 0120     		movs	r0, #1	@ <retval>,
 2280              	.LVL163:
 2281              	@ .\driver\src\i2c_va108xx.c:855:   if (!(i2c->info.flags & I2C_FLAG_INIT)) {
 855:.\driver\src/i2c_va108xx.c ****     /* Driver not yet configured */
 2282              		.loc 1 855 0
 2283 06ee 0121     		movs	r1, #1	@ tmp297,
 2284              	.LVL164:
 2285 06f0 5369     		ldr	r3, [r2, #20]	@ tmp296, i2c_71(D)->info.flags
 2286              	@ .\driver\src\i2c_va108xx.c:857:     return VOR_DRIVER_ERROR;
 2287              		.loc 1 857 0
 2288 06f2 4042     		rsbs	r0, r0, #0	@ <retval>, <retval>
 2289              	@ .\driver\src\i2c_va108xx.c:855:   if (!(i2c->info.flags & I2C_FLAG_INIT)) {
 855:.\driver\src/i2c_va108xx.c ****     /* Driver not yet configured */
 2290              		.loc 1 855 0
 2291 06f4 0B42     		tst	r3, r1	@ tmp296, tmp297
 2292 06f6 73D0     		beq	.L179	@,
 2293              	@ .\driver\src\i2c_va108xx.c:860:   i2c->reg->S0_IRQ_ENB = 0;
 858:.\driver\src/i2c_va108xx.c ****   }
 859:.\driver\src/i2c_va108xx.c **** 
 860:.\driver\src/i2c_va108xx.c ****   i2c->reg->S0_IRQ_ENB = 0;
 2294              		.loc 1 860 0
 2295 06f8 5368     		ldr	r3, [r2, #4]	@ tmp195, i2c_71(D)->reg
 2296              	@ .\driver\src\i2c_va108xx.c:861:   i2c->reg->S0_IRQ_CLR = 0xffffffff;
 861:.\driver\src/i2c_va108xx.c ****   i2c->reg->S0_IRQ_CLR = 0xffffffff;
 2297              		.loc 1 861 0
 2298 06fa 0122     		movs	r2, #1	@ tmp299,
 2299              	.LVL165:
 2300              	@ .\driver\src\i2c_va108xx.c:860:   i2c->reg->S0_IRQ_ENB = 0;
 860:.\driver\src/i2c_va108xx.c ****   i2c->reg->S0_IRQ_CLR = 0xffffffff;
 2301              		.loc 1 860 0
 2302 06fc 0020     		movs	r0, #0	@ tmp196,
 2303              	@ .\driver\src\i2c_va108xx.c:863:   if(i2c->info.poll_mode) {
 862:.\driver\src/i2c_va108xx.c ****   i2c->info.txidx = 0;
 863:.\driver\src/i2c_va108xx.c ****   if(i2c->info.poll_mode) {
 2304              		.loc 1 863 0
 2305 06fe A669     		ldr	r6, [r4, #24]	@ i2c_71(D)->info.poll_mode, i2c_71(D)->info.poll_mode
 2306              	@ .\driver\src\i2c_va108xx.c:860:   i2c->reg->S0_IRQ_ENB = 0;
 860:.\driver\src/i2c_va108xx.c ****   i2c->reg->S0_IRQ_CLR = 0xffffffff;
 2307              		.loc 1 860 0
 2308 0700 FC33     		adds	r3, r3, #252	@ tmp195,
 2309              	@ .\driver\src\i2c_va108xx.c:861:   i2c->reg->S0_IRQ_CLR = 0xffffffff;
 861:.\driver\src/i2c_va108xx.c ****   i2c->info.txidx = 0;
 2310              		.loc 1 861 0
 2311 0702 5242     		rsbs	r2, r2, #0	@ tmp299, tmp299
 2312              	@ .\driver\src\i2c_va108xx.c:860:   i2c->reg->S0_IRQ_ENB = 0;
 860:.\driver\src/i2c_va108xx.c ****   i2c->reg->S0_IRQ_CLR = 0xffffffff;
ARM GAS  C:\Users\claym\AppData\Local\Temp\ccxpUFUu.s 			page 68


 2313              		.loc 1 860 0
 2314 0704 D862     		str	r0, [r3, #44]	@ tmp196, _3->S0_IRQ_ENB
 2315              	@ .\driver\src\i2c_va108xx.c:861:   i2c->reg->S0_IRQ_CLR = 0xffffffff;
 861:.\driver\src/i2c_va108xx.c ****   i2c->info.txidx = 0;
 2316              		.loc 1 861 0
 2317 0706 9A63     		str	r2, [r3, #56]	@ tmp299, _3->S0_IRQ_CLR
 2318              	@ .\driver\src\i2c_va108xx.c:862:   i2c->info.txidx = 0;
 862:.\driver\src/i2c_va108xx.c ****   i2c->info.txidx = 0;
 2319              		.loc 1 862 0
 2320 0708 A065     		str	r0, [r4, #88]	@ tmp196, i2c_71(D)->info.txidx
 2321              	@ .\driver\src\i2c_va108xx.c:863:   if(i2c->info.poll_mode) {
 2322              		.loc 1 863 0
 2323 070a 8642     		cmp	r6, r0	@ i2c_71(D)->info.poll_mode,
 2324 070c 00D1     		bne	.LCB1831	@
 2325 070e 68E0     		b	.L181	@long jump	@
 2326              	.LCB1831:
 2327              	@ .\driver\src\i2c_va108xx.c:865: 	  i2c->info.status.mode = I2C_MODE_SLAVE;
 864:.\driver\src/i2c_va108xx.c **** 	  // Set Slave Mode
 865:.\driver\src/i2c_va108xx.c **** 	  i2c->info.status.mode = I2C_MODE_SLAVE;
 2328              		.loc 1 865 0
 2329 0710 637C     		ldrb	r3, [r4, #17]	@ tmp204,
 2330 0712 8032     		adds	r2, r2, #128	@ tmp206,
 2331 0714 1340     		ands	r3, r2	@ tmp205, tmp206
 2332 0716 6374     		strb	r3, [r4, #17]	@ tmp205,
 2333              	@ .\driver\src\i2c_va108xx.c:867: 	  i2c->info.status.direction = I2C_DIR_TRANSMIT;
 866:.\driver\src/i2c_va108xx.c **** 	  // Set Direction Transmit
 867:.\driver\src/i2c_va108xx.c **** 	  i2c->info.status.direction = I2C_DIR_TRANSMIT;
 2334              		.loc 1 867 0
 2335 0718 A37C     		ldrb	r3, [r4, #18]	@ tmp211,
 2336              	@ .\driver\src\i2c_va108xx.c:869:     VOR_I2C_Setup((uint32_t)NULL,num,i2c);
 868:.\driver\src/i2c_va108xx.c **** 	  // Set Up Control parameters
 869:.\driver\src/i2c_va108xx.c ****     VOR_I2C_Setup((uint32_t)NULL,num,i2c);
 2337              		.loc 1 869 0
 2338 071a 2200     		movs	r2, r4	@, i2c
 2339              	@ .\driver\src\i2c_va108xx.c:867: 	  i2c->info.status.direction = I2C_DIR_TRANSMIT;
 867:.\driver\src/i2c_va108xx.c **** 	  // Set Up Control parameters
 2340              		.loc 1 867 0
 2341 071c 8B43     		bics	r3, r1	@ tmp212, tmp300
 2342 071e A374     		strb	r3, [r4, #18]	@ tmp212,
 2343              	@ .\driver\src\i2c_va108xx.c:869:     VOR_I2C_Setup((uint32_t)NULL,num,i2c);
 2344              		.loc 1 869 0
 2345 0720 2900     		movs	r1, r5	@, num
 2346 0722 FFF76DFC 		bl	VOR_I2C_Setup	@
 2347              	.LVL166:
 2348              	@ .\driver\src\i2c_va108xx.c:874: 	  while((num !=0) && (i2c->reg->S0_STATUS&I2C_PERIPHERAL_S0_STAT
 870:.\driver\src/i2c_va108xx.c **** 	  
 871:.\driver\src/i2c_va108xx.c **** 	  // Load Slave TX FIFO
 872:.\driver\src/i2c_va108xx.c **** 	  i =0;
 873:.\driver\src/i2c_va108xx.c **** 		num++;
 874:.\driver\src/i2c_va108xx.c **** 	  while((num !=0) && (i2c->reg->S0_STATUS&I2C_PERIPHERAL_S0_STATUS_TXNFULL_Msk)) {
 2349              		.loc 1 874 0
 2350 0726 8021     		movs	r1, #128	@ tmp283,
 2351 0728 3A00     		movs	r2, r7	@ ivtmp.95, data
 2352              	@ .\driver\src\i2c_va108xx.c:873: 		num++;
 873:.\driver\src/i2c_va108xx.c **** 	  while((num !=0) && (i2c->reg->S0_STATUS&I2C_PERIPHERAL_S0_STATUS_TXNFULL_Msk)) {
 2353              		.loc 1 873 0
 2354 072a 0135     		adds	r5, r5, #1	@ num,
ARM GAS  C:\Users\claym\AppData\Local\Temp\ccxpUFUu.s 			page 69


 2355              	.LVL167:
 2356              	@ .\driver\src\i2c_va108xx.c:874: 	  while((num !=0) && (i2c->reg->S0_STATUS&I2C_PERIPHERAL_S0_STAT
 2357              		.loc 1 874 0
 2358 072c 8901     		lsls	r1, r1, #6	@ tmp283, tmp283,
 2359              	.LVL168:
 2360              	.L182:
 2361 072e D61B     		subs	r6, r2, r7	@ i, ivtmp.95, data
 2362              	.LVL169:
 2363 0730 002D     		cmp	r5, #0	@ num,
 2364 0732 04D0     		beq	.L183	@,
 2365              	@ .\driver\src\i2c_va108xx.c:874: 	  while((num !=0) && (i2c->reg->S0_STATUS&I2C_PERIPHERAL_S0_STAT
 2366              		.loc 1 874 0 is_stmt 0 discriminator 1
 2367 0734 6368     		ldr	r3, [r4, #4]	@ tmp218, i2c_71(D)->reg
 2368 0736 FC33     		adds	r3, r3, #252	@ tmp218,
 2369 0738 D869     		ldr	r0, [r3, #28]	@ _13, _12->S0_STATUS
 2370 073a 0842     		tst	r0, r1	@ _13, tmp283
 2371 073c 11D1     		bne	.L184	@,
 2372              	.L183:
 2373              	@ .\driver\src\i2c_va108xx.c:880: 	  start_time = VOR_Get_SysTime();
 875:.\driver\src/i2c_va108xx.c **** 		  i2c->reg->S0_DATA=data[i++];
 876:.\driver\src/i2c_va108xx.c **** 			i2c->info.txidx++;
 877:.\driver\src/i2c_va108xx.c **** 		  num--;
 878:.\driver\src/i2c_va108xx.c **** 	  }
 879:.\driver\src/i2c_va108xx.c **** 	  // Get Current Time
 880:.\driver\src/i2c_va108xx.c **** 	  start_time = VOR_Get_SysTime();
 2374              		.loc 1 880 0 is_stmt 1
 2375 073e FFF7FEFF 		bl	VOR_Get_SysTime	@
 2376              	.LVL170:
 2377              	@ .\driver\src\i2c_va108xx.c:881: 	  poll_time  = start_time - i2c->info.poll_tout;
 881:.\driver\src/i2c_va108xx.c **** 	  poll_time  = start_time - i2c->info.poll_tout;
 2378              		.loc 1 881 0
 2379 0742 E369     		ldr	r3, [r4, #28]	@ tmp304, i2c_71(D)->info.poll_tout
 2380 0744 C31A     		subs	r3, r0, r3	@ poll_time, start_time, tmp304
 2381 0746 0193     		str	r3, [sp, #4]	@ poll_time, %sfp
 2382              	.LVL171:
 2383              	.L185:
 2384              	@ .\driver\src\i2c_va108xx.c:883: 	  while((num !=0) && (poll_time <= VOR_Get_SysTime())) {
 882:.\driver\src/i2c_va108xx.c **** 	  // Load Remaining Data to TX FIFO
 883:.\driver\src/i2c_va108xx.c **** 	  while((num !=0) && (poll_time <= VOR_Get_SysTime())) {
 2385              		.loc 1 883 0
 2386 0748 002D     		cmp	r5, #0	@ num,
 2387 074a 2AD0     		beq	.L188	@,
 2388              	@ .\driver\src\i2c_va108xx.c:883: 	  while((num !=0) && (poll_time <= VOR_Get_SysTime())) {
 2389              		.loc 1 883 0 is_stmt 0 discriminator 1
 2390 074c FFF7FEFF 		bl	VOR_Get_SysTime	@
 2391              	.LVL172:
 2392 0750 019B     		ldr	r3, [sp, #4]	@ poll_time, %sfp
 2393 0752 9842     		cmp	r0, r3	@ _26, poll_time
 2394 0754 0DD2     		bcs	.L189	@,
 2395              	.LVL173:
 2396              	.L190:
 2397              	@ .\driver\src\i2c_va108xx.c:905: 		  VOR_I2C_Stop(i2c);
 884:.\driver\src/i2c_va108xx.c ****   		__NOP( ); 
 885:.\driver\src/i2c_va108xx.c **** 	  	__NOP( ); 
 886:.\driver\src/i2c_va108xx.c **** 			
 887:.\driver\src/i2c_va108xx.c **** 		  status = i2c->reg->S0_STATUS;
 888:.\driver\src/i2c_va108xx.c **** 		  if((status & I2C_PERIPHERAL_S0_STATUS_IDLE_Msk) || (status & I2C_PERIPHERAL_S0_STATUS_WAITING_M
ARM GAS  C:\Users\claym\AppData\Local\Temp\ccxpUFUu.s 			page 70


 889:.\driver\src/i2c_va108xx.c **** 			             || (status & I2C_PERIPHERAL_S0_STATUS_TXSTALLED_Msk)) {
 890:.\driver\src/i2c_va108xx.c **** 										 
 891:.\driver\src/i2c_va108xx.c **** 	      // Check TX fifo status and Load Remaining Data
 892:.\driver\src/i2c_va108xx.c **** 	      if(status&I2C_PERIPHERAL_S0_STATUS_TXNFULL_Msk) {
 893:.\driver\src/i2c_va108xx.c **** 		      i2c->reg->S0_DATA=data[i++];
 894:.\driver\src/i2c_va108xx.c **** 					i2c->info.txidx++;
 895:.\driver\src/i2c_va108xx.c **** 		      num--;			
 896:.\driver\src/i2c_va108xx.c **** 		    }
 897:.\driver\src/i2c_va108xx.c ****       }			
 898:.\driver\src/i2c_va108xx.c **** 
 899:.\driver\src/i2c_va108xx.c ****       irq_raw = i2c->reg->S0_IRQ_RAW;
 900:.\driver\src/i2c_va108xx.c **** 			// Check For Stop Condition
 901:.\driver\src/i2c_va108xx.c **** 			if(irq_raw & I2C_PERIPHERAL_S0_IRQ_RAW_I2C_STOP_Msk) 
 902:.\driver\src/i2c_va108xx.c **** 				break;
 903:.\driver\src/i2c_va108xx.c ****     }
 904:.\driver\src/i2c_va108xx.c **** 	  if(num!=0) {
 905:.\driver\src/i2c_va108xx.c **** 		  VOR_I2C_Stop(i2c);
 2398              		.loc 1 905 0 is_stmt 1
 2399 0756 2000     		movs	r0, r4	@, i2c
 2400 0758 FFF7F6FC 		bl	VOR_I2C_Stop	@
 2401              	.LVL174:
 2402              	@ .\driver\src\i2c_va108xx.c:906: 		  return VOR_I2C_ERROR_POLL_TOUT;
 906:.\driver\src/i2c_va108xx.c **** 		  return VOR_I2C_ERROR_POLL_TOUT;
 2403              		.loc 1 906 0
 2404 075c 0F20     		movs	r0, #15	@ <retval>,
 2405              	.LVL175:
 2406              	.L219:
 2407              	@ .\driver\src\i2c_va108xx.c:852:     return VOR_DRIVER_ERROR_PARAMETER;
 852:.\driver\src/i2c_va108xx.c ****   }
 2408              		.loc 1 852 0
 2409 075e 4042     		rsbs	r0, r0, #0	@ <retval>, <retval>
 2410 0760 3EE0     		b	.L179	@
 2411              	.LVL176:
 2412              	.L184:
 2413              	@ .\driver\src\i2c_va108xx.c:875: 		  i2c->reg->S0_DATA=data[i++];
 875:.\driver\src/i2c_va108xx.c **** 			i2c->info.txidx++;
 2414              		.loc 1 875 0
 2415 0762 1078     		ldrb	r0, [r2]	@ _9, MEM[base: _126, offset: 0B]
 2416              	@ .\driver\src\i2c_va108xx.c:877: 		  num--;
 877:.\driver\src/i2c_va108xx.c **** 	  }
 2417              		.loc 1 877 0
 2418 0764 013D     		subs	r5, r5, #1	@ num,
 2419              	.LVL177:
 2420              	@ .\driver\src\i2c_va108xx.c:875: 		  i2c->reg->S0_DATA=data[i++];
 875:.\driver\src/i2c_va108xx.c **** 			i2c->info.txidx++;
 2421              		.loc 1 875 0
 2422 0766 5861     		str	r0, [r3, #20]	@ _9, _12->S0_DATA
 2423              	@ .\driver\src\i2c_va108xx.c:876: 			i2c->info.txidx++;
 876:.\driver\src/i2c_va108xx.c **** 		  num--;
 2424              		.loc 1 876 0
 2425 0768 A36D     		ldr	r3, [r4, #88]	@ tmp301, i2c_71(D)->info.txidx
 2426 076a 0132     		adds	r2, r2, #1	@ ivtmp.95,
 2427              	.LVL178:
 2428 076c 0133     		adds	r3, r3, #1	@ tmp216,
 2429 076e A365     		str	r3, [r4, #88]	@ tmp216, i2c_71(D)->info.txidx
 2430 0770 DDE7     		b	.L182	@
 2431              	.LVL179:
ARM GAS  C:\Users\claym\AppData\Local\Temp\ccxpUFUu.s 			page 71


 2432              	.L189:
 2433              	.LBB130:
 2434              	.LBB131:
 2435              	@ .\inc/cmsis_gcc.h:375:   __ASM volatile ("nop");
 2436              		.loc 2 375 0
 2437              		.syntax divided
 2438              	@ 375 ".\inc/cmsis_gcc.h" 1
 2439 0772 C046     		nop
 2440              	@ 0 "" 2
 2441              		.thumb
 2442              		.syntax unified
 2443              	.LBE131:
 2444              	.LBE130:
 2445              	.LBB132:
 2446              	.LBB133:
 2447              		.syntax divided
 2448              	@ 375 ".\inc/cmsis_gcc.h" 1
 2449 0774 C046     		nop
 2450              	@ 0 "" 2
 2451              		.thumb
 2452              		.syntax unified
 2453              	.LBE133:
 2454              	.LBE132:
 2455              	@ .\driver\src\i2c_va108xx.c:888: 		  if((status & I2C_PERIPHERAL_S0_STATUS_IDLE_Msk) || (status & 
 888:.\driver\src/i2c_va108xx.c **** 			             || (status & I2C_PERIPHERAL_S0_STATUS_TXSTALLED_Msk)) {
 2456              		.loc 1 888 0
 2457 0776 0E21     		movs	r1, #14	@ tmp306,
 2458              	@ .\driver\src\i2c_va108xx.c:887: 		  status = i2c->reg->S0_STATUS;
 887:.\driver\src/i2c_va108xx.c **** 		  if((status & I2C_PERIPHERAL_S0_STATUS_IDLE_Msk) || (status & I2C_PERIPHERAL_S0_STATUS_WAITING_M
 2459              		.loc 1 887 0
 2460 0778 6368     		ldr	r3, [r4, #4]	@ tmp222, i2c_71(D)->reg
 2461 077a FC33     		adds	r3, r3, #252	@ tmp222,
 2462 077c DA69     		ldr	r2, [r3, #28]	@ status, _16->S0_STATUS
 2463              	.LVL180:
 2464              	@ .\driver\src\i2c_va108xx.c:888: 		  if((status & I2C_PERIPHERAL_S0_STATUS_IDLE_Msk) || (status & 
 888:.\driver\src/i2c_va108xx.c **** 			             || (status & I2C_PERIPHERAL_S0_STATUS_TXSTALLED_Msk)) {
 2465              		.loc 1 888 0
 2466 077e 0A42     		tst	r2, r1	@ status, tmp306
 2467 0780 0AD0     		beq	.L186	@,
 2468              	@ .\driver\src\i2c_va108xx.c:892: 	      if(status&I2C_PERIPHERAL_S0_STATUS_TXNFULL_Msk) {
 892:.\driver\src/i2c_va108xx.c **** 		      i2c->reg->S0_DATA=data[i++];
 2469              		.loc 1 892 0
 2470 0782 8021     		movs	r1, #128	@ tmp307,
 2471 0784 8901     		lsls	r1, r1, #6	@ tmp307, tmp307,
 2472 0786 0A42     		tst	r2, r1	@ status, tmp307
 2473 0788 06D0     		beq	.L186	@,
 2474              	.LVL181:
 2475              	@ .\driver\src\i2c_va108xx.c:893: 		      i2c->reg->S0_DATA=data[i++];
 893:.\driver\src/i2c_va108xx.c **** 					i2c->info.txidx++;
 2476              		.loc 1 893 0
 2477 078a BA5D     		ldrb	r2, [r7, r6]	@ _22, *_20
 2478              	.LVL182:
 2479              	@ .\driver\src\i2c_va108xx.c:895: 		      num--;			
 895:.\driver\src/i2c_va108xx.c **** 		    }
 2480              		.loc 1 895 0
 2481 078c 013D     		subs	r5, r5, #1	@ num,
 2482              	.LVL183:
ARM GAS  C:\Users\claym\AppData\Local\Temp\ccxpUFUu.s 			page 72


 2483              	@ .\driver\src\i2c_va108xx.c:893: 		      i2c->reg->S0_DATA=data[i++];
 893:.\driver\src/i2c_va108xx.c **** 					i2c->info.txidx++;
 2484              		.loc 1 893 0
 2485 078e 5A61     		str	r2, [r3, #20]	@ _22, _16->S0_DATA
 2486              	@ .\driver\src\i2c_va108xx.c:894: 					i2c->info.txidx++;
 894:.\driver\src/i2c_va108xx.c **** 		      num--;			
 2487              		.loc 1 894 0
 2488 0790 A26D     		ldr	r2, [r4, #88]	@ tmp308, i2c_71(D)->info.txidx
 2489              	@ .\driver\src\i2c_va108xx.c:893: 		      i2c->reg->S0_DATA=data[i++];
 893:.\driver\src/i2c_va108xx.c **** 					i2c->info.txidx++;
 2490              		.loc 1 893 0
 2491 0792 0136     		adds	r6, r6, #1	@ i,
 2492              	.LVL184:
 2493              	@ .\driver\src\i2c_va108xx.c:894: 					i2c->info.txidx++;
 894:.\driver\src/i2c_va108xx.c **** 		      num--;			
 2494              		.loc 1 894 0
 2495 0794 0132     		adds	r2, r2, #1	@ tmp228,
 2496 0796 A265     		str	r2, [r4, #88]	@ tmp228, i2c_71(D)->info.txidx
 2497              	.L186:
 2498              	@ .\driver\src\i2c_va108xx.c:899:       irq_raw = i2c->reg->S0_IRQ_RAW;
 899:.\driver\src/i2c_va108xx.c **** 			// Check For Stop Condition
 2499              		.loc 1 899 0
 2500 0798 1B6B     		ldr	r3, [r3, #48]	@ irq_raw, _16->S0_IRQ_RAW
 2501              	.LVL185:
 2502              	@ .\driver\src\i2c_va108xx.c:901: 			if(irq_raw & I2C_PERIPHERAL_S0_IRQ_RAW_I2C_STOP_Msk) 
 901:.\driver\src/i2c_va108xx.c **** 				break;
 2503              		.loc 1 901 0
 2504 079a 9B05     		lsls	r3, r3, #22	@ tmp295, irq_raw,
 2505 079c D4D5     		bpl	.L185	@,
 2506              	.LVL186:
 2507              	@ .\driver\src\i2c_va108xx.c:904: 	  if(num!=0) {
 904:.\driver\src/i2c_va108xx.c **** 		  VOR_I2C_Stop(i2c);
 2508              		.loc 1 904 0
 2509 079e 002D     		cmp	r5, #0	@ num,
 2510 07a0 D9D1     		bne	.L190	@,
 2511              	.L188:
 2512              	@ .\driver\src\i2c_va108xx.c:910: 			while(!(i2c->reg->S0_STATUS & I2C_PERIPHERAL_S0_STATUS_TXEMPTY
 907:.\driver\src/i2c_va108xx.c **** 	  }
 908:.\driver\src/i2c_va108xx.c **** 		else {
 909:.\driver\src/i2c_va108xx.c **** 			// Wait for Transfer to complete
 910:.\driver\src/i2c_va108xx.c **** 			while(!(i2c->reg->S0_STATUS & I2C_PERIPHERAL_S0_STATUS_TXEMPTY_Msk) && (poll_time <= VOR_Get_Sys
 2513              		.loc 1 910 0
 2514 07a2 8026     		movs	r6, #128	@ tmp238,
 2515              	.LVL187:
 2516              	@ .\driver\src\i2c_va108xx.c:913: 			  if(i2c->reg->S0_IRQ_RAW & I2C_PERIPHERAL_S0_IRQ_ENB_I2C_STOP
 911:.\driver\src/i2c_va108xx.c **** 				__NOP( ); 
 912:.\driver\src/i2c_va108xx.c **** 			  __NOP( );
 913:.\driver\src/i2c_va108xx.c **** 			  if(i2c->reg->S0_IRQ_RAW & I2C_PERIPHERAL_S0_IRQ_ENB_I2C_STOP_Msk) {
 2517              		.loc 1 913 0
 2518 07a4 8027     		movs	r7, #128	@ tmp280,
 2519              	.LVL188:
 2520              	@ .\driver\src\i2c_va108xx.c:910: 			while(!(i2c->reg->S0_STATUS & I2C_PERIPHERAL_S0_STATUS_TXEMPTY
 910:.\driver\src/i2c_va108xx.c **** 				__NOP( ); 
 2521              		.loc 1 910 0
 2522 07a6 7601     		lsls	r6, r6, #5	@ tmp238, tmp238,
 2523              	@ .\driver\src\i2c_va108xx.c:913: 			  if(i2c->reg->S0_IRQ_RAW & I2C_PERIPHERAL_S0_IRQ_ENB_I2C_STOP
 2524              		.loc 1 913 0
ARM GAS  C:\Users\claym\AppData\Local\Temp\ccxpUFUu.s 			page 73


 2525 07a8 BF00     		lsls	r7, r7, #2	@ tmp280, tmp280,
 2526              	.LVL189:
 2527              	.L192:
 2528              	@ .\driver\src\i2c_va108xx.c:910: 			while(!(i2c->reg->S0_STATUS & I2C_PERIPHERAL_S0_STATUS_TXEMPTY
 910:.\driver\src/i2c_va108xx.c **** 				__NOP( ); 
 2529              		.loc 1 910 0
 2530 07aa 6368     		ldr	r3, [r4, #4]	@ tmp236, i2c_71(D)->reg
 2531 07ac FC33     		adds	r3, r3, #252	@ tmp236,
 2532 07ae DD69     		ldr	r5, [r3, #28]	@ _31, _30->S0_STATUS
 2533 07b0 3540     		ands	r5, r6	@ tmp237, tmp238
 2534 07b2 05D0     		beq	.L193	@,
 2535              	.L195:
 2536              	@ .\driver\src\i2c_va108xx.c:918: 			if(!(i2c->reg->S0_STATUS & I2C_PERIPHERAL_S0_STATUS_TXEMPTY_Ms
 914:.\driver\src/i2c_va108xx.c **** 				   VOR_I2C_Stop(i2c);
 915:.\driver\src/i2c_va108xx.c **** 			     return VOR_DRIVER_OK;
 916:.\driver\src/i2c_va108xx.c **** 				}
 917:.\driver\src/i2c_va108xx.c **** 			}
 918:.\driver\src/i2c_va108xx.c **** 			if(!(i2c->reg->S0_STATUS & I2C_PERIPHERAL_S0_STATUS_TXEMPTY_Msk)) {
 2537              		.loc 1 918 0
 2538 07b4 6368     		ldr	r3, [r4, #4]	@ tmp239, i2c_71(D)->reg
 2539 07b6 FC33     		adds	r3, r3, #252	@ tmp239,
 2540 07b8 DB69     		ldr	r3, [r3, #28]	@ _35, _34->S0_STATUS
 2541 07ba 3342     		tst	r3, r6	@ _35, tmp238
 2542 07bc 0FD1     		bne	.L220	@,
 2543 07be CAE7     		b	.L190	@
 2544              	.L193:
 2545              	@ .\driver\src\i2c_va108xx.c:910: 			while(!(i2c->reg->S0_STATUS & I2C_PERIPHERAL_S0_STATUS_TXEMPTY
 910:.\driver\src/i2c_va108xx.c **** 				__NOP( ); 
 2546              		.loc 1 910 0 discriminator 1
 2547 07c0 FFF7FEFF 		bl	VOR_Get_SysTime	@
 2548              	.LVL190:
 2549 07c4 019B     		ldr	r3, [sp, #4]	@ poll_time, %sfp
 2550 07c6 9842     		cmp	r0, r3	@ _33, poll_time
 2551 07c8 F4D3     		bcc	.L195	@,
 2552              	.LBB134:
 2553              	.LBB135:
 2554              	@ .\inc/cmsis_gcc.h:375:   __ASM volatile ("nop");
 2555              		.loc 2 375 0
 2556              		.syntax divided
 2557              	@ 375 ".\inc/cmsis_gcc.h" 1
 2558 07ca C046     		nop
 2559              	@ 0 "" 2
 2560              		.thumb
 2561              		.syntax unified
 2562              	.LBE135:
 2563              	.LBE134:
 2564              	.LBB136:
 2565              	.LBB137:
 2566              		.syntax divided
 2567              	@ 375 ".\inc/cmsis_gcc.h" 1
 2568 07cc C046     		nop
 2569              	@ 0 "" 2
 2570              		.thumb
 2571              		.syntax unified
 2572              	.LBE137:
 2573              	.LBE136:
 2574              	@ .\driver\src\i2c_va108xx.c:913: 			  if(i2c->reg->S0_IRQ_RAW & I2C_PERIPHERAL_S0_IRQ_ENB_I2C_STOP
ARM GAS  C:\Users\claym\AppData\Local\Temp\ccxpUFUu.s 			page 74


 913:.\driver\src/i2c_va108xx.c **** 				   VOR_I2C_Stop(i2c);
 2575              		.loc 1 913 0
 2576 07ce 6368     		ldr	r3, [r4, #4]	@ tmp233, i2c_71(D)->reg
 2577 07d0 FC33     		adds	r3, r3, #252	@ tmp233,
 2578 07d2 1B6B     		ldr	r3, [r3, #48]	@ _28, _27->S0_IRQ_RAW
 2579 07d4 3B42     		tst	r3, r7	@ _28, tmp280
 2580 07d6 E8D0     		beq	.L192	@,
 2581              	@ .\driver\src\i2c_va108xx.c:914: 				   VOR_I2C_Stop(i2c);
 914:.\driver\src/i2c_va108xx.c **** 				   VOR_I2C_Stop(i2c);
 2582              		.loc 1 914 0
 2583 07d8 2000     		movs	r0, r4	@, i2c
 2584 07da FFF7B5FC 		bl	VOR_I2C_Stop	@
 2585              	.LVL191:
 2586              	.L220:
 2587              	@ .\driver\src\i2c_va108xx.c:957:   return VOR_DRIVER_OK;
 919:.\driver\src/i2c_va108xx.c **** 		    VOR_I2C_Stop(i2c);
 920:.\driver\src/i2c_va108xx.c **** 		    return VOR_I2C_ERROR_POLL_TOUT;
 921:.\driver\src/i2c_va108xx.c **** 			}
 922:.\driver\src/i2c_va108xx.c **** 		}
 923:.\driver\src/i2c_va108xx.c ****   } else {   // Interrupt Mode
 924:.\driver\src/i2c_va108xx.c ****     VOR_Disable_Irq(VOR_IRQ_I2C_SL, i2c->i2cId);
 925:.\driver\src/i2c_va108xx.c **** 	  i2c->reg->S0_IRQ_CLR = 0xffffffff;
 926:.\driver\src/i2c_va108xx.c **** 	  i2c->reg->S0_IRQ_CLR = 0;
 927:.\driver\src/i2c_va108xx.c **** 	  // Set Master Mode
 928:.\driver\src/i2c_va108xx.c **** 	  i2c->info.status.mode = I2C_MODE_SLAVE;
 929:.\driver\src/i2c_va108xx.c **** 	  // Set Direction Transmit
 930:.\driver\src/i2c_va108xx.c **** 	  i2c->info.status.direction = I2C_DIR_TRANSMIT;
 931:.\driver\src/i2c_va108xx.c **** 	  // Set Up Control parameters
 932:.\driver\src/i2c_va108xx.c ****     VOR_I2C_Setup((uint32_t)NULL,num,i2c);
 933:.\driver\src/i2c_va108xx.c **** 	  memcpy(i2c->info.txdata,data,num);
 934:.\driver\src/i2c_va108xx.c **** 	  i2c->info.txidx = 0;
 935:.\driver\src/i2c_va108xx.c **** 	  i2c->info.rxidx = 0;
 936:.\driver\src/i2c_va108xx.c **** 	  i2c->info.txcnt = num;
 937:.\driver\src/i2c_va108xx.c **** 	  i2c->info.rxcnt = 0;
 938:.\driver\src/i2c_va108xx.c **** 	  // Load TX FIFO
 939:.\driver\src/i2c_va108xx.c **** 	  i =0;
 940:.\driver\src/i2c_va108xx.c **** 	  while((i < i2c->info.txcnt) && (i2c->reg->S0_STATUS&I2C_PERIPHERAL_S0_STATUS_TXNFULL_Msk)) {
 941:.\driver\src/i2c_va108xx.c ****   	  i2c->reg->S0_DATA=data[i++];
 942:.\driver\src/i2c_va108xx.c ****   	}
 943:.\driver\src/i2c_va108xx.c **** 	  i2c->info.txidx = i;
 944:.\driver\src/i2c_va108xx.c **** 
 945:.\driver\src/i2c_va108xx.c **** 	  // Enable Interrupts
 946:.\driver\src/i2c_va108xx.c **** 	  i2c->reg->S0_IRQ_ENB = (I2C_PERIPHERAL_S0_IRQ_ENB_COMPLETED_Msk | \
 947:.\driver\src/i2c_va108xx.c **** 	                             I2C_PERIPHERAL_S0_IRQ_ENB_IDLE_Msk | \
 948:.\driver\src/i2c_va108xx.c **** 				               I2C_PERIPHERAL_S0_IRQ_ENB_ADDRESSMATCH_Msk | \
 949:.\driver\src/i2c_va108xx.c **** 		                       I2C_PERIPHERAL_S0_IRQ_ENB_NACKDATA_Msk | \
 950:.\driver\src/i2c_va108xx.c **** 					                I2C_PERIPHERAL_S0_IRQ_ENB_I2C_START_Msk | \
 951:.\driver\src/i2c_va108xx.c **** 					                 I2C_PERIPHERAL_S0_IRQ_ENB_I2C_STOP_Msk | \
 952:.\driver\src/i2c_va108xx.c **** 					              I2C_PERIPHERAL_S0_IRQ_ENB_TXUNDERFLOW_Msk | \
 953:.\driver\src/i2c_va108xx.c **** 						                I2C_PERIPHERAL_S0_IRQ_ENB_TXREADY_Msk | \
 954:.\driver\src/i2c_va108xx.c ****                  						I2C_PERIPHERAL_S0_IRQ_ENB_TXEMPTY_Msk );
 955:.\driver\src/i2c_va108xx.c **** 		VOR_Enable_Irq(VOR_IRQ_I2C_SL, i2c->i2cId);
 956:.\driver\src/i2c_va108xx.c ****   }
 957:.\driver\src/i2c_va108xx.c ****   return VOR_DRIVER_OK;
 2588              		.loc 1 957 0
 2589 07de 0020     		movs	r0, #0	@ <retval>,
 2590              	.L179:
ARM GAS  C:\Users\claym\AppData\Local\Temp\ccxpUFUu.s 			page 75


 2591              	@ .\driver\src\i2c_va108xx.c:958: }
 958:.\driver\src/i2c_va108xx.c **** }
 2592              		.loc 1 958 0
 2593              		@ sp needed	@
 2594              	.LVL192:
 2595 07e0 FEBD     		pop	{r1, r2, r3, r4, r5, r6, r7, pc}
 2596              	.LVL193:
 2597              	.L181:
 2598              	@ .\driver\src\i2c_va108xx.c:924:     VOR_Disable_Irq(VOR_IRQ_I2C_SL, i2c->i2cId);
 924:.\driver\src/i2c_va108xx.c **** 	  i2c->reg->S0_IRQ_CLR = 0xffffffff;
 2599              		.loc 1 924 0
 2600 07e2 2168     		ldr	r1, [r4]	@, i2c_71(D)->i2cId
 2601 07e4 0620     		movs	r0, #6	@,
 2602 07e6 FFF7FEFF 		bl	VOR_Disable_Irq	@
 2603              	.LVL194:
 2604              	@ .\driver\src\i2c_va108xx.c:925: 	  i2c->reg->S0_IRQ_CLR = 0xffffffff;
 925:.\driver\src/i2c_va108xx.c **** 	  i2c->reg->S0_IRQ_CLR = 0;
 2605              		.loc 1 925 0
 2606 07ea 0122     		movs	r2, #1	@ tmp317,
 2607 07ec 6368     		ldr	r3, [r4, #4]	@ tmp242, i2c_71(D)->reg
 2608 07ee 5242     		rsbs	r2, r2, #0	@ tmp317, tmp317
 2609 07f0 FC33     		adds	r3, r3, #252	@ tmp242,
 2610 07f2 9A63     		str	r2, [r3, #56]	@ tmp317, _38->S0_IRQ_CLR
 2611              	@ .\driver\src\i2c_va108xx.c:926: 	  i2c->reg->S0_IRQ_CLR = 0;
 926:.\driver\src/i2c_va108xx.c **** 	  // Set Master Mode
 2612              		.loc 1 926 0
 2613 07f4 9E63     		str	r6, [r3, #56]	@ i2c_71(D)->info.poll_mode, _38->S0_IRQ_CLR
 2614              	@ .\driver\src\i2c_va108xx.c:928: 	  i2c->info.status.mode = I2C_MODE_SLAVE;
 928:.\driver\src/i2c_va108xx.c **** 	  // Set Direction Transmit
 2615              		.loc 1 928 0
 2616 07f6 637C     		ldrb	r3, [r4, #17]	@ tmp249,
 2617 07f8 8032     		adds	r2, r2, #128	@ tmp251,
 2618 07fa 1340     		ands	r3, r2	@ tmp250, tmp251
 2619 07fc 6374     		strb	r3, [r4, #17]	@ tmp250,
 2620              	@ .\driver\src\i2c_va108xx.c:930: 	  i2c->info.status.direction = I2C_DIR_TRANSMIT;
 930:.\driver\src/i2c_va108xx.c **** 	  // Set Up Control parameters
 2621              		.loc 1 930 0
 2622 07fe A37C     		ldrb	r3, [r4, #18]	@ tmp256,
 2623 0800 7E3A     		subs	r2, r2, #126	@ tmp318,
