ARM GAS  C:\Users\claym\AppData\Local\Temp\ccxpUFUu.s 			page 1


   1              		.cpu cortex-m0
   2              		.eabi_attribute 20, 1	@ Tag_ABI_FP_denormal
   3              		.eabi_attribute 21, 1	@ Tag_ABI_FP_exceptions
   4              		.eabi_attribute 23, 3	@ Tag_ABI_FP_number_model
   5              		.eabi_attribute 24, 1	@ Tag_ABI_align8_needed
   6              		.eabi_attribute 25, 1	@ Tag_ABI_align8_preserved
   7              		.eabi_attribute 26, 1	@ Tag_ABI_enum_size
   8              		.eabi_attribute 30, 4	@ Tag_ABI_optimization_goals
   9              		.eabi_attribute 34, 0	@ Tag_CPU_unaligned_access
  10              		.eabi_attribute 18, 4	@ Tag_ABI_PCS_wchar_t
  11              		.file	"i2c_va108xx.c"
  12              	@ GNU C11 (GNU Tools for Arm Embedded Processors 7-2017-q4-major) version 7.2.1 20170904 (release) 
  13              	@	compiled by GNU C version 5.3.1 20160211, GMP version 6.1.0, MPFR version 3.1.4, MPC version 1.0.
  14              	
  15              	@ GGC heuristics: --param ggc-min-expand=100 --param ggc-min-heapsize=131072
  16              	@ options passed:  -I . -I .\common\hdr -I .\driver\hdr -I .\utilities\hdr
  17              	@ -I .\inc -I .\driver\hdr -I .\hdr -imultilib thumb/v6-m
  18              	@ -iprefix c:\program files (x86)\gnu tools arm embedded\7 2017-q4-major\bin\../lib/gcc/arm-none-ea
  19              	@ -isysroot c:\program files (x86)\gnu tools arm embedded\7 2017-q4-major\bin\../arm-none-eabi
  20              	@ -D__USES_INITFINI__ -D RUN_FROM_FLASH=1 .\driver\src\i2c_va108xx.c
  21              	@ -mcpu=cortex-m0 -mthumb -auxbase-strip .\driver\src\i2c_va108xx.o
  22              	@ -gdwarf-2 -Os -Wall -Wstrict-prototypes -fomit-frame-pointer
  23              	@ -fverbose-asm
  24              	@ options enabled:  -faggressive-loop-optimizations -falign-jumps
  25              	@ -falign-labels -falign-loops -fauto-inc-dec -fbranch-count-reg
  26              	@ -fcaller-saves -fchkp-check-incomplete-type -fchkp-check-read
  27              	@ -fchkp-check-write -fchkp-instrument-calls -fchkp-narrow-bounds
  28              	@ -fchkp-optimize -fchkp-store-bounds -fchkp-use-static-bounds
  29              	@ -fchkp-use-static-const-bounds -fchkp-use-wrappers -fcode-hoisting
  30              	@ -fcombine-stack-adjustments -fcommon -fcompare-elim -fcprop-registers
  31              	@ -fcrossjumping -fcse-follow-jumps -fdefer-pop
  32              	@ -fdelete-null-pointer-checks -fdevirtualize -fdevirtualize-speculatively
  33              	@ -fdwarf2-cfi-asm -fearly-inlining -feliminate-unused-debug-types
  34              	@ -fexpensive-optimizations -fforward-propagate -ffp-int-builtin-inexact
  35              	@ -ffunction-cse -fgcse -fgcse-lm -fgnu-runtime -fgnu-unique
  36              	@ -fguess-branch-probability -fhoist-adjacent-loads -fident -fif-conversion
  37              	@ -fif-conversion2 -findirect-inlining -finline -finline-atomics
  38              	@ -finline-functions -finline-functions-called-once
  39              	@ -finline-small-functions -fipa-bit-cp -fipa-cp -fipa-icf
  40              	@ -fipa-icf-functions -fipa-icf-variables -fipa-profile -fipa-pure-const
  41              	@ -fipa-reference -fipa-sra -fipa-vrp -fira-hoist-pressure
  42              	@ -fira-share-save-slots -fira-share-spill-slots
  43              	@ -fisolate-erroneous-paths-dereference -fivopts -fkeep-static-consts
  44              	@ -fleading-underscore -flifetime-dse -flra-remat -flto-odr-type-merging
  45              	@ -fmath-errno -fmerge-constants -fmerge-debug-strings
  46              	@ -fmove-loop-invariants -fomit-frame-pointer -foptimize-sibling-calls
  47              	@ -fpartial-inlining -fpeephole -fpeephole2 -fplt -fprefetch-loop-arrays
  48              	@ -freg-struct-return -freorder-blocks -freorder-functions
  49              	@ -frerun-cse-after-loop -fsched-critical-path-heuristic
  50              	@ -fsched-dep-count-heuristic -fsched-group-heuristic -fsched-interblock
  51              	@ -fsched-last-insn-heuristic -fsched-pressure -fsched-rank-heuristic
  52              	@ -fsched-spec -fsched-spec-insn-heuristic -fsched-stalled-insns-dep
  53              	@ -fschedule-insns2 -fsection-anchors -fsemantic-interposition
  54              	@ -fshow-column -fshrink-wrap -fshrink-wrap-separate -fsigned-zeros
  55              	@ -fsplit-ivs-in-unroller -fsplit-wide-types -fssa-backprop -fssa-phiopt
  56              	@ -fstdarg-opt -fstore-merging -fstrict-aliasing -fstrict-overflow
  57              	@ -fstrict-volatile-bitfields -fsync-libcalls -fthread-jumps
ARM GAS  C:\Users\claym\AppData\Local\Temp\ccxpUFUu.s 			page 2


  58              	@ -ftoplevel-reorder -ftrapping-math -ftree-bit-ccp -ftree-builtin-call-dce
  59              	@ -ftree-ccp -ftree-ch -ftree-coalesce-vars -ftree-copy-prop -ftree-cselim
  60              	@ -ftree-dce -ftree-dominator-opts -ftree-dse -ftree-forwprop -ftree-fre
  61              	@ -ftree-loop-if-convert -ftree-loop-im -ftree-loop-ivcanon
  62              	@ -ftree-loop-optimize -ftree-parallelize-loops= -ftree-phiprop -ftree-pre
  63              	@ -ftree-pta -ftree-reassoc -ftree-scev-cprop -ftree-sink -ftree-slsr
  64              	@ -ftree-sra -ftree-switch-conversion -ftree-tail-merge -ftree-ter
  65              	@ -ftree-vrp -funit-at-a-time -fvar-tracking -fvar-tracking-assignments
  66              	@ -fverbose-asm -fzero-initialized-in-bss -mlittle-endian
  67              	@ -mpic-data-is-text-relative -msched-prolog -mthumb
  68              	@ -mvectorize-with-neon-quad
  69              	
  70              		.text
  71              	.Ltext0:
  72              		.cfi_sections	.debug_frame
  73              		.align	1
  74              		.syntax unified
  75              		.code	16
  76              		.thumb_func
  77              		.fpu softvfp
  78              		.type	VOR_I2C_Setup, %function
  79              	VOR_I2C_Setup:
  80              	.LFB58:
  81              		.file 1 ".\\driver\\src\\i2c_va108xx.c"
   1:.\driver\src/i2c_va108xx.c **** /***************************************************************************************
   2:.\driver\src/i2c_va108xx.c ****  * @file     i2c_va108xx.c
   3:.\driver\src/i2c_va108xx.c ****  * @version  V1.0
   4:.\driver\src/i2c_va108xx.c ****  * @date     31. March 2016
   5:.\driver\src/i2c_va108xx.c ****  *
   6:.\driver\src/i2c_va108xx.c ****  * @note
   7:.\driver\src/i2c_va108xx.c ****  * VORAGO Technologies 
   8:.\driver\src/i2c_va108xx.c ****  *
   9:.\driver\src/i2c_va108xx.c ****  * @note
  10:.\driver\src/i2c_va108xx.c ****  * Copyright (c) 2013-2016 VORAGO Technologies. 
  11:.\driver\src/i2c_va108xx.c ****  *
  12:.\driver\src/i2c_va108xx.c ****  * @par
  13:.\driver\src/i2c_va108xx.c ****  * BY DOWNLOADING, INSTALLING OR USING THIS SOFTWARE, YOU AGREE TO BE BOUND BY 
  14:.\driver\src/i2c_va108xx.c ****  * ALL THE TERMS AND CONDITIONS OF THE VORAGO TECHNOLOGIES END USER LICENSE AGREEMENT. 
  15:.\driver\src/i2c_va108xx.c ****  * THIS SOFTWARE IS PROVIDED "AS IS". NO WARRANTIES, WHETHER EXPRESS, IMPLIED
  16:.\driver\src/i2c_va108xx.c ****  * OR STATUTORY, INCLUDING, BUT NOT LIMITED TO, IMPLIED WARRANTIES OF MERCHANTABILITY 
  17:.\driver\src/i2c_va108xx.c ****  * AND FITNESS FOR A PARTICULAR PURPOSE APPLY TO THIS SOFTWARE. VORAGO TECHNOLOGIES 
  18:.\driver\src/i2c_va108xx.c ****  * SHALL NOT, IN ANY CIRCUMSTANCES, BE LIABLE FOR SPECIAL, INCIDENTAL, OR CONSEQUENTIAL 
  19:.\driver\src/i2c_va108xx.c ****  * DAMAGES, FOR ANY REASON WHATSOEVER.
  20:.\driver\src/i2c_va108xx.c ****  *
  21:.\driver\src/i2c_va108xx.c ****  ****************************************************************************************/
  22:.\driver\src/i2c_va108xx.c **** #include <stdlib.h>
  23:.\driver\src/i2c_va108xx.c **** #include <stdio.h>
  24:.\driver\src/i2c_va108xx.c **** #include <string.h>
  25:.\driver\src/i2c_va108xx.c **** 
  26:.\driver\src/i2c_va108xx.c **** #include "i2c_va108xx.h"
  27:.\driver\src/i2c_va108xx.c **** #include "irq_va108xx.h"
  28:.\driver\src/i2c_va108xx.c **** 
  29:.\driver\src/i2c_va108xx.c **** /* I2C core clock (system_PA03CSA.c) */
  30:.\driver\src/i2c_va108xx.c **** extern uint32_t VOR_Get_ClockFreq (void);
  31:.\driver\src/i2c_va108xx.c **** extern uint32_t VOR_Get_SysTime(void);
  32:.\driver\src/i2c_va108xx.c **** 
  33:.\driver\src/i2c_va108xx.c ****  /* I2C0 Resources */
ARM GAS  C:\Users\claym\AppData\Local\Temp\ccxpUFUu.s 			page 3


  34:.\driver\src/i2c_va108xx.c **** I2C_RESOURCES I2C0_Resources = {
  35:.\driver\src/i2c_va108xx.c ****   0,&VOR_I2C->BANK[0], &Driver_I2C0, {0},I2C0_CLK_EN_MASK
  36:.\driver\src/i2c_va108xx.c **** };
  37:.\driver\src/i2c_va108xx.c **** 
  38:.\driver\src/i2c_va108xx.c ****  /* I2C0 Resources */
  39:.\driver\src/i2c_va108xx.c **** I2C_RESOURCES I2C1_Resources = {
  40:.\driver\src/i2c_va108xx.c ****   1,&VOR_I2C->BANK[1], &Driver_I2C1, {0},I2C1_CLK_EN_MASK
  41:.\driver\src/i2c_va108xx.c **** };
  42:.\driver\src/i2c_va108xx.c **** 
  43:.\driver\src/i2c_va108xx.c **** /**
  44:.\driver\src/i2c_va108xx.c ****   function:    VOR_DRIVER_VERSION I2Cx_GetVersion (void)
  45:.\driver\src/i2c_va108xx.c ****   brief:       Get driver version.
  46:.\driver\src/i2c_va108xx.c ****   return:      VOR_DRIVER_VERSION
  47:.\driver\src/i2c_va108xx.c **** */
  48:.\driver\src/i2c_va108xx.c **** VOR_DRIVER_VERSION VOR_I2Cx_GetVersion (void) {
  49:.\driver\src/i2c_va108xx.c ****   return i2c_driver_version;
  50:.\driver\src/i2c_va108xx.c **** }
  51:.\driver\src/i2c_va108xx.c **** 
  52:.\driver\src/i2c_va108xx.c **** 
  53:.\driver\src/i2c_va108xx.c **** /**
  54:.\driver\src/i2c_va108xx.c ****   function:    int32_t VOR_I2C_Initialize (VOR_I2C_SignalEvent_t cb_event,
  55:.\driver\src/i2c_va108xx.c ****                                         I2C_RESOURCES         *i2c)
  56:.\driver\src/i2c_va108xx.c ****   brief:       Initialize I2C Interface.
  57:.\driver\src/i2c_va108xx.c ****   Input:       cb_event  Pointer to VOR_I2C_SignalEvent
  58:.\driver\src/i2c_va108xx.c ****   Input:       i2c   Pointer to I2C resources
  59:.\driver\src/i2c_va108xx.c ****   return:      execution_status
  60:.\driver\src/i2c_va108xx.c **** */
  61:.\driver\src/i2c_va108xx.c **** int32_t VOR_I2C_Initialize (VOR_I2C_SignalEvent_t cb_event, I2C_RESOURCES *i2c) {
  62:.\driver\src/i2c_va108xx.c **** 
  63:.\driver\src/i2c_va108xx.c ****   if((i2c == NULL) || (i2c->reg ==NULL))
  64:.\driver\src/i2c_va108xx.c **** 	return VOR_DRIVER_ERROR_PARAMETER;
  65:.\driver\src/i2c_va108xx.c **** 
  66:.\driver\src/i2c_va108xx.c ****   if (i2c->info.flags & I2C_FLAG_INIT) {
  67:.\driver\src/i2c_va108xx.c ****     /* Driver already initialized */
  68:.\driver\src/i2c_va108xx.c ****     return VOR_I2C_ERROR_MULTIPLEINIT;
  69:.\driver\src/i2c_va108xx.c ****   }
  70:.\driver\src/i2c_va108xx.c ****   i2c->info.flags = I2C_FLAG_INIT;
  71:.\driver\src/i2c_va108xx.c **** 
  72:.\driver\src/i2c_va108xx.c ****   /* Register driver callback function */
  73:.\driver\src/i2c_va108xx.c ****   i2c->info.cb_event = cb_event;
  74:.\driver\src/i2c_va108xx.c **** 
  75:.\driver\src/i2c_va108xx.c ****   /* Clear driver status */
  76:.\driver\src/i2c_va108xx.c ****   memset(&i2c->info.status, 0, sizeof(VOR_I2C_STATUS));
  77:.\driver\src/i2c_va108xx.c **** 
  78:.\driver\src/i2c_va108xx.c **** 	// Switch-on clocks to I2C module 
  79:.\driver\src/i2c_va108xx.c **** 	VOR_SYSCONFIG->PERIPHERAL_CLK_ENABLE |=  i2c->i2cClkEn; 
  80:.\driver\src/i2c_va108xx.c **** 	
  81:.\driver\src/i2c_va108xx.c ****   return VOR_DRIVER_OK;
  82:.\driver\src/i2c_va108xx.c **** }
  83:.\driver\src/i2c_va108xx.c **** 
  84:.\driver\src/i2c_va108xx.c **** /**
  85:.\driver\src/i2c_va108xx.c ****   function:    int32_t VOR_I2C_Uninitialize (I2C_RESOURCES *i2c)
  86:.\driver\src/i2c_va108xx.c ****   brief:       De-initialize I2C Interface.
  87:.\driver\src/i2c_va108xx.c ****   Input:       i2c   Pointer to I2C resources
  88:.\driver\src/i2c_va108xx.c ****   return:      execution_status
  89:.\driver\src/i2c_va108xx.c **** */
  90:.\driver\src/i2c_va108xx.c **** int32_t VOR_I2C_Uninitialize (I2C_RESOURCES *i2c) {
ARM GAS  C:\Users\claym\AppData\Local\Temp\ccxpUFUu.s 			page 4


  91:.\driver\src/i2c_va108xx.c **** 
  92:.\driver\src/i2c_va108xx.c ****   if (!(i2c->info.flags & I2C_FLAG_INIT)) {
  93:.\driver\src/i2c_va108xx.c ****     /* Driver not initialized */
  94:.\driver\src/i2c_va108xx.c ****     return VOR_DRIVER_OK;
  95:.\driver\src/i2c_va108xx.c ****   }
  96:.\driver\src/i2c_va108xx.c ****   i2c->info.flags = 0;
  97:.\driver\src/i2c_va108xx.c ****   i2c->info.cb_event = NULL;
  98:.\driver\src/i2c_va108xx.c **** 
  99:.\driver\src/i2c_va108xx.c ****   VOR_SYSCONFIG->PERIPHERAL_CLK_ENABLE &=  ~i2c->i2cClkEn; 
 100:.\driver\src/i2c_va108xx.c ****   return VOR_DRIVER_OK;
 101:.\driver\src/i2c_va108xx.c **** }
 102:.\driver\src/i2c_va108xx.c **** 
 103:.\driver\src/i2c_va108xx.c **** /**
 104:.\driver\src/i2c_va108xx.c ****   function:    int32_t VOR_I2C_Drv_Mode (uint32_t       arg,
 105:.\driver\src/i2c_va108xx.c ****                                      I2C_RESOURCES *i2c)
 106:.\driver\src/i2c_va108xx.c ****   brief:       Set I2C driver mode.
 107:.\driver\src/i2c_va108xx.c ****   Input:       arg      argument of operation 
 108:.\driver\src/i2c_va108xx.c ****   Input:       i2c      pointer to I2C resources
 109:.\driver\src/i2c_va108xx.c ****   return:      execution_status
 110:.\driver\src/i2c_va108xx.c **** */
 111:.\driver\src/i2c_va108xx.c **** static int32_t VOR_I2C_Drv_Mode (uint32_t       arg, I2C_RESOURCES *i2c) {
 112:.\driver\src/i2c_va108xx.c ****   i2c->info.poll_mode = arg;
 113:.\driver\src/i2c_va108xx.c ****   return VOR_DRIVER_OK;
 114:.\driver\src/i2c_va108xx.c **** }
 115:.\driver\src/i2c_va108xx.c **** 
 116:.\driver\src/i2c_va108xx.c **** /**
 117:.\driver\src/i2c_va108xx.c ****   function:    int32_t VOR_I2C_Poll_Tout (uint32_t       arg,
 118:.\driver\src/i2c_va108xx.c ****                                      I2C_RESOURCES *i2c)
 119:.\driver\src/i2c_va108xx.c ****   brief:       Set I2C Polling Mode Time out.
 120:.\driver\src/i2c_va108xx.c ****   Input:       arg      argument of operation 
 121:.\driver\src/i2c_va108xx.c ****   Input:       i2c      pointer to I2C resources
 122:.\driver\src/i2c_va108xx.c ****   return:      execution_status
 123:.\driver\src/i2c_va108xx.c **** */
 124:.\driver\src/i2c_va108xx.c **** static int32_t VOR_I2C_Poll_Tout (uint32_t       arg, I2C_RESOURCES *i2c) {
 125:.\driver\src/i2c_va108xx.c ****   i2c->info.poll_tout = arg;
 126:.\driver\src/i2c_va108xx.c ****   return VOR_DRIVER_OK;
 127:.\driver\src/i2c_va108xx.c **** }
 128:.\driver\src/i2c_va108xx.c **** 
 129:.\driver\src/i2c_va108xx.c **** /**
 130:.\driver\src/i2c_va108xx.c ****   function:    int32_t VOR_I2C_busSpeed (uint32_t       arg,
 131:.\driver\src/i2c_va108xx.c ****                                      I2C_RESOURCES *i2c)
 132:.\driver\src/i2c_va108xx.c ****   brief:       Set I2C driver mode.
 133:.\driver\src/i2c_va108xx.c ****   Input:       arg      argument of operation 
 134:.\driver\src/i2c_va108xx.c ****   Input:       i2c      pointer to I2C resources
 135:.\driver\src/i2c_va108xx.c ****   return:      execution_status
 136:.\driver\src/i2c_va108xx.c **** */
 137:.\driver\src/i2c_va108xx.c **** 
 138:.\driver\src/i2c_va108xx.c **** static int32_t VOR_I2C_busSpeed (uint32_t       arg, I2C_RESOURCES *i2c) {
 139:.\driver\src/i2c_va108xx.c ****   uint32_t clkscale= 0;
 140:.\driver\src/i2c_va108xx.c ****   switch (arg) {
 141:.\driver\src/i2c_va108xx.c **** 	case VOR_I2C_BUS_SPEED_STANDARD :
 142:.\driver\src/i2c_va108xx.c **** 				clkscale = 	((VOR_Get_ClockFreq() / I2C_STD_SPEED_CLK) / I2C_STD_SPEED_MULTI)-1;
 143:.\driver\src/i2c_va108xx.c **** 				i2c->reg->CLKSCALE = clkscale;
 144:.\driver\src/i2c_va108xx.c **** 				i2c->info.speed = arg; 
 145:.\driver\src/i2c_va108xx.c **** 				break;
 146:.\driver\src/i2c_va108xx.c **** 	case VOR_I2C_BUS_SPEED_FAST     : 
 147:.\driver\src/i2c_va108xx.c **** 	      clkscale = 	((VOR_Get_ClockFreq() / I2C_FAST_SPEED_CLK) / I2C_FAST_SPEED_MULT)-1;
ARM GAS  C:\Users\claym\AppData\Local\Temp\ccxpUFUu.s 			page 5


 148:.\driver\src/i2c_va108xx.c **** 				i2c->reg->CLKSCALE = (clkscale | I2C_PERIPHERAL_CLKSCALE_FASTMODE_Msk);
 149:.\driver\src/i2c_va108xx.c **** 	            i2c->info.speed = arg; 
 150:.\driver\src/i2c_va108xx.c **** 				break;
 151:.\driver\src/i2c_va108xx.c **** 	default                         : return VOR_DRIVER_ERROR_UNSUPPORTED;
 152:.\driver\src/i2c_va108xx.c ****   };
 153:.\driver\src/i2c_va108xx.c ****   return VOR_DRIVER_OK;
 154:.\driver\src/i2c_va108xx.c **** }
 155:.\driver\src/i2c_va108xx.c **** 
 156:.\driver\src/i2c_va108xx.c **** 
 157:.\driver\src/i2c_va108xx.c **** /**
 158:.\driver\src/i2c_va108xx.c ****   function:    int32_t VOR_I2C_OwnAddr (uint32_t       arg,
 159:.\driver\src/i2c_va108xx.c ****                                      I2C_RESOURCES *i2c)
 160:.\driver\src/i2c_va108xx.c ****   brief:       Set I2C Own Slave address.
 161:.\driver\src/i2c_va108xx.c ****   Input:       arg      argument of operation 
 162:.\driver\src/i2c_va108xx.c ****   Input:       i2c      pointer to I2C resources
 163:.\driver\src/i2c_va108xx.c ****   return:      execution_status
 164:.\driver\src/i2c_va108xx.c **** */
 165:.\driver\src/i2c_va108xx.c **** static int32_t VOR_I2C_OwnAddr (uint32_t       arg, I2C_RESOURCES *i2c) {
 166:.\driver\src/i2c_va108xx.c ****   i2c->info.slv_addr = arg;
 167:.\driver\src/i2c_va108xx.c ****   return VOR_DRIVER_OK;
 168:.\driver\src/i2c_va108xx.c **** }
 169:.\driver\src/i2c_va108xx.c **** 
 170:.\driver\src/i2c_va108xx.c **** /**
 171:.\driver\src/i2c_va108xx.c ****   function:    int32_t VOR_I2C_Addr10Bit (uint32_t       arg,
 172:.\driver\src/i2c_va108xx.c ****                                      I2C_RESOURCES *i2c)
 173:.\driver\src/i2c_va108xx.c ****   brief:       Set I2C 7/10 bit address mode.
 174:.\driver\src/i2c_va108xx.c ****   Input:       arg      argument of operation 
 175:.\driver\src/i2c_va108xx.c ****   Input:       i2c      pointer to I2C resources
 176:.\driver\src/i2c_va108xx.c ****   return:      execution_status
 177:.\driver\src/i2c_va108xx.c **** */
 178:.\driver\src/i2c_va108xx.c **** static int32_t VOR_I2C_Addr10Bit (uint32_t       arg, I2C_RESOURCES *i2c) {
 179:.\driver\src/i2c_va108xx.c ****   i2c->info.addr_mode = arg;
 180:.\driver\src/i2c_va108xx.c ****   return VOR_DRIVER_OK;
 181:.\driver\src/i2c_va108xx.c **** }
 182:.\driver\src/i2c_va108xx.c **** 
 183:.\driver\src/i2c_va108xx.c **** /**
 184:.\driver\src/i2c_va108xx.c ****   function:    int32_t VOR_I2C_FifoClr (uint32_t       arg,
 185:.\driver\src/i2c_va108xx.c ****                                      I2C_RESOURCES *i2c)
 186:.\driver\src/i2c_va108xx.c ****   brief:       RX/TX Fifo Clear.
 187:.\driver\src/i2c_va108xx.c ****   Input:       arg      argument of operation 
 188:.\driver\src/i2c_va108xx.c ****   Input:       i2c      pointer to I2C resources
 189:.\driver\src/i2c_va108xx.c ****   return:      execution_status
 190:.\driver\src/i2c_va108xx.c **** */
 191:.\driver\src/i2c_va108xx.c **** static int32_t VOR_I2C_FifoClr (uint32_t       arg, I2C_RESOURCES *i2c) {
 192:.\driver\src/i2c_va108xx.c **** 	
 193:.\driver\src/i2c_va108xx.c ****   if(i2c->info.status.mode) {
 194:.\driver\src/i2c_va108xx.c **** 	i2c->reg->FIFO_CLR     = (arg & 0x3);
 195:.\driver\src/i2c_va108xx.c **** 	i2c->reg->FIFO_CLR     = 0;
 196:.\driver\src/i2c_va108xx.c ****   } else {
 197:.\driver\src/i2c_va108xx.c **** 	i2c->reg->S0_FIFO_CLR = (arg & 0x3);
 198:.\driver\src/i2c_va108xx.c **** 	i2c->reg->S0_FIFO_CLR = 0;
 199:.\driver\src/i2c_va108xx.c ****   }
 200:.\driver\src/i2c_va108xx.c ****   return VOR_DRIVER_OK;
 201:.\driver\src/i2c_va108xx.c **** }
 202:.\driver\src/i2c_va108xx.c **** 
 203:.\driver\src/i2c_va108xx.c **** /**
 204:.\driver\src/i2c_va108xx.c ****   function:    int32_t VOR_I2C_Loopback (uint32_t       arg,
ARM GAS  C:\Users\claym\AppData\Local\Temp\ccxpUFUu.s 			page 6


 205:.\driver\src/i2c_va108xx.c ****                                      I2C_RESOURCES *i2c)
 206:.\driver\src/i2c_va108xx.c ****   brief:       Set Loopback mode.
 207:.\driver\src/i2c_va108xx.c ****   Input:       arg      argument of operation 
 208:.\driver\src/i2c_va108xx.c ****   Input:       i2c      pointer to I2C resources
 209:.\driver\src/i2c_va108xx.c ****   return:      execution_status
 210:.\driver\src/i2c_va108xx.c **** */
 211:.\driver\src/i2c_va108xx.c **** static int32_t VOR_I2C_Loopback (uint32_t       arg, I2C_RESOURCES *i2c) {
 212:.\driver\src/i2c_va108xx.c **** 	
 213:.\driver\src/i2c_va108xx.c **** 	if(arg)
 214:.\driver\src/i2c_va108xx.c **** 		i2c->reg->CTRL |= I2C_PERIPHERAL_CTRL_LOOPBACK_Msk;
 215:.\driver\src/i2c_va108xx.c **** 	else
 216:.\driver\src/i2c_va108xx.c **** 		i2c->reg->CTRL &= ~(I2C_PERIPHERAL_CTRL_LOOPBACK_Msk);
 217:.\driver\src/i2c_va108xx.c ****   return VOR_DRIVER_OK;
 218:.\driver\src/i2c_va108xx.c **** }
 219:.\driver\src/i2c_va108xx.c **** 
 220:.\driver\src/i2c_va108xx.c **** /**
 221:.\driver\src/i2c_va108xx.c ****   function:    int32_t VOR_I2C_Txfemd (uint32_t       arg,
 222:.\driver\src/i2c_va108xx.c ****                                      I2C_RESOURCES *i2c)
 223:.\driver\src/i2c_va108xx.c ****   brief:       Set Transmit Empty FIFO Mode.
 224:.\driver\src/i2c_va108xx.c ****   Input:       arg      argument of operation 
 225:.\driver\src/i2c_va108xx.c ****   Input:       i2c      pointer to I2C resources
 226:.\driver\src/i2c_va108xx.c ****   return:      execution_status
 227:.\driver\src/i2c_va108xx.c **** */
 228:.\driver\src/i2c_va108xx.c **** static int32_t VOR_I2C_Txfemd (uint32_t       arg, I2C_RESOURCES *i2c) {
 229:.\driver\src/i2c_va108xx.c ****   i2c->info.txfemd = arg;
 230:.\driver\src/i2c_va108xx.c ****   return VOR_DRIVER_OK;
 231:.\driver\src/i2c_va108xx.c **** }
 232:.\driver\src/i2c_va108xx.c **** 
 233:.\driver\src/i2c_va108xx.c **** /**
 234:.\driver\src/i2c_va108xx.c ****   function:    int32_t VOR_I2C_Rxffmd (uint32_t       arg,
 235:.\driver\src/i2c_va108xx.c ****                                      I2C_RESOURCES *i2c)
 236:.\driver\src/i2c_va108xx.c ****   brief:       Set Receive Full FIFO Mode.
 237:.\driver\src/i2c_va108xx.c ****   Input:       arg      argument of operation 
 238:.\driver\src/i2c_va108xx.c ****   Input:       i2c      pointer to I2C resources
 239:.\driver\src/i2c_va108xx.c ****   return:      execution_status
 240:.\driver\src/i2c_va108xx.c **** */
 241:.\driver\src/i2c_va108xx.c **** static int32_t VOR_I2C_Rxffmd (uint32_t       arg, I2C_RESOURCES *i2c) {
 242:.\driver\src/i2c_va108xx.c ****   i2c->info.rxffmd = arg;
 243:.\driver\src/i2c_va108xx.c ****   return VOR_DRIVER_OK;
 244:.\driver\src/i2c_va108xx.c **** }
 245:.\driver\src/i2c_va108xx.c **** 
 246:.\driver\src/i2c_va108xx.c **** /**
 247:.\driver\src/i2c_va108xx.c ****   function:    int32_t VOR_I2C_AlgFilter (uint32_t       arg,
 248:.\driver\src/i2c_va108xx.c ****                                      I2C_RESOURCES *i2c)
 249:.\driver\src/i2c_va108xx.c ****   brief:       Set Analog filter.
 250:.\driver\src/i2c_va108xx.c ****   Input:       arg      argument of operation 
 251:.\driver\src/i2c_va108xx.c ****   Input:       i2c      pointer to I2C resources
 252:.\driver\src/i2c_va108xx.c ****   return:      execution_status
 253:.\driver\src/i2c_va108xx.c **** */
 254:.\driver\src/i2c_va108xx.c **** static int32_t VOR_I2C_AlgFilter (uint32_t       arg, I2C_RESOURCES *i2c) {
 255:.\driver\src/i2c_va108xx.c ****   i2c->info.algfilter = arg;
 256:.\driver\src/i2c_va108xx.c ****   return VOR_DRIVER_OK;
 257:.\driver\src/i2c_va108xx.c **** }
 258:.\driver\src/i2c_va108xx.c **** 
 259:.\driver\src/i2c_va108xx.c **** /**
 260:.\driver\src/i2c_va108xx.c ****   function:    int32_t VOR_I2C_DigFilter (uint32_t       arg,
 261:.\driver\src/i2c_va108xx.c ****                                      I2C_RESOURCES *i2c)
ARM GAS  C:\Users\claym\AppData\Local\Temp\ccxpUFUu.s 			page 7


 262:.\driver\src/i2c_va108xx.c ****   brief:       Set Digital filter.
 263:.\driver\src/i2c_va108xx.c ****   Input:       arg      argument of operation 
 264:.\driver\src/i2c_va108xx.c ****   Input:       i2c      pointer to I2C resources
 265:.\driver\src/i2c_va108xx.c ****   return:      execution_status
 266:.\driver\src/i2c_va108xx.c **** */
 267:.\driver\src/i2c_va108xx.c **** static int32_t VOR_I2C_DigFilter (uint32_t       arg, I2C_RESOURCES *i2c) {
 268:.\driver\src/i2c_va108xx.c ****   i2c->info.digfilter = arg;
 269:.\driver\src/i2c_va108xx.c ****   return VOR_DRIVER_OK;
 270:.\driver\src/i2c_va108xx.c **** }
 271:.\driver\src/i2c_va108xx.c **** 
 272:.\driver\src/i2c_va108xx.c **** /**
 273:.\driver\src/i2c_va108xx.c ****   function:    int32_t VOR_I2C_RxFifoTrg (uint32_t       arg,
 274:.\driver\src/i2c_va108xx.c ****                                      I2C_RESOURCES *i2c)
 275:.\driver\src/i2c_va108xx.c ****   brief:       Set Rx fifo trigger.
 276:.\driver\src/i2c_va108xx.c ****   Input:       arg      argument of operation 
 277:.\driver\src/i2c_va108xx.c ****   Input:       i2c      pointer to I2C resources
 278:.\driver\src/i2c_va108xx.c ****   return:      execution_status
 279:.\driver\src/i2c_va108xx.c **** */
 280:.\driver\src/i2c_va108xx.c **** static int32_t VOR_I2C_RxFifoTrg (uint32_t       arg, I2C_RESOURCES *i2c) {
 281:.\driver\src/i2c_va108xx.c ****   i2c->info.rxfifotrg = arg;
 282:.\driver\src/i2c_va108xx.c ****   return VOR_DRIVER_OK;
 283:.\driver\src/i2c_va108xx.c **** }
 284:.\driver\src/i2c_va108xx.c **** 
 285:.\driver\src/i2c_va108xx.c **** /**
 286:.\driver\src/i2c_va108xx.c ****   function:    int32_t VOR_I2C_TxFifoTrg (uint32_t       arg,
 287:.\driver\src/i2c_va108xx.c ****                                      I2C_RESOURCES *i2c)
 288:.\driver\src/i2c_va108xx.c ****   brief:       Set Tx fifo trigger
 289:.\driver\src/i2c_va108xx.c ****   Input:       arg      argument of operation 
 290:.\driver\src/i2c_va108xx.c ****   Input:       i2c      pointer to I2C resources
 291:.\driver\src/i2c_va108xx.c ****   return:      execution_status
 292:.\driver\src/i2c_va108xx.c **** */
 293:.\driver\src/i2c_va108xx.c **** static int32_t VOR_I2C_TxFifoTrg (uint32_t       arg, I2C_RESOURCES *i2c) {
 294:.\driver\src/i2c_va108xx.c ****   i2c->info.txfifotrg = arg;
 295:.\driver\src/i2c_va108xx.c ****   return VOR_DRIVER_OK;
 296:.\driver\src/i2c_va108xx.c **** }
 297:.\driver\src/i2c_va108xx.c **** 
 298:.\driver\src/i2c_va108xx.c **** /**
 299:.\driver\src/i2c_va108xx.c ****   function:    int32_t VOR_I2C_ClkToLimit (uint32_t       arg,
 300:.\driver\src/i2c_va108xx.c ****                                      I2C_RESOURCES *i2c)
 301:.\driver\src/i2c_va108xx.c ****   brief:       Set Low clock limit
 302:.\driver\src/i2c_va108xx.c ****   Input:       arg      argument of operation 
 303:.\driver\src/i2c_va108xx.c ****   Input:       i2c      pointer to I2C resources
 304:.\driver\src/i2c_va108xx.c ****   return:      execution_status
 305:.\driver\src/i2c_va108xx.c **** */
 306:.\driver\src/i2c_va108xx.c **** static int32_t VOR_I2C_ClkToLimit (uint32_t       arg, I2C_RESOURCES *i2c) {
 307:.\driver\src/i2c_va108xx.c ****   i2c->info.clktolimit = arg;
 308:.\driver\src/i2c_va108xx.c ****   return VOR_DRIVER_OK;
 309:.\driver\src/i2c_va108xx.c **** }
 310:.\driver\src/i2c_va108xx.c **** 
 311:.\driver\src/i2c_va108xx.c **** /**
 312:.\driver\src/i2c_va108xx.c ****   function:    int32_t VOR_I2C_TmConfig (uint32_t       arg,
 313:.\driver\src/i2c_va108xx.c ****                                      I2C_RESOURCES *i2c)
 314:.\driver\src/i2c_va108xx.c ****   brief:       Set Timing configuration
 315:.\driver\src/i2c_va108xx.c ****   Input:       arg      argument of operation 
 316:.\driver\src/i2c_va108xx.c ****   Input:       i2c      pointer to I2C resources
 317:.\driver\src/i2c_va108xx.c ****   return:      execution_status
 318:.\driver\src/i2c_va108xx.c **** */
ARM GAS  C:\Users\claym\AppData\Local\Temp\ccxpUFUu.s 			page 8


 319:.\driver\src/i2c_va108xx.c **** static int32_t VOR_I2C_TmConfig (uint32_t       arg, I2C_RESOURCES *i2c) {
 320:.\driver\src/i2c_va108xx.c ****   i2c->info.tmconfig.val = arg;
 321:.\driver\src/i2c_va108xx.c ****   return VOR_DRIVER_OK;
 322:.\driver\src/i2c_va108xx.c **** }
 323:.\driver\src/i2c_va108xx.c **** 
 324:.\driver\src/i2c_va108xx.c **** /**
 325:.\driver\src/i2c_va108xx.c ****   function:    int32_t VOR_I2C_abort_transfer (uint32_t       arg,
 326:.\driver\src/i2c_va108xx.c ****                                      I2C_RESOURCES *i2c)
 327:.\driver\src/i2c_va108xx.c ****   brief:       Abort I2C transfer
 328:.\driver\src/i2c_va108xx.c ****   Input:       arg      argument of operation 
 329:.\driver\src/i2c_va108xx.c ****   Input:       i2c      pointer to I2C resources
 330:.\driver\src/i2c_va108xx.c ****   return:      execution_status
 331:.\driver\src/i2c_va108xx.c **** */
 332:.\driver\src/i2c_va108xx.c **** int32_t VOR_I2C_abort_transfer(uint32_t       arg, I2C_RESOURCES *i2c) {
 333:.\driver\src/i2c_va108xx.c ****   VOR_Disable_Irq(VOR_IRQ_I2C_MS, i2c->i2cId);
 334:.\driver\src/i2c_va108xx.c ****   VOR_Disable_Irq(VOR_IRQ_I2C_SL, i2c->i2cId);
 335:.\driver\src/i2c_va108xx.c **** 	i2c->reg->IRQ_ENB = 0;
 336:.\driver\src/i2c_va108xx.c **** 	i2c->reg->S0_IRQ_ENB = 0;
 337:.\driver\src/i2c_va108xx.c **** 	// Clear FIFO
 338:.\driver\src/i2c_va108xx.c **** 	i2c->reg->FIFO_CLR = 0xffffffff;
 339:.\driver\src/i2c_va108xx.c **** 	i2c->reg->S0_FIFO_CLR = 0xffffffff;
 340:.\driver\src/i2c_va108xx.c **** 	i2c->reg->CTRL    &=  ~I2C_PERIPHERAL_CTRL_ENABLE_Msk;
 341:.\driver\src/i2c_va108xx.c **** 	i2c->reg->S0_CTRL &=  ~I2C_PERIPHERAL_S0_CTRL_ENABLE_Msk;
 342:.\driver\src/i2c_va108xx.c ****   return VOR_DRIVER_OK;
 343:.\driver\src/i2c_va108xx.c **** }
 344:.\driver\src/i2c_va108xx.c **** 
 345:.\driver\src/i2c_va108xx.c **** /**
 346:.\driver\src/i2c_va108xx.c ****   function:    int32_t VOR_I2C_Control (uint32_t       control,
 347:.\driver\src/i2c_va108xx.c ****                                      uint32_t       arg,
 348:.\driver\src/i2c_va108xx.c ****                                      I2C_RESOURCES *i2c)
 349:.\driver\src/i2c_va108xx.c ****   brief:       Control I2C Interface.
 350:.\driver\src/i2c_va108xx.c ****   Input:       control  operation
 351:.\driver\src/i2c_va108xx.c ****   Input:       arg      argument of operation (optional)
 352:.\driver\src/i2c_va108xx.c ****   Input:       i2c      pointer to I2C resources
 353:.\driver\src/i2c_va108xx.c ****   return:      execution_status
 354:.\driver\src/i2c_va108xx.c **** */
 355:.\driver\src/i2c_va108xx.c **** int32_t VOR_I2C_Control (uint32_t control, uint32_t arg, I2C_RESOURCES *i2c) {
 356:.\driver\src/i2c_va108xx.c **** 
 357:.\driver\src/i2c_va108xx.c ****   if((i2c == NULL) || (i2c->reg ==NULL))
 358:.\driver\src/i2c_va108xx.c **** 	return VOR_DRIVER_ERROR_PARAMETER;
 359:.\driver\src/i2c_va108xx.c ****   
 360:.\driver\src/i2c_va108xx.c ****   
 361:.\driver\src/i2c_va108xx.c ****   switch (control) {
 362:.\driver\src/i2c_va108xx.c **** 	case VOR_I2C_DRV_POLL            : return VOR_I2C_Drv_Mode(arg,i2c);
 363:.\driver\src/i2c_va108xx.c **** 	case VOR_I2C_POLL_TOUT           : return VOR_I2C_Poll_Tout(arg,i2c);
 364:.\driver\src/i2c_va108xx.c **** 	case VOR_I2C_BUS_SPEED           : return VOR_I2C_busSpeed(arg,i2c);
 365:.\driver\src/i2c_va108xx.c **** 	case VOR_I2C_OWN_ADDRESS         : return VOR_I2C_OwnAddr(arg,i2c);
 366:.\driver\src/i2c_va108xx.c **** 	case VOR_I2C_ADDRESS_10BIT       : return VOR_I2C_Addr10Bit(arg,i2c);
 367:.\driver\src/i2c_va108xx.c **** 	case VOR_I2C_FIFO_CLR            : return VOR_I2C_FifoClr(arg,i2c);
 368:.\driver\src/i2c_va108xx.c **** 	case VOR_I2C_LOOPBACK            : return VOR_I2C_Loopback(arg,i2c);
 369:.\driver\src/i2c_va108xx.c **** 	case VOR_I2C_ABORT_TRANSFER      : return VOR_I2C_abort_transfer(arg,i2c);
 370:.\driver\src/i2c_va108xx.c **** 	case VOR_I2C_TXFEMD_MODE         : return VOR_I2C_Txfemd(arg,i2c);
 371:.\driver\src/i2c_va108xx.c **** 	case VOR_I2C_RXFFMD_MODE         : return VOR_I2C_Rxffmd(arg,i2c);
 372:.\driver\src/i2c_va108xx.c **** 	case VOR_I2C_ALGFILTER           : return VOR_I2C_AlgFilter(arg,i2c);
 373:.\driver\src/i2c_va108xx.c **** 	case VOR_I2C_DIGFILTER           : return VOR_I2C_DigFilter(arg,i2c);
 374:.\driver\src/i2c_va108xx.c **** 	case VOR_I2C_RXFIFOIRQTRG        : return VOR_I2C_RxFifoTrg(arg,i2c);
 375:.\driver\src/i2c_va108xx.c **** 	case VOR_I2C_TXFIFOIRQTRG        : return VOR_I2C_TxFifoTrg(arg,i2c);
ARM GAS  C:\Users\claym\AppData\Local\Temp\ccxpUFUu.s 			page 9


 376:.\driver\src/i2c_va108xx.c **** 	case VOR_I2C_CLKTOLIMIT          : return VOR_I2C_ClkToLimit(arg,i2c);
 377:.\driver\src/i2c_va108xx.c **** 	case VOR_I2C_TMCONFIG            : return VOR_I2C_TmConfig(arg,i2c);
 378:.\driver\src/i2c_va108xx.c **** 	default                          : return VOR_I2C_ERROR_CTRL;
 379:.\driver\src/i2c_va108xx.c ****   }
 380:.\driver\src/i2c_va108xx.c **** }
 381:.\driver\src/i2c_va108xx.c **** 
 382:.\driver\src/i2c_va108xx.c **** /**
 383:.\driver\src/i2c_va108xx.c ****   function:    VOR_I2C_STATUS VOR_I2C_GetStatus (I2C_RESOURCES *I2C)
 384:.\driver\src/i2c_va108xx.c ****   brief:       Get I2C status.
 385:.\driver\src/i2c_va108xx.c ****   Input:       I2C     Pointer to I2C resources
 386:.\driver\src/i2c_va108xx.c ****   return:      I2C status VOR_I2C_STATUS
 387:.\driver\src/i2c_va108xx.c **** */
 388:.\driver\src/i2c_va108xx.c **** VOR_I2C_STATUS VOR_I2C_GetStatus (I2C_RESOURCES *i2c) {
 389:.\driver\src/i2c_va108xx.c **** 
 390:.\driver\src/i2c_va108xx.c ****   if(i2c->info.status.mode == I2C_MODE_MASTER) {
 391:.\driver\src/i2c_va108xx.c ****     // Bus Idle Status
 392:.\driver\src/i2c_va108xx.c ****     i2c->info.status.i2cIdle   = (i2c->reg->STATUS & I2C_PERIPHERAL_STATUS_I2CIDLE_Msk) ? 1: 0;
 393:.\driver\src/i2c_va108xx.c ****     // Controller Idle Status
 394:.\driver\src/i2c_va108xx.c ****     i2c->info.status.Idle      = (i2c->reg->STATUS & I2C_PERIPHERAL_STATUS_IDLE_Msk)    ? 1: 0;
 395:.\driver\src/i2c_va108xx.c ****     // Controller Waiting Status
 396:.\driver\src/i2c_va108xx.c ****     i2c->info.status.waiting   = (i2c->reg->STATUS & I2C_PERIPHERAL_STATUS_WAITING_Msk) ? 1: 0;
 397:.\driver\src/i2c_va108xx.c ****     // Controller Stalled Status
 398:.\driver\src/i2c_va108xx.c ****     i2c->info.status.stalled   = (i2c->reg->STATUS & I2C_PERIPHERAL_STATUS_STALLED_Msk) ? 1: 0;
 399:.\driver\src/i2c_va108xx.c ****     // Lost arbitration Status
 400:.\driver\src/i2c_va108xx.c ****     i2c->info.status.arb_lost  = (i2c->reg->STATUS & I2C_PERIPHERAL_STATUS_ARBLOST_Msk) ? 1: 0;
 401:.\driver\src/i2c_va108xx.c ****     // Address failed Status
 402:.\driver\src/i2c_va108xx.c ****     i2c->info.status.nackAddr  = (i2c->reg->STATUS & I2C_PERIPHERAL_STATUS_NACKADDR_Msk)? 1: 0;
 403:.\driver\src/i2c_va108xx.c ****     // Receive negative Ack 
 404:.\driver\src/i2c_va108xx.c ****     i2c->info.status.nackData  = (i2c->reg->STATUS & I2C_PERIPHERAL_STATUS_NACKDATA_Msk)? 1: 0;
 405:.\driver\src/i2c_va108xx.c ****     // Receive FIFO is not empty 
 406:.\driver\src/i2c_va108xx.c ****     i2c->info.status.rxNEmpty  = (i2c->reg->STATUS & I2C_PERIPHERAL_STATUS_RXNEMPTY_Msk)? 1: 0;
 407:.\driver\src/i2c_va108xx.c ****     // Receive FIFO is full
 408:.\driver\src/i2c_va108xx.c ****     i2c->info.status.rxFull    = (i2c->reg->STATUS & I2C_PERIPHERAL_STATUS_RXFULL_Msk)  ? 1: 0;
 409:.\driver\src/i2c_va108xx.c ****     // Receive FIFO >= Trigger level
 410:.\driver\src/i2c_va108xx.c ****     i2c->info.status.rxFifoTrg = (i2c->reg->STATUS & I2C_PERIPHERAL_STATUS_RXTRIGGER_Msk)? 1: 0;
 411:.\driver\src/i2c_va108xx.c ****     // Transmit FIFO is empty 
 412:.\driver\src/i2c_va108xx.c ****     i2c->info.status.txEmpty   = (i2c->reg->STATUS & I2C_PERIPHERAL_STATUS_TXEMPTY_Msk) ? 1: 0;
 413:.\driver\src/i2c_va108xx.c ****     // Transmit FIFO is not full 
 414:.\driver\src/i2c_va108xx.c ****     i2c->info.status.txNFull   = (i2c->reg->STATUS & I2C_PERIPHERAL_STATUS_TXNFULL_Msk) ? 1: 0;
 415:.\driver\src/i2c_va108xx.c ****     // Transmit FIFO >= Trigger level 
 416:.\driver\src/i2c_va108xx.c ****     i2c->info.status.txFifoTrg = (i2c->reg->STATUS & I2C_PERIPHERAL_STATUS_TXTRIGGER_Msk)? 1: 0;
 417:.\driver\src/i2c_va108xx.c ****     // Raw I2C Data value 
 418:.\driver\src/i2c_va108xx.c ****     i2c->info.status.rawSDA    = (i2c->reg->STATUS & I2C_PERIPHERAL_STATUS_RAW_SDA_Msk) ? 1: 0;
 419:.\driver\src/i2c_va108xx.c ****     // Raw I2C Clock value 
 420:.\driver\src/i2c_va108xx.c ****     i2c->info.status.rawSCL    = (i2c->reg->STATUS & I2C_PERIPHERAL_STATUS_RAW_SCL_Msk) ? 1: 0;
 421:.\driver\src/i2c_va108xx.c ****   }
 422:.\driver\src/i2c_va108xx.c ****  
 423:.\driver\src/i2c_va108xx.c ****   return i2c->info.status;
 424:.\driver\src/i2c_va108xx.c **** }
 425:.\driver\src/i2c_va108xx.c **** 
 426:.\driver\src/i2c_va108xx.c **** 
 427:.\driver\src/i2c_va108xx.c **** /**
 428:.\driver\src/i2c_va108xx.c ****   function:    int32_t VOR_I2C_Setup (uint32_t       addr,
 429:.\driver\src/i2c_va108xx.c ****                                       const uint8_t *data,
 430:.\driver\src/i2c_va108xx.c ****                                       uint32_t       num,
 431:.\driver\src/i2c_va108xx.c ****                                       I2C_RESOURCES *i2c)
 432:.\driver\src/i2c_va108xx.c ****   brief:       Set up I2C control
ARM GAS  C:\Users\claym\AppData\Local\Temp\ccxpUFUu.s 			page 10


 433:.\driver\src/i2c_va108xx.c ****   Input:       addr          Slave address (7-bit or 10-bit)
 434:.\driver\src/i2c_va108xx.c ****   Input:       num           Number of data bytes to transmit
 435:.\driver\src/i2c_va108xx.c ****   Input:       i2c           Pointer to I2C resources
 436:.\driver\src/i2c_va108xx.c ****   return:      execution_status
 437:.\driver\src/i2c_va108xx.c **** */
 438:.\driver\src/i2c_va108xx.c **** static int32_t VOR_I2C_Setup (uint32_t       addr,
 439:.\driver\src/i2c_va108xx.c ****                                     uint32_t       num,
 440:.\driver\src/i2c_va108xx.c ****                                     I2C_RESOURCES *i2c) 
 441:.\driver\src/i2c_va108xx.c **** {
  82              		.loc 1 441 0
  83              		.cfi_startproc
  84              		@ args = 0, pretend = 0, frame = 8
  85              		@ frame_needed = 0, uses_anonymous_args = 0
  86              	.LVL0:
  87              	@ .\driver\src\i2c_va108xx.c:445:   if(i2c->info.status.mode == I2C_MODE_MASTER) {
 442:.\driver\src/i2c_va108xx.c **** 	uint32_t control ;
 443:.\driver\src/i2c_va108xx.c **** 	
 444:.\driver\src/i2c_va108xx.c ****   // Enable Master for Slave Mode
 445:.\driver\src/i2c_va108xx.c ****   if(i2c->info.status.mode == I2C_MODE_MASTER) {
  88              		.loc 1 445 0
  89 0000 537C     		ldrb	r3, [r2, #17]	@ *i2c_90(D), *i2c_90(D)
  90              	@ .\driver\src\i2c_va108xx.c:441: {
 441:.\driver\src/i2c_va108xx.c **** 	uint32_t control ;
  91              		.loc 1 441 0
  92 0002 F7B5     		push	{r0, r1, r2, r4, r5, r6, r7, lr}	@
  93              	.LCFI0:
  94              		.cfi_def_cfa_offset 32
  95              		.cfi_offset 0, -32
  96              		.cfi_offset 1, -28
  97              		.cfi_offset 2, -24
  98              		.cfi_offset 4, -20
  99              		.cfi_offset 5, -16
 100              		.cfi_offset 6, -12
 101              		.cfi_offset 7, -8
 102              		.cfi_offset 14, -4
 103              	@ .\driver\src\i2c_va108xx.c:445:   if(i2c->info.status.mode == I2C_MODE_MASTER) {
 104              		.loc 1 445 0
 105 0004 9C46     		mov	ip, r3	@ *i2c_90(D), *i2c_90(D)
 106 0006 5768     		ldr	r7, [r2, #4]	@ pretmp_52, i2c_90(D)->reg
 107              	@ .\driver\src\i2c_va108xx.c:441: {
 441:.\driver\src/i2c_va108xx.c **** 	uint32_t control ;
 108              		.loc 1 441 0
 109 0008 0190     		str	r0, [sp, #4]	@ addr, %sfp
 110 000a 3D00     		movs	r5, r7	@ tmp265, pretmp_52
 111              	@ .\driver\src\i2c_va108xx.c:445:   if(i2c->info.status.mode == I2C_MODE_MASTER) {
 112              		.loc 1 445 0
 113 000c 6046     		mov	r0, ip	@ *i2c_90(D), *i2c_90(D)
 114              	.LVL1:
 115 000e 146B     		ldr	r4, [r2, #48]	@ pretmp_23, i2c_90(D)->info.txfemd
 116 0010 FC35     		adds	r5, r5, #252	@ tmp265,
 117 0012 0423     		movs	r3, #4	@ tmp266,
 118 0014 967C     		ldrb	r6, [r2, #18]	@ *i2c_90(D), *i2c_90(D)
 119 0016 7F28     		cmp	r0, #127	@ *i2c_90(D),
 120 0018 59D9     		bls	.L2	@,
 121              	.LVL2:
 122              	@ .\driver\src\i2c_va108xx.c:447: 		i2c->reg->S0_CTRL &=  ~I2C_PERIPHERAL_S0_CTRL_ENABLE_Msk;
 446:.\driver\src/i2c_va108xx.c **** 	  control = I2C_PERIPHERAL_CTRL_ENABLE_Msk;
ARM GAS  C:\Users\claym\AppData\Local\Temp\ccxpUFUu.s 			page 11


 447:.\driver\src/i2c_va108xx.c **** 		i2c->reg->S0_CTRL &=  ~I2C_PERIPHERAL_S0_CTRL_ENABLE_Msk;
 123              		.loc 1 447 0
 124 001a 6868     		ldr	r0, [r5, #4]	@ _3, pretmp_52->S0_CTRL
 125 001c 9843     		bics	r0, r3	@ _3, tmp266
 126 001e 6860     		str	r0, [r5, #4]	@ _4, pretmp_52->S0_CTRL
 127              	@ .\driver\src\i2c_va108xx.c:455: 	  if(i2c->info.txfemd)	
 448:.\driver\src/i2c_va108xx.c ****   }else {
 449:.\driver\src/i2c_va108xx.c **** 	  control = I2C_PERIPHERAL_S0_CTRL_ENABLE_Msk;
 450:.\driver\src/i2c_va108xx.c **** 		i2c->reg->CTRL &=  ~I2C_PERIPHERAL_CTRL_ENABLE_Msk;
 451:.\driver\src/i2c_va108xx.c ****   }
 452:.\driver\src/i2c_va108xx.c **** 	
 453:.\driver\src/i2c_va108xx.c ****   if(i2c->info.status.mode == I2C_MODE_MASTER) {
 454:.\driver\src/i2c_va108xx.c ****     // Configure TXFEMD
 455:.\driver\src/i2c_va108xx.c **** 	  if(i2c->info.txfemd)	
 128              		.loc 1 455 0
 129 0020 002C     		cmp	r4, #0	@ pretmp_23,
 130 0022 00D0     		beq	.LCB37	@
 131 0024 84E0     		b	.L3	@long jump	@
 132              	.LCB37:
 133              	.LVL3:
 134              	.L4:
 135              	@ .\driver\src\i2c_va108xx.c:458: 	  if(i2c->info.rxffmd)
 456:.\driver\src/i2c_va108xx.c **** 			control |= ((i2c->info.txfemd & 1)<<I2C_PERIPHERAL_CTRL_TXFEMD_Pos);
 457:.\driver\src/i2c_va108xx.c **** 	  // Configure RXFFMD
 458:.\driver\src/i2c_va108xx.c **** 	  if(i2c->info.rxffmd)
 136              		.loc 1 458 0
 137 0026 546B     		ldr	r4, [r2, #52]	@ _11, i2c_90(D)->info.rxffmd
 138 0028 002C     		cmp	r4, #0	@ _11,
 139 002a 03D0     		beq	.L7	@,
 140              	@ .\driver\src\i2c_va108xx.c:459:   		control |= ((i2c->info.rxffmd & 1)<<I2C_PERIPHERAL_CTRL_RXFFM
 459:.\driver\src/i2c_va108xx.c ****   		control |= ((i2c->info.rxffmd & 1)<<I2C_PERIPHERAL_CTRL_RXFFMD_Pos);
 141              		.loc 1 459 0
 142 002c 1025     		movs	r5, #16	@ tmp193,
 143 002e 2401     		lsls	r4, r4, #4	@ tmp191, _11,
 144 0030 2C40     		ands	r4, r5	@ tmp192, tmp193
 145 0032 2343     		orrs	r3, r4	@ control, tmp192
 146              	.LVL4:
 147              	.L7:
 148              	@ .\driver\src\i2c_va108xx.c:461: 	  if(i2c->info.algfilter)
 460:.\driver\src/i2c_va108xx.c **** 	  // Configure ALGFILTER
 461:.\driver\src/i2c_va108xx.c **** 	  if(i2c->info.algfilter)
 149              		.loc 1 461 0
 150 0034 946B     		ldr	r4, [r2, #56]	@ _14, i2c_90(D)->info.algfilter
 151 0036 002C     		cmp	r4, #0	@ _14,
 152 0038 03D0     		beq	.L8	@,
 153              	@ .\driver\src\i2c_va108xx.c:462: 		  control |= ((i2c->info.algfilter & 1)<<I2C_PERIPHERAL_CTRL_AL
 462:.\driver\src/i2c_va108xx.c **** 		  control |= ((i2c->info.algfilter & 1)<<I2C_PERIPHERAL_CTRL_ALGFILTER_Pos);
 154              		.loc 1 462 0
 155 003a 2025     		movs	r5, #32	@ tmp196,
 156 003c 6401     		lsls	r4, r4, #5	@ tmp194, _14,
 157 003e 2C40     		ands	r4, r5	@ tmp195, tmp196
 158 0040 2343     		orrs	r3, r4	@ control, tmp195
 159              	.LVL5:
 160              	.L8:
 161              	@ .\driver\src\i2c_va108xx.c:464: 	  if(i2c->info.digfilter)
 463:.\driver\src/i2c_va108xx.c **** 	  // Configure DLGFILTER
 464:.\driver\src/i2c_va108xx.c **** 	  if(i2c->info.digfilter)
ARM GAS  C:\Users\claym\AppData\Local\Temp\ccxpUFUu.s 			page 12


 162              		.loc 1 464 0
 163 0042 D46B     		ldr	r4, [r2, #60]	@ _17, i2c_90(D)->info.digfilter
 164 0044 002C     		cmp	r4, #0	@ _17,
 165 0046 03D0     		beq	.L9	@,
 166              	@ .\driver\src\i2c_va108xx.c:465:   		control |= ((i2c->info.digfilter & 1)<<I2C_PERIPHERAL_CTRL_DL
 465:.\driver\src/i2c_va108xx.c ****   		control |= ((i2c->info.digfilter & 1)<<I2C_PERIPHERAL_CTRL_DLGFILTER_Pos);
 167              		.loc 1 465 0
 168 0048 4025     		movs	r5, #64	@ tmp199,
 169 004a A401     		lsls	r4, r4, #6	@ tmp197, _17,
 170 004c 2C40     		ands	r4, r5	@ tmp198, tmp199
 171 004e 2343     		orrs	r3, r4	@ control, tmp198
 172              	.LVL6:
 173              	.L9:
 174              	@ .\driver\src\i2c_va108xx.c:467: 	  if(i2c->info.loopback)
 466:.\driver\src/i2c_va108xx.c **** 	  // Configure Internal Loopback
 467:.\driver\src/i2c_va108xx.c **** 	  if(i2c->info.loopback)
 175              		.loc 1 467 0
 176 0050 D46A     		ldr	r4, [r2, #44]	@ _20, i2c_90(D)->info.loopback
 177 0052 002C     		cmp	r4, #0	@ _20,
 178 0054 04D0     		beq	.L10	@,
 179              	@ .\driver\src\i2c_va108xx.c:469:   		control |= ((i2c->info.loopback & 1)<<I2C_PERIPHERAL_CTRL_LOO
 468:.\driver\src/i2c_va108xx.c **** 	  {
 469:.\driver\src/i2c_va108xx.c ****   		control |= ((i2c->info.loopback & 1)<<I2C_PERIPHERAL_CTRL_LOOPBACK_Pos);
 180              		.loc 1 469 0
 181 0056 8025     		movs	r5, #128	@ tmp202,
 182 0058 2402     		lsls	r4, r4, #8	@ tmp200, _20,
 183 005a 6D00     		lsls	r5, r5, #1	@ tmp202, tmp202,
 184 005c 2C40     		ands	r4, r5	@ tmp201, tmp202
 185 005e 2343     		orrs	r3, r4	@ control, tmp201
 186              	.LVL7:
 187              	.L10:
 188              	@ .\driver\src\i2c_va108xx.c:473: 	  if(i2c->info.tmconfig.val) {
 470:.\driver\src/i2c_va108xx.c **** 	  }
 471:.\driver\src/i2c_va108xx.c **** 		i2c->reg->CTRL = control;
 472:.\driver\src/i2c_va108xx.c ****   	// Configure I2C Timming 
 473:.\driver\src/i2c_va108xx.c **** 	  if(i2c->info.tmconfig.val) {
 189              		.loc 1 473 0
 190 0060 D46C     		ldr	r4, [r2, #76]	@ _24, i2c_90(D)->info.tmconfig.val
 191              	@ .\driver\src\i2c_va108xx.c:471: 		i2c->reg->CTRL = control;
 471:.\driver\src/i2c_va108xx.c ****   	// Configure I2C Timming 
 192              		.loc 1 471 0
 193 0062 3B60     		str	r3, [r7]	@ control, pretmp_52->CTRL
 194              	@ .\driver\src\i2c_va108xx.c:473: 	  if(i2c->info.tmconfig.val) {
 195              		.loc 1 473 0
 196 0064 002C     		cmp	r4, #0	@ _24,
 197 0066 09D0     		beq	.L11	@,
 198              	@ .\driver\src\i2c_va108xx.c:474: 		  i2c->reg->CTRL |= ((1)<<I2C_PERIPHERAL_CTRL_TMCONFIGENB_Pos);
 474:.\driver\src/i2c_va108xx.c **** 		  i2c->reg->CTRL |= ((1)<<I2C_PERIPHERAL_CTRL_TMCONFIGENB_Pos);
 199              		.loc 1 474 0
 200 0068 8023     		movs	r3, #128	@ tmp203,
 201              	.LVL8:
 202 006a 3D68     		ldr	r5, [r7]	@ _25, pretmp_52->CTRL
 203 006c 9B00     		lsls	r3, r3, #2	@ tmp203, tmp203,
 204 006e 2B43     		orrs	r3, r5	@ _26, _25
 205 0070 3B60     		str	r3, [r7]	@ _26, pretmp_52->CTRL
 206              	.LVL9:
 207              	@ .\driver\src\i2c_va108xx.c:475: 		  i2c->reg->TMCONFIG = i2c->info.tmconfig.val;
ARM GAS  C:\Users\claym\AppData\Local\Temp\ccxpUFUu.s 			page 13


 475:.\driver\src/i2c_va108xx.c **** 		  i2c->reg->TMCONFIG = i2c->info.tmconfig.val;
 208              		.loc 1 475 0
 209 0072 7C64     		str	r4, [r7, #68]	@ _24, pretmp_52->TMCONFIG
 210              	@ .\driver\src\i2c_va108xx.c:476: 		  i2c->reg->CTRL &= ~((1)<<I2C_PERIPHERAL_CTRL_TMCONFIGENB_Pos)
 476:.\driver\src/i2c_va108xx.c **** 		  i2c->reg->CTRL &= ~((1)<<I2C_PERIPHERAL_CTRL_TMCONFIGENB_Pos);
 211              		.loc 1 476 0
 212 0074 3B68     		ldr	r3, [r7]	@ _27, pretmp_52->CTRL
 213 0076 334C     		ldr	r4, .L68	@ tmp204,
 214 0078 2340     		ands	r3, r4	@ _28, tmp204
 215 007a 3B60     		str	r3, [r7]	@ _28, pretmp_52->CTRL
 216              	.L11:
 217              	@ .\driver\src\i2c_va108xx.c:481: 	  i2c->reg->ADDRESS = 0;
 477:.\driver\src/i2c_va108xx.c **** 	  }
 478:.\driver\src/i2c_va108xx.c **** 	  // Configure Number of bytes
 479:.\driver\src/i2c_va108xx.c **** 	  i2c->reg->WORDS = num;
 480:.\driver\src/i2c_va108xx.c **** 	  // Configure Address
 481:.\driver\src/i2c_va108xx.c **** 	  i2c->reg->ADDRESS = 0;
 218              		.loc 1 481 0
 219 007c 0023     		movs	r3, #0	@ tmp205,
 220              	@ .\driver\src\i2c_va108xx.c:479: 	  i2c->reg->WORDS = num;
 479:.\driver\src/i2c_va108xx.c **** 	  // Configure Address
 221              		.loc 1 479 0
 222 007e B960     		str	r1, [r7, #8]	@ num, pretmp_52->WORDS
 223              	@ .\driver\src\i2c_va108xx.c:481: 	  i2c->reg->ADDRESS = 0;
 224              		.loc 1 481 0
 225 0080 FB60     		str	r3, [r7, #12]	@ tmp205, pretmp_52->ADDRESS
 226              	@ .\driver\src\i2c_va108xx.c:482: 	  i2c->reg->ADDRESS |= ((addr)<<I2C_ADDR_BITS);
 482:.\driver\src/i2c_va108xx.c **** 	  i2c->reg->ADDRESS |= ((addr)<<I2C_ADDR_BITS);
 227              		.loc 1 482 0
 228 0082 0199     		ldr	r1, [sp, #4]	@ addr, %sfp
 229              	.LVL10:
 230 0084 FB68     		ldr	r3, [r7, #12]	@ _29, pretmp_52->ADDRESS
 231 0086 4800     		lsls	r0, r1, #1	@ tmp206, addr,
 232 0088 1843     		orrs	r0, r3	@ _31, _29
 233 008a F860     		str	r0, [r7, #12]	@ _31, pretmp_52->ADDRESS
 234              	@ .\driver\src\i2c_va108xx.c:484: 	  if(i2c->info.status.direction)
 483:.\driver\src/i2c_va108xx.c **** 	  // Configure Direction
 484:.\driver\src/i2c_va108xx.c **** 	  if(i2c->info.status.direction)
 235              		.loc 1 484 0
 236 008c F307     		lsls	r3, r6, #31	@ tmp270, *i2c_90(D),
 237 008e 04D5     		bpl	.L12	@,
 238              	@ .\driver\src\i2c_va108xx.c:485: 		  i2c->reg->ADDRESS |= ((i2c->info.status.direction & 1)<<I2C_A
 485:.\driver\src/i2c_va108xx.c **** 		  i2c->reg->ADDRESS |= ((i2c->info.status.direction & 1)<<I2C_ADDR_DIR);
 239              		.loc 1 485 0
 240 0090 F968     		ldr	r1, [r7, #12]	@ _34, pretmp_52->ADDRESS
 241 0092 F307     		lsls	r3, r6, #31	@ tmp217, *i2c_90(D),
 242 0094 DB0F     		lsrs	r3, r3, #31	@ tmp218, tmp217,
 243 0096 0B43     		orrs	r3, r1	@ _37, _34
 244 0098 FB60     		str	r3, [r7, #12]	@ _37, pretmp_52->ADDRESS
 245              	.L12:
 246              	@ .\driver\src\i2c_va108xx.c:487: 	  if(i2c->info.addr_mode)
 486:.\driver\src/i2c_va108xx.c **** 	  // Configure Address Mode
 487:.\driver\src/i2c_va108xx.c **** 	  if(i2c->info.addr_mode)
 247              		.loc 1 487 0
 248 009a 936A     		ldr	r3, [r2, #40]	@ _38, i2c_90(D)->info.addr_mode
 249 009c 002B     		cmp	r3, #0	@ _38,
 250 009e 04D0     		beq	.L13	@,
ARM GAS  C:\Users\claym\AppData\Local\Temp\ccxpUFUu.s 			page 14


 251              	@ .\driver\src\i2c_va108xx.c:488:   		i2c->reg->ADDRESS |= ((i2c->info.addr_mode & 1)<<I2C_ADDR_MOD
 488:.\driver\src/i2c_va108xx.c ****   		i2c->reg->ADDRESS |= ((i2c->info.addr_mode & 1)<<I2C_ADDR_MODE);
 252              		.loc 1 488 0
 253 00a0 F968     		ldr	r1, [r7, #12]	@ _39, pretmp_52->ADDRESS
 254 00a2 DB07     		lsls	r3, r3, #31	@ tmp221, _38,
 255 00a4 1B0C     		lsrs	r3, r3, #16	@ tmp220, tmp221,
 256 00a6 0B43     		orrs	r3, r1	@ _42, _39
 257 00a8 FB60     		str	r3, [r7, #12]	@ _42, pretmp_52->ADDRESS
 258              	.L13:
 259              	@ .\driver\src\i2c_va108xx.c:490:   	if(i2c->info.clktolimit)
 489:.\driver\src/i2c_va108xx.c ****   	// Configure Low clock limit
 490:.\driver\src/i2c_va108xx.c ****   	if(i2c->info.clktolimit)
 260              		.loc 1 490 0
 261 00aa 936C     		ldr	r3, [r2, #72]	@ _43, i2c_90(D)->info.clktolimit
 262 00ac 002B     		cmp	r3, #0	@ _43,
 263 00ae 00D0     		beq	.L14	@,
 264              	@ .\driver\src\i2c_va108xx.c:491: 		  i2c->reg->CLKTOLIMIT = i2c->info.clktolimit;
 491:.\driver\src/i2c_va108xx.c **** 		  i2c->reg->CLKTOLIMIT = i2c->info.clktolimit;
 265              		.loc 1 491 0
 266 00b0 BB64     		str	r3, [r7, #72]	@ _43, pretmp_52->CLKTOLIMIT
 267              	.L14:
 268              	@ .\driver\src\i2c_va108xx.c:493: 	  if(i2c->info.rxfifotrg)
 492:.\driver\src/i2c_va108xx.c **** 	  // Configure RX FIFO TRG
 493:.\driver\src/i2c_va108xx.c **** 	  if(i2c->info.rxfifotrg)
 269              		.loc 1 493 0
 270 00b2 136C     		ldr	r3, [r2, #64]	@ _44, i2c_90(D)->info.rxfifotrg
 271 00b4 002B     		cmp	r3, #0	@ _44,
 272 00b6 00D0     		beq	.L15	@,
 273              	@ .\driver\src\i2c_va108xx.c:494:   		i2c->reg->RXFIFOIRQTRG = i2c->info.rxfifotrg;
 494:.\driver\src/i2c_va108xx.c ****   		i2c->reg->RXFIFOIRQTRG = i2c->info.rxfifotrg;
 274              		.loc 1 494 0
 275 00b8 BB63     		str	r3, [r7, #56]	@ _44, pretmp_52->RXFIFOIRQTRG
 276              	.L15:
 277              	@ .\driver\src\i2c_va108xx.c:496:   	if(i2c->info.txfifotrg)
 495:.\driver\src/i2c_va108xx.c ****   	// Configure TX FIFO TRG
 496:.\driver\src/i2c_va108xx.c ****   	if(i2c->info.txfifotrg)
 278              		.loc 1 496 0
 279 00ba 536C     		ldr	r3, [r2, #68]	@ _45, i2c_90(D)->info.txfifotrg
 280 00bc 002B     		cmp	r3, #0	@ _45,
 281 00be 00D0     		beq	.L16	@,
 282              	@ .\driver\src\i2c_va108xx.c:497: 		  i2c->reg->TXFIFOIRQTRG = i2c->info.txfifotrg;
 497:.\driver\src/i2c_va108xx.c **** 		  i2c->reg->TXFIFOIRQTRG = i2c->info.txfifotrg;
 283              		.loc 1 497 0
 284 00c0 FB63     		str	r3, [r7, #60]	@ _45, pretmp_52->TXFIFOIRQTRG
 285              	.L16:
 286              	@ .\driver\src\i2c_va108xx.c:499: 	  i2c->reg->FIFO_CLR = 0x3;
 498:.\driver\src/i2c_va108xx.c ****     // Clear TX Fifo
 499:.\driver\src/i2c_va108xx.c **** 	  i2c->reg->FIFO_CLR = 0x3;
 287              		.loc 1 499 0
 288 00c2 0323     		movs	r3, #3	@ tmp222,
 289 00c4 3B64     		str	r3, [r7, #64]	@ tmp222, pretmp_52->FIFO_CLR
 290              	@ .\driver\src\i2c_va108xx.c:500: 	  i2c->reg->FIFO_CLR = 0x0;
 500:.\driver\src/i2c_va108xx.c **** 	  i2c->reg->FIFO_CLR = 0x0;
 291              		.loc 1 500 0
 292 00c6 0023     		movs	r3, #0	@ tmp223,
 293 00c8 3B64     		str	r3, [r7, #64]	@ tmp223, pretmp_52->FIFO_CLR
 294              	.L17:
ARM GAS  C:\Users\claym\AppData\Local\Temp\ccxpUFUu.s 			page 15


 295              	@ .\driver\src\i2c_va108xx.c:533: }
 501:.\driver\src/i2c_va108xx.c ****   } else {
 502:.\driver\src/i2c_va108xx.c **** 	  // Configure TXFEMD
 503:.\driver\src/i2c_va108xx.c **** 	  if(i2c->info.txfemd)	
 504:.\driver\src/i2c_va108xx.c **** 		  control |= ((i2c->info.txfemd & 1)<<I2C_PERIPHERAL_S0_CTRL_TXFEMD_Pos);
 505:.\driver\src/i2c_va108xx.c **** 	  // Configure RXFFMD
 506:.\driver\src/i2c_va108xx.c **** 	  if(i2c->info.rxffmd)
 507:.\driver\src/i2c_va108xx.c **** 	  {
 508:.\driver\src/i2c_va108xx.c ****   		control |= ((i2c->info.rxffmd & 1)<<I2C_PERIPHERAL_S0_CTRL_RXFFMD_Pos);
 509:.\driver\src/i2c_va108xx.c **** 	  }
 510:.\driver\src/i2c_va108xx.c **** 		i2c->reg->S0_CTRL = control;
 511:.\driver\src/i2c_va108xx.c ****   	// Configure Number of bytes
 512:.\driver\src/i2c_va108xx.c ****   	i2c->reg->S0_MAXWORDS = num;
 513:.\driver\src/i2c_va108xx.c ****   	// Configure Address
 514:.\driver\src/i2c_va108xx.c ****   	i2c->reg->S0_ADDRESS = 0;
 515:.\driver\src/i2c_va108xx.c ****   	i2c->reg->S0_ADDRESS |= ((i2c->info.slv_addr)<<I2C_ADDR_BITS);
 516:.\driver\src/i2c_va108xx.c ****   	// Configure Direction
 517:.\driver\src/i2c_va108xx.c **** 	  if(i2c->info.status.direction)
 518:.\driver\src/i2c_va108xx.c ****   		i2c->reg->S0_ADDRESS |= ((i2c->info.status.direction & 1)<<I2C_ADDR_DIR);
 519:.\driver\src/i2c_va108xx.c ****   	// Configure Address Mode
 520:.\driver\src/i2c_va108xx.c ****   	if(i2c->info.addr_mode)
 521:.\driver\src/i2c_va108xx.c **** 		  i2c->reg->S0_ADDRESS |= ((i2c->info.addr_mode & 1)<<I2C_ADDR_MODE);
 522:.\driver\src/i2c_va108xx.c **** 	  // Configure RX FIFO TRG
 523:.\driver\src/i2c_va108xx.c **** 	  if(i2c->info.rxfifotrg)
 524:.\driver\src/i2c_va108xx.c ****   		i2c->reg->S0_RXFIFOIRQTRG = i2c->info.rxfifotrg;
 525:.\driver\src/i2c_va108xx.c ****   	// Configure TX FIFO TRG
 526:.\driver\src/i2c_va108xx.c ****   	if(i2c->info.txfifotrg)
 527:.\driver\src/i2c_va108xx.c **** 		  i2c->reg->S0_TXFIFOIRQTRG = i2c->info.txfifotrg;
 528:.\driver\src/i2c_va108xx.c ****     // Clear TX Fifo
 529:.\driver\src/i2c_va108xx.c ****   	i2c->reg->S0_FIFO_CLR = 0x3;
 530:.\driver\src/i2c_va108xx.c **** 	  i2c->reg->S0_FIFO_CLR = 0x0;
 531:.\driver\src/i2c_va108xx.c ****   }	
 532:.\driver\src/i2c_va108xx.c ****   return VOR_DRIVER_OK;						
 533:.\driver\src/i2c_va108xx.c **** }
 296              		.loc 1 533 0
 297 00ca 0020     		movs	r0, #0	@,
 298              		@ sp needed	@
 299 00cc FEBD     		pop	{r1, r2, r3, r4, r5, r6, r7, pc}
 300              	.LVL11:
 301              	.L2:
 302              	@ .\driver\src\i2c_va108xx.c:450: 		i2c->reg->CTRL &=  ~I2C_PERIPHERAL_CTRL_ENABLE_Msk;
 450:.\driver\src/i2c_va108xx.c ****   }
 303              		.loc 1 450 0
 304 00ce 3868     		ldr	r0, [r7]	@ _6, pretmp_52->CTRL
 305 00d0 9843     		bics	r0, r3	@ _7, tmp266
 306 00d2 3860     		str	r0, [r7]	@ _7, pretmp_52->CTRL
 307              	@ .\driver\src\i2c_va108xx.c:503: 	  if(i2c->info.txfemd)	
 503:.\driver\src/i2c_va108xx.c **** 		  control |= ((i2c->info.txfemd & 1)<<I2C_PERIPHERAL_S0_CTRL_TXFEMD_Pos);
 308              		.loc 1 503 0
 309 00d4 002C     		cmp	r4, #0	@ pretmp_23,
 310 00d6 30D1     		bne	.L5	@,
 311              	.LVL12:
 312              	.L6:
 313              	@ .\driver\src\i2c_va108xx.c:506: 	  if(i2c->info.rxffmd)
 506:.\driver\src/i2c_va108xx.c **** 	  {
 314              		.loc 1 506 0
 315 00d8 506B     		ldr	r0, [r2, #52]	@ _49, i2c_90(D)->info.rxffmd
ARM GAS  C:\Users\claym\AppData\Local\Temp\ccxpUFUu.s 			page 16


 316 00da 0028     		cmp	r0, #0	@ _49,
 317 00dc 03D0     		beq	.L18	@,
 318              	@ .\driver\src\i2c_va108xx.c:508:   		control |= ((i2c->info.rxffmd & 1)<<I2C_PERIPHERAL_S0_CTRL_RX
 508:.\driver\src/i2c_va108xx.c **** 	  }
 319              		.loc 1 508 0
 320 00de 1024     		movs	r4, #16	@ tmp230,
 321 00e0 0001     		lsls	r0, r0, #4	@ tmp228, _49,
 322 00e2 2040     		ands	r0, r4	@ tmp229, tmp230
 323 00e4 0343     		orrs	r3, r0	@ control, tmp229
 324              	.LVL13:
 325              	.L18:
 326              	@ .\driver\src\i2c_va108xx.c:510: 		i2c->reg->S0_CTRL = control;
 510:.\driver\src/i2c_va108xx.c ****   	// Configure Number of bytes
 327              		.loc 1 510 0
 328 00e6 6B60     		str	r3, [r5, #4]	@ control, pretmp_52->S0_CTRL
 329              	@ .\driver\src\i2c_va108xx.c:514:   	i2c->reg->S0_ADDRESS = 0;
 514:.\driver\src/i2c_va108xx.c ****   	i2c->reg->S0_ADDRESS |= ((i2c->info.slv_addr)<<I2C_ADDR_BITS);
 330              		.loc 1 514 0
 331 00e8 0023     		movs	r3, #0	@ tmp234,
 332              	.LVL14:
 333              	@ .\driver\src\i2c_va108xx.c:512:   	i2c->reg->S0_MAXWORDS = num;
 512:.\driver\src/i2c_va108xx.c ****   	// Configure Address
 334              		.loc 1 512 0
 335 00ea A960     		str	r1, [r5, #8]	@ num, pretmp_52->S0_MAXWORDS
 336              	.LVL15:
 337              	@ .\driver\src\i2c_va108xx.c:514:   	i2c->reg->S0_ADDRESS = 0;
 514:.\driver\src/i2c_va108xx.c ****   	i2c->reg->S0_ADDRESS |= ((i2c->info.slv_addr)<<I2C_ADDR_BITS);
 338              		.loc 1 514 0
 339 00ec EB60     		str	r3, [r5, #12]	@ tmp234, pretmp_52->S0_ADDRESS
 340              	@ .\driver\src\i2c_va108xx.c:515:   	i2c->reg->S0_ADDRESS |= ((i2c->info.slv_addr)<<I2C_ADDR_BITS);
 515:.\driver\src/i2c_va108xx.c ****   	// Configure Direction
 341              		.loc 1 515 0
 342 00ee 536A     		ldr	r3, [r2, #36]	@ tmp278, i2c_90(D)->info.slv_addr
 343 00f0 E968     		ldr	r1, [r5, #12]	@ _53, pretmp_52->S0_ADDRESS
 344              	.LVL16:
 345 00f2 5B00     		lsls	r3, r3, #1	@ tmp236, tmp278,
 346 00f4 0B43     		orrs	r3, r1	@ _56, _53
 347 00f6 EB60     		str	r3, [r5, #12]	@ _56, pretmp_52->S0_ADDRESS
 348              	@ .\driver\src\i2c_va108xx.c:517: 	  if(i2c->info.status.direction)
 517:.\driver\src/i2c_va108xx.c ****   		i2c->reg->S0_ADDRESS |= ((i2c->info.status.direction & 1)<<I2C_ADDR_DIR);
 349              		.loc 1 517 0
 350 00f8 F307     		lsls	r3, r6, #31	@ tmp271, *i2c_90(D),
 351 00fa 04D5     		bpl	.L19	@,
 352              	@ .\driver\src\i2c_va108xx.c:518:   		i2c->reg->S0_ADDRESS |= ((i2c->info.status.direction & 1)<<I2
 518:.\driver\src/i2c_va108xx.c ****   	// Configure Address Mode
 353              		.loc 1 518 0
 354 00fc E968     		ldr	r1, [r5, #12]	@ _59, pretmp_52->S0_ADDRESS
 355 00fe F307     		lsls	r3, r6, #31	@ tmp250, *i2c_90(D),
 356 0100 DB0F     		lsrs	r3, r3, #31	@ tmp251, tmp250,
 357 0102 0B43     		orrs	r3, r1	@ _62, _59
 358 0104 EB60     		str	r3, [r5, #12]	@ _62, pretmp_52->S0_ADDRESS
 359              	.L19:
 360              	@ .\driver\src\i2c_va108xx.c:520:   	if(i2c->info.addr_mode)
 520:.\driver\src/i2c_va108xx.c **** 		  i2c->reg->S0_ADDRESS |= ((i2c->info.addr_mode & 1)<<I2C_ADDR_MODE);
 361              		.loc 1 520 0
 362 0106 936A     		ldr	r3, [r2, #40]	@ _63, i2c_90(D)->info.addr_mode
 363 0108 002B     		cmp	r3, #0	@ _63,
ARM GAS  C:\Users\claym\AppData\Local\Temp\ccxpUFUu.s 			page 17


 364 010a 04D0     		beq	.L20	@,
 365              	@ .\driver\src\i2c_va108xx.c:521: 		  i2c->reg->S0_ADDRESS |= ((i2c->info.addr_mode & 1)<<I2C_ADDR_
 521:.\driver\src/i2c_va108xx.c **** 	  // Configure RX FIFO TRG
 366              		.loc 1 521 0
 367 010c E968     		ldr	r1, [r5, #12]	@ _64, pretmp_52->S0_ADDRESS
 368 010e DB07     		lsls	r3, r3, #31	@ tmp256, _63,
 369 0110 1B0C     		lsrs	r3, r3, #16	@ tmp255, tmp256,
 370 0112 0B43     		orrs	r3, r1	@ _67, _64
 371 0114 EB60     		str	r3, [r5, #12]	@ _67, pretmp_52->S0_ADDRESS
 372              	.L20:
 373              	@ .\driver\src\i2c_va108xx.c:523: 	  if(i2c->info.rxfifotrg)
 523:.\driver\src/i2c_va108xx.c ****   		i2c->reg->S0_RXFIFOIRQTRG = i2c->info.rxfifotrg;
 374              		.loc 1 523 0
 375 0116 136C     		ldr	r3, [r2, #64]	@ _68, i2c_90(D)->info.rxfifotrg
 376 0118 002B     		cmp	r3, #0	@ _68,
 377 011a 00D0     		beq	.L21	@,
 378              	@ .\driver\src\i2c_va108xx.c:524:   		i2c->reg->S0_RXFIFOIRQTRG = i2c->info.rxfifotrg;
 524:.\driver\src/i2c_va108xx.c ****   	// Configure TX FIFO TRG
 379              		.loc 1 524 0
 380 011c EB63     		str	r3, [r5, #60]	@ _68, pretmp_52->S0_RXFIFOIRQTRG
 381              	.L21:
 382              	@ .\driver\src\i2c_va108xx.c:526:   	if(i2c->info.txfifotrg)
 526:.\driver\src/i2c_va108xx.c **** 		  i2c->reg->S0_TXFIFOIRQTRG = i2c->info.txfifotrg;
 383              		.loc 1 526 0
 384 011e 536C     		ldr	r3, [r2, #68]	@ _69, i2c_90(D)->info.txfifotrg
 385 0120 002B     		cmp	r3, #0	@ _69,
 386 0122 00D0     		beq	.L22	@,
 387              	@ .\driver\src\i2c_va108xx.c:527: 		  i2c->reg->S0_TXFIFOIRQTRG = i2c->info.txfifotrg;
 527:.\driver\src/i2c_va108xx.c ****     // Clear TX Fifo
 388              		.loc 1 527 0
 389 0124 2B64     		str	r3, [r5, #64]	@ _69, pretmp_52->S0_TXFIFOIRQTRG
 390              	.L22:
 391              	@ .\driver\src\i2c_va108xx.c:529:   	i2c->reg->S0_FIFO_CLR = 0x3;
 529:.\driver\src/i2c_va108xx.c **** 	  i2c->reg->S0_FIFO_CLR = 0x0;
 392              		.loc 1 529 0
 393 0126 0323     		movs	r3, #3	@ tmp261,
 394 0128 6B64     		str	r3, [r5, #68]	@ tmp261, pretmp_52->S0_FIFO_CLR
 395              	@ .\driver\src\i2c_va108xx.c:530: 	  i2c->reg->S0_FIFO_CLR = 0x0;
 530:.\driver\src/i2c_va108xx.c ****   }	
 396              		.loc 1 530 0
 397 012a 0023     		movs	r3, #0	@ tmp263,
 398 012c 6B64     		str	r3, [r5, #68]	@ tmp263, pretmp_52->S0_FIFO_CLR
 399 012e CCE7     		b	.L17	@
 400              	.LVL17:
 401              	.L3:
 402              	@ .\driver\src\i2c_va108xx.c:456: 			control |= ((i2c->info.txfemd & 1)<<I2C_PERIPHERAL_CTRL_TXFEMD
 456:.\driver\src/i2c_va108xx.c **** 	  // Configure RXFFMD
 403              		.loc 1 456 0
 404 0130 0825     		movs	r5, #8	@ tmp189,
 405 0132 E400     		lsls	r4, r4, #3	@ tmp187, pretmp_23,
 406 0134 2C40     		ands	r4, r5	@ tmp188, tmp189
 407 0136 2343     		orrs	r3, r4	@ control, tmp188
 408              	.LVL18:
 409 0138 75E7     		b	.L4	@
 410              	.LVL19:
 411              	.L5:
 412              	@ .\driver\src\i2c_va108xx.c:504: 		  control |= ((i2c->info.txfemd & 1)<<I2C_PERIPHERAL_S0_CTRL_TX
ARM GAS  C:\Users\claym\AppData\Local\Temp\ccxpUFUu.s 			page 18


 504:.\driver\src/i2c_va108xx.c **** 	  // Configure RXFFMD
 413              		.loc 1 504 0
 414 013a 0820     		movs	r0, #8	@ tmp226,
 415 013c E400     		lsls	r4, r4, #3	@ tmp224, pretmp_23,
 416 013e 0440     		ands	r4, r0	@ tmp225, tmp226
 417 0140 2343     		orrs	r3, r4	@ control, tmp225
 418              	.LVL20:
 419 0142 C9E7     		b	.L6	@
 420              	.L69:
 421              		.align	2
 422              	.L68:
 423 0144 FFFDFFFF 		.word	-513
 424              		.cfi_endproc
 425              	.LFE58:
 426              		.size	VOR_I2C_Setup, .-VOR_I2C_Setup
 427              		.align	1
 428              		.syntax unified
 429              		.code	16
 430              		.thumb_func
 431              		.fpu softvfp
 432              		.type	VOR_I2C_Stop, %function
 433              	VOR_I2C_Stop:
 434              	.LFB59:
 534:.\driver\src/i2c_va108xx.c **** 
 535:.\driver\src/i2c_va108xx.c **** /**
 536:.\driver\src/i2c_va108xx.c ****   function:    int32_t VOR_I2C_Stop (I2C_RESOURCES *i2c)
 537:.\driver\src/i2c_va108xx.c ****   brief:       Stop I2C
 538:.\driver\src/i2c_va108xx.c ****   Input:       i2c           Pointer to I2C resources
 539:.\driver\src/i2c_va108xx.c ****   return:      execution_status
 540:.\driver\src/i2c_va108xx.c **** */
 541:.\driver\src/i2c_va108xx.c **** static int32_t VOR_I2C_Stop (I2C_RESOURCES *i2c) 
 542:.\driver\src/i2c_va108xx.c **** {
 435              		.loc 1 542 0
 436              		.cfi_startproc
 437              		@ args = 0, pretend = 0, frame = 0
 438              		@ frame_needed = 0, uses_anonymous_args = 0
 439              	.LVL21:
 440              	@ .\driver\src\i2c_va108xx.c:543: 	i2c->reg->CMD |= I2C_CMD_STOP;
 543:.\driver\src/i2c_va108xx.c **** 	i2c->reg->CMD |= I2C_CMD_STOP;
 441              		.loc 1 543 0
 442 0148 0223     		movs	r3, #2	@ tmp118,
 443              	@ .\driver\src\i2c_va108xx.c:542: {
 542:.\driver\src/i2c_va108xx.c **** 	i2c->reg->CMD |= I2C_CMD_STOP;
 444              		.loc 1 542 0
 445 014a 10B5     		push	{r4, lr}	@
 446              	.LCFI1:
 447              		.cfi_def_cfa_offset 8
 448              		.cfi_offset 4, -8
 449              		.cfi_offset 14, -4
 450              	@ .\driver\src\i2c_va108xx.c:542: {
 542:.\driver\src/i2c_va108xx.c **** 	i2c->reg->CMD |= I2C_CMD_STOP;
 451              		.loc 1 542 0
 452 014c 0400     		movs	r4, r0	@ i2c, i2c
 453              	@ .\driver\src\i2c_va108xx.c:543: 	i2c->reg->CMD |= I2C_CMD_STOP;
 454              		.loc 1 543 0
 455 014e 4268     		ldr	r2, [r0, #4]	@ _1, i2c_8(D)->reg
 456              	@ .\driver\src\i2c_va108xx.c:544: 	VOR_Sleep(1);
ARM GAS  C:\Users\claym\AppData\Local\Temp\ccxpUFUu.s 			page 19


 544:.\driver\src/i2c_va108xx.c **** 	VOR_Sleep(1);
 457              		.loc 1 544 0
 458 0150 0120     		movs	r0, #1	@,
 459              	.LVL22:
 460              	@ .\driver\src\i2c_va108xx.c:543: 	i2c->reg->CMD |= I2C_CMD_STOP;
 543:.\driver\src/i2c_va108xx.c **** 	i2c->reg->CMD |= I2C_CMD_STOP;
 461              		.loc 1 543 0
 462 0152 5169     		ldr	r1, [r2, #20]	@ _2, _1->CMD
 463 0154 0B43     		orrs	r3, r1	@ _3, _2
 464 0156 5361     		str	r3, [r2, #20]	@ _3, _1->CMD
 465              	@ .\driver\src\i2c_va108xx.c:544: 	VOR_Sleep(1);
 466              		.loc 1 544 0
 467 0158 FFF7FEFF 		bl	VOR_Sleep	@
 468              	.LVL23:
 469              	@ .\driver\src\i2c_va108xx.c:545:   i2c->reg->CTRL    = 0;
 545:.\driver\src/i2c_va108xx.c ****   i2c->reg->CTRL    = 0;
 470              		.loc 1 545 0
 471 015c 6268     		ldr	r2, [r4, #4]	@ _4, i2c_8(D)->reg
 472 015e 0023     		movs	r3, #0	@ tmp119,
 473              	@ .\driver\src\i2c_va108xx.c:546:   i2c->reg->S0_CTRL = 0;
 546:.\driver\src/i2c_va108xx.c ****   i2c->reg->S0_CTRL = 0;
 474              		.loc 1 546 0
 475 0160 1100     		movs	r1, r2	@ tmp120, _4
 476              	@ .\driver\src\i2c_va108xx.c:549:   if(i2c->info.status.mode == I2C_MODE_MASTER) {
 547:.\driver\src/i2c_va108xx.c **** 	
 548:.\driver\src/i2c_va108xx.c **** 	
 549:.\driver\src/i2c_va108xx.c ****   if(i2c->info.status.mode == I2C_MODE_MASTER) {
 477              		.loc 1 549 0
 478 0162 647C     		ldrb	r4, [r4, #17]	@ *i2c_8(D), *i2c_8(D)
 479              	.LVL24:
 480              	@ .\driver\src\i2c_va108xx.c:546:   i2c->reg->S0_CTRL = 0;
 546:.\driver\src/i2c_va108xx.c ****   i2c->reg->S0_CTRL = 0;
 481              		.loc 1 546 0
 482 0164 FC31     		adds	r1, r1, #252	@ tmp120,
 483              	@ .\driver\src\i2c_va108xx.c:545:   i2c->reg->CTRL    = 0;
 545:.\driver\src/i2c_va108xx.c ****   i2c->reg->S0_CTRL = 0;
 484              		.loc 1 545 0
 485 0166 1360     		str	r3, [r2]	@ tmp119, _4->CTRL
 486 0168 0320     		movs	r0, #3	@ tmp136,
 487              	@ .\driver\src\i2c_va108xx.c:546:   i2c->reg->S0_CTRL = 0;
 546:.\driver\src/i2c_va108xx.c ****   i2c->reg->S0_CTRL = 0;
 488              		.loc 1 546 0
 489 016a 4B60     		str	r3, [r1, #4]	@ tmp119, _4->S0_CTRL
 490              	@ .\driver\src\i2c_va108xx.c:549:   if(i2c->info.status.mode == I2C_MODE_MASTER) {
 491              		.loc 1 549 0
 492 016c 7F2C     		cmp	r4, #127	@ *i2c_8(D),
 493 016e 05D9     		bls	.L71	@,
 494              	@ .\driver\src\i2c_va108xx.c:551: 	i2c->reg->WORDS = 0;
 550:.\driver\src/i2c_va108xx.c ****  	// Configure Number of bytes
 551:.\driver\src/i2c_va108xx.c **** 	i2c->reg->WORDS = 0;
 495              		.loc 1 551 0
 496 0170 9360     		str	r3, [r2, #8]	@ tmp119, _4->WORDS
 497              	@ .\driver\src\i2c_va108xx.c:553: 	i2c->reg->ADDRESS = 0;
 552:.\driver\src/i2c_va108xx.c **** 	// Configure Address
 553:.\driver\src/i2c_va108xx.c **** 	i2c->reg->ADDRESS = 0;
 498              		.loc 1 553 0
 499 0172 D360     		str	r3, [r2, #12]	@ tmp119, _4->ADDRESS
ARM GAS  C:\Users\claym\AppData\Local\Temp\ccxpUFUu.s 			page 20


 500              	@ .\driver\src\i2c_va108xx.c:555: 	i2c->reg->FIFO_CLR = 0x3;
 554:.\driver\src/i2c_va108xx.c ****     // Clear TX Fifo
 555:.\driver\src/i2c_va108xx.c **** 	i2c->reg->FIFO_CLR = 0x3;
 501              		.loc 1 555 0
 502 0174 1064     		str	r0, [r2, #64]	@ tmp136, _4->FIFO_CLR
 503              	@ .\driver\src\i2c_va108xx.c:556: 	i2c->reg->FIFO_CLR = 0x0;
 556:.\driver\src/i2c_va108xx.c **** 	i2c->reg->FIFO_CLR = 0x0;
 504              		.loc 1 556 0
 505 0176 1364     		str	r3, [r2, #64]	@ tmp119, _4->FIFO_CLR
 506              	.L72:
 507              	@ .\driver\src\i2c_va108xx.c:567: }
 557:.\driver\src/i2c_va108xx.c **** 
 558:.\driver\src/i2c_va108xx.c ****   } else {
 559:.\driver\src/i2c_va108xx.c **** 	i2c->reg->S0_MAXWORDS = 0;
 560:.\driver\src/i2c_va108xx.c **** 	// Configure Address
 561:.\driver\src/i2c_va108xx.c **** 	i2c->reg->S0_ADDRESS = 0;
 562:.\driver\src/i2c_va108xx.c ****     // Clear TX Fifo
 563:.\driver\src/i2c_va108xx.c **** 	i2c->reg->S0_FIFO_CLR = 0x3;
 564:.\driver\src/i2c_va108xx.c **** 	i2c->reg->S0_FIFO_CLR = 0x0;
 565:.\driver\src/i2c_va108xx.c ****   }	
 566:.\driver\src/i2c_va108xx.c ****   return VOR_DRIVER_OK;						
 567:.\driver\src/i2c_va108xx.c **** }
 508              		.loc 1 567 0
 509 0178 0020     		movs	r0, #0	@,
 510              		@ sp needed	@
 511 017a 10BD     		pop	{r4, pc}
 512              	.L71:
 513              	@ .\driver\src\i2c_va108xx.c:559: 	i2c->reg->S0_MAXWORDS = 0;
 559:.\driver\src/i2c_va108xx.c **** 	// Configure Address
 514              		.loc 1 559 0
 515 017c 8B60     		str	r3, [r1, #8]	@ tmp119, _4->S0_MAXWORDS
 516              	@ .\driver\src\i2c_va108xx.c:561: 	i2c->reg->S0_ADDRESS = 0;
 561:.\driver\src/i2c_va108xx.c ****     // Clear TX Fifo
 517              		.loc 1 561 0
 518 017e CB60     		str	r3, [r1, #12]	@ tmp119, _4->S0_ADDRESS
 519              	@ .\driver\src\i2c_va108xx.c:563: 	i2c->reg->S0_FIFO_CLR = 0x3;
 563:.\driver\src/i2c_va108xx.c **** 	i2c->reg->S0_FIFO_CLR = 0x0;
 520              		.loc 1 563 0
 521 0180 4864     		str	r0, [r1, #68]	@ tmp136, _4->S0_FIFO_CLR
 522              	@ .\driver\src\i2c_va108xx.c:564: 	i2c->reg->S0_FIFO_CLR = 0x0;
 564:.\driver\src/i2c_va108xx.c ****   }	
 523              		.loc 1 564 0
 524 0182 4B64     		str	r3, [r1, #68]	@ tmp119, _4->S0_FIFO_CLR
 525 0184 F8E7     		b	.L72	@
 526              		.cfi_endproc
 527              	.LFE59:
 528              		.size	VOR_I2C_Stop, .-VOR_I2C_Stop
 529              		.align	1
 530              		.global	VOR_I2Cx_GetVersion
 531              		.syntax unified
 532              		.code	16
 533              		.thumb_func
 534              		.fpu softvfp
 535              		.type	VOR_I2Cx_GetVersion, %function
 536              	VOR_I2Cx_GetVersion:
 537              	.LFB37:
  48:.\driver\src/i2c_va108xx.c ****   return i2c_driver_version;
ARM GAS  C:\Users\claym\AppData\Local\Temp\ccxpUFUu.s 			page 21


 538              		.loc 1 48 0
 539              		.cfi_startproc
 540              		@ args = 0, pretend = 0, frame = 8
 541              		@ frame_needed = 0, uses_anonymous_args = 0
 542 0186 13B5     		push	{r0, r1, r4, lr}	@
 543              	.LCFI2:
 544              		.cfi_def_cfa_offset 16
 545              		.cfi_offset 0, -16
 546              		.cfi_offset 1, -12
 547              		.cfi_offset 4, -8
 548              		.cfi_offset 14, -4
 549              	@ .\driver\src\i2c_va108xx.c:49:   return i2c_driver_version;
  49:.\driver\src/i2c_va108xx.c **** }
 550              		.loc 1 49 0
 551 0188 01AC     		add	r4, sp, #4	@ tmp111,,
 552 018a 0422     		movs	r2, #4	@,
 553 018c 0449     		ldr	r1, .L74	@,
 554 018e 2000     		movs	r0, r4	@, tmp111
 555 0190 FFF7FEFF 		bl	memcpy	@
 556              	.LVL25:
 557 0194 6388     		ldrh	r3, [r4, #2]	@ D.6665, D.6665
 558 0196 2088     		ldrh	r0, [r4]	@ tmp128, D.6665
 559 0198 1B04     		lsls	r3, r3, #16	@ tmp127, D.6665,
 560 019a 1843     		orrs	r0, r3	@ tmp130, tmp127
 561              	@ .\driver\src\i2c_va108xx.c:50: }
  50:.\driver\src/i2c_va108xx.c **** 
 562              		.loc 1 50 0
 563              		@ sp needed	@
 564 019c 16BD     		pop	{r1, r2, r4, pc}
 565              	.L75:
 566 019e C046     		.align	2
 567              	.L74:
 568 01a0 00000000 		.word	.LANCHOR0
 569              		.cfi_endproc
 570              	.LFE37:
 571              		.size	VOR_I2Cx_GetVersion, .-VOR_I2Cx_GetVersion
 572              		.align	1
 573              		.global	VOR_I2C_Initialize
 574              		.syntax unified
 575              		.code	16
 576              		.thumb_func
 577              		.fpu softvfp
 578              		.type	VOR_I2C_Initialize, %function
 579              	VOR_I2C_Initialize:
 580              	.LFB38:
  61:.\driver\src/i2c_va108xx.c **** 
 581              		.loc 1 61 0
 582              		.cfi_startproc
 583              		@ args = 0, pretend = 0, frame = 0
 584              		@ frame_needed = 0, uses_anonymous_args = 0
 585              	.LVL26:
 586 01a4 70B5     		push	{r4, r5, r6, lr}	@
 587              	.LCFI3:
 588              		.cfi_def_cfa_offset 16
 589              		.cfi_offset 4, -16
 590              		.cfi_offset 5, -12
 591              		.cfi_offset 6, -8
ARM GAS  C:\Users\claym\AppData\Local\Temp\ccxpUFUu.s 			page 22


 592              		.cfi_offset 14, -4
 593              	@ .\driver\src\i2c_va108xx.c:61: int32_t VOR_I2C_Initialize (VOR_I2C_SignalEvent_t cb_event, I2C_RE
  61:.\driver\src/i2c_va108xx.c **** 
 594              		.loc 1 61 0
 595 01a6 0C1E     		subs	r4, r1, #0	@ i2c, i2c,
 596              	@ .\driver\src\i2c_va108xx.c:63:   if((i2c == NULL) || (i2c->reg ==NULL))
  63:.\driver\src/i2c_va108xx.c **** 	return VOR_DRIVER_ERROR_PARAMETER;
 597              		.loc 1 63 0
 598 01a8 17D0     		beq	.L79	@,
 599              	@ .\driver\src\i2c_va108xx.c:63:   if((i2c == NULL) || (i2c->reg ==NULL))
  63:.\driver\src/i2c_va108xx.c **** 	return VOR_DRIVER_ERROR_PARAMETER;
 600              		.loc 1 63 0 is_stmt 0 discriminator 1
 601 01aa 4B68     		ldr	r3, [r1, #4]	@ tmp142, i2c_10(D)->reg
 602 01ac 002B     		cmp	r3, #0	@ tmp142,
 603 01ae 14D0     		beq	.L79	@,
 604              	@ .\driver\src\i2c_va108xx.c:66:   if (i2c->info.flags & I2C_FLAG_INIT) {
  66:.\driver\src/i2c_va108xx.c ****     /* Driver already initialized */
 605              		.loc 1 66 0 is_stmt 1
 606 01b0 0123     		movs	r3, #1	@ tmp123,
 607 01b2 4D69     		ldr	r5, [r1, #20]	@ tmp121, i2c_10(D)->info.flags
 608 01b4 1D40     		ands	r5, r3	@ tmp121, tmp123
 609 01b6 13D1     		bne	.L80	@,
 610              	@ .\driver\src\i2c_va108xx.c:73:   i2c->info.cb_event = cb_event;
  73:.\driver\src/i2c_va108xx.c **** 
 611              		.loc 1 73 0
 612 01b8 C860     		str	r0, [r1, #12]	@ cb_event, i2c_10(D)->info.cb_event
 613              	@ .\driver\src\i2c_va108xx.c:76:   memset(&i2c->info.status, 0, sizeof(VOR_I2C_STATUS));
  76:.\driver\src/i2c_va108xx.c **** 
 614              		.loc 1 76 0
 615 01ba 0800     		movs	r0, r1	@ tmp125, i2c
 616              	.LVL27:
 617              	@ .\driver\src\i2c_va108xx.c:70:   i2c->info.flags = I2C_FLAG_INIT;
  70:.\driver\src/i2c_va108xx.c **** 
 618              		.loc 1 70 0
 619 01bc 4B61     		str	r3, [r1, #20]	@ tmp123, i2c_10(D)->info.flags
 620              	@ .\driver\src\i2c_va108xx.c:76:   memset(&i2c->info.status, 0, sizeof(VOR_I2C_STATUS));
  76:.\driver\src/i2c_va108xx.c **** 
 621              		.loc 1 76 0
 622 01be 0422     		movs	r2, #4	@,
 623 01c0 2900     		movs	r1, r5	@, tmp121
 624              	.LVL28:
 625 01c2 1030     		adds	r0, r0, #16	@ tmp125,
 626              	.LVL29:
 627 01c4 FFF7FEFF 		bl	memset	@
 628              	.LVL30:
 629              	@ .\driver\src\i2c_va108xx.c:79: 	VOR_SYSCONFIG->PERIPHERAL_CLK_ENABLE |=  i2c->i2cClkEn; 
  79:.\driver\src/i2c_va108xx.c **** 	
 630              		.loc 1 79 0
 631 01c8 8022     		movs	r2, #128	@ tmp131,
 632              	@ .\driver\src\i2c_va108xx.c:81:   return VOR_DRIVER_OK;
  81:.\driver\src/i2c_va108xx.c **** }
 633              		.loc 1 81 0
 634 01ca 2800     		movs	r0, r5	@ <retval>, tmp121
 635              	@ .\driver\src\i2c_va108xx.c:79: 	VOR_SYSCONFIG->PERIPHERAL_CLK_ENABLE |=  i2c->i2cClkEn; 
  79:.\driver\src/i2c_va108xx.c **** 	
 636              		.loc 1 79 0
 637 01cc D205     		lsls	r2, r2, #23	@ tmp131, tmp131,
ARM GAS  C:\Users\claym\AppData\Local\Temp\ccxpUFUu.s 			page 23


 638 01ce E434     		adds	r4, r4, #228	@ tmp134,
 639              	.LVL31:
 640 01d0 D36F     		ldr	r3, [r2, #124]	@ _5, MEM[(struct VOR_SYSCONFIG_Type *)1073741824B].PERIPHERAL_CLK_ENABLE
 641 01d2 2168     		ldr	r1, [r4]	@ i2c_10(D)->i2cClkEn, i2c_10(D)->i2cClkEn
 642 01d4 0B43     		orrs	r3, r1	@ _7, i2c_10(D)->i2cClkEn
 643 01d6 D367     		str	r3, [r2, #124]	@ _7, MEM[(struct VOR_SYSCONFIG_Type *)1073741824B].PERIPHERAL_CLK_ENABLE
 644              	.LVL32:
 645              	.L76:
 646              	@ .\driver\src\i2c_va108xx.c:82: }
  82:.\driver\src/i2c_va108xx.c **** 
 647              		.loc 1 82 0
 648              		@ sp needed	@
 649 01d8 70BD     		pop	{r4, r5, r6, pc}
 650              	.LVL33:
 651              	.L79:
 652              	@ .\driver\src\i2c_va108xx.c:64: 	return VOR_DRIVER_ERROR_PARAMETER;
  64:.\driver\src/i2c_va108xx.c **** 
 653              		.loc 1 64 0
 654 01da 0520     		movs	r0, #5	@ <retval>,
 655              	.LVL34:
 656              	.L81:
 657              	@ .\driver\src\i2c_va108xx.c:68:     return VOR_I2C_ERROR_MULTIPLEINIT;
  68:.\driver\src/i2c_va108xx.c ****   }
 658              		.loc 1 68 0
 659 01dc 4042     		rsbs	r0, r0, #0	@ <retval>, <retval>
 660 01de FBE7     		b	.L76	@
 661              	.LVL35:
 662              	.L80:
 663 01e0 0B20     		movs	r0, #11	@ <retval>,
 664              	.LVL36:
 665 01e2 FBE7     		b	.L81	@
 666              		.cfi_endproc
 667              	.LFE38:
 668              		.size	VOR_I2C_Initialize, .-VOR_I2C_Initialize
 669              		.align	1
 670              		.global	VOR_I2C_Uninitialize
 671              		.syntax unified
 672              		.code	16
 673              		.thumb_func
 674              		.fpu softvfp
 675              		.type	VOR_I2C_Uninitialize, %function
 676              	VOR_I2C_Uninitialize:
 677              	.LFB39:
  90:.\driver\src/i2c_va108xx.c **** 
 678              		.loc 1 90 0
 679              		.cfi_startproc
 680              		@ args = 0, pretend = 0, frame = 0
 681              		@ frame_needed = 0, uses_anonymous_args = 0
 682              		@ link register save eliminated.
 683              	.LVL37:
 684              	@ .\driver\src\i2c_va108xx.c:92:   if (!(i2c->info.flags & I2C_FLAG_INIT)) {
  92:.\driver\src/i2c_va108xx.c ****     /* Driver not initialized */
 685              		.loc 1 92 0
 686 01e4 4369     		ldr	r3, [r0, #20]	@ tmp133, i2c_9(D)->info.flags
 687 01e6 DB07     		lsls	r3, r3, #31	@ tmp132, tmp133,
 688 01e8 09D5     		bpl	.L83	@,
 689              	@ .\driver\src\i2c_va108xx.c:96:   i2c->info.flags = 0;
ARM GAS  C:\Users\claym\AppData\Local\Temp\ccxpUFUu.s 			page 24


  96:.\driver\src/i2c_va108xx.c ****   i2c->info.cb_event = NULL;
 690              		.loc 1 96 0
 691 01ea 0023     		movs	r3, #0	@ tmp121,
 692              	@ .\driver\src\i2c_va108xx.c:99:   VOR_SYSCONFIG->PERIPHERAL_CLK_ENABLE &=  ~i2c->i2cClkEn; 
  99:.\driver\src/i2c_va108xx.c ****   return VOR_DRIVER_OK;
 693              		.loc 1 99 0
 694 01ec 8022     		movs	r2, #128	@ tmp123,
 695              	@ .\driver\src\i2c_va108xx.c:96:   i2c->info.flags = 0;
  96:.\driver\src/i2c_va108xx.c ****   i2c->info.cb_event = NULL;
 696              		.loc 1 96 0
 697 01ee 4361     		str	r3, [r0, #20]	@ tmp121, i2c_9(D)->info.flags
 698              	@ .\driver\src\i2c_va108xx.c:97:   i2c->info.cb_event = NULL;
  97:.\driver\src/i2c_va108xx.c **** 
 699              		.loc 1 97 0
 700 01f0 C360     		str	r3, [r0, #12]	@ tmp121, i2c_9(D)->info.cb_event
 701              	@ .\driver\src\i2c_va108xx.c:99:   VOR_SYSCONFIG->PERIPHERAL_CLK_ENABLE &=  ~i2c->i2cClkEn; 
  99:.\driver\src/i2c_va108xx.c ****   return VOR_DRIVER_OK;
 702              		.loc 1 99 0
 703 01f2 D205     		lsls	r2, r2, #23	@ tmp123, tmp123,
 704 01f4 E430     		adds	r0, r0, #228	@ tmp126,
 705              	.LVL38:
 706 01f6 D36F     		ldr	r3, [r2, #124]	@ _3, MEM[(struct VOR_SYSCONFIG_Type *)1073741824B].PERIPHERAL_CLK_ENABLE
 707 01f8 0168     		ldr	r1, [r0]	@ i2c_9(D)->i2cClkEn, i2c_9(D)->i2cClkEn
 708 01fa 8B43     		bics	r3, r1	@ _6, i2c_9(D)->i2cClkEn
 709 01fc D367     		str	r3, [r2, #124]	@ _6, MEM[(struct VOR_SYSCONFIG_Type *)1073741824B].PERIPHERAL_CLK_ENABLE
 710              	.LVL39:
 711              	.L83:
 712              	@ .\driver\src\i2c_va108xx.c:101: }
 101:.\driver\src/i2c_va108xx.c **** 
 713              		.loc 1 101 0
 714 01fe 0020     		movs	r0, #0	@,
 715              		@ sp needed	@
 716 0200 7047     		bx	lr
 717              		.cfi_endproc
 718              	.LFE39:
 719              		.size	VOR_I2C_Uninitialize, .-VOR_I2C_Uninitialize
 720              		.align	1
 721              		.global	VOR_I2C_abort_transfer
 722              		.syntax unified
 723              		.code	16
 724              		.thumb_func
 725              		.fpu softvfp
 726              		.type	VOR_I2C_abort_transfer, %function
 727              	VOR_I2C_abort_transfer:
 728              	.LFB55:
 332:.\driver\src/i2c_va108xx.c ****   VOR_Disable_Irq(VOR_IRQ_I2C_MS, i2c->i2cId);
 729              		.loc 1 332 0
 730              		.cfi_startproc
 731              		@ args = 0, pretend = 0, frame = 0
 732              		@ frame_needed = 0, uses_anonymous_args = 0
 733              	.LVL40:
 734 0202 10B5     		push	{r4, lr}	@
 735              	.LCFI4:
 736              		.cfi_def_cfa_offset 8
 737              		.cfi_offset 4, -8
 738              		.cfi_offset 14, -4
 739              	@ .\driver\src\i2c_va108xx.c:332: int32_t VOR_I2C_abort_transfer(uint32_t       arg, I2C_RESOURCES 
ARM GAS  C:\Users\claym\AppData\Local\Temp\ccxpUFUu.s 			page 25


 332:.\driver\src/i2c_va108xx.c ****   VOR_Disable_Irq(VOR_IRQ_I2C_MS, i2c->i2cId);
 740              		.loc 1 332 0
 741 0204 0C00     		movs	r4, r1	@ i2c, i2c
 742              	@ .\driver\src\i2c_va108xx.c:333:   VOR_Disable_Irq(VOR_IRQ_I2C_MS, i2c->i2cId);
 333:.\driver\src/i2c_va108xx.c ****   VOR_Disable_Irq(VOR_IRQ_I2C_SL, i2c->i2cId);
 743              		.loc 1 333 0
 744 0206 0520     		movs	r0, #5	@,
 745              	.LVL41:
 746 0208 0968     		ldr	r1, [r1]	@, i2c_9(D)->i2cId
 747              	.LVL42:
 748 020a FFF7FEFF 		bl	VOR_Disable_Irq	@
 749              	.LVL43:
 750              	@ .\driver\src\i2c_va108xx.c:334:   VOR_Disable_Irq(VOR_IRQ_I2C_SL, i2c->i2cId);
 334:.\driver\src/i2c_va108xx.c **** 	i2c->reg->IRQ_ENB = 0;
 751              		.loc 1 334 0
 752 020e 2168     		ldr	r1, [r4]	@, i2c_9(D)->i2cId
 753 0210 0620     		movs	r0, #6	@,
 754 0212 FFF7FEFF 		bl	VOR_Disable_Irq	@
 755              	.LVL44:
 756              	@ .\driver\src\i2c_va108xx.c:335: 	i2c->reg->IRQ_ENB = 0;
 335:.\driver\src/i2c_va108xx.c **** 	i2c->reg->S0_IRQ_ENB = 0;
 757              		.loc 1 335 0
 758 0216 6368     		ldr	r3, [r4, #4]	@ _3, i2c_9(D)->reg
 759              	@ .\driver\src\i2c_va108xx.c:338: 	i2c->reg->FIFO_CLR = 0xffffffff;
 338:.\driver\src/i2c_va108xx.c **** 	i2c->reg->S0_FIFO_CLR = 0xffffffff;
 760              		.loc 1 338 0
 761 0218 0121     		movs	r1, #1	@ tmp123,
 762              	@ .\driver\src\i2c_va108xx.c:336: 	i2c->reg->S0_IRQ_ENB = 0;
 336:.\driver\src/i2c_va108xx.c **** 	// Clear FIFO
 763              		.loc 1 336 0
 764 021a 1A00     		movs	r2, r3	@ tmp121, _3
 765              	@ .\driver\src\i2c_va108xx.c:335: 	i2c->reg->IRQ_ENB = 0;
 335:.\driver\src/i2c_va108xx.c **** 	i2c->reg->S0_IRQ_ENB = 0;
 766              		.loc 1 335 0
 767 021c 0020     		movs	r0, #0	@ tmp120,
 768              	@ .\driver\src\i2c_va108xx.c:340: 	i2c->reg->CTRL    &=  ~I2C_PERIPHERAL_CTRL_ENABLE_Msk;
 340:.\driver\src/i2c_va108xx.c **** 	i2c->reg->S0_CTRL &=  ~I2C_PERIPHERAL_S0_CTRL_ENABLE_Msk;
 769              		.loc 1 340 0
 770 021e 0424     		movs	r4, #4	@ tmp126,
 771              	.LVL45:
 772              	@ .\driver\src\i2c_va108xx.c:336: 	i2c->reg->S0_IRQ_ENB = 0;
 336:.\driver\src/i2c_va108xx.c **** 	// Clear FIFO
 773              		.loc 1 336 0
 774 0220 FC32     		adds	r2, r2, #252	@ tmp121,
 775              	@ .\driver\src\i2c_va108xx.c:338: 	i2c->reg->FIFO_CLR = 0xffffffff;
 338:.\driver\src/i2c_va108xx.c **** 	i2c->reg->S0_FIFO_CLR = 0xffffffff;
 776              		.loc 1 338 0
 777 0222 4942     		rsbs	r1, r1, #0	@ tmp123, tmp123
 778              	@ .\driver\src\i2c_va108xx.c:335: 	i2c->reg->IRQ_ENB = 0;
 335:.\driver\src/i2c_va108xx.c **** 	i2c->reg->S0_IRQ_ENB = 0;
 779              		.loc 1 335 0
 780 0224 9862     		str	r0, [r3, #40]	@ tmp120, _3->IRQ_ENB
 781              	@ .\driver\src\i2c_va108xx.c:336: 	i2c->reg->S0_IRQ_ENB = 0;
 336:.\driver\src/i2c_va108xx.c **** 	// Clear FIFO
 782              		.loc 1 336 0
 783 0226 D062     		str	r0, [r2, #44]	@ tmp120, _3->S0_IRQ_ENB
 784              	@ .\driver\src\i2c_va108xx.c:338: 	i2c->reg->FIFO_CLR = 0xffffffff;
ARM GAS  C:\Users\claym\AppData\Local\Temp\ccxpUFUu.s 			page 26


 338:.\driver\src/i2c_va108xx.c **** 	i2c->reg->S0_FIFO_CLR = 0xffffffff;
 785              		.loc 1 338 0
 786 0228 1964     		str	r1, [r3, #64]	@ tmp123, _3->FIFO_CLR
 787              	@ .\driver\src\i2c_va108xx.c:339: 	i2c->reg->S0_FIFO_CLR = 0xffffffff;
 339:.\driver\src/i2c_va108xx.c **** 	i2c->reg->CTRL    &=  ~I2C_PERIPHERAL_CTRL_ENABLE_Msk;
 788              		.loc 1 339 0
 789 022a 5164     		str	r1, [r2, #68]	@ tmp123, _3->S0_FIFO_CLR
 790              	@ .\driver\src\i2c_va108xx.c:340: 	i2c->reg->CTRL    &=  ~I2C_PERIPHERAL_CTRL_ENABLE_Msk;
 340:.\driver\src/i2c_va108xx.c **** 	i2c->reg->S0_CTRL &=  ~I2C_PERIPHERAL_S0_CTRL_ENABLE_Msk;
 791              		.loc 1 340 0
 792 022c 1968     		ldr	r1, [r3]	@ _4, _3->CTRL
 793              	@ .\driver\src\i2c_va108xx.c:343: }
 343:.\driver\src/i2c_va108xx.c **** 
 794              		.loc 1 343 0
 795              		@ sp needed	@
 796              	@ .\driver\src\i2c_va108xx.c:340: 	i2c->reg->CTRL    &=  ~I2C_PERIPHERAL_CTRL_ENABLE_Msk;
 340:.\driver\src/i2c_va108xx.c **** 	i2c->reg->S0_CTRL &=  ~I2C_PERIPHERAL_S0_CTRL_ENABLE_Msk;
 797              		.loc 1 340 0
 798 022e A143     		bics	r1, r4	@ _5, tmp126
 799 0230 1960     		str	r1, [r3]	@ _5, _3->CTRL
 800              	@ .\driver\src\i2c_va108xx.c:341: 	i2c->reg->S0_CTRL &=  ~I2C_PERIPHERAL_S0_CTRL_ENABLE_Msk;
 341:.\driver\src/i2c_va108xx.c ****   return VOR_DRIVER_OK;
 801              		.loc 1 341 0
 802 0232 5368     		ldr	r3, [r2, #4]	@ _6, _3->S0_CTRL
 803 0234 A343     		bics	r3, r4	@ _7, tmp126
 804 0236 5360     		str	r3, [r2, #4]	@ _7, _3->S0_CTRL
 805              	@ .\driver\src\i2c_va108xx.c:343: }
 343:.\driver\src/i2c_va108xx.c **** 
 806              		.loc 1 343 0
 807 0238 10BD     		pop	{r4, pc}
 808              		.cfi_endproc
 809              	.LFE55:
 810              		.size	VOR_I2C_abort_transfer, .-VOR_I2C_abort_transfer
 811              		.global	__aeabi_uidiv
 812              		.align	1
 813              		.global	VOR_I2C_Control
 814              		.syntax unified
 815              		.code	16
 816              		.thumb_func
 817              		.fpu softvfp
 818              		.type	VOR_I2C_Control, %function
 819              	VOR_I2C_Control:
 820              	.LFB56:
 355:.\driver\src/i2c_va108xx.c **** 
 821              		.loc 1 355 0
 822              		.cfi_startproc
 823              		@ args = 0, pretend = 0, frame = 0
 824              		@ frame_needed = 0, uses_anonymous_args = 0
 825              	.LVL46:
 826 023a 70B5     		push	{r4, r5, r6, lr}	@
 827              	.LCFI5:
 828              		.cfi_def_cfa_offset 16
 829              		.cfi_offset 4, -16
 830              		.cfi_offset 5, -12
 831              		.cfi_offset 6, -8
 832              		.cfi_offset 14, -4
 833              	@ .\driver\src\i2c_va108xx.c:355: int32_t VOR_I2C_Control (uint32_t control, uint32_t arg, I2C_RESO
ARM GAS  C:\Users\claym\AppData\Local\Temp\ccxpUFUu.s 			page 27


 355:.\driver\src/i2c_va108xx.c **** 
 834              		.loc 1 355 0
 835 023c 0C00     		movs	r4, r1	@ arg, arg
 836 023e 151E     		subs	r5, r2, #0	@ i2c, i2c,
 837              	@ .\driver\src\i2c_va108xx.c:357:   if((i2c == NULL) || (i2c->reg ==NULL))
 357:.\driver\src/i2c_va108xx.c **** 	return VOR_DRIVER_ERROR_PARAMETER;
 838              		.loc 1 357 0
 839 0240 62D0     		beq	.L112	@,
 840              	@ .\driver\src\i2c_va108xx.c:357:   if((i2c == NULL) || (i2c->reg ==NULL))
 357:.\driver\src/i2c_va108xx.c **** 	return VOR_DRIVER_ERROR_PARAMETER;
 841              		.loc 1 357 0 is_stmt 0 discriminator 1
 842 0242 5368     		ldr	r3, [r2, #4]	@ _1, i2c_4(D)->reg
 843 0244 002B     		cmp	r3, #0	@ _1,
 844 0246 5FD0     		beq	.L112	@,
 845              	@ .\driver\src\i2c_va108xx.c:361:   switch (control) {
 361:.\driver\src/i2c_va108xx.c **** 	case VOR_I2C_DRV_POLL            : return VOR_I2C_Drv_Mode(arg,i2c);
 846              		.loc 1 361 0 is_stmt 1
 847 0248 0138     		subs	r0, r0, #1	@ tmp131,
 848              	.LVL47:
 849 024a 0F28     		cmp	r0, #15	@ tmp131,
 850 024c 5FD8     		bhi	.L113	@,
 851 024e FFF7FEFF 		bl	__gnu_thumb1_case_uqi
 852              	.L91:
 853 0252 08       		.byte	(.L90-.L91)/2
 854 0253 0B       		.byte	(.L92-.L91)/2
 855 0254 0D       		.byte	(.L93-.L91)/2
 856 0255 29       		.byte	(.L94-.L91)/2
 857 0256 2B       		.byte	(.L95-.L91)/2
 858 0257 2D       		.byte	(.L96-.L91)/2
 859 0258 3A       		.byte	(.L97-.L91)/2
 860 0259 46       		.byte	(.L98-.L91)/2
 861 025a 4B       		.byte	(.L99-.L91)/2
 862 025b 4D       		.byte	(.L100-.L91)/2
 863 025c 4F       		.byte	(.L101-.L91)/2
 864 025d 51       		.byte	(.L102-.L91)/2
 865 025e 53       		.byte	(.L103-.L91)/2
 866 025f 55       		.byte	(.L104-.L91)/2
 867 0260 57       		.byte	(.L105-.L91)/2
 868 0261 59       		.byte	(.L106-.L91)/2
 869              		.p2align 1
 870              	.L90:
 871              	.LVL48:
 872              	.LBB82:
 873              	.LBB83:
 874              	@ .\driver\src\i2c_va108xx.c:112:   i2c->info.poll_mode = arg;
 112:.\driver\src/i2c_va108xx.c ****   return VOR_DRIVER_OK;
 875              		.loc 1 112 0
 876 0262 A961     		str	r1, [r5, #24]	@ arg, MEM[(uint32_t *)i2c_4(D) + 24B]
 877              	.LVL49:
 878              	.L117:
 879              	.LBE83:
 880              	.LBE82:
 881              	@ .\driver\src\i2c_va108xx.c:377: 	case VOR_I2C_TMCONFIG            : return VOR_I2C_TmConfig(arg,i
 377:.\driver\src/i2c_va108xx.c **** 	default                          : return VOR_I2C_ERROR_CTRL;
 882              		.loc 1 377 0
 883 0264 0020     		movs	r0, #0	@ <retval>,
 884 0266 29E0     		b	.L88	@
ARM GAS  C:\Users\claym\AppData\Local\Temp\ccxpUFUu.s 			page 28


 885              	.LVL50:
 886              	.L92:
 887              	.LBB84:
 888              	.LBB85:
 889              	@ .\driver\src\i2c_va108xx.c:125:   i2c->info.poll_tout = arg;
 125:.\driver\src/i2c_va108xx.c ****   return VOR_DRIVER_OK;
 890              		.loc 1 125 0
 891 0268 E961     		str	r1, [r5, #28]	@ arg, MEM[(uint32_t *)i2c_4(D) + 28B]
 892              	.LVL51:
 893 026a FBE7     		b	.L117	@
 894              	.LVL52:
 895              	.L93:
 896              	.LBE85:
 897              	.LBE84:
 898              	.LBB86:
 899              	.LBB87:
 900              	@ .\driver\src\i2c_va108xx.c:140:   switch (arg) {
 140:.\driver\src/i2c_va108xx.c **** 	case VOR_I2C_BUS_SPEED_STANDARD :
 901              		.loc 1 140 0
 902 026c 0129     		cmp	r1, #1	@ arg,
 903 026e 03D0     		beq	.L107	@,
 904 0270 0229     		cmp	r1, #2	@ arg,
 905 0272 0BD0     		beq	.L108	@,
 906              	@ .\driver\src\i2c_va108xx.c:151: 	default                         : return VOR_DRIVER_ERROR_UNSUPP
 151:.\driver\src/i2c_va108xx.c ****   };
 907              		.loc 1 151 0
 908 0274 0420     		movs	r0, #4	@ <retval>,
 909 0276 48E0     		b	.L116	@
 910              	.L107:
 911              	@ .\driver\src\i2c_va108xx.c:142: 				clkscale = 	((VOR_Get_ClockFreq() / I2C_STD_SPEED_CLK) / I2C_
 142:.\driver\src/i2c_va108xx.c **** 				i2c->reg->CLKSCALE = clkscale;
 912              		.loc 1 142 0
 913 0278 FFF7FEFF 		bl	VOR_Get_ClockFreq	@
 914              	.LVL53:
 915 027c 2549     		ldr	r1, .L120	@,
 916 027e FFF7FEFF 		bl	__aeabi_uidiv	@
 917              	.LVL54:
 918              	@ .\driver\src\i2c_va108xx.c:143: 				i2c->reg->CLKSCALE = clkscale;
 143:.\driver\src/i2c_va108xx.c **** 				i2c->info.speed = arg; 
 919              		.loc 1 143 0
 920 0282 6B68     		ldr	r3, [r5, #4]	@ _31, i2c_4(D)->reg
 921              	@ .\driver\src\i2c_va108xx.c:142: 				clkscale = 	((VOR_Get_ClockFreq() / I2C_STD_SPEED_CLK) / I2C_
 142:.\driver\src/i2c_va108xx.c **** 				i2c->reg->CLKSCALE = clkscale;
 922              		.loc 1 142 0
 923 0284 0138     		subs	r0, r0, #1	@ clkscale,
 924              	.LVL55:
 925              	@ .\driver\src\i2c_va108xx.c:143: 				i2c->reg->CLKSCALE = clkscale;
 143:.\driver\src/i2c_va108xx.c **** 				i2c->info.speed = arg; 
 926              		.loc 1 143 0
 927 0286 5860     		str	r0, [r3, #4]	@ clkscale, _31->CLKSCALE
 928              	.LVL56:
 929              	.L119:
 930              	@ .\driver\src\i2c_va108xx.c:149: 	            i2c->info.speed = arg; 
 149:.\driver\src/i2c_va108xx.c **** 				break;
 931              		.loc 1 149 0
 932 0288 2C62     		str	r4, [r5, #32]	@ arg, i2c_4(D)->info.speed
 933 028a EBE7     		b	.L117	@
ARM GAS  C:\Users\claym\AppData\Local\Temp\ccxpUFUu.s 			page 29


 934              	.LVL57:
 935              	.L108:
 936              	@ .\driver\src\i2c_va108xx.c:147: 	      clkscale = 	((VOR_Get_ClockFreq() / I2C_FAST_SPEED_CLK) / 
 147:.\driver\src/i2c_va108xx.c **** 				i2c->reg->CLKSCALE = (clkscale | I2C_PERIPHERAL_CLKSCALE_FASTMODE_Msk);
 937              		.loc 1 147 0
 938 028c FFF7FEFF 		bl	VOR_Get_ClockFreq	@
 939              	.LVL58:
 940 0290 2149     		ldr	r1, .L120+4	@,
 941 0292 FFF7FEFF 		bl	__aeabi_uidiv	@
 942              	.LVL59:
 943 0296 431E     		subs	r3, r0, #1	@ clkscale, tmp140,
 944              	@ .\driver\src\i2c_va108xx.c:148: 				i2c->reg->CLKSCALE = (clkscale | I2C_PERIPHERAL_CLKSCALE_FAST
 148:.\driver\src/i2c_va108xx.c **** 	            i2c->info.speed = arg; 
 945              		.loc 1 148 0
 946 0298 8020     		movs	r0, #128	@ tmp142,
 947 029a 6E68     		ldr	r6, [r5, #4]	@ _35, i2c_4(D)->reg
 948 029c 0006     		lsls	r0, r0, #24	@ tmp142, tmp142,
 949 029e 1843     		orrs	r0, r3	@ _36, clkscale
 950 02a0 7060     		str	r0, [r6, #4]	@ _36, _35->CLKSCALE
 951 02a2 F1E7     		b	.L119	@
 952              	.LVL60:
 953              	.L94:
 954              	.LBE87:
 955              	.LBE86:
 956              	.LBB89:
 957              	.LBB90:
 958              	@ .\driver\src\i2c_va108xx.c:166:   i2c->info.slv_addr = arg;
 166:.\driver\src/i2c_va108xx.c ****   return VOR_DRIVER_OK;
 959              		.loc 1 166 0
 960 02a4 6962     		str	r1, [r5, #36]	@ arg, MEM[(uint32_t *)i2c_4(D) + 36B]
 961              	.LVL61:
 962 02a6 DDE7     		b	.L117	@
 963              	.LVL62:
 964              	.L95:
 965              	.LBE90:
 966              	.LBE89:
 967              	.LBB91:
 968              	.LBB92:
 969              	@ .\driver\src\i2c_va108xx.c:179:   i2c->info.addr_mode = arg;
 179:.\driver\src/i2c_va108xx.c ****   return VOR_DRIVER_OK;
 970              		.loc 1 179 0
 971 02a8 A962     		str	r1, [r5, #40]	@ arg, MEM[(uint32_t *)i2c_4(D) + 40B]
 972              	.LVL63:
 973 02aa DBE7     		b	.L117	@
 974              	.LVL64:
 975              	.L96:
 976 02ac 0320     		movs	r0, #3	@ tmp144,
 977              	.LBE92:
 978              	.LBE91:
 979              	.LBB93:
 980              	.LBB94:
 981              	@ .\driver\src\i2c_va108xx.c:193:   if(i2c->info.status.mode) {
 193:.\driver\src/i2c_va108xx.c **** 	i2c->reg->FIFO_CLR     = (arg & 0x3);
 982              		.loc 1 193 0
 983 02ae 527C     		ldrb	r2, [r2, #17]	@ *i2c_4(D), *i2c_4(D)
 984              	.LVL65:
 985 02b0 0440     		ands	r4, r0	@ _52, tmp144
ARM GAS  C:\Users\claym\AppData\Local\Temp\ccxpUFUu.s 			page 30


 986 02b2 0020     		movs	r0, #0	@ tmp153,
 987 02b4 7F2A     		cmp	r2, #127	@ *i2c_4(D),
 988 02b6 02D9     		bls	.L109	@,
 989              	@ .\driver\src\i2c_va108xx.c:194: 	i2c->reg->FIFO_CLR     = (arg & 0x3);
 194:.\driver\src/i2c_va108xx.c **** 	i2c->reg->FIFO_CLR     = 0;
 990              		.loc 1 194 0
 991 02b8 1C64     		str	r4, [r3, #64]	@ _52, _1->FIFO_CLR
 992              	@ .\driver\src\i2c_va108xx.c:195: 	i2c->reg->FIFO_CLR     = 0;
 195:.\driver\src/i2c_va108xx.c ****   } else {
 993              		.loc 1 195 0
 994 02ba 1864     		str	r0, [r3, #64]	@ tmp153, _1->FIFO_CLR
 995              	.LVL66:
 996              	.L88:
 997              	.LBE94:
 998              	.LBE93:
 999              	@ .\driver\src\i2c_va108xx.c:380: }
 380:.\driver\src/i2c_va108xx.c **** 
 1000              		.loc 1 380 0
 1001              		@ sp needed	@
 1002              	.LVL67:
 1003 02bc 70BD     		pop	{r4, r5, r6, pc}
 1004              	.LVL68:
 1005              	.L109:
 1006              	.LBB96:
 1007              	.LBB95:
 1008              	@ .\driver\src\i2c_va108xx.c:197: 	i2c->reg->S0_FIFO_CLR = (arg & 0x3);
 197:.\driver\src/i2c_va108xx.c **** 	i2c->reg->S0_FIFO_CLR = 0;
 1009              		.loc 1 197 0
 1010 02be FC33     		adds	r3, r3, #252	@ tmp147,
 1011 02c0 5C64     		str	r4, [r3, #68]	@ _52, _1->S0_FIFO_CLR
 1012              	@ .\driver\src\i2c_va108xx.c:198: 	i2c->reg->S0_FIFO_CLR = 0;
 198:.\driver\src/i2c_va108xx.c ****   }
 1013              		.loc 1 198 0
 1014 02c2 5864     		str	r0, [r3, #68]	@ tmp153, _1->S0_FIFO_CLR
 1015 02c4 FAE7     		b	.L88	@
 1016              	.LVL69:
 1017              	.L97:
 1018              	.LBE95:
 1019              	.LBE96:
 1020              	.LBB97:
 1021              	.LBB98:
 1022              	@ .\driver\src\i2c_va108xx.c:213: 	if(arg)
 213:.\driver\src/i2c_va108xx.c **** 		i2c->reg->CTRL |= I2C_PERIPHERAL_CTRL_LOOPBACK_Msk;
 1023              		.loc 1 213 0
 1024 02c6 0029     		cmp	r1, #0	@ arg,
 1025 02c8 05D0     		beq	.L110	@,
 1026              	@ .\driver\src\i2c_va108xx.c:214: 		i2c->reg->CTRL |= I2C_PERIPHERAL_CTRL_LOOPBACK_Msk;
 214:.\driver\src/i2c_va108xx.c **** 	else
 1027              		.loc 1 214 0
 1028 02ca 8022     		movs	r2, #128	@ tmp150,
 1029              	.LVL70:
 1030 02cc 1968     		ldr	r1, [r3]	@ _45, _1->CTRL
 1031              	.LVL71:
 1032 02ce 5200     		lsls	r2, r2, #1	@ tmp150, tmp150,
 1033 02d0 0A43     		orrs	r2, r1	@ _46, _45
 1034              	.L118:
 1035              	@ .\driver\src\i2c_va108xx.c:216: 		i2c->reg->CTRL &= ~(I2C_PERIPHERAL_CTRL_LOOPBACK_Msk);
ARM GAS  C:\Users\claym\AppData\Local\Temp\ccxpUFUu.s 			page 31


 216:.\driver\src/i2c_va108xx.c ****   return VOR_DRIVER_OK;
 1036              		.loc 1 216 0
 1037 02d2 1A60     		str	r2, [r3]	@ _49,* _1
 1038 02d4 C6E7     		b	.L117	@
 1039              	.LVL72:
 1040              	.L110:
 1041 02d6 1A68     		ldr	r2, [r3]	@ _48, _1->CTRL
 1042              	.LVL73:
 1043 02d8 1049     		ldr	r1, .L120+8	@ tmp151,
 1044              	.LVL74:
 1045 02da 0A40     		ands	r2, r1	@ _49, tmp151
 1046 02dc F9E7     		b	.L118	@
 1047              	.LVL75:
 1048              	.L98:
 1049              	.LBE98:
 1050              	.LBE97:
 1051              	@ .\driver\src\i2c_va108xx.c:369: 	case VOR_I2C_ABORT_TRANSFER      : return VOR_I2C_abort_transfer
 369:.\driver\src/i2c_va108xx.c **** 	case VOR_I2C_TXFEMD_MODE         : return VOR_I2C_Txfemd(arg,i2c);
 1052              		.loc 1 369 0
 1053 02de 1100     		movs	r1, r2	@, i2c
 1054              	.LVL76:
 1055 02e0 2000     		movs	r0, r4	@, arg
 1056 02e2 FFF7FEFF 		bl	VOR_I2C_abort_transfer	@
 1057              	.LVL77:
 1058 02e6 E9E7     		b	.L88	@
 1059              	.LVL78:
 1060              	.L99:
 1061              	.LBB99:
 1062              	.LBB100:
 1063              	@ .\driver\src\i2c_va108xx.c:229:   i2c->info.txfemd = arg;
 229:.\driver\src/i2c_va108xx.c ****   return VOR_DRIVER_OK;
 1064              		.loc 1 229 0
 1065 02e8 2963     		str	r1, [r5, #48]	@ arg, MEM[(uint32_t *)i2c_4(D) + 48B]
 1066              	.LVL79:
 1067 02ea BBE7     		b	.L117	@
 1068              	.LVL80:
 1069              	.L100:
 1070              	.LBE100:
 1071              	.LBE99:
 1072              	.LBB101:
 1073              	.LBB102:
 1074              	@ .\driver\src\i2c_va108xx.c:242:   i2c->info.rxffmd = arg;
 242:.\driver\src/i2c_va108xx.c ****   return VOR_DRIVER_OK;
 1075              		.loc 1 242 0
 1076 02ec 6963     		str	r1, [r5, #52]	@ arg, MEM[(uint32_t *)i2c_4(D) + 52B]
 1077              	.LVL81:
 1078 02ee B9E7     		b	.L117	@
 1079              	.LVL82:
 1080              	.L101:
 1081              	.LBE102:
 1082              	.LBE101:
 1083              	.LBB103:
 1084              	.LBB104:
 1085              	@ .\driver\src\i2c_va108xx.c:255:   i2c->info.algfilter = arg;
 255:.\driver\src/i2c_va108xx.c ****   return VOR_DRIVER_OK;
 1086              		.loc 1 255 0
 1087 02f0 A963     		str	r1, [r5, #56]	@ arg, MEM[(uint32_t *)i2c_4(D) + 56B]
ARM GAS  C:\Users\claym\AppData\Local\Temp\ccxpUFUu.s 			page 32


 1088              	.LVL83:
 1089 02f2 B7E7     		b	.L117	@
 1090              	.LVL84:
 1091              	.L102:
 1092              	.LBE104:
 1093              	.LBE103:
 1094              	.LBB105:
 1095              	.LBB106:
 1096              	@ .\driver\src\i2c_va108xx.c:268:   i2c->info.digfilter = arg;
 268:.\driver\src/i2c_va108xx.c ****   return VOR_DRIVER_OK;
 1097              		.loc 1 268 0
 1098 02f4 E963     		str	r1, [r5, #60]	@ arg, MEM[(uint32_t *)i2c_4(D) + 60B]
 1099              	.LVL85:
 1100 02f6 B5E7     		b	.L117	@
 1101              	.LVL86:
 1102              	.L103:
 1103              	.LBE106:
 1104              	.LBE105:
 1105              	.LBB107:
 1106              	.LBB108:
 1107              	@ .\driver\src\i2c_va108xx.c:281:   i2c->info.rxfifotrg = arg;
 281:.\driver\src/i2c_va108xx.c ****   return VOR_DRIVER_OK;
 1108              		.loc 1 281 0
 1109 02f8 2964     		str	r1, [r5, #64]	@ arg, MEM[(uint32_t *)i2c_4(D) + 64B]
 1110              	.LVL87:
 1111 02fa B3E7     		b	.L117	@
 1112              	.LVL88:
 1113              	.L104:
 1114              	.LBE108:
 1115              	.LBE107:
 1116              	.LBB109:
 1117              	.LBB110:
 1118              	@ .\driver\src\i2c_va108xx.c:294:   i2c->info.txfifotrg = arg;
 294:.\driver\src/i2c_va108xx.c ****   return VOR_DRIVER_OK;
 1119              		.loc 1 294 0
 1120 02fc 6964     		str	r1, [r5, #68]	@ arg, MEM[(uint32_t *)i2c_4(D) + 68B]
 1121              	.LVL89:
 1122 02fe B1E7     		b	.L117	@
 1123              	.LVL90:
 1124              	.L105:
 1125              	.LBE110:
 1126              	.LBE109:
 1127              	.LBB111:
 1128              	.LBB112:
 1129              	@ .\driver\src\i2c_va108xx.c:307:   i2c->info.clktolimit = arg;
 307:.\driver\src/i2c_va108xx.c ****   return VOR_DRIVER_OK;
 1130              		.loc 1 307 0
 1131 0300 A964     		str	r1, [r5, #72]	@ arg, MEM[(uint32_t *)i2c_4(D) + 72B]
 1132              	.LVL91:
 1133 0302 AFE7     		b	.L117	@
 1134              	.LVL92:
 1135              	.L106:
 1136              	.LBE112:
 1137              	.LBE111:
 1138              	.LBB113:
 1139              	.LBB114:
 1140              	@ .\driver\src\i2c_va108xx.c:320:   i2c->info.tmconfig.val = arg;
ARM GAS  C:\Users\claym\AppData\Local\Temp\ccxpUFUu.s 			page 33


 320:.\driver\src/i2c_va108xx.c ****   return VOR_DRIVER_OK;
 1141              		.loc 1 320 0
 1142 0304 E964     		str	r1, [r5, #76]	@ arg, MEM[(uint32_t *)i2c_4(D) + 76B]
 1143 0306 ADE7     		b	.L117	@
 1144              	.LVL93:
 1145              	.L112:
 1146              	.LBE114:
 1147              	.LBE113:
 1148              	@ .\driver\src\i2c_va108xx.c:358: 	return VOR_DRIVER_ERROR_PARAMETER;
 358:.\driver\src/i2c_va108xx.c ****   
 1149              		.loc 1 358 0
 1150 0308 0520     		movs	r0, #5	@ <retval>,
 1151              	.LVL94:
 1152              	.L116:
 1153              	.LBB115:
 1154              	.LBB88:
 1155              	@ .\driver\src\i2c_va108xx.c:151: 	default                         : return VOR_DRIVER_ERROR_UNSUPP
 151:.\driver\src/i2c_va108xx.c ****   };
 1156              		.loc 1 151 0
 1157 030a 4042     		rsbs	r0, r0, #0	@ <retval>, <retval>
 1158 030c D6E7     		b	.L88	@
 1159              	.L113:
 1160              	.LBE88:
 1161              	.LBE115:
 1162              	@ .\driver\src\i2c_va108xx.c:378: 	default                          : return VOR_I2C_ERROR_CTRL;
 378:.\driver\src/i2c_va108xx.c ****   }
 1163              		.loc 1 378 0
 1164 030e 0920     		movs	r0, #9	@ <retval>,
 1165 0310 FBE7     		b	.L116	@
 1166              	.L121:
 1167 0312 C046     		.align	2
 1168              	.L120:
 1169 0314 80841E00 		.word	2000000
 1170 0318 80969800 		.word	10000000
 1171 031c FFFEFFFF 		.word	-257
 1172              		.cfi_endproc
 1173              	.LFE56:
 1174              		.size	VOR_I2C_Control, .-VOR_I2C_Control
 1175              		.align	1
 1176              		.global	VOR_I2C_GetStatus
 1177              		.syntax unified
 1178              		.code	16
 1179              		.thumb_func
 1180              		.fpu softvfp
 1181              		.type	VOR_I2C_GetStatus, %function
 1182              	VOR_I2C_GetStatus:
 1183              	.LFB57:
 388:.\driver\src/i2c_va108xx.c **** 
 1184              		.loc 1 388 0
 1185              		.cfi_startproc
 1186              		@ args = 0, pretend = 0, frame = 8
 1187              		@ frame_needed = 0, uses_anonymous_args = 0
 1188              	.LVL95:
 1189 0320 F7B5     		push	{r0, r1, r2, r4, r5, r6, r7, lr}	@
 1190              	.LCFI6:
 1191              		.cfi_def_cfa_offset 32
 1192              		.cfi_offset 0, -32
ARM GAS  C:\Users\claym\AppData\Local\Temp\ccxpUFUu.s 			page 34


 1193              		.cfi_offset 1, -28
 1194              		.cfi_offset 2, -24
 1195              		.cfi_offset 4, -20
 1196              		.cfi_offset 5, -16
 1197              		.cfi_offset 6, -12
 1198              		.cfi_offset 7, -8
 1199              		.cfi_offset 14, -4
 1200              	@ .\driver\src\i2c_va108xx.c:390:   if(i2c->info.status.mode == I2C_MODE_MASTER) {
 390:.\driver\src/i2c_va108xx.c ****     // Bus Idle Status
 1201              		.loc 1 390 0
 1202 0322 447C     		ldrb	r4, [r0, #17]	@ *i2c_50(D), *i2c_50(D)
 1203 0324 7F2C     		cmp	r4, #127	@ *i2c_50(D),
 1204 0326 00D8     		bhi	.LCB984	@
 1205 0328 82E0     		b	.L123	@long jump	@
 1206              	.LCB984:
 1207              	@ .\driver\src\i2c_va108xx.c:392:     i2c->info.status.i2cIdle   = (i2c->reg->STATUS & I2C_PERIPHER
 392:.\driver\src/i2c_va108xx.c ****     // Controller Idle Status
 1208              		.loc 1 392 0
 1209 032a 0123     		movs	r3, #1	@ tmp165,
 1210 032c 4268     		ldr	r2, [r0, #4]	@ _2, i2c_50(D)->reg
 1211 032e 017C     		ldrb	r1, [r0, #16]	@ i2c_50(D)->info.status.i2cIdle, i2c_50(D)->info.status.i2cIdle
 1212 0330 9569     		ldr	r5, [r2, #24]	@ _3, _2->STATUS
 1213 0332 9943     		bics	r1, r3	@ tmp168, tmp165
 1214 0334 1D40     		ands	r5, r3	@ tmp164, tmp165
 1215 0336 2943     		orrs	r1, r5	@ tmp172, tmp164
 1216 0338 0174     		strb	r1, [r0, #16]	@ tmp172, i2c_50(D)->info.status.i2cIdle
 1217              	@ .\driver\src\i2c_va108xx.c:394:     i2c->info.status.Idle      = (i2c->reg->STATUS & I2C_PERIPHER
 394:.\driver\src/i2c_va108xx.c ****     // Controller Waiting Status
 1218              		.loc 1 394 0
 1219 033a 9169     		ldr	r1, [r2, #24]	@ _6, _2->STATUS
 1220 033c 0226     		movs	r6, #2	@ tmp434,
 1221 033e D940     		lsrs	r1, r1, r3	@ tmp174, _6,
 1222 0340 1940     		ands	r1, r3	@ tmp176, tmp165
 1223 0342 9940     		lsls	r1, r1, r3	@ tmp184, tmp176,
 1224 0344 057C     		ldrb	r5, [r0, #16]	@ i2c_50(D)->info.status.Idle, i2c_50(D)->info.status.Idle
 1225              	@ .\driver\src\i2c_va108xx.c:396:     i2c->info.status.waiting   = (i2c->reg->STATUS & I2C_PERIPHER
 396:.\driver\src/i2c_va108xx.c ****     // Controller Stalled Status
 1226              		.loc 1 396 0
 1227 0346 0427     		movs	r7, #4	@ tmp435,
 1228              	@ .\driver\src\i2c_va108xx.c:394:     i2c->info.status.Idle      = (i2c->reg->STATUS & I2C_PERIPHER
 394:.\driver\src/i2c_va108xx.c ****     // Controller Waiting Status
 1229              		.loc 1 394 0
 1230 0348 B543     		bics	r5, r6	@ tmp187, tmp434
 1231 034a 2943     		orrs	r1, r5	@ tmp191, tmp187
 1232 034c 0174     		strb	r1, [r0, #16]	@ tmp191, i2c_50(D)->info.status.Idle
 1233              	@ .\driver\src\i2c_va108xx.c:396:     i2c->info.status.waiting   = (i2c->reg->STATUS & I2C_PERIPHER
 396:.\driver\src/i2c_va108xx.c ****     // Controller Stalled Status
 1234              		.loc 1 396 0
 1235 034e 9169     		ldr	r1, [r2, #24]	@ _9, _2->STATUS
 1236 0350 057C     		ldrb	r5, [r0, #16]	@ i2c_50(D)->info.status.waiting, i2c_50(D)->info.status.waiting
 1237 0352 F140     		lsrs	r1, r1, r6	@ tmp193, _9,
 1238 0354 1940     		ands	r1, r3	@ tmp195, tmp165
 1239 0356 B140     		lsls	r1, r1, r6	@ tmp203, tmp195,
 1240 0358 BD43     		bics	r5, r7	@ tmp206, tmp435
 1241 035a 2943     		orrs	r1, r5	@ tmp210, tmp206
 1242 035c 0174     		strb	r1, [r0, #16]	@ tmp210, i2c_50(D)->info.status.waiting
 1243              	@ .\driver\src\i2c_va108xx.c:398:     i2c->info.status.stalled   = (i2c->reg->STATUS & I2C_PERIPHER
ARM GAS  C:\Users\claym\AppData\Local\Temp\ccxpUFUu.s 			page 35


 398:.\driver\src/i2c_va108xx.c ****     // Lost arbitration Status
 1244              		.loc 1 398 0
 1245 035e 9169     		ldr	r1, [r2, #24]	@ _12, _2->STATUS
 1246 0360 057C     		ldrb	r5, [r0, #16]	@ i2c_50(D)->info.status.stalled, i2c_50(D)->info.status.stalled
 1247 0362 C908     		lsrs	r1, r1, #3	@ tmp212, _12,
 1248 0364 1940     		ands	r1, r3	@ tmp214, tmp165
 1249 0366 0636     		adds	r6, r6, #6	@ tmp436,
 1250 0368 B543     		bics	r5, r6	@ tmp225, tmp436
 1251 036a C900     		lsls	r1, r1, #3	@ tmp222, tmp214,
 1252 036c 2943     		orrs	r1, r5	@ tmp229, tmp225
 1253 036e 0174     		strb	r1, [r0, #16]	@ tmp229, i2c_50(D)->info.status.stalled
 1254              	@ .\driver\src\i2c_va108xx.c:400:     i2c->info.status.arb_lost  = (i2c->reg->STATUS & I2C_PERIPHER
 400:.\driver\src/i2c_va108xx.c ****     // Address failed Status
 1255              		.loc 1 400 0
 1256 0370 9169     		ldr	r1, [r2, #24]	@ _15, _2->STATUS
 1257 0372 057C     		ldrb	r5, [r0, #16]	@ i2c_50(D)->info.status.arb_lost, i2c_50(D)->info.status.arb_lost
 1258 0374 F940     		lsrs	r1, r1, r7	@ tmp231, _15,
 1259 0376 1940     		ands	r1, r3	@ tmp233, tmp165
 1260 0378 B940     		lsls	r1, r1, r7	@ tmp241, tmp233,
 1261 037a 0C37     		adds	r7, r7, #12	@ tmp245,
 1262 037c BD43     		bics	r5, r7	@ tmp244, tmp245
 1263 037e 2943     		orrs	r1, r5	@ tmp248, tmp244
 1264 0380 0174     		strb	r1, [r0, #16]	@ tmp248, i2c_50(D)->info.status.arb_lost
 1265              	@ .\driver\src\i2c_va108xx.c:402:     i2c->info.status.nackAddr  = (i2c->reg->STATUS & I2C_PERIPHER
 402:.\driver\src/i2c_va108xx.c ****     // Receive negative Ack 
 1266              		.loc 1 402 0
 1267 0382 9169     		ldr	r1, [r2, #24]	@ _18, _2->STATUS
 1268 0384 057C     		ldrb	r5, [r0, #16]	@ i2c_50(D)->info.status.nackAddr, i2c_50(D)->info.status.nackAddr
 1269 0386 4909     		lsrs	r1, r1, #5	@ tmp250, _18,
 1270              	@ .\driver\src\i2c_va108xx.c:400:     i2c->info.status.arb_lost  = (i2c->reg->STATUS & I2C_PERIPHER
 400:.\driver\src/i2c_va108xx.c ****     // Address failed Status
 1271              		.loc 1 400 0
 1272 0388 BC46     		mov	ip, r7	@ tmp245, tmp245
 1273              	@ .\driver\src\i2c_va108xx.c:402:     i2c->info.status.nackAddr  = (i2c->reg->STATUS & I2C_PERIPHER
 402:.\driver\src/i2c_va108xx.c ****     // Receive negative Ack 
 1274              		.loc 1 402 0
 1275 038a 1940     		ands	r1, r3	@ tmp252, tmp165
 1276 038c 1037     		adds	r7, r7, #16	@ tmp264,
 1277 038e BD43     		bics	r5, r7	@ tmp263, tmp264
 1278 0390 4901     		lsls	r1, r1, #5	@ tmp260, tmp252,
 1279 0392 2943     		orrs	r1, r5	@ tmp267, tmp263
 1280 0394 0174     		strb	r1, [r0, #16]	@ tmp267, i2c_50(D)->info.status.nackAddr
 1281              	@ .\driver\src\i2c_va108xx.c:404:     i2c->info.status.nackData  = (i2c->reg->STATUS & I2C_PERIPHER
 404:.\driver\src/i2c_va108xx.c ****     // Receive FIFO is not empty 
 1282              		.loc 1 404 0
 1283 0396 9169     		ldr	r1, [r2, #24]	@ _21, _2->STATUS
 1284 0398 057C     		ldrb	r5, [r0, #16]	@ i2c_50(D)->info.status.nackData, i2c_50(D)->info.status.nackData
 1285 039a 8909     		lsrs	r1, r1, #6	@ tmp269, _21,
 1286 039c 1940     		ands	r1, r3	@ tmp271, tmp165
 1287 039e 3836     		adds	r6, r6, #56	@ tmp283,
 1288 03a0 B543     		bics	r5, r6	@ tmp282, tmp283
 1289 03a2 8901     		lsls	r1, r1, #6	@ tmp279, tmp271,
 1290 03a4 2943     		orrs	r1, r5	@ tmp286, tmp282
 1291 03a6 0174     		strb	r1, [r0, #16]	@ tmp286, i2c_50(D)->info.status.nackData
 1292              	@ .\driver\src\i2c_va108xx.c:406:     i2c->info.status.rxNEmpty  = (i2c->reg->STATUS & I2C_PERIPHER
 406:.\driver\src/i2c_va108xx.c ****     // Receive FIFO is full
 1293              		.loc 1 406 0
ARM GAS  C:\Users\claym\AppData\Local\Temp\ccxpUFUu.s 			page 36


 1294 03a8 9169     		ldr	r1, [r2, #24]	@ _24, _2->STATUS
 1295 03aa 057C     		ldrb	r5, [r0, #16]	@ i2c_50(D)->info.status.rxNEmpty, i2c_50(D)->info.status.rxNEmpty
 1296 03ac 090A     		lsrs	r1, r1, #8	@ tmp288, _24,
 1297 03ae 1940     		ands	r1, r3	@ tmp290, tmp165
 1298 03b0 C901     		lsls	r1, r1, #7	@ tmp295, tmp290,
 1299 03b2 0191     		str	r1, [sp, #4]	@ tmp295, %sfp
 1300 03b4 7F21     		movs	r1, #127	@ tmp439,
 1301 03b6 0D40     		ands	r5, r1	@ tmp298, tmp439
 1302 03b8 0199     		ldr	r1, [sp, #4]	@ tmp295, %sfp
 1303              	@ .\driver\src\i2c_va108xx.c:408:     i2c->info.status.rxFull    = (i2c->reg->STATUS & I2C_PERIPHER
 408:.\driver\src/i2c_va108xx.c ****     // Receive FIFO >= Trigger level
 1304              		.loc 1 408 0
 1305 03ba 9C43     		bics	r4, r3	@ tmp315, tmp165
 1306              	@ .\driver\src\i2c_va108xx.c:406:     i2c->info.status.rxNEmpty  = (i2c->reg->STATUS & I2C_PERIPHER
 406:.\driver\src/i2c_va108xx.c ****     // Receive FIFO is full
 1307              		.loc 1 406 0
 1308 03bc 0D43     		orrs	r5, r1	@ tmp302, tmp295
 1309              	@ .\driver\src\i2c_va108xx.c:408:     i2c->info.status.rxFull    = (i2c->reg->STATUS & I2C_PERIPHER
 408:.\driver\src/i2c_va108xx.c ****     // Receive FIFO >= Trigger level
 1310              		.loc 1 408 0
 1311 03be 9169     		ldr	r1, [r2, #24]	@ _27, _2->STATUS
 1312              	@ .\driver\src\i2c_va108xx.c:406:     i2c->info.status.rxNEmpty  = (i2c->reg->STATUS & I2C_PERIPHER
 406:.\driver\src/i2c_va108xx.c ****     // Receive FIFO is full
 1313              		.loc 1 406 0
 1314 03c0 0574     		strb	r5, [r0, #16]	@ tmp302, i2c_50(D)->info.status.rxNEmpty
 1315              	@ .\driver\src\i2c_va108xx.c:408:     i2c->info.status.rxFull    = (i2c->reg->STATUS & I2C_PERIPHER
 408:.\driver\src/i2c_va108xx.c ****     // Receive FIFO >= Trigger level
 1316              		.loc 1 408 0
 1317 03c2 490A     		lsrs	r1, r1, #9	@ tmp304, _27,
 1318 03c4 1940     		ands	r1, r3	@ tmp306, tmp165
 1319 03c6 0C43     		orrs	r4, r1	@ tmp319, tmp306
 1320 03c8 4474     		strb	r4, [r0, #17]	@ tmp319,
 1321              	@ .\driver\src\i2c_va108xx.c:410:     i2c->info.status.rxFifoTrg = (i2c->reg->STATUS & I2C_PERIPHER
 410:.\driver\src/i2c_va108xx.c ****     // Transmit FIFO is empty 
 1322              		.loc 1 410 0
 1323 03ca 9169     		ldr	r1, [r2, #24]	@ _30, _2->STATUS
 1324 03cc 0225     		movs	r5, #2	@ tmp440,
 1325 03ce C90A     		lsrs	r1, r1, #11	@ tmp321, _30,
 1326 03d0 1940     		ands	r1, r3	@ tmp323, tmp165
 1327 03d2 9940     		lsls	r1, r1, r3	@ tmp331, tmp323,
 1328 03d4 E4B2     		uxtb	r4, r4	@ tmp333,
 1329 03d6 AC43     		bics	r4, r5	@ tmp334, tmp440
 1330 03d8 0C43     		orrs	r4, r1	@ tmp338, tmp331
 1331 03da 4474     		strb	r4, [r0, #17]	@ tmp338,
 1332              	@ .\driver\src\i2c_va108xx.c:412:     i2c->info.status.txEmpty   = (i2c->reg->STATUS & I2C_PERIPHER
 412:.\driver\src/i2c_va108xx.c ****     // Transmit FIFO is not full 
 1333              		.loc 1 412 0
 1334 03dc 9169     		ldr	r1, [r2, #24]	@ _33, _2->STATUS
 1335 03de E4B2     		uxtb	r4, r4	@ tmp352,
 1336 03e0 090B     		lsrs	r1, r1, #12	@ tmp340, _33,
 1337 03e2 1940     		ands	r1, r3	@ tmp342, tmp165
 1338 03e4 A940     		lsls	r1, r1, r5	@ tmp350, tmp342,
 1339 03e6 6D19     		adds	r5, r5, r5	@ tmp441, tmp441,
 1340 03e8 AC43     		bics	r4, r5	@ tmp353, tmp441
 1341 03ea 2143     		orrs	r1, r4	@ tmp357, tmp353
 1342 03ec 4174     		strb	r1, [r0, #17]	@ tmp357,
 1343              	@ .\driver\src\i2c_va108xx.c:414:     i2c->info.status.txNFull   = (i2c->reg->STATUS & I2C_PERIPHER
ARM GAS  C:\Users\claym\AppData\Local\Temp\ccxpUFUu.s 			page 37


 414:.\driver\src/i2c_va108xx.c ****     // Transmit FIFO >= Trigger level 
 1344              		.loc 1 414 0
 1345 03ee 447C     		ldrb	r4, [r0, #17]	@ tmp371,
 1346 03f0 0435     		adds	r5, r5, #4	@ tmp442,
 1347 03f2 AC43     		bics	r4, r5	@ tmp372, tmp442
 1348              	@ .\driver\src\i2c_va108xx.c:416:     i2c->info.status.txFifoTrg = (i2c->reg->STATUS & I2C_PERIPHER
 416:.\driver\src/i2c_va108xx.c ****     // Raw I2C Data value 
 1349              		.loc 1 416 0
 1350 03f4 6546     		mov	r5, ip	@ tmp245, tmp245
 1351              	@ .\driver\src\i2c_va108xx.c:414:     i2c->info.status.txNFull   = (i2c->reg->STATUS & I2C_PERIPHER
 414:.\driver\src/i2c_va108xx.c ****     // Transmit FIFO >= Trigger level 
 1352              		.loc 1 414 0
 1353 03f6 9169     		ldr	r1, [r2, #24]	@ _36, _2->STATUS
 1354 03f8 490B     		lsrs	r1, r1, #13	@ tmp359, _36,
 1355 03fa 1940     		ands	r1, r3	@ tmp361, tmp165
 1356 03fc C900     		lsls	r1, r1, #3	@ tmp369, tmp361,
 1357 03fe 2143     		orrs	r1, r4	@ tmp376, tmp372
 1358 0400 4174     		strb	r1, [r0, #17]	@ tmp376,
 1359              	@ .\driver\src\i2c_va108xx.c:416:     i2c->info.status.txFifoTrg = (i2c->reg->STATUS & I2C_PERIPHER
 416:.\driver\src/i2c_va108xx.c ****     // Raw I2C Data value 
 1360              		.loc 1 416 0
 1361 0402 9169     		ldr	r1, [r2, #24]	@ _39, _2->STATUS
 1362 0404 447C     		ldrb	r4, [r0, #17]	@ tmp390,
 1363 0406 C90B     		lsrs	r1, r1, #15	@ tmp378, _39,
 1364 0408 1940     		ands	r1, r3	@ tmp380, tmp165
 1365 040a 0901     		lsls	r1, r1, #4	@ tmp388, tmp380,
 1366 040c AC43     		bics	r4, r5	@ tmp391, tmp245
 1367 040e 2143     		orrs	r1, r4	@ tmp395, tmp391
 1368 0410 4174     		strb	r1, [r0, #17]	@ tmp395,
 1369              	@ .\driver\src\i2c_va108xx.c:418:     i2c->info.status.rawSDA    = (i2c->reg->STATUS & I2C_PERIPHER
 418:.\driver\src/i2c_va108xx.c ****     // Raw I2C Clock value 
 1370              		.loc 1 418 0
 1371 0412 9169     		ldr	r1, [r2, #24]	@ _42, _2->STATUS
 1372 0414 890F     		lsrs	r1, r1, #30	@ tmp397, _42,
 1373 0416 0B40     		ands	r3, r1	@ tmp399, tmp397
 1374 0418 417C     		ldrb	r1, [r0, #17]	@ tmp409,
 1375 041a 5B01     		lsls	r3, r3, #5	@ tmp407, tmp399,
 1376 041c B943     		bics	r1, r7	@ tmp410, tmp264
 1377 041e 0B43     		orrs	r3, r1	@ tmp414, tmp410
 1378 0420 4374     		strb	r3, [r0, #17]	@ tmp414,
 1379              	@ .\driver\src\i2c_va108xx.c:420:     i2c->info.status.rawSCL    = (i2c->reg->STATUS & I2C_PERIPHER
 420:.\driver\src/i2c_va108xx.c ****   }
 1380              		.loc 1 420 0
 1381 0422 9369     		ldr	r3, [r2, #24]	@ _45, _2->STATUS
 1382 0424 DB0F     		lsrs	r3, r3, #31	@ tmp417, _45,
 1383 0426 9A01     		lsls	r2, r3, #6	@ tmp424, tmp417,
 1384 0428 437C     		ldrb	r3, [r0, #17]	@ tmp426,
 1385 042a B343     		bics	r3, r6	@ tmp427, tmp283
 1386 042c 1343     		orrs	r3, r2	@ tmp431, tmp424
 1387 042e 4374     		strb	r3, [r0, #17]	@ tmp431,
 1388              	.L123:
 1389              	@ .\driver\src\i2c_va108xx.c:423:   return i2c->info.status;
 423:.\driver\src/i2c_va108xx.c **** }
 1390              		.loc 1 423 0
 1391 0430 0069     		ldr	r0, [r0, #16]	@ D.6723, i2c_50(D)->info.status
 1392              	.LVL96:
 1393              	@ .\driver\src\i2c_va108xx.c:424: }
ARM GAS  C:\Users\claym\AppData\Local\Temp\ccxpUFUu.s 			page 38


 424:.\driver\src/i2c_va108xx.c **** 
 1394              		.loc 1 424 0
 1395              		@ sp needed	@
 1396 0432 FEBD     		pop	{r1, r2, r3, r4, r5, r6, r7, pc}
 1397              		.cfi_endproc
 1398              	.LFE57:
 1399              		.size	VOR_I2C_GetStatus, .-VOR_I2C_GetStatus
 1400              		.align	1
 1401              		.global	VOR_I2C_MasterTransmit
 1402              		.syntax unified
 1403              		.code	16
 1404              		.thumb_func
 1405              		.fpu softvfp
 1406              		.type	VOR_I2C_MasterTransmit, %function
 1407              	VOR_I2C_MasterTransmit:
 1408              	.LFB60:
 568:.\driver\src/i2c_va108xx.c **** 
 569:.\driver\src/i2c_va108xx.c **** /**
 570:.\driver\src/i2c_va108xx.c ****   function: int32_t VOR_I2C_MasterTransmit(uint32_t addr,
 571:.\driver\src/i2c_va108xx.c **** 						 							 							   const uint8_t *data,
 572:.\driver\src/i2c_va108xx.c ****                                            uint32_t num,
 573:.\driver\src/i2c_va108xx.c **** 																					 bool xfer_pending,
 574:.\driver\src/i2c_va108xx.c **** 																					 I2C_RESOURCES *i2c)
 575:.\driver\src/i2c_va108xx.c ****   brief:	Start transmitting data as I2C Master.
 576:.\driver\src/i2c_va108xx.c ****   Input:	addr					Slave address (7-bit or 10-bit)
 577:.\driver\src/i2c_va108xx.c ****   Input: 	data					Pointer to buffer with data to transmit to I2C Slave
 578:.\driver\src/i2c_va108xx.c ****   Input:	num						Number of data bytes to transmit
 579:.\driver\src/i2c_va108xx.c ****   Input:	xfer_pending	Transfer operation is pending - Stop condition will not be generated
 580:.\driver\src/i2c_va108xx.c ****   Input:	i2c						Pointer to I2C resources
 581:.\driver\src/i2c_va108xx.c ****   return:	execution_status
 582:.\driver\src/i2c_va108xx.c **** */
 583:.\driver\src/i2c_va108xx.c **** int32_t VOR_I2C_MasterTransmit(uint32_t addr,
 584:.\driver\src/i2c_va108xx.c ****                                const uint8_t *data,
 585:.\driver\src/i2c_va108xx.c ****                                uint32_t num,
 586:.\driver\src/i2c_va108xx.c ****                                bool xfer_pending,
 587:.\driver\src/i2c_va108xx.c ****                                I2C_RESOURCES *i2c) {
 1409              		.loc 1 587 0
 1410              		.cfi_startproc
 1411              		@ args = 4, pretend = 0, frame = 16
 1412              		@ frame_needed = 0, uses_anonymous_args = 0
 1413              	.LVL97:
 1414 0434 F0B5     		push	{r4, r5, r6, r7, lr}	@
 1415              	.LCFI7:
 1416              		.cfi_def_cfa_offset 20
 1417              		.cfi_offset 4, -20
 1418              		.cfi_offset 5, -16
 1419              		.cfi_offset 6, -12
 1420              		.cfi_offset 7, -8
 1421              		.cfi_offset 14, -4
 1422 0436 85B0     		sub	sp, sp, #20	@,,
 1423              	.LCFI8:
 1424              		.cfi_def_cfa_offset 40
 1425              	@ .\driver\src\i2c_va108xx.c:587:                                I2C_RESOURCES *i2c) {
 1426              		.loc 1 587 0
 1427 0438 0290     		str	r0, [sp, #8]	@ addr, %sfp
 1428 043a 0191     		str	r1, [sp, #4]	@ data, %sfp
 1429 043c 1700     		movs	r7, r2	@ num, num
ARM GAS  C:\Users\claym\AppData\Local\Temp\ccxpUFUu.s 			page 39


 1430 043e 0393     		str	r3, [sp, #12]	@ xfer_pending, %sfp
 1431 0440 0A9C     		ldr	r4, [sp, #40]	@ i2c, i2c
 1432              	@ .\driver\src\i2c_va108xx.c:592:   if (!data || (num > I2C_MAX_TXDATA)) {
 588:.\driver\src/i2c_va108xx.c ****   int32_t i = 0;
 589:.\driver\src/i2c_va108xx.c ****   /*uint32_t poll_time, start_time;*/ 
 590:.\driver\src/i2c_va108xx.c **** 	uint32_t status;
 591:.\driver\src/i2c_va108xx.c **** 																	
 592:.\driver\src/i2c_va108xx.c ****   if (!data || (num > I2C_MAX_TXDATA)) {
 1433              		.loc 1 592 0
 1434 0442 0029     		cmp	r1, #0	@ data,
 1435 0444 00D1     		bne	.LCB1181	@
 1436 0446 A6E0     		b	.L137	@long jump	@
 1437              	.LCB1181:
 1438              	@ .\driver\src\i2c_va108xx.c:592:   if (!data || (num > I2C_MAX_TXDATA)) {
 1439              		.loc 1 592 0 is_stmt 0 discriminator 1
 1440 0448 802A     		cmp	r2, #128	@ num,
 1441 044a 00D9     		bls	.LCB1183	@
 1442 044c A3E0     		b	.L137	@long jump	@
 1443              	.LCB1183:
 1444              	@ .\driver\src\i2c_va108xx.c:597:   if (!(i2c->info.flags & I2C_FLAG_INIT)) {
 593:.\driver\src/i2c_va108xx.c ****     /* Invalid parameters */
 594:.\driver\src/i2c_va108xx.c ****     return VOR_DRIVER_ERROR_PARAMETER;
 595:.\driver\src/i2c_va108xx.c ****   }
 596:.\driver\src/i2c_va108xx.c **** 
 597:.\driver\src/i2c_va108xx.c ****   if (!(i2c->info.flags & I2C_FLAG_INIT)) {
 1445              		.loc 1 597 0 is_stmt 1
 1446 044e 0126     		movs	r6, #1	@ tmp157,
 1447 0450 6369     		ldr	r3, [r4, #20]	@ tmp245, i2c_49(D)->info.flags
 1448              	.LVL98:
 1449 0452 3342     		tst	r3, r6	@ tmp245, tmp157
 1450 0454 00D1     		bne	.LCB1190	@
 1451 0456 A0E0     		b	.L138	@long jump	@
 1452              	.LCB1190:
 1453              	@ .\driver\src\i2c_va108xx.c:602:   i2c->reg->IRQ_ENB = 0;
 598:.\driver\src/i2c_va108xx.c ****     /* Driver not yet configured */
 599:.\driver\src/i2c_va108xx.c ****     return VOR_DRIVER_ERROR;
 600:.\driver\src/i2c_va108xx.c ****   }
 601:.\driver\src/i2c_va108xx.c **** 	
 602:.\driver\src/i2c_va108xx.c ****   i2c->reg->IRQ_ENB = 0;
 1454              		.loc 1 602 0
 1455 0458 0022     		movs	r2, #0	@ tmp246,
 1456              	.LVL99:
 1457 045a 6368     		ldr	r3, [r4, #4]	@ _3, i2c_49(D)->reg
 1458              	@ .\driver\src\i2c_va108xx.c:605:   if(i2c->info.poll_mode) {
 603:.\driver\src/i2c_va108xx.c ****   i2c->info.txidx = 0;
 604:.\driver\src/i2c_va108xx.c **** 
 605:.\driver\src/i2c_va108xx.c ****   if(i2c->info.poll_mode) {
 1459              		.loc 1 605 0
 1460 045c A569     		ldr	r5, [r4, #24]	@ i2c_49(D)->info.poll_mode, i2c_49(D)->info.poll_mode
 1461              	@ .\driver\src\i2c_va108xx.c:602:   i2c->reg->IRQ_ENB = 0;
 602:.\driver\src/i2c_va108xx.c ****   i2c->info.txidx = 0;
 1462              		.loc 1 602 0
 1463 045e 9A62     		str	r2, [r3, #40]	@ tmp246, _3->IRQ_ENB
 1464              	@ .\driver\src\i2c_va108xx.c:603:   i2c->info.txidx = 0;
 603:.\driver\src/i2c_va108xx.c ****   i2c->info.txidx = 0;
 1465              		.loc 1 603 0
 1466 0460 A265     		str	r2, [r4, #88]	@ tmp247, i2c_49(D)->info.txidx
ARM GAS  C:\Users\claym\AppData\Local\Temp\ccxpUFUu.s 			page 40


 1467              	@ .\driver\src\i2c_va108xx.c:605:   if(i2c->info.poll_mode) {
 1468              		.loc 1 605 0
 1469 0462 9542     		cmp	r5, r2	@ i2c_49(D)->info.poll_mode,
 1470 0464 00D1     		bne	.LCB1200	@
 1471 0466 6DE0     		b	.L126	@long jump	@
 1472              	.LCB1200:
 1473              	@ .\driver\src\i2c_va108xx.c:607:   	i2c->info.status.mode = I2C_MODE_MASTER;
 606:.\driver\src/i2c_va108xx.c **** 		/* Set Master Mode */ 
 607:.\driver\src/i2c_va108xx.c ****   	i2c->info.status.mode = I2C_MODE_MASTER;
 1474              		.loc 1 607 0
 1475 0468 617C     		ldrb	r1, [r4, #17]	@ tmp164,
 1476              	.LVL100:
 1477 046a 803A     		subs	r2, r2, #128	@ tmp166,
 1478 046c 0A43     		orrs	r2, r1	@ tmp165, tmp164
 1479 046e 6274     		strb	r2, [r4, #17]	@ tmp165,
 1480              	.LVL101:
 1481              	@ .\driver\src\i2c_va108xx.c:610:   	i2c->info.status.direction = I2C_DIR_TRANSMIT;
 608:.\driver\src/i2c_va108xx.c ****   	
 609:.\driver\src/i2c_va108xx.c **** 		/* Set Direction Transmit */ 
 610:.\driver\src/i2c_va108xx.c ****   	i2c->info.status.direction = I2C_DIR_TRANSMIT;
 1482              		.loc 1 610 0
 1483 0470 A27C     		ldrb	r2, [r4, #18]	@ tmp171,
 1484              	@ .\driver\src\i2c_va108xx.c:638:   	  if( status & I2C_PERIPHERAL_STATUS_ARBLOST_Msk ) {
 611:.\driver\src/i2c_va108xx.c ****   	i2c->reg->CTRL |= I2C_PERIPHERAL_CTRL_ENABLE_Msk;
 612:.\driver\src/i2c_va108xx.c **** 		
 613:.\driver\src/i2c_va108xx.c **** 	  /* Enable Start bit */ 
 614:.\driver\src/i2c_va108xx.c ****     VOR_I2C_Setup(addr,num,i2c);
 615:.\driver\src/i2c_va108xx.c **** 	  i2c->reg->CMD |= I2C_CMD_START;
 616:.\driver\src/i2c_va108xx.c **** 
 617:.\driver\src/i2c_va108xx.c ****  		/* Get Current Time */ 
 618:.\driver\src/i2c_va108xx.c **** 	  /* start_time = VOR_Get_SysTime();
 619:.\driver\src/i2c_va108xx.c **** 	  poll_time  = start_time - i2c->info.poll_tout; */ 
 620:.\driver\src/i2c_va108xx.c **** 
 621:.\driver\src/i2c_va108xx.c **** 	  while( (num !=0) /*&& (poll_time <= VOR_Get_SysTime())*/ ) {
 622:.\driver\src/i2c_va108xx.c **** 			__NOP( ); 
 623:.\driver\src/i2c_va108xx.c ****   	  __NOP( ); 
 624:.\driver\src/i2c_va108xx.c **** 	    __NOP( ); 
 625:.\driver\src/i2c_va108xx.c **** 			
 626:.\driver\src/i2c_va108xx.c **** 		  status = i2c->reg->STATUS;
 627:.\driver\src/i2c_va108xx.c **** 		  if((!(status&I2C_PERIPHERAL_STATUS_IDLE_Msk) || (status &I2C_PERIPHERAL_STATUS_WAITING_Msk) || 
 628:.\driver\src/i2c_va108xx.c ****   	    /* Check TX fifo status and Load Remaining Data */ 
 629:.\driver\src/i2c_va108xx.c **** 	      if((status&I2C_PERIPHERAL_STATUS_TXNFULL_Msk)!=0) {
 630:.\driver\src/i2c_va108xx.c ****     	    i2c->reg->DATA=data[i++];
 631:.\driver\src/i2c_va108xx.c **** 		      num--;			
 632:.\driver\src/i2c_va108xx.c **** 					i2c->info.txidx++;
 633:.\driver\src/i2c_va108xx.c **** 			    if((num==0) && (xfer_pending == 0))
 634:.\driver\src/i2c_va108xx.c ****     			  i2c->reg->CMD |= I2C_CMD_STOP;
 635:.\driver\src/i2c_va108xx.c **** 	      }
 636:.\driver\src/i2c_va108xx.c ****   	  }
 637:.\driver\src/i2c_va108xx.c **** 	    /* Check for Arbitration Error */ 
 638:.\driver\src/i2c_va108xx.c ****   	  if( status & I2C_PERIPHERAL_STATUS_ARBLOST_Msk ) {
 1485              		.loc 1 638 0
 1486 0472 1025     		movs	r5, #16	@ tmp229,
 1487              	@ .\driver\src\i2c_va108xx.c:610:   	i2c->info.status.direction = I2C_DIR_TRANSMIT;
 610:.\driver\src/i2c_va108xx.c ****   	i2c->reg->CTRL |= I2C_PERIPHERAL_CTRL_ENABLE_Msk;
 1488              		.loc 1 610 0
 1489 0474 B243     		bics	r2, r6	@ tmp172, tmp157
ARM GAS  C:\Users\claym\AppData\Local\Temp\ccxpUFUu.s 			page 41


 1490 0476 A274     		strb	r2, [r4, #18]	@ tmp172,
 1491              	@ .\driver\src\i2c_va108xx.c:611:   	i2c->reg->CTRL |= I2C_PERIPHERAL_CTRL_ENABLE_Msk;
 611:.\driver\src/i2c_va108xx.c ****   	i2c->reg->CTRL |= I2C_PERIPHERAL_CTRL_ENABLE_Msk;
 1492              		.loc 1 611 0
 1493 0478 0422     		movs	r2, #4	@ tmp175,
 1494 047a 1968     		ldr	r1, [r3]	@ _5, _3->CTRL
 1495              	@ .\driver\src\i2c_va108xx.c:614:     VOR_I2C_Setup(addr,num,i2c);
 614:.\driver\src/i2c_va108xx.c **** 	  i2c->reg->CMD |= I2C_CMD_START;
 1496              		.loc 1 614 0
 1497 047c 0298     		ldr	r0, [sp, #8]	@, %sfp
 1498              	.LVL102:
 1499              	@ .\driver\src\i2c_va108xx.c:611:   	i2c->reg->CTRL |= I2C_PERIPHERAL_CTRL_ENABLE_Msk;
 611:.\driver\src/i2c_va108xx.c ****   	i2c->reg->CTRL |= I2C_PERIPHERAL_CTRL_ENABLE_Msk;
 1500              		.loc 1 611 0
 1501 047e 0A43     		orrs	r2, r1	@ _6, _5
 1502 0480 1A60     		str	r2, [r3]	@ _6, _3->CTRL
 1503              	@ .\driver\src\i2c_va108xx.c:614:     VOR_I2C_Setup(addr,num,i2c);
 614:.\driver\src/i2c_va108xx.c **** 	  i2c->reg->CMD |= I2C_CMD_START;
 1504              		.loc 1 614 0
 1505 0482 3900     		movs	r1, r7	@, num
 1506 0484 2200     		movs	r2, r4	@, i2c
 1507 0486 FFF7BBFD 		bl	VOR_I2C_Setup	@
 1508              	.LVL103:
 1509              	@ .\driver\src\i2c_va108xx.c:615: 	  i2c->reg->CMD |= I2C_CMD_START;
 615:.\driver\src/i2c_va108xx.c **** 
 1510              		.loc 1 615 0
 1511 048a 6268     		ldr	r2, [r4, #4]	@ _7, i2c_49(D)->reg
 1512              	@ .\driver\src\i2c_va108xx.c:588:   int32_t i = 0;
 588:.\driver\src/i2c_va108xx.c ****   /*uint32_t poll_time, start_time;*/ 
 1513              		.loc 1 588 0
 1514 048c 0021     		movs	r1, #0	@ i,
 1515              	@ .\driver\src\i2c_va108xx.c:615: 	  i2c->reg->CMD |= I2C_CMD_START;
 615:.\driver\src/i2c_va108xx.c **** 
 1516              		.loc 1 615 0
 1517 048e 5369     		ldr	r3, [r2, #20]	@ _8, _7->CMD
 1518 0490 1E43     		orrs	r6, r3	@ _9, _8
 1519              	@ .\driver\src\i2c_va108xx.c:627: 		  if((!(status&I2C_PERIPHERAL_STATUS_IDLE_Msk) || (status &I2C_
 627:.\driver\src/i2c_va108xx.c ****   	    /* Check TX fifo status and Load Remaining Data */ 
 1520              		.loc 1 627 0
 1521 0492 0E23     		movs	r3, #14	@ tmp226,
 1522              	@ .\driver\src\i2c_va108xx.c:615: 	  i2c->reg->CMD |= I2C_CMD_START;
 615:.\driver\src/i2c_va108xx.c **** 
 1523              		.loc 1 615 0
 1524 0494 5661     		str	r6, [r2, #20]	@ _9, _7->CMD
 1525              	@ .\driver\src\i2c_va108xx.c:627: 		  if((!(status&I2C_PERIPHERAL_STATUS_IDLE_Msk) || (status &I2C_
 627:.\driver\src/i2c_va108xx.c ****   	    /* Check TX fifo status and Load Remaining Data */ 
 1526              		.loc 1 627 0
 1527 0496 9C46     		mov	ip, r3	@ tmp226, tmp226
 1528              	@ .\driver\src\i2c_va108xx.c:634:     			  i2c->reg->CMD |= I2C_CMD_STOP;
 634:.\driver\src/i2c_va108xx.c **** 	      }
 1529              		.loc 1 634 0
 1530 0498 0226     		movs	r6, #2	@ tmp228,
 1531              	.LVL104:
 1532              	.L127:
 1533              	@ .\driver\src\i2c_va108xx.c:621: 	  while( (num !=0) /*&& (poll_time <= VOR_Get_SysTime())*/ ) {
 621:.\driver\src/i2c_va108xx.c **** 			__NOP( ); 
 1534              		.loc 1 621 0
ARM GAS  C:\Users\claym\AppData\Local\Temp\ccxpUFUu.s 			page 42


 1535 049a 002F     		cmp	r7, #0	@ num,
 1536 049c 0ED1     		bne	.L131	@,
 1537              	@ .\driver\src\i2c_va108xx.c:660: 	  while( !(i2c->reg->STATUS & I2C_PERIPHERAL_STATUS_TXEMPTY_Msk)
 639:.\driver\src/i2c_va108xx.c **** 	      VOR_I2C_Stop(i2c);
 640:.\driver\src/i2c_va108xx.c ****   		  return VOR_I2C_ERROR_ARBITRATION_LOST;
 641:.\driver\src/i2c_va108xx.c **** 	    }
 642:.\driver\src/i2c_va108xx.c **** 	    /* Check for Address Nack Error */ 
 643:.\driver\src/i2c_va108xx.c **** 	    if(status & I2C_PERIPHERAL_STATUS_NACKADDR_Msk) {
 644:.\driver\src/i2c_va108xx.c **** 	      VOR_I2C_Stop(i2c);
 645:.\driver\src/i2c_va108xx.c **** 	      return VOR_I2C_ERROR_ADDRESS_NACK;
 646:.\driver\src/i2c_va108xx.c **** 	    }
 647:.\driver\src/i2c_va108xx.c **** 	    /* Check for Data Nack Error */ 
 648:.\driver\src/i2c_va108xx.c **** 	    if(status & I2C_PERIPHERAL_STATUS_NACKDATA_Msk) {
 649:.\driver\src/i2c_va108xx.c **** 	      VOR_I2C_Stop(i2c);
 650:.\driver\src/i2c_va108xx.c **** 		    return VOR_I2C_ERROR_TRANSFER_INCOMPLETE;
 651:.\driver\src/i2c_va108xx.c **** 	    }
 652:.\driver\src/i2c_va108xx.c **** 	  }
 653:.\driver\src/i2c_va108xx.c **** 		
 654:.\driver\src/i2c_va108xx.c **** 	  if(num!=0) {
 655:.\driver\src/i2c_va108xx.c ****       VOR_I2C_Stop(i2c);
 656:.\driver\src/i2c_va108xx.c **** 	    return VOR_I2C_ERROR_POLL_TOUT;
 657:.\driver\src/i2c_va108xx.c **** 	  }
 658:.\driver\src/i2c_va108xx.c **** 		
 659:.\driver\src/i2c_va108xx.c **** 	  /* Wait for transaction to complete */ 
 660:.\driver\src/i2c_va108xx.c **** 	  while( !(i2c->reg->STATUS & I2C_PERIPHERAL_STATUS_TXEMPTY_Msk) /* && (poll_time <= VOR_Get_SysTi
 1538              		.loc 1 660 0
 1539 049e 8023     		movs	r3, #128	@ tmp193,
 1540              	@ .\driver\src\i2c_va108xx.c:664: 	    if( i2c->reg->STATUS & I2C_PERIPHERAL_STATUS_NACKDATA_Msk ) 
 661:.\driver\src/i2c_va108xx.c ****   	  __NOP( ); 
 662:.\driver\src/i2c_va108xx.c **** 	    __NOP( ); 
 663:.\driver\src/i2c_va108xx.c **** 	    /* Check for Data Nack Error */ 
 664:.\driver\src/i2c_va108xx.c **** 	    if( i2c->reg->STATUS & I2C_PERIPHERAL_STATUS_NACKDATA_Msk ) {
 1541              		.loc 1 664 0
 1542 04a0 4020     		movs	r0, #64	@ tmp225,
 1543              	@ .\driver\src\i2c_va108xx.c:660: 	  while( !(i2c->reg->STATUS & I2C_PERIPHERAL_STATUS_TXEMPTY_Msk)
 660:.\driver\src/i2c_va108xx.c ****   	  __NOP( ); 
 1544              		.loc 1 660 0
 1545 04a2 5B01     		lsls	r3, r3, #5	@ tmp193, tmp193,
 1546              	.LVL105:
 1547              	.L132:
 1548 04a4 6268     		ldr	r2, [r4, #4]	@ _27, i2c_49(D)->reg
 1549 04a6 9169     		ldr	r1, [r2, #24]	@ _28, _27->STATUS
 1550 04a8 1942     		tst	r1, r3	@ _28, tmp193
 1551 04aa 3AD0     		beq	.L134	@,
 1552              	@ .\driver\src\i2c_va108xx.c:670: 	  if( !(i2c->reg->STATUS & I2C_PERIPHERAL_STATUS_TXEMPTY_Msk) ) 
 665:.\driver\src/i2c_va108xx.c ****         VOR_I2C_Stop(i2c);
 666:.\driver\src/i2c_va108xx.c **** 		    return VOR_I2C_ERROR_TRANSFER_INCOMPLETE;
 667:.\driver\src/i2c_va108xx.c **** 	    }
 668:.\driver\src/i2c_va108xx.c **** 	  }
 669:.\driver\src/i2c_va108xx.c **** 		
 670:.\driver\src/i2c_va108xx.c **** 	  if( !(i2c->reg->STATUS & I2C_PERIPHERAL_STATUS_TXEMPTY_Msk) ) {
 1553              		.loc 1 670 0
 1554 04ac 9269     		ldr	r2, [r2, #24]	@ _30, _27->STATUS
 1555 04ae 1A42     		tst	r2, r3	@ _30, tmp193
 1556 04b0 3ED1     		bne	.L135	@,
 1557              	@ .\driver\src\i2c_va108xx.c:671:       VOR_I2C_Stop(i2c);
 671:.\driver\src/i2c_va108xx.c ****       VOR_I2C_Stop(i2c);
ARM GAS  C:\Users\claym\AppData\Local\Temp\ccxpUFUu.s 			page 43


 1558              		.loc 1 671 0
 1559 04b2 2000     		movs	r0, r4	@, i2c
 1560 04b4 FFF748FE 		bl	VOR_I2C_Stop	@
 1561              	.LVL106:
 1562              	@ .\driver\src\i2c_va108xx.c:672: 	    return VOR_I2C_ERROR_POLL_TOUT;		  
 672:.\driver\src/i2c_va108xx.c **** 	    return VOR_I2C_ERROR_POLL_TOUT;		  
 1563              		.loc 1 672 0
 1564 04b8 0F25     		movs	r5, #15	@ <retval>,
 1565 04ba 22E0     		b	.L150	@
 1566              	.LVL107:
 1567              	.L131:
 1568              	.LBB116:
 1569              	.LBB117:
 1570              	@ .\inc/cmsis_gcc.h:375:   __ASM volatile ("nop");
 1571              		.file 2 ".\\inc/cmsis_gcc.h"
   1:.\inc/cmsis_gcc.h **** /**************************************************************************//**
   2:.\inc/cmsis_gcc.h ****  * @file     cmsis_gcc.h
   3:.\inc/cmsis_gcc.h ****  * @brief    CMSIS Cortex-M Core Function/Instruction Header File
   4:.\inc/cmsis_gcc.h ****  * @version  V4.30
   5:.\inc/cmsis_gcc.h ****  * @date     20. October 2015
   6:.\inc/cmsis_gcc.h ****  ******************************************************************************/
   7:.\inc/cmsis_gcc.h **** /* Copyright (c) 2009 - 2015 ARM LIMITED
   8:.\inc/cmsis_gcc.h **** 
   9:.\inc/cmsis_gcc.h ****    All rights reserved.
  10:.\inc/cmsis_gcc.h ****    Redistribution and use in source and binary forms, with or without
  11:.\inc/cmsis_gcc.h ****    modification, are permitted provided that the following conditions are met:
  12:.\inc/cmsis_gcc.h ****    - Redistributions of source code must retain the above copyright
  13:.\inc/cmsis_gcc.h ****      notice, this list of conditions and the following disclaimer.
  14:.\inc/cmsis_gcc.h ****    - Redistributions in binary form must reproduce the above copyright
  15:.\inc/cmsis_gcc.h ****      notice, this list of conditions and the following disclaimer in the
  16:.\inc/cmsis_gcc.h ****      documentation and/or other materials provided with the distribution.
  17:.\inc/cmsis_gcc.h ****    - Neither the name of ARM nor the names of its contributors may be used
  18:.\inc/cmsis_gcc.h ****      to endorse or promote products derived from this software without
  19:.\inc/cmsis_gcc.h ****      specific prior written permission.
  20:.\inc/cmsis_gcc.h ****    *
  21:.\inc/cmsis_gcc.h ****    THIS SOFTWARE IS PROVIDED BY THE COPYRIGHT HOLDERS AND CONTRIBUTORS "AS IS"
  22:.\inc/cmsis_gcc.h ****    AND ANY EXPRESS OR IMPLIED WARRANTIES, INCLUDING, BUT NOT LIMITED TO, THE
  23:.\inc/cmsis_gcc.h ****    IMPLIED WARRANTIES OF MERCHANTABILITY AND FITNESS FOR A PARTICULAR PURPOSE
  24:.\inc/cmsis_gcc.h ****    ARE DISCLAIMED. IN NO EVENT SHALL COPYRIGHT HOLDERS AND CONTRIBUTORS BE
  25:.\inc/cmsis_gcc.h ****    LIABLE FOR ANY DIRECT, INDIRECT, INCIDENTAL, SPECIAL, EXEMPLARY, OR
  26:.\inc/cmsis_gcc.h ****    CONSEQUENTIAL DAMAGES (INCLUDING, BUT NOT LIMITED TO, PROCUREMENT OF
  27:.\inc/cmsis_gcc.h ****    SUBSTITUTE GOODS OR SERVICES; LOSS OF USE, DATA, OR PROFITS; OR BUSINESS
  28:.\inc/cmsis_gcc.h ****    INTERRUPTION) HOWEVER CAUSED AND ON ANY THEORY OF LIABILITY, WHETHER IN
  29:.\inc/cmsis_gcc.h ****    CONTRACT, STRICT LIABILITY, OR TORT (INCLUDING NEGLIGENCE OR OTHERWISE)
  30:.\inc/cmsis_gcc.h ****    ARISING IN ANY WAY OUT OF THE USE OF THIS SOFTWARE, EVEN IF ADVISED OF THE
  31:.\inc/cmsis_gcc.h ****    POSSIBILITY OF SUCH DAMAGE.
  32:.\inc/cmsis_gcc.h ****    ---------------------------------------------------------------------------*/
  33:.\inc/cmsis_gcc.h **** 
  34:.\inc/cmsis_gcc.h **** 
  35:.\inc/cmsis_gcc.h **** #ifndef __CMSIS_GCC_H
  36:.\inc/cmsis_gcc.h **** #define __CMSIS_GCC_H
  37:.\inc/cmsis_gcc.h **** 
  38:.\inc/cmsis_gcc.h **** /* ignore some GCC warnings */
  39:.\inc/cmsis_gcc.h **** #if defined ( __GNUC__ )
  40:.\inc/cmsis_gcc.h **** #pragma GCC diagnostic push
  41:.\inc/cmsis_gcc.h **** #pragma GCC diagnostic ignored "-Wsign-conversion"
  42:.\inc/cmsis_gcc.h **** #pragma GCC diagnostic ignored "-Wconversion"
ARM GAS  C:\Users\claym\AppData\Local\Temp\ccxpUFUu.s 			page 44


  43:.\inc/cmsis_gcc.h **** #pragma GCC diagnostic ignored "-Wunused-parameter"
  44:.\inc/cmsis_gcc.h **** #endif
  45:.\inc/cmsis_gcc.h **** 
  46:.\inc/cmsis_gcc.h **** 
  47:.\inc/cmsis_gcc.h **** /* ###########################  Core Function Access  ########################### */
  48:.\inc/cmsis_gcc.h **** /** \ingroup  CMSIS_Core_FunctionInterface
  49:.\inc/cmsis_gcc.h ****     \defgroup CMSIS_Core_RegAccFunctions CMSIS Core Register Access Functions
  50:.\inc/cmsis_gcc.h ****   @{
  51:.\inc/cmsis_gcc.h ****  */
  52:.\inc/cmsis_gcc.h **** 
  53:.\inc/cmsis_gcc.h **** /**
  54:.\inc/cmsis_gcc.h ****   \brief   Enable IRQ Interrupts
  55:.\inc/cmsis_gcc.h ****   \details Enables IRQ interrupts by clearing the I-bit in the CPSR.
  56:.\inc/cmsis_gcc.h ****            Can only be executed in Privileged modes.
  57:.\inc/cmsis_gcc.h ****  */
  58:.\inc/cmsis_gcc.h **** __attribute__( ( always_inline ) ) __STATIC_INLINE void __enable_irq(void)
  59:.\inc/cmsis_gcc.h **** {
  60:.\inc/cmsis_gcc.h ****   __ASM volatile ("cpsie i" : : : "memory");
  61:.\inc/cmsis_gcc.h **** }
  62:.\inc/cmsis_gcc.h **** 
  63:.\inc/cmsis_gcc.h **** 
  64:.\inc/cmsis_gcc.h **** /**
  65:.\inc/cmsis_gcc.h ****   \brief   Disable IRQ Interrupts
  66:.\inc/cmsis_gcc.h ****   \details Disables IRQ interrupts by setting the I-bit in the CPSR.
  67:.\inc/cmsis_gcc.h ****   Can only be executed in Privileged modes.
  68:.\inc/cmsis_gcc.h ****  */
  69:.\inc/cmsis_gcc.h **** __attribute__( ( always_inline ) ) __STATIC_INLINE void __disable_irq(void)
  70:.\inc/cmsis_gcc.h **** {
  71:.\inc/cmsis_gcc.h ****   __ASM volatile ("cpsid i" : : : "memory");
  72:.\inc/cmsis_gcc.h **** }
  73:.\inc/cmsis_gcc.h **** 
  74:.\inc/cmsis_gcc.h **** 
  75:.\inc/cmsis_gcc.h **** /**
  76:.\inc/cmsis_gcc.h ****   \brief   Get Control Register
  77:.\inc/cmsis_gcc.h ****   \details Returns the content of the Control Register.
  78:.\inc/cmsis_gcc.h ****   \return               Control Register value
  79:.\inc/cmsis_gcc.h ****  */
  80:.\inc/cmsis_gcc.h **** __attribute__( ( always_inline ) ) __STATIC_INLINE uint32_t __get_CONTROL(void)
  81:.\inc/cmsis_gcc.h **** {
  82:.\inc/cmsis_gcc.h ****   uint32_t result;
  83:.\inc/cmsis_gcc.h **** 
  84:.\inc/cmsis_gcc.h ****   __ASM volatile ("MRS %0, control" : "=r" (result) );
  85:.\inc/cmsis_gcc.h ****   return(result);
  86:.\inc/cmsis_gcc.h **** }
  87:.\inc/cmsis_gcc.h **** 
  88:.\inc/cmsis_gcc.h **** 
  89:.\inc/cmsis_gcc.h **** /**
  90:.\inc/cmsis_gcc.h ****   \brief   Set Control Register
  91:.\inc/cmsis_gcc.h ****   \details Writes the given value to the Control Register.
  92:.\inc/cmsis_gcc.h ****   \param [in]    control  Control Register value to set
  93:.\inc/cmsis_gcc.h ****  */
  94:.\inc/cmsis_gcc.h **** __attribute__( ( always_inline ) ) __STATIC_INLINE void __set_CONTROL(uint32_t control)
  95:.\inc/cmsis_gcc.h **** {
  96:.\inc/cmsis_gcc.h ****   __ASM volatile ("MSR control, %0" : : "r" (control) : "memory");
  97:.\inc/cmsis_gcc.h **** }
  98:.\inc/cmsis_gcc.h **** 
  99:.\inc/cmsis_gcc.h **** 
ARM GAS  C:\Users\claym\AppData\Local\Temp\ccxpUFUu.s 			page 45


 100:.\inc/cmsis_gcc.h **** /**
 101:.\inc/cmsis_gcc.h ****   \brief   Get IPSR Register
 102:.\inc/cmsis_gcc.h ****   \details Returns the content of the IPSR Register.
 103:.\inc/cmsis_gcc.h ****   \return               IPSR Register value
 104:.\inc/cmsis_gcc.h ****  */
 105:.\inc/cmsis_gcc.h **** __attribute__( ( always_inline ) ) __STATIC_INLINE uint32_t __get_IPSR(void)
 106:.\inc/cmsis_gcc.h **** {
 107:.\inc/cmsis_gcc.h ****   uint32_t result;
 108:.\inc/cmsis_gcc.h **** 
 109:.\inc/cmsis_gcc.h ****   __ASM volatile ("MRS %0, ipsr" : "=r" (result) );
 110:.\inc/cmsis_gcc.h ****   return(result);
 111:.\inc/cmsis_gcc.h **** }
 112:.\inc/cmsis_gcc.h **** 
 113:.\inc/cmsis_gcc.h **** 
 114:.\inc/cmsis_gcc.h **** /**
 115:.\inc/cmsis_gcc.h ****   \brief   Get APSR Register
 116:.\inc/cmsis_gcc.h ****   \details Returns the content of the APSR Register.
 117:.\inc/cmsis_gcc.h ****   \return               APSR Register value
 118:.\inc/cmsis_gcc.h ****  */
 119:.\inc/cmsis_gcc.h **** __attribute__( ( always_inline ) ) __STATIC_INLINE uint32_t __get_APSR(void)
 120:.\inc/cmsis_gcc.h **** {
 121:.\inc/cmsis_gcc.h ****   uint32_t result;
 122:.\inc/cmsis_gcc.h **** 
 123:.\inc/cmsis_gcc.h ****   __ASM volatile ("MRS %0, apsr" : "=r" (result) );
 124:.\inc/cmsis_gcc.h ****   return(result);
 125:.\inc/cmsis_gcc.h **** }
 126:.\inc/cmsis_gcc.h **** 
 127:.\inc/cmsis_gcc.h **** 
 128:.\inc/cmsis_gcc.h **** /**
 129:.\inc/cmsis_gcc.h ****   \brief   Get xPSR Register
 130:.\inc/cmsis_gcc.h ****   \details Returns the content of the xPSR Register.
 131:.\inc/cmsis_gcc.h **** 
 132:.\inc/cmsis_gcc.h ****     \return               xPSR Register value
 133:.\inc/cmsis_gcc.h ****  */
 134:.\inc/cmsis_gcc.h **** __attribute__( ( always_inline ) ) __STATIC_INLINE uint32_t __get_xPSR(void)
 135:.\inc/cmsis_gcc.h **** {
 136:.\inc/cmsis_gcc.h ****   uint32_t result;
 137:.\inc/cmsis_gcc.h **** 
 138:.\inc/cmsis_gcc.h ****   __ASM volatile ("MRS %0, xpsr" : "=r" (result) );
 139:.\inc/cmsis_gcc.h ****   return(result);
 140:.\inc/cmsis_gcc.h **** }
 141:.\inc/cmsis_gcc.h **** 
 142:.\inc/cmsis_gcc.h **** 
 143:.\inc/cmsis_gcc.h **** /**
 144:.\inc/cmsis_gcc.h ****   \brief   Get Process Stack Pointer
 145:.\inc/cmsis_gcc.h ****   \details Returns the current value of the Process Stack Pointer (PSP).
 146:.\inc/cmsis_gcc.h ****   \return               PSP Register value
 147:.\inc/cmsis_gcc.h ****  */
 148:.\inc/cmsis_gcc.h **** __attribute__( ( always_inline ) ) __STATIC_INLINE uint32_t __get_PSP(void)
 149:.\inc/cmsis_gcc.h **** {
 150:.\inc/cmsis_gcc.h ****   register uint32_t result;
 151:.\inc/cmsis_gcc.h **** 
 152:.\inc/cmsis_gcc.h ****   __ASM volatile ("MRS %0, psp\n"  : "=r" (result) );
 153:.\inc/cmsis_gcc.h ****   return(result);
 154:.\inc/cmsis_gcc.h **** }
 155:.\inc/cmsis_gcc.h **** 
 156:.\inc/cmsis_gcc.h **** 
ARM GAS  C:\Users\claym\AppData\Local\Temp\ccxpUFUu.s 			page 46


 157:.\inc/cmsis_gcc.h **** /**
 158:.\inc/cmsis_gcc.h ****   \brief   Set Process Stack Pointer
 159:.\inc/cmsis_gcc.h ****   \details Assigns the given value to the Process Stack Pointer (PSP).
 160:.\inc/cmsis_gcc.h ****   \param [in]    topOfProcStack  Process Stack Pointer value to set
 161:.\inc/cmsis_gcc.h ****  */
 162:.\inc/cmsis_gcc.h **** __attribute__( ( always_inline ) ) __STATIC_INLINE void __set_PSP(uint32_t topOfProcStack)
 163:.\inc/cmsis_gcc.h **** {
 164:.\inc/cmsis_gcc.h ****   __ASM volatile ("MSR psp, %0\n" : : "r" (topOfProcStack) : "sp");
 165:.\inc/cmsis_gcc.h **** }
 166:.\inc/cmsis_gcc.h **** 
 167:.\inc/cmsis_gcc.h **** 
 168:.\inc/cmsis_gcc.h **** /**
 169:.\inc/cmsis_gcc.h ****   \brief   Get Main Stack Pointer
 170:.\inc/cmsis_gcc.h ****   \details Returns the current value of the Main Stack Pointer (MSP).
 171:.\inc/cmsis_gcc.h ****   \return               MSP Register value
 172:.\inc/cmsis_gcc.h ****  */
 173:.\inc/cmsis_gcc.h **** __attribute__( ( always_inline ) ) __STATIC_INLINE uint32_t __get_MSP(void)
 174:.\inc/cmsis_gcc.h **** {
 175:.\inc/cmsis_gcc.h ****   register uint32_t result;
 176:.\inc/cmsis_gcc.h **** 
 177:.\inc/cmsis_gcc.h ****   __ASM volatile ("MRS %0, msp\n" : "=r" (result) );
 178:.\inc/cmsis_gcc.h ****   return(result);
 179:.\inc/cmsis_gcc.h **** }
 180:.\inc/cmsis_gcc.h **** 
 181:.\inc/cmsis_gcc.h **** 
 182:.\inc/cmsis_gcc.h **** /**
 183:.\inc/cmsis_gcc.h ****   \brief   Set Main Stack Pointer
 184:.\inc/cmsis_gcc.h ****   \details Assigns the given value to the Main Stack Pointer (MSP).
 185:.\inc/cmsis_gcc.h **** 
 186:.\inc/cmsis_gcc.h ****     \param [in]    topOfMainStack  Main Stack Pointer value to set
 187:.\inc/cmsis_gcc.h ****  */
 188:.\inc/cmsis_gcc.h **** __attribute__( ( always_inline ) ) __STATIC_INLINE void __set_MSP(uint32_t topOfMainStack)
 189:.\inc/cmsis_gcc.h **** {
 190:.\inc/cmsis_gcc.h ****   __ASM volatile ("MSR msp, %0\n" : : "r" (topOfMainStack) : "sp");
 191:.\inc/cmsis_gcc.h **** }
 192:.\inc/cmsis_gcc.h **** 
 193:.\inc/cmsis_gcc.h **** 
 194:.\inc/cmsis_gcc.h **** /**
 195:.\inc/cmsis_gcc.h ****   \brief   Get Priority Mask
 196:.\inc/cmsis_gcc.h ****   \details Returns the current state of the priority mask bit from the Priority Mask Register.
 197:.\inc/cmsis_gcc.h ****   \return               Priority Mask value
 198:.\inc/cmsis_gcc.h ****  */
 199:.\inc/cmsis_gcc.h **** __attribute__( ( always_inline ) ) __STATIC_INLINE uint32_t __get_PRIMASK(void)
 200:.\inc/cmsis_gcc.h **** {
 201:.\inc/cmsis_gcc.h ****   uint32_t result;
 202:.\inc/cmsis_gcc.h **** 
 203:.\inc/cmsis_gcc.h ****   __ASM volatile ("MRS %0, primask" : "=r" (result) );
 204:.\inc/cmsis_gcc.h ****   return(result);
 205:.\inc/cmsis_gcc.h **** }
 206:.\inc/cmsis_gcc.h **** 
 207:.\inc/cmsis_gcc.h **** 
 208:.\inc/cmsis_gcc.h **** /**
 209:.\inc/cmsis_gcc.h ****   \brief   Set Priority Mask
 210:.\inc/cmsis_gcc.h ****   \details Assigns the given value to the Priority Mask Register.
 211:.\inc/cmsis_gcc.h ****   \param [in]    priMask  Priority Mask
 212:.\inc/cmsis_gcc.h ****  */
 213:.\inc/cmsis_gcc.h **** __attribute__( ( always_inline ) ) __STATIC_INLINE void __set_PRIMASK(uint32_t priMask)
ARM GAS  C:\Users\claym\AppData\Local\Temp\ccxpUFUu.s 			page 47


 214:.\inc/cmsis_gcc.h **** {
 215:.\inc/cmsis_gcc.h ****   __ASM volatile ("MSR primask, %0" : : "r" (priMask) : "memory");
 216:.\inc/cmsis_gcc.h **** }
 217:.\inc/cmsis_gcc.h **** 
 218:.\inc/cmsis_gcc.h **** 
 219:.\inc/cmsis_gcc.h **** #if       (__CORTEX_M >= 0x03U)
 220:.\inc/cmsis_gcc.h **** 
 221:.\inc/cmsis_gcc.h **** /**
 222:.\inc/cmsis_gcc.h ****   \brief   Enable FIQ
 223:.\inc/cmsis_gcc.h ****   \details Enables FIQ interrupts by clearing the F-bit in the CPSR.
 224:.\inc/cmsis_gcc.h ****            Can only be executed in Privileged modes.
 225:.\inc/cmsis_gcc.h ****  */
 226:.\inc/cmsis_gcc.h **** __attribute__( ( always_inline ) ) __STATIC_INLINE void __enable_fault_irq(void)
 227:.\inc/cmsis_gcc.h **** {
 228:.\inc/cmsis_gcc.h ****   __ASM volatile ("cpsie f" : : : "memory");
 229:.\inc/cmsis_gcc.h **** }
 230:.\inc/cmsis_gcc.h **** 
 231:.\inc/cmsis_gcc.h **** 
 232:.\inc/cmsis_gcc.h **** /**
 233:.\inc/cmsis_gcc.h ****   \brief   Disable FIQ
 234:.\inc/cmsis_gcc.h ****   \details Disables FIQ interrupts by setting the F-bit in the CPSR.
 235:.\inc/cmsis_gcc.h ****            Can only be executed in Privileged modes.
 236:.\inc/cmsis_gcc.h ****  */
 237:.\inc/cmsis_gcc.h **** __attribute__( ( always_inline ) ) __STATIC_INLINE void __disable_fault_irq(void)
 238:.\inc/cmsis_gcc.h **** {
 239:.\inc/cmsis_gcc.h ****   __ASM volatile ("cpsid f" : : : "memory");
 240:.\inc/cmsis_gcc.h **** }
 241:.\inc/cmsis_gcc.h **** 
 242:.\inc/cmsis_gcc.h **** 
 243:.\inc/cmsis_gcc.h **** /**
 244:.\inc/cmsis_gcc.h ****   \brief   Get Base Priority
 245:.\inc/cmsis_gcc.h ****   \details Returns the current value of the Base Priority register.
 246:.\inc/cmsis_gcc.h ****   \return               Base Priority register value
 247:.\inc/cmsis_gcc.h ****  */
 248:.\inc/cmsis_gcc.h **** __attribute__( ( always_inline ) ) __STATIC_INLINE uint32_t __get_BASEPRI(void)
 249:.\inc/cmsis_gcc.h **** {
 250:.\inc/cmsis_gcc.h ****   uint32_t result;
 251:.\inc/cmsis_gcc.h **** 
 252:.\inc/cmsis_gcc.h ****   __ASM volatile ("MRS %0, basepri" : "=r" (result) );
 253:.\inc/cmsis_gcc.h ****   return(result);
 254:.\inc/cmsis_gcc.h **** }
 255:.\inc/cmsis_gcc.h **** 
 256:.\inc/cmsis_gcc.h **** 
 257:.\inc/cmsis_gcc.h **** /**
 258:.\inc/cmsis_gcc.h ****   \brief   Set Base Priority
 259:.\inc/cmsis_gcc.h ****   \details Assigns the given value to the Base Priority register.
 260:.\inc/cmsis_gcc.h ****   \param [in]    basePri  Base Priority value to set
 261:.\inc/cmsis_gcc.h ****  */
 262:.\inc/cmsis_gcc.h **** __attribute__( ( always_inline ) ) __STATIC_INLINE void __set_BASEPRI(uint32_t value)
 263:.\inc/cmsis_gcc.h **** {
 264:.\inc/cmsis_gcc.h ****   __ASM volatile ("MSR basepri, %0" : : "r" (value) : "memory");
 265:.\inc/cmsis_gcc.h **** }
 266:.\inc/cmsis_gcc.h **** 
 267:.\inc/cmsis_gcc.h **** 
 268:.\inc/cmsis_gcc.h **** /**
 269:.\inc/cmsis_gcc.h ****   \brief   Set Base Priority with condition
 270:.\inc/cmsis_gcc.h ****   \details Assigns the given value to the Base Priority register only if BASEPRI masking is disable
ARM GAS  C:\Users\claym\AppData\Local\Temp\ccxpUFUu.s 			page 48


 271:.\inc/cmsis_gcc.h ****            or the new value increases the BASEPRI priority level.
 272:.\inc/cmsis_gcc.h ****   \param [in]    basePri  Base Priority value to set
 273:.\inc/cmsis_gcc.h ****  */
 274:.\inc/cmsis_gcc.h **** __attribute__( ( always_inline ) ) __STATIC_INLINE void __set_BASEPRI_MAX(uint32_t value)
 275:.\inc/cmsis_gcc.h **** {
 276:.\inc/cmsis_gcc.h ****   __ASM volatile ("MSR basepri_max, %0" : : "r" (value) : "memory");
 277:.\inc/cmsis_gcc.h **** }
 278:.\inc/cmsis_gcc.h **** 
 279:.\inc/cmsis_gcc.h **** 
 280:.\inc/cmsis_gcc.h **** /**
 281:.\inc/cmsis_gcc.h ****   \brief   Get Fault Mask
 282:.\inc/cmsis_gcc.h ****   \details Returns the current value of the Fault Mask register.
 283:.\inc/cmsis_gcc.h ****   \return               Fault Mask register value
 284:.\inc/cmsis_gcc.h ****  */
 285:.\inc/cmsis_gcc.h **** __attribute__( ( always_inline ) ) __STATIC_INLINE uint32_t __get_FAULTMASK(void)
 286:.\inc/cmsis_gcc.h **** {
 287:.\inc/cmsis_gcc.h ****   uint32_t result;
 288:.\inc/cmsis_gcc.h **** 
 289:.\inc/cmsis_gcc.h ****   __ASM volatile ("MRS %0, faultmask" : "=r" (result) );
 290:.\inc/cmsis_gcc.h ****   return(result);
 291:.\inc/cmsis_gcc.h **** }
 292:.\inc/cmsis_gcc.h **** 
 293:.\inc/cmsis_gcc.h **** 
 294:.\inc/cmsis_gcc.h **** /**
 295:.\inc/cmsis_gcc.h ****   \brief   Set Fault Mask
 296:.\inc/cmsis_gcc.h ****   \details Assigns the given value to the Fault Mask register.
 297:.\inc/cmsis_gcc.h ****   \param [in]    faultMask  Fault Mask value to set
 298:.\inc/cmsis_gcc.h ****  */
 299:.\inc/cmsis_gcc.h **** __attribute__( ( always_inline ) ) __STATIC_INLINE void __set_FAULTMASK(uint32_t faultMask)
 300:.\inc/cmsis_gcc.h **** {
 301:.\inc/cmsis_gcc.h ****   __ASM volatile ("MSR faultmask, %0" : : "r" (faultMask) : "memory");
 302:.\inc/cmsis_gcc.h **** }
 303:.\inc/cmsis_gcc.h **** 
 304:.\inc/cmsis_gcc.h **** #endif /* (__CORTEX_M >= 0x03U) */
 305:.\inc/cmsis_gcc.h **** 
 306:.\inc/cmsis_gcc.h **** 
 307:.\inc/cmsis_gcc.h **** #if       (__CORTEX_M == 0x04U) || (__CORTEX_M == 0x07U)
 308:.\inc/cmsis_gcc.h **** 
 309:.\inc/cmsis_gcc.h **** /**
 310:.\inc/cmsis_gcc.h ****   \brief   Get FPSCR
 311:.\inc/cmsis_gcc.h ****   \details Returns the current value of the Floating Point Status/Control register.
 312:.\inc/cmsis_gcc.h ****   \return               Floating Point Status/Control register value
 313:.\inc/cmsis_gcc.h ****  */
 314:.\inc/cmsis_gcc.h **** __attribute__( ( always_inline ) ) __STATIC_INLINE uint32_t __get_FPSCR(void)
 315:.\inc/cmsis_gcc.h **** {
 316:.\inc/cmsis_gcc.h **** #if (__FPU_PRESENT == 1U) && (__FPU_USED == 1U)
 317:.\inc/cmsis_gcc.h ****   uint32_t result;
 318:.\inc/cmsis_gcc.h **** 
 319:.\inc/cmsis_gcc.h ****   /* Empty asm statement works as a scheduling barrier */
 320:.\inc/cmsis_gcc.h ****   __ASM volatile ("");
 321:.\inc/cmsis_gcc.h ****   __ASM volatile ("VMRS %0, fpscr" : "=r" (result) );
 322:.\inc/cmsis_gcc.h ****   __ASM volatile ("");
 323:.\inc/cmsis_gcc.h ****   return(result);
 324:.\inc/cmsis_gcc.h **** #else
 325:.\inc/cmsis_gcc.h ****    return(0);
 326:.\inc/cmsis_gcc.h **** #endif
 327:.\inc/cmsis_gcc.h **** }
ARM GAS  C:\Users\claym\AppData\Local\Temp\ccxpUFUu.s 			page 49


 328:.\inc/cmsis_gcc.h **** 
 329:.\inc/cmsis_gcc.h **** 
 330:.\inc/cmsis_gcc.h **** /**
 331:.\inc/cmsis_gcc.h ****   \brief   Set FPSCR
 332:.\inc/cmsis_gcc.h ****   \details Assigns the given value to the Floating Point Status/Control register.
 333:.\inc/cmsis_gcc.h ****   \param [in]    fpscr  Floating Point Status/Control value to set
 334:.\inc/cmsis_gcc.h ****  */
 335:.\inc/cmsis_gcc.h **** __attribute__( ( always_inline ) ) __STATIC_INLINE void __set_FPSCR(uint32_t fpscr)
 336:.\inc/cmsis_gcc.h **** {
 337:.\inc/cmsis_gcc.h **** #if (__FPU_PRESENT == 1U) && (__FPU_USED == 1U)
 338:.\inc/cmsis_gcc.h ****   /* Empty asm statement works as a scheduling barrier */
 339:.\inc/cmsis_gcc.h ****   __ASM volatile ("");
 340:.\inc/cmsis_gcc.h ****   __ASM volatile ("VMSR fpscr, %0" : : "r" (fpscr) : "vfpcc");
 341:.\inc/cmsis_gcc.h ****   __ASM volatile ("");
 342:.\inc/cmsis_gcc.h **** #endif
 343:.\inc/cmsis_gcc.h **** }
 344:.\inc/cmsis_gcc.h **** 
 345:.\inc/cmsis_gcc.h **** #endif /* (__CORTEX_M == 0x04U) || (__CORTEX_M == 0x07U) */
 346:.\inc/cmsis_gcc.h **** 
 347:.\inc/cmsis_gcc.h **** 
 348:.\inc/cmsis_gcc.h **** 
 349:.\inc/cmsis_gcc.h **** /*@} end of CMSIS_Core_RegAccFunctions */
 350:.\inc/cmsis_gcc.h **** 
 351:.\inc/cmsis_gcc.h **** 
 352:.\inc/cmsis_gcc.h **** /* ##########################  Core Instruction Access  ######################### */
 353:.\inc/cmsis_gcc.h **** /** \defgroup CMSIS_Core_InstructionInterface CMSIS Core Instruction Interface
 354:.\inc/cmsis_gcc.h ****   Access to dedicated instructions
 355:.\inc/cmsis_gcc.h ****   @{
 356:.\inc/cmsis_gcc.h **** */
 357:.\inc/cmsis_gcc.h **** 
 358:.\inc/cmsis_gcc.h **** /* Define macros for porting to both thumb1 and thumb2.
 359:.\inc/cmsis_gcc.h ****  * For thumb1, use low register (r0-r7), specified by constraint "l"
 360:.\inc/cmsis_gcc.h ****  * Otherwise, use general registers, specified by constraint "r" */
 361:.\inc/cmsis_gcc.h **** #if defined (__thumb__) && !defined (__thumb2__)
 362:.\inc/cmsis_gcc.h **** #define __CMSIS_GCC_OUT_REG(r) "=l" (r)
 363:.\inc/cmsis_gcc.h **** #define __CMSIS_GCC_USE_REG(r) "l" (r)
 364:.\inc/cmsis_gcc.h **** #else
 365:.\inc/cmsis_gcc.h **** #define __CMSIS_GCC_OUT_REG(r) "=r" (r)
 366:.\inc/cmsis_gcc.h **** #define __CMSIS_GCC_USE_REG(r) "r" (r)
 367:.\inc/cmsis_gcc.h **** #endif
 368:.\inc/cmsis_gcc.h **** 
 369:.\inc/cmsis_gcc.h **** /**
 370:.\inc/cmsis_gcc.h ****   \brief   No Operation
 371:.\inc/cmsis_gcc.h ****   \details No Operation does nothing. This instruction can be used for code alignment purposes.
 372:.\inc/cmsis_gcc.h ****  */
 373:.\inc/cmsis_gcc.h **** __attribute__((always_inline)) __STATIC_INLINE void __NOP(void)
 374:.\inc/cmsis_gcc.h **** {
 375:.\inc/cmsis_gcc.h ****   __ASM volatile ("nop");
 1572              		.loc 2 375 0
 1573              		.syntax divided
 1574              	@ 375 ".\inc/cmsis_gcc.h" 1
 1575 04bc C046     		nop
 1576              	@ 0 "" 2
 1577              		.thumb
 1578              		.syntax unified
 1579              	.LBE117:
 1580              	.LBE116:
ARM GAS  C:\Users\claym\AppData\Local\Temp\ccxpUFUu.s 			page 50


 1581              	.LBB118:
 1582              	.LBB119:
 1583              		.syntax divided
 1584              	@ 375 ".\inc/cmsis_gcc.h" 1
 1585 04be C046     		nop
 1586              	@ 0 "" 2
 1587              		.thumb
 1588              		.syntax unified
 1589              	.LBE119:
 1590              	.LBE118:
 1591              	.LBB120:
 1592              	.LBB121:
 1593              		.syntax divided
 1594              	@ 375 ".\inc/cmsis_gcc.h" 1
 1595 04c0 C046     		nop
 1596              	@ 0 "" 2
 1597              		.thumb
 1598              		.syntax unified
 1599              	.LBE121:
 1600              	.LBE120:
 1601              	@ .\driver\src\i2c_va108xx.c:627: 		  if((!(status&I2C_PERIPHERAL_STATUS_IDLE_Msk) || (status &I2C_
 627:.\driver\src/i2c_va108xx.c ****   	    /* Check TX fifo status and Load Remaining Data */ 
 1602              		.loc 1 627 0
 1603 04c2 6046     		mov	r0, ip	@ tmp177, tmp226
 1604              	@ .\driver\src\i2c_va108xx.c:626: 		  status = i2c->reg->STATUS;
 626:.\driver\src/i2c_va108xx.c **** 		  if((!(status&I2C_PERIPHERAL_STATUS_IDLE_Msk) || (status &I2C_PERIPHERAL_STATUS_WAITING_Msk) || 
 1605              		.loc 1 626 0
 1606 04c4 6268     		ldr	r2, [r4, #4]	@ _10, i2c_49(D)->reg
 1607 04c6 9369     		ldr	r3, [r2, #24]	@ status, _10->STATUS
 1608              	.LVL108:
 1609              	@ .\driver\src\i2c_va108xx.c:627: 		  if((!(status&I2C_PERIPHERAL_STATUS_IDLE_Msk) || (status &I2C_
 627:.\driver\src/i2c_va108xx.c ****   	    /* Check TX fifo status and Load Remaining Data */ 
 1610              		.loc 1 627 0
 1611 04c8 1840     		ands	r0, r3	@ tmp177, status
 1612 04ca 0228     		cmp	r0, #2	@ tmp177,
 1613 04cc 13D0     		beq	.L128	@,
 1614              	@ .\driver\src\i2c_va108xx.c:629: 	      if((status&I2C_PERIPHERAL_STATUS_TXNFULL_Msk)!=0) {
 629:.\driver\src/i2c_va108xx.c ****     	    i2c->reg->DATA=data[i++];
 1615              		.loc 1 629 0
 1616 04ce 8020     		movs	r0, #128	@ tmp250,
 1617 04d0 8001     		lsls	r0, r0, #6	@ tmp250, tmp250,
 1618 04d2 0342     		tst	r3, r0	@ status, tmp250
 1619 04d4 0FD0     		beq	.L128	@,
 1620              	.LVL109:
 1621              	@ .\driver\src\i2c_va108xx.c:630:     	    i2c->reg->DATA=data[i++];
 630:.\driver\src/i2c_va108xx.c **** 		      num--;			
 1622              		.loc 1 630 0
 1623 04d6 0198     		ldr	r0, [sp, #4]	@ data, %sfp
 1624              	@ .\driver\src\i2c_va108xx.c:631: 		      num--;			
 631:.\driver\src/i2c_va108xx.c **** 					i2c->info.txidx++;
 1625              		.loc 1 631 0
 1626 04d8 013F     		subs	r7, r7, #1	@ num,
 1627              	.LVL110:
 1628              	@ .\driver\src\i2c_va108xx.c:630:     	    i2c->reg->DATA=data[i++];
 630:.\driver\src/i2c_va108xx.c **** 		      num--;			
 1629              		.loc 1 630 0
 1630 04da 405C     		ldrb	r0, [r0, r1]	@ _16, *_14
ARM GAS  C:\Users\claym\AppData\Local\Temp\ccxpUFUu.s 			page 51


 1631 04dc 0131     		adds	r1, r1, #1	@ i,
 1632              	.LVL111:
 1633 04de 1061     		str	r0, [r2, #16]	@ _16, _10->DATA
 1634              	@ .\driver\src\i2c_va108xx.c:632: 					i2c->info.txidx++;
 632:.\driver\src/i2c_va108xx.c **** 			    if((num==0) && (xfer_pending == 0))
 1635              		.loc 1 632 0
 1636 04e0 A06D     		ldr	r0, [r4, #88]	@ tmp252, i2c_49(D)->info.txidx
 1637 04e2 0130     		adds	r0, r0, #1	@ tmp181,
 1638 04e4 A065     		str	r0, [r4, #88]	@ tmp181, i2c_49(D)->info.txidx
 1639              	@ .\driver\src\i2c_va108xx.c:633: 			    if((num==0) && (xfer_pending == 0))
 633:.\driver\src/i2c_va108xx.c ****     			  i2c->reg->CMD |= I2C_CMD_STOP;
 1640              		.loc 1 633 0
 1641 04e6 002F     		cmp	r7, #0	@ num,
 1642 04e8 05D1     		bne	.L128	@,
 1643              	@ .\driver\src\i2c_va108xx.c:633: 			    if((num==0) && (xfer_pending == 0))
 633:.\driver\src/i2c_va108xx.c ****     			  i2c->reg->CMD |= I2C_CMD_STOP;
 1644              		.loc 1 633 0 is_stmt 0 discriminator 1
 1645 04ea 0398     		ldr	r0, [sp, #12]	@ xfer_pending, %sfp
 1646 04ec 0028     		cmp	r0, #0	@ xfer_pending,
 1647 04ee 02D1     		bne	.L128	@,
 1648              	@ .\driver\src\i2c_va108xx.c:634:     			  i2c->reg->CMD |= I2C_CMD_STOP;
 634:.\driver\src/i2c_va108xx.c **** 	      }
 1649              		.loc 1 634 0 is_stmt 1
 1650 04f0 5069     		ldr	r0, [r2, #20]	@ _19, _10->CMD
 1651 04f2 3043     		orrs	r0, r6	@ _20, tmp228
 1652 04f4 5061     		str	r0, [r2, #20]	@ _20, _10->CMD
 1653              	.L128:
 1654              	@ .\driver\src\i2c_va108xx.c:638:   	  if( status & I2C_PERIPHERAL_STATUS_ARBLOST_Msk ) {
 638:.\driver\src/i2c_va108xx.c **** 	      VOR_I2C_Stop(i2c);
 1655              		.loc 1 638 0
 1656 04f6 2B42     		tst	r3, r5	@ status, tmp229
 1657 04f8 05D0     		beq	.L129	@,
 1658              	@ .\driver\src\i2c_va108xx.c:639: 	      VOR_I2C_Stop(i2c);
 639:.\driver\src/i2c_va108xx.c ****   		  return VOR_I2C_ERROR_ARBITRATION_LOST;
 1659              		.loc 1 639 0
 1660 04fa 2000     		movs	r0, r4	@, i2c
 1661 04fc FFF724FE 		bl	VOR_I2C_Stop	@
 1662              	.LVL112:
 1663              	@ .\driver\src\i2c_va108xx.c:640:   		  return VOR_I2C_ERROR_ARBITRATION_LOST;
 640:.\driver\src/i2c_va108xx.c **** 	    }
 1664              		.loc 1 640 0
 1665 0500 0D25     		movs	r5, #13	@ <retval>,
 1666              	.L150:
 1667              	@ .\driver\src\i2c_va108xx.c:599:     return VOR_DRIVER_ERROR;
 599:.\driver\src/i2c_va108xx.c ****   }
 1668              		.loc 1 599 0
 1669 0502 6D42     		rsbs	r5, r5, #0	@ <retval>, <retval>
 1670 0504 1BE0     		b	.L124	@
 1671              	.LVL113:
 1672              	.L129:
 1673              	@ .\driver\src\i2c_va108xx.c:643: 	    if(status & I2C_PERIPHERAL_STATUS_NACKADDR_Msk) {
 643:.\driver\src/i2c_va108xx.c **** 	      VOR_I2C_Stop(i2c);
 1674              		.loc 1 643 0
 1675 0506 9A06     		lsls	r2, r3, #26	@ tmp242, status,
 1676 0508 04D5     		bpl	.L130	@,
 1677              	@ .\driver\src\i2c_va108xx.c:644: 	      VOR_I2C_Stop(i2c);
 644:.\driver\src/i2c_va108xx.c **** 	      return VOR_I2C_ERROR_ADDRESS_NACK;
ARM GAS  C:\Users\claym\AppData\Local\Temp\ccxpUFUu.s 			page 52


 1678              		.loc 1 644 0
 1679 050a 2000     		movs	r0, r4	@, i2c
 1680 050c FFF71CFE 		bl	VOR_I2C_Stop	@
 1681              	.LVL114:
 1682              	@ .\driver\src\i2c_va108xx.c:645: 	      return VOR_I2C_ERROR_ADDRESS_NACK;
 645:.\driver\src/i2c_va108xx.c **** 	    }
 1683              		.loc 1 645 0
 1684 0510 0C25     		movs	r5, #12	@ <retval>,
 1685 0512 F6E7     		b	.L150	@
 1686              	.LVL115:
 1687              	.L130:
 1688              	@ .\driver\src\i2c_va108xx.c:648: 	    if(status & I2C_PERIPHERAL_STATUS_NACKDATA_Msk) {
 648:.\driver\src/i2c_va108xx.c **** 	      VOR_I2C_Stop(i2c);
 1689              		.loc 1 648 0
 1690 0514 5B06     		lsls	r3, r3, #25	@ tmp243, status,
 1691 0516 C0D5     		bpl	.L127	@,
 1692              	.LVL116:
 1693              	.L133:
 1694              	@ .\driver\src\i2c_va108xx.c:649: 	      VOR_I2C_Stop(i2c);
 649:.\driver\src/i2c_va108xx.c **** 		    return VOR_I2C_ERROR_TRANSFER_INCOMPLETE;
 1695              		.loc 1 649 0
 1696 0518 2000     		movs	r0, r4	@, i2c
 1697 051a FFF715FE 		bl	VOR_I2C_Stop	@
 1698              	.LVL117:
 1699              	@ .\driver\src\i2c_va108xx.c:650: 		    return VOR_I2C_ERROR_TRANSFER_INCOMPLETE;
 650:.\driver\src/i2c_va108xx.c **** 	    }
 1700              		.loc 1 650 0
 1701 051e 0E25     		movs	r5, #14	@ <retval>,
 1702 0520 EFE7     		b	.L150	@
 1703              	.L134:
 1704              	.LBB122:
 1705              	.LBB123:
 1706              	@ .\inc/cmsis_gcc.h:375:   __ASM volatile ("nop");
 1707              		.loc 2 375 0
 1708              		.syntax divided
 1709              	@ 375 ".\inc/cmsis_gcc.h" 1
 1710 0522 C046     		nop
 1711              	@ 0 "" 2
 1712              		.thumb
 1713              		.syntax unified
 1714              	.LBE123:
 1715              	.LBE122:
 1716              	.LBB124:
 1717              	.LBB125:
 1718              		.syntax divided
 1719              	@ 375 ".\inc/cmsis_gcc.h" 1
 1720 0524 C046     		nop
 1721              	@ 0 "" 2
 1722              		.thumb
 1723              		.syntax unified
 1724              	.LBE125:
 1725              	.LBE124:
 1726              	@ .\driver\src\i2c_va108xx.c:664: 	    if( i2c->reg->STATUS & I2C_PERIPHERAL_STATUS_NACKDATA_Msk ) 
 664:.\driver\src/i2c_va108xx.c ****         VOR_I2C_Stop(i2c);
 1727              		.loc 1 664 0
 1728 0526 6268     		ldr	r2, [r4, #4]	@ _24, i2c_49(D)->reg
 1729 0528 9269     		ldr	r2, [r2, #24]	@ _25, _24->STATUS
ARM GAS  C:\Users\claym\AppData\Local\Temp\ccxpUFUu.s 			page 53


 1730 052a 0242     		tst	r2, r0	@ _25, tmp225
 1731 052c BAD0     		beq	.L132	@,
 1732 052e F3E7     		b	.L133	@
 1733              	.L135:
 1734              	@ .\driver\src\i2c_va108xx.c:708:   return VOR_DRIVER_OK;
 673:.\driver\src/i2c_va108xx.c **** 	  } 
 674:.\driver\src/i2c_va108xx.c **** 		
 675:.\driver\src/i2c_va108xx.c ****     if(!xfer_pending) 
 676:.\driver\src/i2c_va108xx.c **** 	    VOR_I2C_Stop(i2c);
 677:.\driver\src/i2c_va108xx.c ****   
 678:.\driver\src/i2c_va108xx.c **** 	} else {   /* Interrupt Mode */ 
 679:.\driver\src/i2c_va108xx.c ****     VOR_Disable_Irq(VOR_IRQ_I2C_MS, i2c->i2cId);
 680:.\driver\src/i2c_va108xx.c **** 	  i2c->reg->IRQ_CLR = 0xffffffff;
 681:.\driver\src/i2c_va108xx.c **** 	  i2c->reg->IRQ_CLR = 0;
 682:.\driver\src/i2c_va108xx.c **** 		
 683:.\driver\src/i2c_va108xx.c **** 	  /* Set Master Mode */ 
 684:.\driver\src/i2c_va108xx.c **** 	  i2c->info.status.mode = I2C_MODE_MASTER;
 685:.\driver\src/i2c_va108xx.c **** 		
 686:.\driver\src/i2c_va108xx.c **** 	  /* Set Direction Transmit */ 
 687:.\driver\src/i2c_va108xx.c **** 	  i2c->info.status.direction = I2C_DIR_TRANSMIT;
 688:.\driver\src/i2c_va108xx.c **** 		
 689:.\driver\src/i2c_va108xx.c **** 	  /* Set Up Control parameters */ 
 690:.\driver\src/i2c_va108xx.c ****     VOR_I2C_Setup(addr,num,i2c);
 691:.\driver\src/i2c_va108xx.c **** 	  memcpy(i2c->info.txdata,data,num);
 692:.\driver\src/i2c_va108xx.c **** 	  i2c->info.txidx = 0;
 693:.\driver\src/i2c_va108xx.c **** 	  i2c->info.rxidx = 0;
 694:.\driver\src/i2c_va108xx.c **** 	  i2c->info.txcnt = num;
 695:.\driver\src/i2c_va108xx.c **** 	  i2c->info.rxcnt = 0;
 696:.\driver\src/i2c_va108xx.c **** 	  i2c->reg->CMD = I2C_CMD_START;
 697:.\driver\src/i2c_va108xx.c **** 		
 698:.\driver\src/i2c_va108xx.c **** 	  /* Enable Interrupts */ 
 699:.\driver\src/i2c_va108xx.c **** 	  i2c->reg->IRQ_ENB = (I2C_PERIPHERAL_IRQ_END_IDLE_Msk | \
 700:.\driver\src/i2c_va108xx.c **** 												 I2C_PERIPHERAL_IRQ_END_ARBLOST_Msk | \
 701:.\driver\src/i2c_va108xx.c **** 												 I2C_PERIPHERAL_IRQ_END_NACKADDR_Msk | \
 702:.\driver\src/i2c_va108xx.c **** 												 I2C_PERIPHERAL_IRQ_END_NACKDATA_Msk | \
 703:.\driver\src/i2c_va108xx.c **** 												 I2C_PERIPHERAL_IRQ_END_CLKLOTO_Msk | \
 704:.\driver\src/i2c_va108xx.c **** 												 I2C_PERIPHERAL_IRQ_END_TXREADY_Msk | \
 705:.\driver\src/i2c_va108xx.c **** 												 I2C_PERIPHERAL_IRQ_END_TXEMPTY_Msk );
 706:.\driver\src/i2c_va108xx.c **** 	  VOR_Enable_Irq(VOR_IRQ_I2C_MS, i2c->i2cId);
 707:.\driver\src/i2c_va108xx.c ****   }
 708:.\driver\src/i2c_va108xx.c ****   return VOR_DRIVER_OK;
 1735              		.loc 1 708 0
 1736 0530 0025     		movs	r5, #0	@ <retval>,
 1737              	@ .\driver\src\i2c_va108xx.c:675:     if(!xfer_pending) 
 675:.\driver\src/i2c_va108xx.c **** 	    VOR_I2C_Stop(i2c);
 1738              		.loc 1 675 0
 1739 0532 039B     		ldr	r3, [sp, #12]	@ xfer_pending, %sfp
 1740 0534 AB42     		cmp	r3, r5	@ xfer_pending,
 1741 0536 02D1     		bne	.L124	@,
 1742              	@ .\driver\src\i2c_va108xx.c:676: 	    VOR_I2C_Stop(i2c);
 676:.\driver\src/i2c_va108xx.c ****   
 1743              		.loc 1 676 0
 1744 0538 2000     		movs	r0, r4	@, i2c
 1745 053a FFF705FE 		bl	VOR_I2C_Stop	@
 1746              	.LVL118:
 1747              	.L124:
 1748              	@ .\driver\src\i2c_va108xx.c:709: }
ARM GAS  C:\Users\claym\AppData\Local\Temp\ccxpUFUu.s 			page 54


 709:.\driver\src/i2c_va108xx.c **** }
 1749              		.loc 1 709 0
 1750 053e 2800     		movs	r0, r5	@, <retval>
 1751 0540 05B0     		add	sp, sp, #20	@,,
 1752              		@ sp needed	@
 1753              	.LVL119:
 1754 0542 F0BD     		pop	{r4, r5, r6, r7, pc}
 1755              	.LVL120:
 1756              	.L126:
 1757              	@ .\driver\src\i2c_va108xx.c:679:     VOR_Disable_Irq(VOR_IRQ_I2C_MS, i2c->i2cId);
 679:.\driver\src/i2c_va108xx.c **** 	  i2c->reg->IRQ_CLR = 0xffffffff;
 1758              		.loc 1 679 0
 1759 0544 2168     		ldr	r1, [r4]	@, i2c_49(D)->i2cId
 1760              	.LVL121:
 1761 0546 0520     		movs	r0, #5	@,
 1762              	.LVL122:
 1763 0548 FFF7FEFF 		bl	VOR_Disable_Irq	@
 1764              	.LVL123:
 1765              	@ .\driver\src\i2c_va108xx.c:680: 	  i2c->reg->IRQ_CLR = 0xffffffff;
 680:.\driver\src/i2c_va108xx.c **** 	  i2c->reg->IRQ_CLR = 0;
 1766              		.loc 1 680 0
 1767 054c 0122     		movs	r2, #1	@ tmp196,
 1768 054e 6368     		ldr	r3, [r4, #4]	@ _33, i2c_49(D)->reg
 1769 0550 5242     		rsbs	r2, r2, #0	@ tmp196, tmp196
 1770 0552 5A63     		str	r2, [r3, #52]	@ tmp196, _33->IRQ_CLR
 1771              	@ .\driver\src\i2c_va108xx.c:681: 	  i2c->reg->IRQ_CLR = 0;
 681:.\driver\src/i2c_va108xx.c **** 		
 1772              		.loc 1 681 0
 1773 0554 5D63     		str	r5, [r3, #52]	@ i2c_49(D)->info.poll_mode, _33->IRQ_CLR
 1774              	@ .\driver\src\i2c_va108xx.c:684: 	  i2c->info.status.mode = I2C_MODE_MASTER;
 684:.\driver\src/i2c_va108xx.c **** 		
 1775              		.loc 1 684 0
 1776 0556 8023     		movs	r3, #128	@ tmp203,
 1777 0558 627C     		ldrb	r2, [r4, #17]	@ tmp201,
 1778 055a 5B42     		rsbs	r3, r3, #0	@ tmp203, tmp203
 1779 055c 1343     		orrs	r3, r2	@ tmp202, tmp201
 1780 055e 6374     		strb	r3, [r4, #17]	@ tmp202,
 1781              	.LVL124:
 1782              	@ .\driver\src\i2c_va108xx.c:687: 	  i2c->info.status.direction = I2C_DIR_TRANSMIT;
 687:.\driver\src/i2c_va108xx.c **** 		
 1783              		.loc 1 687 0
 1784 0560 A37C     		ldrb	r3, [r4, #18]	@ tmp208,
 1785              	@ .\driver\src\i2c_va108xx.c:690:     VOR_I2C_Setup(addr,num,i2c);
 690:.\driver\src/i2c_va108xx.c **** 	  memcpy(i2c->info.txdata,data,num);
 1786              		.loc 1 690 0
 1787 0562 2200     		movs	r2, r4	@, i2c
 1788              	@ .\driver\src\i2c_va108xx.c:687: 	  i2c->info.status.direction = I2C_DIR_TRANSMIT;
 687:.\driver\src/i2c_va108xx.c **** 		
 1789              		.loc 1 687 0
 1790 0564 B343     		bics	r3, r6	@ tmp209, tmp157
 1791 0566 A374     		strb	r3, [r4, #18]	@ tmp209,
 1792              	@ .\driver\src\i2c_va108xx.c:690:     VOR_I2C_Setup(addr,num,i2c);
 690:.\driver\src/i2c_va108xx.c **** 	  memcpy(i2c->info.txdata,data,num);
 1793              		.loc 1 690 0
 1794 0568 3900     		movs	r1, r7	@, num
 1795 056a 0298     		ldr	r0, [sp, #8]	@, %sfp
 1796 056c FFF748FD 		bl	VOR_I2C_Setup	@
ARM GAS  C:\Users\claym\AppData\Local\Temp\ccxpUFUu.s 			page 55


 1797              	.LVL125:
 1798              	@ .\driver\src\i2c_va108xx.c:691: 	  memcpy(i2c->info.txdata,data,num);
 691:.\driver\src/i2c_va108xx.c **** 	  i2c->info.txidx = 0;
 1799              		.loc 1 691 0
 1800 0570 2000     		movs	r0, r4	@ tmp212, i2c
 1801 0572 3A00     		movs	r2, r7	@, num
 1802 0574 0199     		ldr	r1, [sp, #4]	@, %sfp
 1803 0576 6030     		adds	r0, r0, #96	@ tmp212,
 1804 0578 FFF7FEFF 		bl	memcpy	@
 1805              	.LVL126:
 1806              	@ .\driver\src\i2c_va108xx.c:696: 	  i2c->reg->CMD = I2C_CMD_START;
 696:.\driver\src/i2c_va108xx.c **** 		
 1807              		.loc 1 696 0
 1808 057c 6368     		ldr	r3, [r4, #4]	@ _35, i2c_49(D)->reg
 1809              	@ .\driver\src\i2c_va108xx.c:699: 	  i2c->reg->IRQ_ENB = (I2C_PERIPHERAL_IRQ_END_IDLE_Msk | \
 699:.\driver\src/i2c_va108xx.c **** 												 I2C_PERIPHERAL_IRQ_END_ARBLOST_Msk | \
 1810              		.loc 1 699 0
 1811 057e 084A     		ldr	r2, .L151	@ tmp222,
 1812              	@ .\driver\src\i2c_va108xx.c:692: 	  i2c->info.txidx = 0;
 692:.\driver\src/i2c_va108xx.c **** 	  i2c->info.rxidx = 0;
 1813              		.loc 1 692 0
 1814 0580 A565     		str	r5, [r4, #88]	@ i2c_49(D)->info.poll_mode, i2c_49(D)->info.txidx
 1815              	@ .\driver\src\i2c_va108xx.c:693: 	  i2c->info.rxidx = 0;
 693:.\driver\src/i2c_va108xx.c **** 	  i2c->info.txcnt = num;
 1816              		.loc 1 693 0
 1817 0582 E565     		str	r5, [r4, #92]	@ i2c_49(D)->info.poll_mode, i2c_49(D)->info.rxidx
 1818              	@ .\driver\src\i2c_va108xx.c:694: 	  i2c->info.txcnt = num;
 694:.\driver\src/i2c_va108xx.c **** 	  i2c->info.rxcnt = 0;
 1819              		.loc 1 694 0
 1820 0584 2765     		str	r7, [r4, #80]	@ num, i2c_49(D)->info.txcnt
 1821              	@ .\driver\src\i2c_va108xx.c:695: 	  i2c->info.rxcnt = 0;
 695:.\driver\src/i2c_va108xx.c **** 	  i2c->reg->CMD = I2C_CMD_START;
 1822              		.loc 1 695 0
 1823 0586 6565     		str	r5, [r4, #84]	@ i2c_49(D)->info.poll_mode, i2c_49(D)->info.rxcnt
 1824              	@ .\driver\src\i2c_va108xx.c:706: 	  VOR_Enable_Irq(VOR_IRQ_I2C_MS, i2c->i2cId);
 706:.\driver\src/i2c_va108xx.c ****   }
 1825              		.loc 1 706 0
 1826 0588 2168     		ldr	r1, [r4]	@, i2c_49(D)->i2cId
 1827              	@ .\driver\src\i2c_va108xx.c:696: 	  i2c->reg->CMD = I2C_CMD_START;
 696:.\driver\src/i2c_va108xx.c **** 		
 1828              		.loc 1 696 0
 1829 058a 5E61     		str	r6, [r3, #20]	@ tmp157, _35->CMD
 1830              	@ .\driver\src\i2c_va108xx.c:706: 	  VOR_Enable_Irq(VOR_IRQ_I2C_MS, i2c->i2cId);
 706:.\driver\src/i2c_va108xx.c ****   }
 1831              		.loc 1 706 0
 1832 058c 0520     		movs	r0, #5	@,
 1833              	@ .\driver\src\i2c_va108xx.c:699: 	  i2c->reg->IRQ_ENB = (I2C_PERIPHERAL_IRQ_END_IDLE_Msk | \
 699:.\driver\src/i2c_va108xx.c **** 												 I2C_PERIPHERAL_IRQ_END_ARBLOST_Msk | \
 1834              		.loc 1 699 0
 1835 058e 9A62     		str	r2, [r3, #40]	@ tmp222, _35->IRQ_ENB
 1836              	@ .\driver\src\i2c_va108xx.c:706: 	  VOR_Enable_Irq(VOR_IRQ_I2C_MS, i2c->i2cId);
 706:.\driver\src/i2c_va108xx.c ****   }
 1837              		.loc 1 706 0
 1838 0590 FFF7FEFF 		bl	VOR_Enable_Irq	@
 1839              	.LVL127:
 1840 0594 D3E7     		b	.L124	@
 1841              	.LVL128:
ARM GAS  C:\Users\claym\AppData\Local\Temp\ccxpUFUu.s 			page 56


 1842              	.L137:
 1843              	@ .\driver\src\i2c_va108xx.c:594:     return VOR_DRIVER_ERROR_PARAMETER;
 594:.\driver\src/i2c_va108xx.c ****   }
 1844              		.loc 1 594 0
 1845 0596 0525     		movs	r5, #5	@ <retval>,
 1846 0598 B3E7     		b	.L150	@
 1847              	.LVL129:
 1848              	.L138:
 1849              	@ .\driver\src\i2c_va108xx.c:599:     return VOR_DRIVER_ERROR;
 599:.\driver\src/i2c_va108xx.c ****   }
 1850              		.loc 1 599 0
 1851 059a 0125     		movs	r5, #1	@ <retval>,
 1852 059c B1E7     		b	.L150	@
 1853              	.L152:
 1854 059e C046     		.align	2
 1855              	.L151:
 1856 05a0 F2500000 		.word	20722
 1857              		.cfi_endproc
 1858              	.LFE60:
 1859              		.size	VOR_I2C_MasterTransmit, .-VOR_I2C_MasterTransmit
 1860              		.align	1
 1861              		.global	VOR_I2C_MasterReceive
 1862              		.syntax unified
 1863              		.code	16
 1864              		.thumb_func
 1865              		.fpu softvfp
 1866              		.type	VOR_I2C_MasterReceive, %function
 1867              	VOR_I2C_MasterReceive:
 1868              	.LFB61:
 710:.\driver\src/i2c_va108xx.c **** 								
 711:.\driver\src/i2c_va108xx.c **** 
 712:.\driver\src/i2c_va108xx.c **** /**
 713:.\driver\src/i2c_va108xx.c ****   function:    int32_t VOR_I2C_MasterReceive (uint32_t       addr,
 714:.\driver\src/i2c_va108xx.c ****                                            uint8_t       *data,
 715:.\driver\src/i2c_va108xx.c ****                                            uint32_t       num,
 716:.\driver\src/i2c_va108xx.c ****                                            bool           xfer_pending,
 717:.\driver\src/i2c_va108xx.c ****                                            I2C_RESOURCES *i2c)
 718:.\driver\src/i2c_va108xx.c ****   brief:       Start receiving data as I2C Master.
 719:.\driver\src/i2c_va108xx.c ****   Input:       addr          Slave address (7-bit or 10-bit)
 720:.\driver\src/i2c_va108xx.c ****   Output:      data          Pointer to buffer for data to receive from I2C Slave
 721:.\driver\src/i2c_va108xx.c ****   Input:       num           Number of data bytes to receive
 722:.\driver\src/i2c_va108xx.c ****   Input:       xfer_pending  Transfer operation is pending - Stop condition will not be generated
 723:.\driver\src/i2c_va108xx.c ****   Input:       i2c           Pointer to I2C resources
 724:.\driver\src/i2c_va108xx.c ****   return:      execution_status
 725:.\driver\src/i2c_va108xx.c **** */
 726:.\driver\src/i2c_va108xx.c **** int32_t VOR_I2C_MasterReceive (uint32_t       addr,
 727:.\driver\src/i2c_va108xx.c ****                                    uint8_t       *data,
 728:.\driver\src/i2c_va108xx.c ****                                    uint32_t       num,
 729:.\driver\src/i2c_va108xx.c ****                                    bool           xfer_pending,
 730:.\driver\src/i2c_va108xx.c ****                                    I2C_RESOURCES *i2c) {
 1869              		.loc 1 730 0
 1870              		.cfi_startproc
 1871              		@ args = 4, pretend = 0, frame = 16
 1872              		@ frame_needed = 0, uses_anonymous_args = 0
 1873              	.LVL130:
 1874 05a4 F0B5     		push	{r4, r5, r6, r7, lr}	@
 1875              	.LCFI9:
ARM GAS  C:\Users\claym\AppData\Local\Temp\ccxpUFUu.s 			page 57


 1876              		.cfi_def_cfa_offset 20
 1877              		.cfi_offset 4, -20
 1878              		.cfi_offset 5, -16
 1879              		.cfi_offset 6, -12
 1880              		.cfi_offset 7, -8
 1881              		.cfi_offset 14, -4
 1882 05a6 85B0     		sub	sp, sp, #20	@,,
 1883              	.LCFI10:
 1884              		.cfi_def_cfa_offset 40
 1885              	@ .\driver\src\i2c_va108xx.c:730:                                    I2C_RESOURCES *i2c) {
 1886              		.loc 1 730 0
 1887 05a8 0290     		str	r0, [sp, #8]	@ addr, %sfp
 1888 05aa 0191     		str	r1, [sp, #4]	@ data, %sfp
 1889 05ac 0092     		str	r2, [sp]	@ num, %sfp
 1890 05ae 0393     		str	r3, [sp, #12]	@ xfer_pending, %sfp
 1891 05b0 0A9F     		ldr	r7, [sp, #40]	@ i2c, i2c
 1892              	@ .\driver\src\i2c_va108xx.c:735:   if (!data || !num ) {
 731:.\driver\src/i2c_va108xx.c **** 
 732:.\driver\src/i2c_va108xx.c ****   int32_t i;
 733:.\driver\src/i2c_va108xx.c ****   // uint32_t poll_time, start_time;
 734:.\driver\src/i2c_va108xx.c **** 	uint32_t status;
 735:.\driver\src/i2c_va108xx.c ****   if (!data || !num ) {
 1893              		.loc 1 735 0
 1894 05b2 0029     		cmp	r1, #0	@ data,
 1895 05b4 00D1     		bne	.LCB1527	@
 1896 05b6 88E0     		b	.L164	@long jump	@
 1897              	.LCB1527:
 1898              	@ .\driver\src\i2c_va108xx.c:735:   if (!data || !num ) {
 1899              		.loc 1 735 0 is_stmt 0 discriminator 1
 1900 05b8 002A     		cmp	r2, #0	@ num,
 1901 05ba 00D1     		bne	.LCB1529	@
 1902 05bc 85E0     		b	.L164	@long jump	@
 1903              	.LCB1529:
 1904              	@ .\driver\src\i2c_va108xx.c:740:   if (!(i2c->info.flags & I2C_FLAG_INIT)) {
 736:.\driver\src/i2c_va108xx.c ****     /* Invalid parameters */
 737:.\driver\src/i2c_va108xx.c ****     return VOR_DRIVER_ERROR_PARAMETER;
 738:.\driver\src/i2c_va108xx.c ****   }
 739:.\driver\src/i2c_va108xx.c **** 
 740:.\driver\src/i2c_va108xx.c ****   if (!(i2c->info.flags & I2C_FLAG_INIT)) {
 1905              		.loc 1 740 0 is_stmt 1
 1906 05be 0126     		movs	r6, #1	@ tmp145,
 1907 05c0 7B69     		ldr	r3, [r7, #20]	@ tmp220, i2c_36(D)->info.flags
 1908              	.LVL131:
 1909 05c2 3342     		tst	r3, r6	@ tmp220, tmp145
 1910 05c4 00D1     		bne	.LCB1536	@
 1911 05c6 82E0     		b	.L165	@long jump	@
 1912              	.LCB1536:
 1913              	@ .\driver\src\i2c_va108xx.c:745:   i2c->info.rxidx = 0;
 741:.\driver\src/i2c_va108xx.c ****     /* Driver not yet configured */
 742:.\driver\src/i2c_va108xx.c ****     return VOR_DRIVER_ERROR;
 743:.\driver\src/i2c_va108xx.c ****   }
 744:.\driver\src/i2c_va108xx.c **** 
 745:.\driver\src/i2c_va108xx.c ****   i2c->info.rxidx = 0;
 1914              		.loc 1 745 0
 1915 05c8 0025     		movs	r5, #0	@ tmp146,
 1916              	@ .\driver\src\i2c_va108xx.c:746:   i2c->reg->IRQ_ENB = 0;
 746:.\driver\src/i2c_va108xx.c ****   i2c->reg->IRQ_ENB = 0;
ARM GAS  C:\Users\claym\AppData\Local\Temp\ccxpUFUu.s 			page 58


 1917              		.loc 1 746 0
 1918 05ca 7B68     		ldr	r3, [r7, #4]	@ _3, i2c_36(D)->reg
 1919              	@ .\driver\src\i2c_va108xx.c:747:   if(i2c->info.poll_mode) {
 747:.\driver\src/i2c_va108xx.c ****   if(i2c->info.poll_mode) {
 1920              		.loc 1 747 0
 1921 05cc BC69     		ldr	r4, [r7, #24]	@ i2c_36(D)->info.poll_mode, i2c_36(D)->info.poll_mode
 1922              	@ .\driver\src\i2c_va108xx.c:745:   i2c->info.rxidx = 0;
 745:.\driver\src/i2c_va108xx.c ****   i2c->reg->IRQ_ENB = 0;
 1923              		.loc 1 745 0
 1924 05ce FD65     		str	r5, [r7, #92]	@ tmp146, i2c_36(D)->info.rxidx
 1925              	@ .\driver\src\i2c_va108xx.c:746:   i2c->reg->IRQ_ENB = 0;
 746:.\driver\src/i2c_va108xx.c ****   i2c->reg->IRQ_ENB = 0;
 1926              		.loc 1 746 0
 1927 05d0 9D62     		str	r5, [r3, #40]	@ tmp146, _3->IRQ_ENB
 1928              	@ .\driver\src\i2c_va108xx.c:747:   if(i2c->info.poll_mode) {
 1929              		.loc 1 747 0
 1930 05d2 AC42     		cmp	r4, r5	@ i2c_36(D)->info.poll_mode,
 1931 05d4 51D0     		beq	.L155	@,
 1932              	@ .\driver\src\i2c_va108xx.c:749: 	  i2c->info.status.mode = I2C_MODE_MASTER;
 748:.\driver\src/i2c_va108xx.c **** 	  // Set Master Mode
 749:.\driver\src/i2c_va108xx.c **** 	  i2c->info.status.mode = I2C_MODE_MASTER;
 1933              		.loc 1 749 0
 1934 05d6 8023     		movs	r3, #128	@ tmp154,
 1935 05d8 7A7C     		ldrb	r2, [r7, #17]	@ tmp152,
 1936              	.LVL132:
 1937 05da 5B42     		rsbs	r3, r3, #0	@ tmp154, tmp154
 1938 05dc 1343     		orrs	r3, r2	@ tmp153, tmp152
 1939 05de 7B74     		strb	r3, [r7, #17]	@ tmp153,
 1940              	.LVL133:
 1941              	@ .\driver\src\i2c_va108xx.c:751: 	  i2c->info.status.direction = I2C_DIR_RECEIVE;
 750:.\driver\src/i2c_va108xx.c **** 	  // Set Direction Transmit
 751:.\driver\src/i2c_va108xx.c **** 	  i2c->info.status.direction = I2C_DIR_RECEIVE;
 1942              		.loc 1 751 0
 1943 05e0 BB7C     		ldrb	r3, [r7, #18]	@ tmp159,
 1944              	@ .\driver\src\i2c_va108xx.c:753:     VOR_I2C_Setup(addr,num,i2c);
 752:.\driver\src/i2c_va108xx.c **** 	  // Set Up Control parameters
 753:.\driver\src/i2c_va108xx.c ****     VOR_I2C_Setup(addr,num,i2c);
 1945              		.loc 1 753 0
 1946 05e2 3A00     		movs	r2, r7	@, i2c
 1947              	@ .\driver\src\i2c_va108xx.c:751: 	  i2c->info.status.direction = I2C_DIR_RECEIVE;
 751:.\driver\src/i2c_va108xx.c **** 	  // Set Up Control parameters
 1948              		.loc 1 751 0
 1949 05e4 3343     		orrs	r3, r6	@ tmp160, tmp145
 1950 05e6 BB74     		strb	r3, [r7, #18]	@ tmp160,
 1951              	@ .\driver\src\i2c_va108xx.c:753:     VOR_I2C_Setup(addr,num,i2c);
 1952              		.loc 1 753 0
 1953 05e8 0099     		ldr	r1, [sp]	@, %sfp
 1954              	.LVL134:
 1955 05ea 0298     		ldr	r0, [sp, #8]	@, %sfp
 1956              	.LVL135:
 1957 05ec FFF708FD 		bl	VOR_I2C_Setup	@
 1958              	.LVL136:
 1959              	@ .\driver\src\i2c_va108xx.c:756: 		i2c->reg->CMD = I2C_CMD_START;
 754:.\driver\src/i2c_va108xx.c **** 	  
 755:.\driver\src/i2c_va108xx.c ****     // Enable Start bit
 756:.\driver\src/i2c_va108xx.c **** 		i2c->reg->CMD = I2C_CMD_START;
 1960              		.loc 1 756 0
ARM GAS  C:\Users\claym\AppData\Local\Temp\ccxpUFUu.s 			page 59


 1961 05f0 7B68     		ldr	r3, [r7, #4]	@ _5, i2c_36(D)->reg
 1962              	@ .\driver\src\i2c_va108xx.c:791: 		  if(status & I2C_PERIPHERAL_STATUS_NACKDATA_Msk) {
 757:.\driver\src/i2c_va108xx.c **** 
 758:.\driver\src/i2c_va108xx.c **** 	  // Get Current Time
 759:.\driver\src/i2c_va108xx.c **** 	  /*start_time = VOR_Get_SysTime();
 760:.\driver\src/i2c_va108xx.c **** 	  poll_time  = start_time - i2c->info.poll_tout;*/ 
 761:.\driver\src/i2c_va108xx.c **** 	  i =0;
 762:.\driver\src/i2c_va108xx.c **** 	  // Load Remaining Data to TX FIFO
 763:.\driver\src/i2c_va108xx.c **** 	  while((i<num) /*&& (poll_time <= VOR_Get_SysTime())*/) {
 764:.\driver\src/i2c_va108xx.c **** 		  __NOP( ); 
 765:.\driver\src/i2c_va108xx.c **** 		  __NOP( ); 
 766:.\driver\src/i2c_va108xx.c **** 	    status = i2c->reg->STATUS;
 767:.\driver\src/i2c_va108xx.c ****       // Check TX fifo status and Load Remaining Data
 768:.\driver\src/i2c_va108xx.c **** 		  if((!(status&I2C_PERIPHERAL_STATUS_IDLE_Msk) || (status &I2C_PERIPHERAL_STATUS_WAITING_Msk)|| (
 769:.\driver\src/i2c_va108xx.c **** 	      // Check RX fifo status 
 770:.\driver\src/i2c_va108xx.c **** 	      if(i2c->reg->STATUS&I2C_PERIPHERAL_STATUS_RXNEMPTY_Msk) {
 771:.\driver\src/i2c_va108xx.c **** 		      data[i++] = i2c->reg->DATA;
 772:.\driver\src/i2c_va108xx.c **** 					i2c->info.rxidx++;
 773:.\driver\src/i2c_va108xx.c **** 					if(i==1)
 774:.\driver\src/i2c_va108xx.c **** 						i2c->reg->CMD = 0;
 775:.\driver\src/i2c_va108xx.c ****   			  if((i == num) && (xfer_pending == 0))
 776:.\driver\src/i2c_va108xx.c ****     			  i2c->reg->CMD = I2C_CMD_STOP;
 777:.\driver\src/i2c_va108xx.c **** 				  continue;
 778:.\driver\src/i2c_va108xx.c **** 	      }
 779:.\driver\src/i2c_va108xx.c **** 	    }			
 780:.\driver\src/i2c_va108xx.c **** 		  // Check for Arbitration Error
 781:.\driver\src/i2c_va108xx.c **** 		  if(status & I2C_PERIPHERAL_STATUS_ARBLOST_Msk) {
 782:.\driver\src/i2c_va108xx.c ****   		  VOR_I2C_Stop(i2c);
 783:.\driver\src/i2c_va108xx.c **** 		    return VOR_I2C_ERROR_ARBITRATION_LOST;
 784:.\driver\src/i2c_va108xx.c **** 		  }
 785:.\driver\src/i2c_va108xx.c **** 		  // Check for Address Nack Error
 786:.\driver\src/i2c_va108xx.c **** 		  if(status & I2C_PERIPHERAL_STATUS_NACKADDR_Msk) {
 787:.\driver\src/i2c_va108xx.c ****   		  VOR_I2C_Stop(i2c);
 788:.\driver\src/i2c_va108xx.c **** 		    return VOR_I2C_ERROR_ADDRESS_NACK;
 789:.\driver\src/i2c_va108xx.c **** 		  }
 790:.\driver\src/i2c_va108xx.c **** 		  // Check for Data Nack Error
 791:.\driver\src/i2c_va108xx.c **** 		  if(status & I2C_PERIPHERAL_STATUS_NACKDATA_Msk) {
 1963              		.loc 1 791 0
 1964 05f2 4020     		movs	r0, #64	@ tmp207,
 1965              	@ .\driver\src\i2c_va108xx.c:756: 		i2c->reg->CMD = I2C_CMD_START;
 756:.\driver\src/i2c_va108xx.c **** 
 1966              		.loc 1 756 0
 1967 05f4 5E61     		str	r6, [r3, #20]	@ tmp145, _5->CMD
 1968              	.LVL137:
 1969              	@ .\driver\src\i2c_va108xx.c:768: 		  if((!(status&I2C_PERIPHERAL_STATUS_IDLE_Msk) || (status &I2C_
 768:.\driver\src/i2c_va108xx.c **** 	      // Check RX fifo status 
 1970              		.loc 1 768 0
 1971 05f6 0E23     		movs	r3, #14	@ tmp204,
 1972 05f8 9C46     		mov	ip, r3	@ tmp204, tmp204
 1973              	@ .\driver\src\i2c_va108xx.c:786: 		  if(status & I2C_PERIPHERAL_STATUS_NACKADDR_Msk) {
 786:.\driver\src/i2c_va108xx.c ****   		  VOR_I2C_Stop(i2c);
 1974              		.loc 1 786 0
 1975 05fa 1F36     		adds	r6, r6, #31	@ tmp206,
 1976              	.LVL138:
 1977              	.L156:
 1978              	@ .\driver\src\i2c_va108xx.c:763: 	  while((i<num) /*&& (poll_time <= VOR_Get_SysTime())*/) {
 763:.\driver\src/i2c_va108xx.c **** 		  __NOP( ); 
ARM GAS  C:\Users\claym\AppData\Local\Temp\ccxpUFUu.s 			page 60


 1979              		.loc 1 763 0
 1980 05fc 009B     		ldr	r3, [sp]	@ num, %sfp
 1981 05fe 2900     		movs	r1, r5	@ i.5_21, i
 1982 0600 9D42     		cmp	r5, r3	@ i, num
 1983 0602 02D3     		bcc	.L162	@,
 1984              	.LVL139:
 1985              	.L176:
 1986              	@ .\driver\src\i2c_va108xx.c:830:   return VOR_DRIVER_OK;
 792:.\driver\src/i2c_va108xx.c ****   		  VOR_I2C_Stop(i2c);
 793:.\driver\src/i2c_va108xx.c **** 		    return VOR_I2C_ERROR_TRANSFER_INCOMPLETE;
 794:.\driver\src/i2c_va108xx.c **** 		  }
 795:.\driver\src/i2c_va108xx.c **** 	 
 796:.\driver\src/i2c_va108xx.c **** 	  }
 797:.\driver\src/i2c_va108xx.c **** 	  if(i<num) {
 798:.\driver\src/i2c_va108xx.c **** 		  VOR_I2C_Stop(i2c);
 799:.\driver\src/i2c_va108xx.c **** 		  return VOR_I2C_ERROR_POLL_TOUT;
 800:.\driver\src/i2c_va108xx.c **** 	  } 
 801:.\driver\src/i2c_va108xx.c ****   } else {   // Interrupt Mode
 802:.\driver\src/i2c_va108xx.c ****     VOR_Disable_Irq(VOR_IRQ_I2C_MS, i2c->i2cId);
 803:.\driver\src/i2c_va108xx.c **** 	  i2c->reg->IRQ_CLR = 0xffffffff;
 804:.\driver\src/i2c_va108xx.c **** 	  i2c->reg->IRQ_CLR = 0;
 805:.\driver\src/i2c_va108xx.c **** 	  // Set Master Mode
 806:.\driver\src/i2c_va108xx.c **** 	  i2c->info.status.mode = I2C_MODE_MASTER;
 807:.\driver\src/i2c_va108xx.c **** 	  // Set Direction Transmit
 808:.\driver\src/i2c_va108xx.c **** 	  i2c->info.status.direction = I2C_DIR_RECEIVE;
 809:.\driver\src/i2c_va108xx.c **** 	
 810:.\driver\src/i2c_va108xx.c **** 	  // Set Up Control parameters
 811:.\driver\src/i2c_va108xx.c ****     VOR_I2C_Setup(addr,num,i2c);
 812:.\driver\src/i2c_va108xx.c **** 	  i2c->info.rxdata = data;
 813:.\driver\src/i2c_va108xx.c **** 	  i2c->info.txidx = 0;
 814:.\driver\src/i2c_va108xx.c **** 	  i2c->info.rxidx = 0;
 815:.\driver\src/i2c_va108xx.c **** 	  i2c->info.txcnt = 0;
 816:.\driver\src/i2c_va108xx.c **** 	  i2c->info.rxcnt = num;
 817:.\driver\src/i2c_va108xx.c ****     // Enable Start bit
 818:.\driver\src/i2c_va108xx.c ****     i2c->reg->CMD = I2C_CMD_START;
 819:.\driver\src/i2c_va108xx.c **** 	  
 820:.\driver\src/i2c_va108xx.c ****     // Enable Interrupts
 821:.\driver\src/i2c_va108xx.c **** 	  i2c->reg->IRQ_ENB = (I2C_PERIPHERAL_IRQ_END_IDLE_Msk | \
 822:.\driver\src/i2c_va108xx.c **** 	                    I2C_PERIPHERAL_IRQ_END_ARBLOST_Msk | \
 823:.\driver\src/i2c_va108xx.c **** 				             I2C_PERIPHERAL_IRQ_END_NACKADDR_Msk | \
 824:.\driver\src/i2c_va108xx.c **** 		                 I2C_PERIPHERAL_IRQ_END_NACKDATA_Msk | \
 825:.\driver\src/i2c_va108xx.c **** 					            I2C_PERIPHERAL_IRQ_END_CLKLOTO_Msk | \
 826:.\driver\src/i2c_va108xx.c **** 					            I2C_PERIPHERAL_IRQ_END_RXREADY_Msk | \
 827:.\driver\src/i2c_va108xx.c **** 					             I2C_PERIPHERAL_IRQ_END_RXFULL_Msk );
 828:.\driver\src/i2c_va108xx.c **** 			VOR_Enable_Irq(VOR_IRQ_I2C_MS, i2c->i2cId);
 829:.\driver\src/i2c_va108xx.c ****   }
 830:.\driver\src/i2c_va108xx.c ****   return VOR_DRIVER_OK;
 1987              		.loc 1 830 0
 1988 0604 0020     		movs	r0, #0	@ <retval>,
 1989              	.L153:
 1990              	@ .\driver\src\i2c_va108xx.c:831: }
 831:.\driver\src/i2c_va108xx.c **** }
 1991              		.loc 1 831 0
 1992 0606 05B0     		add	sp, sp, #20	@,,
 1993              		@ sp needed	@
 1994 0608 F0BD     		pop	{r4, r5, r6, r7, pc}
 1995              	.LVL140:
ARM GAS  C:\Users\claym\AppData\Local\Temp\ccxpUFUu.s 			page 61


 1996              	.L162:
 1997              	.LBB126:
 1998              	.LBB127:
 1999              	@ .\inc/cmsis_gcc.h:375:   __ASM volatile ("nop");
 2000              		.loc 2 375 0
 2001              		.syntax divided
 2002              	@ 375 ".\inc/cmsis_gcc.h" 1
 2003 060a C046     		nop
 2004              	@ 0 "" 2
 2005              		.thumb
 2006              		.syntax unified
 2007              	.LBE127:
 2008              	.LBE126:
 2009              	.LBB128:
 2010              	.LBB129:
 2011              		.syntax divided
 2012              	@ 375 ".\inc/cmsis_gcc.h" 1
 2013 060c C046     		nop
 2014              	@ 0 "" 2
 2015              		.thumb
 2016              		.syntax unified
 2017              	.LBE129:
 2018              	.LBE128:
 2019              	@ .\driver\src\i2c_va108xx.c:768: 		  if((!(status&I2C_PERIPHERAL_STATUS_IDLE_Msk) || (status &I2C_
 768:.\driver\src/i2c_va108xx.c **** 	      // Check RX fifo status 
 2020              		.loc 1 768 0
 2021 060e 6446     		mov	r4, ip	@ tmp164, tmp204
 2022              	@ .\driver\src\i2c_va108xx.c:766: 	    status = i2c->reg->STATUS;
 766:.\driver\src/i2c_va108xx.c ****       // Check TX fifo status and Load Remaining Data
 2023              		.loc 1 766 0
 2024 0610 7A68     		ldr	r2, [r7, #4]	@ _6, i2c_36(D)->reg
 2025 0612 9369     		ldr	r3, [r2, #24]	@ status, _6->STATUS
 2026              	.LVL141:
 2027              	@ .\driver\src\i2c_va108xx.c:768: 		  if((!(status&I2C_PERIPHERAL_STATUS_IDLE_Msk) || (status &I2C_
 768:.\driver\src/i2c_va108xx.c **** 	      // Check RX fifo status 
 2028              		.loc 1 768 0
 2029 0614 1C40     		ands	r4, r3	@ tmp164, status
 2030 0616 022C     		cmp	r4, #2	@ tmp164,
 2031 0618 18D0     		beq	.L157	@,
 2032              	@ .\driver\src\i2c_va108xx.c:770: 	      if(i2c->reg->STATUS&I2C_PERIPHERAL_STATUS_RXNEMPTY_Msk) {
 770:.\driver\src/i2c_va108xx.c **** 		      data[i++] = i2c->reg->DATA;
 2033              		.loc 1 770 0
 2034 061a 9469     		ldr	r4, [r2, #24]	@ _8, _6->STATUS
 2035 061c E405     		lsls	r4, r4, #23	@ tmp217, _8,
 2036 061e 15D5     		bpl	.L157	@,
 2037              	@ .\driver\src\i2c_va108xx.c:771: 		      data[i++] = i2c->reg->DATA;
 771:.\driver\src/i2c_va108xx.c **** 					i2c->info.rxidx++;
 2038              		.loc 1 771 0
 2039 0620 1369     		ldr	r3, [r2, #16]	@ _10, _6->DATA
 2040              	.LVL142:
 2041 0622 019A     		ldr	r2, [sp, #4]	@ data, %sfp
 2042 0624 0135     		adds	r5, r5, #1	@ i,
 2043              	.LVL143:
 2044 0626 5354     		strb	r3, [r2, r1]	@ _10, *_11
 2045              	@ .\driver\src\i2c_va108xx.c:772: 					i2c->info.rxidx++;
 772:.\driver\src/i2c_va108xx.c **** 					if(i==1)
 2046              		.loc 1 772 0
ARM GAS  C:\Users\claym\AppData\Local\Temp\ccxpUFUu.s 			page 62


 2047 0628 FB6D     		ldr	r3, [r7, #92]	@ tmp224, i2c_36(D)->info.rxidx
 2048 062a 0133     		adds	r3, r3, #1	@ tmp169,
 2049 062c FB65     		str	r3, [r7, #92]	@ tmp169, i2c_36(D)->info.rxidx
 2050              	@ .\driver\src\i2c_va108xx.c:773: 					if(i==1)
 773:.\driver\src/i2c_va108xx.c **** 						i2c->reg->CMD = 0;
 2051              		.loc 1 773 0
 2052 062e 012D     		cmp	r5, #1	@ i,
 2053 0630 02D1     		bne	.L158	@,
 2054              	@ .\driver\src\i2c_va108xx.c:774: 						i2c->reg->CMD = 0;
 774:.\driver\src/i2c_va108xx.c ****   			  if((i == num) && (xfer_pending == 0))
 2055              		.loc 1 774 0
 2056 0632 0022     		movs	r2, #0	@ tmp171,
 2057 0634 7B68     		ldr	r3, [r7, #4]	@ _15, i2c_36(D)->reg
 2058 0636 5A61     		str	r2, [r3, #20]	@ tmp171, _15->CMD
 2059              	.L158:
 2060              	@ .\driver\src\i2c_va108xx.c:775:   			  if((i == num) && (xfer_pending == 0))
 775:.\driver\src/i2c_va108xx.c ****     			  i2c->reg->CMD = I2C_CMD_STOP;
 2061              		.loc 1 775 0
 2062 0638 009B     		ldr	r3, [sp]	@ num, %sfp
 2063 063a 9D42     		cmp	r5, r3	@ i, num
 2064 063c DED1     		bne	.L156	@,
 2065              	@ .\driver\src\i2c_va108xx.c:775:   			  if((i == num) && (xfer_pending == 0))
 775:.\driver\src/i2c_va108xx.c ****     			  i2c->reg->CMD = I2C_CMD_STOP;
 2066              		.loc 1 775 0 is_stmt 0 discriminator 1
 2067 063e 039B     		ldr	r3, [sp, #12]	@ xfer_pending, %sfp
 2068 0640 002B     		cmp	r3, #0	@ xfer_pending,
 2069 0642 DBD1     		bne	.L156	@,
 2070              	@ .\driver\src\i2c_va108xx.c:776:     			  i2c->reg->CMD = I2C_CMD_STOP;
 776:.\driver\src/i2c_va108xx.c **** 				  continue;
 2071              		.loc 1 776 0 is_stmt 1
 2072 0644 0222     		movs	r2, #2	@ tmp172,
 2073 0646 7B68     		ldr	r3, [r7, #4]	@ _17, i2c_36(D)->reg
 2074 0648 5A61     		str	r2, [r3, #20]	@ tmp172, _17->CMD
 2075 064a D7E7     		b	.L156	@
 2076              	.LVL144:
 2077              	.L157:
 2078              	@ .\driver\src\i2c_va108xx.c:781: 		  if(status & I2C_PERIPHERAL_STATUS_ARBLOST_Msk) {
 781:.\driver\src/i2c_va108xx.c ****   		  VOR_I2C_Stop(i2c);
 2079              		.loc 1 781 0
 2080 064c 1022     		movs	r2, #16	@ tmp228,
 2081 064e 1342     		tst	r3, r2	@ status, tmp228
 2082 0650 05D0     		beq	.L160	@,
 2083              	@ .\driver\src\i2c_va108xx.c:782:   		  VOR_I2C_Stop(i2c);
 782:.\driver\src/i2c_va108xx.c **** 		    return VOR_I2C_ERROR_ARBITRATION_LOST;
 2084              		.loc 1 782 0
 2085 0652 3800     		movs	r0, r7	@, i2c
 2086 0654 FFF778FD 		bl	VOR_I2C_Stop	@
 2087              	.LVL145:
 2088              	@ .\driver\src\i2c_va108xx.c:783: 		    return VOR_I2C_ERROR_ARBITRATION_LOST;
 783:.\driver\src/i2c_va108xx.c **** 		  }
 2089              		.loc 1 783 0
 2090 0658 0D20     		movs	r0, #13	@ <retval>,
 2091              	.LVL146:
 2092              	.L175:
 2093              	@ .\driver\src\i2c_va108xx.c:742:     return VOR_DRIVER_ERROR;
 742:.\driver\src/i2c_va108xx.c ****   }
 2094              		.loc 1 742 0
ARM GAS  C:\Users\claym\AppData\Local\Temp\ccxpUFUu.s 			page 63


 2095 065a 4042     		rsbs	r0, r0, #0	@ <retval>, <retval>
 2096 065c D3E7     		b	.L153	@
 2097              	.LVL147:
 2098              	.L160:
 2099              	@ .\driver\src\i2c_va108xx.c:786: 		  if(status & I2C_PERIPHERAL_STATUS_NACKADDR_Msk) {
 786:.\driver\src/i2c_va108xx.c ****   		  VOR_I2C_Stop(i2c);
 2100              		.loc 1 786 0
 2101 065e 3342     		tst	r3, r6	@ status, tmp206
 2102 0660 04D0     		beq	.L161	@,
 2103              	@ .\driver\src\i2c_va108xx.c:787:   		  VOR_I2C_Stop(i2c);
 787:.\driver\src/i2c_va108xx.c **** 		    return VOR_I2C_ERROR_ADDRESS_NACK;
 2104              		.loc 1 787 0
 2105 0662 3800     		movs	r0, r7	@, i2c
 2106 0664 FFF770FD 		bl	VOR_I2C_Stop	@
 2107              	.LVL148:
 2108              	@ .\driver\src\i2c_va108xx.c:788: 		    return VOR_I2C_ERROR_ADDRESS_NACK;
 788:.\driver\src/i2c_va108xx.c **** 		  }
 2109              		.loc 1 788 0
 2110 0668 0C20     		movs	r0, #12	@ <retval>,
 2111 066a F6E7     		b	.L175	@
 2112              	.LVL149:
 2113              	.L161:
 2114              	@ .\driver\src\i2c_va108xx.c:791: 		  if(status & I2C_PERIPHERAL_STATUS_NACKDATA_Msk) {
 791:.\driver\src/i2c_va108xx.c ****   		  VOR_I2C_Stop(i2c);
 2115              		.loc 1 791 0
 2116 066c 0342     		tst	r3, r0	@ status, tmp207
 2117 066e C5D0     		beq	.L156	@,
 2118              	@ .\driver\src\i2c_va108xx.c:792:   		  VOR_I2C_Stop(i2c);
 792:.\driver\src/i2c_va108xx.c **** 		    return VOR_I2C_ERROR_TRANSFER_INCOMPLETE;
 2119              		.loc 1 792 0
 2120 0670 3800     		movs	r0, r7	@, i2c
 2121 0672 FFF769FD 		bl	VOR_I2C_Stop	@
 2122              	.LVL150:
 2123              	@ .\driver\src\i2c_va108xx.c:793: 		    return VOR_I2C_ERROR_TRANSFER_INCOMPLETE;
 793:.\driver\src/i2c_va108xx.c **** 		  }
 2124              		.loc 1 793 0
 2125 0676 0E20     		movs	r0, #14	@ <retval>,
 2126 0678 EFE7     		b	.L175	@
 2127              	.LVL151:
 2128              	.L155:
 2129              	@ .\driver\src\i2c_va108xx.c:802:     VOR_Disable_Irq(VOR_IRQ_I2C_MS, i2c->i2cId);
 802:.\driver\src/i2c_va108xx.c **** 	  i2c->reg->IRQ_CLR = 0xffffffff;
 2130              		.loc 1 802 0
 2131 067a 3968     		ldr	r1, [r7]	@, i2c_36(D)->i2cId
 2132              	.LVL152:
 2133 067c 0520     		movs	r0, #5	@,
 2134              	.LVL153:
 2135 067e FFF7FEFF 		bl	VOR_Disable_Irq	@
 2136              	.LVL154:
 2137              	@ .\driver\src\i2c_va108xx.c:803: 	  i2c->reg->IRQ_CLR = 0xffffffff;
 803:.\driver\src/i2c_va108xx.c **** 	  i2c->reg->IRQ_CLR = 0;
 2138              		.loc 1 803 0
 2139 0682 0122     		movs	r2, #1	@ tmp179,
 2140 0684 7B68     		ldr	r3, [r7, #4]	@ _23, i2c_36(D)->reg
 2141 0686 5242     		rsbs	r2, r2, #0	@ tmp179, tmp179
 2142 0688 5A63     		str	r2, [r3, #52]	@ tmp179, _23->IRQ_CLR
 2143              	@ .\driver\src\i2c_va108xx.c:804: 	  i2c->reg->IRQ_CLR = 0;
ARM GAS  C:\Users\claym\AppData\Local\Temp\ccxpUFUu.s 			page 64


 804:.\driver\src/i2c_va108xx.c **** 	  // Set Master Mode
 2144              		.loc 1 804 0
 2145 068a 5C63     		str	r4, [r3, #52]	@ i2c_36(D)->info.poll_mode, _23->IRQ_CLR
 2146              	@ .\driver\src\i2c_va108xx.c:806: 	  i2c->info.status.mode = I2C_MODE_MASTER;
 806:.\driver\src/i2c_va108xx.c **** 	  // Set Direction Transmit
 2147              		.loc 1 806 0
 2148 068c 8023     		movs	r3, #128	@ tmp186,
 2149 068e 7A7C     		ldrb	r2, [r7, #17]	@ tmp184,
 2150 0690 5B42     		rsbs	r3, r3, #0	@ tmp186, tmp186
 2151 0692 1343     		orrs	r3, r2	@ tmp185, tmp184
 2152 0694 7B74     		strb	r3, [r7, #17]	@ tmp185,
 2153              	.LVL155:
 2154              	@ .\driver\src\i2c_va108xx.c:808: 	  i2c->info.status.direction = I2C_DIR_RECEIVE;
 808:.\driver\src/i2c_va108xx.c **** 	
 2155              		.loc 1 808 0
 2156 0696 BB7C     		ldrb	r3, [r7, #18]	@ tmp191,
 2157              	@ .\driver\src\i2c_va108xx.c:811:     VOR_I2C_Setup(addr,num,i2c);
 811:.\driver\src/i2c_va108xx.c **** 	  i2c->info.rxdata = data;
 2158              		.loc 1 811 0
 2159 0698 3A00     		movs	r2, r7	@, i2c
 2160              	@ .\driver\src\i2c_va108xx.c:808: 	  i2c->info.status.direction = I2C_DIR_RECEIVE;
 808:.\driver\src/i2c_va108xx.c **** 	
 2161              		.loc 1 808 0
 2162 069a 3343     		orrs	r3, r6	@ tmp192, tmp145
 2163 069c BB74     		strb	r3, [r7, #18]	@ tmp192,
 2164              	@ .\driver\src\i2c_va108xx.c:811:     VOR_I2C_Setup(addr,num,i2c);
 811:.\driver\src/i2c_va108xx.c **** 	  i2c->info.rxdata = data;
 2165              		.loc 1 811 0
 2166 069e 0099     		ldr	r1, [sp]	@, %sfp
 2167 06a0 0298     		ldr	r0, [sp, #8]	@, %sfp
 2168 06a2 FFF7ADFC 		bl	VOR_I2C_Setup	@
 2169              	.LVL156:
 2170              	@ .\driver\src\i2c_va108xx.c:812: 	  i2c->info.rxdata = data;
 812:.\driver\src/i2c_va108xx.c **** 	  i2c->info.txidx = 0;
 2171              		.loc 1 812 0
 2172 06a6 3B00     		movs	r3, r7	@ tmp197, i2c
 2173 06a8 019A     		ldr	r2, [sp, #4]	@ data, %sfp
 2174 06aa E033     		adds	r3, r3, #224	@ tmp197,
 2175 06ac 1A60     		str	r2, [r3]	@ data, i2c_36(D)->info.rxdata
 2176              	@ .\driver\src\i2c_va108xx.c:816: 	  i2c->info.rxcnt = num;
 816:.\driver\src/i2c_va108xx.c ****     // Enable Start bit
 2177              		.loc 1 816 0
 2178 06ae 009B     		ldr	r3, [sp]	@ num, %sfp
 2179              	@ .\driver\src\i2c_va108xx.c:821: 	  i2c->reg->IRQ_ENB = (I2C_PERIPHERAL_IRQ_END_IDLE_Msk | \
 821:.\driver\src/i2c_va108xx.c **** 	                    I2C_PERIPHERAL_IRQ_END_ARBLOST_Msk | \
 2180              		.loc 1 821 0
 2181 06b0 084A     		ldr	r2, .L177	@ tmp202,
 2182              	@ .\driver\src\i2c_va108xx.c:816: 	  i2c->info.rxcnt = num;
 816:.\driver\src/i2c_va108xx.c ****     // Enable Start bit
 2183              		.loc 1 816 0
 2184 06b2 7B65     		str	r3, [r7, #84]	@ num, i2c_36(D)->info.rxcnt
 2185              	@ .\driver\src\i2c_va108xx.c:818:     i2c->reg->CMD = I2C_CMD_START;
 818:.\driver\src/i2c_va108xx.c **** 	  
 2186              		.loc 1 818 0
 2187 06b4 7B68     		ldr	r3, [r7, #4]	@ _25, i2c_36(D)->reg
 2188              	@ .\driver\src\i2c_va108xx.c:813: 	  i2c->info.txidx = 0;
 813:.\driver\src/i2c_va108xx.c **** 	  i2c->info.rxidx = 0;
ARM GAS  C:\Users\claym\AppData\Local\Temp\ccxpUFUu.s 			page 65


 2189              		.loc 1 813 0
 2190 06b6 BC65     		str	r4, [r7, #88]	@ i2c_36(D)->info.poll_mode, i2c_36(D)->info.txidx
 2191              	@ .\driver\src\i2c_va108xx.c:814: 	  i2c->info.rxidx = 0;
 814:.\driver\src/i2c_va108xx.c **** 	  i2c->info.txcnt = 0;
 2192              		.loc 1 814 0
 2193 06b8 FC65     		str	r4, [r7, #92]	@ i2c_36(D)->info.poll_mode, i2c_36(D)->info.rxidx
 2194              	@ .\driver\src\i2c_va108xx.c:815: 	  i2c->info.txcnt = 0;
 815:.\driver\src/i2c_va108xx.c **** 	  i2c->info.rxcnt = num;
 2195              		.loc 1 815 0
 2196 06ba 3C65     		str	r4, [r7, #80]	@ i2c_36(D)->info.poll_mode, i2c_36(D)->info.txcnt
 2197              	@ .\driver\src\i2c_va108xx.c:828: 			VOR_Enable_Irq(VOR_IRQ_I2C_MS, i2c->i2cId);
 828:.\driver\src/i2c_va108xx.c ****   }
 2198              		.loc 1 828 0
 2199 06bc 3968     		ldr	r1, [r7]	@, i2c_36(D)->i2cId
 2200              	@ .\driver\src\i2c_va108xx.c:818:     i2c->reg->CMD = I2C_CMD_START;
 818:.\driver\src/i2c_va108xx.c **** 	  
 2201              		.loc 1 818 0
 2202 06be 5E61     		str	r6, [r3, #20]	@ tmp145, _25->CMD
 2203              	@ .\driver\src\i2c_va108xx.c:828: 			VOR_Enable_Irq(VOR_IRQ_I2C_MS, i2c->i2cId);
 828:.\driver\src/i2c_va108xx.c ****   }
 2204              		.loc 1 828 0
 2205 06c0 0520     		movs	r0, #5	@,
 2206              	@ .\driver\src\i2c_va108xx.c:821: 	  i2c->reg->IRQ_ENB = (I2C_PERIPHERAL_IRQ_END_IDLE_Msk | \
 821:.\driver\src/i2c_va108xx.c **** 	                    I2C_PERIPHERAL_IRQ_END_ARBLOST_Msk | \
 2207              		.loc 1 821 0
 2208 06c2 9A62     		str	r2, [r3, #40]	@ tmp202, _25->IRQ_ENB
 2209              	@ .\driver\src\i2c_va108xx.c:828: 			VOR_Enable_Irq(VOR_IRQ_I2C_MS, i2c->i2cId);
 828:.\driver\src/i2c_va108xx.c ****   }
 2210              		.loc 1 828 0
 2211 06c4 FFF7FEFF 		bl	VOR_Enable_Irq	@
 2212              	.LVL157:
 2213 06c8 9CE7     		b	.L176	@
 2214              	.LVL158:
 2215              	.L164:
 2216              	@ .\driver\src\i2c_va108xx.c:737:     return VOR_DRIVER_ERROR_PARAMETER;
 737:.\driver\src/i2c_va108xx.c ****   }
 2217              		.loc 1 737 0
 2218 06ca 0520     		movs	r0, #5	@ <retval>,
 2219              	.LVL159:
 2220 06cc C5E7     		b	.L175	@
 2221              	.LVL160:
 2222              	.L165:
 2223              	@ .\driver\src\i2c_va108xx.c:742:     return VOR_DRIVER_ERROR;
 742:.\driver\src/i2c_va108xx.c ****   }
 2224              		.loc 1 742 0
 2225 06ce 0120     		movs	r0, #1	@ <retval>,
 2226              	.LVL161:
 2227 06d0 C3E7     		b	.L175	@
 2228              	.L178:
 2229 06d2 C046     		.align	2
 2230              	.L177:
 2231 06d4 F2A00000 		.word	41202
 2232              		.cfi_endproc
 2233              	.LFE61:
 2234              		.size	VOR_I2C_MasterReceive, .-VOR_I2C_MasterReceive
 2235              		.align	1
 2236              		.global	VOR_I2C_SlaveTransmit
ARM GAS  C:\Users\claym\AppData\Local\Temp\ccxpUFUu.s 			page 66


 2237              		.syntax unified
 2238              		.code	16
 2239              		.thumb_func
 2240              		.fpu softvfp
 2241              		.type	VOR_I2C_SlaveTransmit, %function
 2242              	VOR_I2C_SlaveTransmit:
 2243              	.LFB62:
 832:.\driver\src/i2c_va108xx.c **** 
 833:.\driver\src/i2c_va108xx.c **** /**
 834:.\driver\src/i2c_va108xx.c ****   function:    int32_t VOR_I2C_SlaveTransmit (const uint8_t *data,
 835:.\driver\src/i2c_va108xx.c ****                                            uint32_t       num,
 836:.\driver\src/i2c_va108xx.c ****                                            I2C_RESOURCES *i2c)
 837:.\driver\src/i2c_va108xx.c ****   brief:       Start transmitting data as I2C Slave.
 838:.\driver\src/i2c_va108xx.c ****   Input:       data  Pointer to buffer with data to transmit to I2C Master
 839:.\driver\src/i2c_va108xx.c ****   Input:       num   Number of data bytes to transmit
 840:.\driver\src/i2c_va108xx.c ****   Input:       i2c   Pointer to I2C resources
 841:.\driver\src/i2c_va108xx.c ****   return:      execution_status
 842:.\driver\src/i2c_va108xx.c **** */
 843:.\driver\src/i2c_va108xx.c **** int32_t VOR_I2C_SlaveTransmit (const uint8_t *data,
 844:.\driver\src/i2c_va108xx.c ****                                    uint32_t       num,
 845:.\driver\src/i2c_va108xx.c ****                                    I2C_RESOURCES *i2c) {
 2244              		.loc 1 845 0
 2245              		.cfi_startproc
 2246              		@ args = 0, pretend = 0, frame = 8
 2247              		@ frame_needed = 0, uses_anonymous_args = 0
 2248              	.LVL162:
 2249 06d8 F7B5     		push	{r0, r1, r2, r4, r5, r6, r7, lr}	@
 2250              	.LCFI11:
 2251              		.cfi_def_cfa_offset 32
 2252              		.cfi_offset 0, -32
 2253              		.cfi_offset 1, -28
 2254              		.cfi_offset 2, -24
 2255              		.cfi_offset 4, -20
 2256              		.cfi_offset 5, -16
 2257              		.cfi_offset 6, -12
 2258              		.cfi_offset 7, -8
 2259              		.cfi_offset 14, -4
 2260              	@ .\driver\src\i2c_va108xx.c:845:                                    I2C_RESOURCES *i2c) {
 2261              		.loc 1 845 0
 2262 06da 0700     		movs	r7, r0	@ data, data
 2263 06dc 0D00     		movs	r5, r1	@ num, num
 2264 06de 1400     		movs	r4, r2	@ i2c, i2c
 2265              	@ .\driver\src\i2c_va108xx.c:850:   if (!data || !num ) {
 846:.\driver\src/i2c_va108xx.c **** 
 847:.\driver\src/i2c_va108xx.c ****   int32_t i;
 848:.\driver\src/i2c_va108xx.c ****   uint32_t poll_time, start_time;
 849:.\driver\src/i2c_va108xx.c **** 	uint32_t status, irq_raw;																			
 850:.\driver\src/i2c_va108xx.c ****   if (!data || !num ) {
 2266              		.loc 1 850 0
 2267 06e0 0028     		cmp	r0, #0	@ data,
 2268 06e2 00D1     		bne	.LCB1804	@
 2269 06e4 B3E0     		b	.L200	@long jump	@
 2270              	.LCB1804:
 2271              	@ .\driver\src\i2c_va108xx.c:850:   if (!data || !num ) {
 2272              		.loc 1 850 0 is_stmt 0 discriminator 1
 2273 06e6 0029     		cmp	r1, #0	@ num,
 2274 06e8 00D1     		bne	.LCB1806	@
ARM GAS  C:\Users\claym\AppData\Local\Temp\ccxpUFUu.s 			page 67


 2275 06ea B0E0     		b	.L200	@long jump	@
 2276              	.LCB1806:
 2277              	@ .\driver\src\i2c_va108xx.c:857:     return VOR_DRIVER_ERROR;
 851:.\driver\src/i2c_va108xx.c ****     /* Invalid parameters */
 852:.\driver\src/i2c_va108xx.c ****     return VOR_DRIVER_ERROR_PARAMETER;
 853:.\driver\src/i2c_va108xx.c ****   }
 854:.\driver\src/i2c_va108xx.c **** 
 855:.\driver\src/i2c_va108xx.c ****   if (!(i2c->info.flags & I2C_FLAG_INIT)) {
 856:.\driver\src/i2c_va108xx.c ****     /* Driver not yet configured */
 857:.\driver\src/i2c_va108xx.c ****     return VOR_DRIVER_ERROR;
 2278              		.loc 1 857 0 is_stmt 1
 2279 06ec 0120     		movs	r0, #1	@ <retval>,
 2280              	.LVL163:
 2281              	@ .\driver\src\i2c_va108xx.c:855:   if (!(i2c->info.flags & I2C_FLAG_INIT)) {
 855:.\driver\src/i2c_va108xx.c ****     /* Driver not yet configured */
 2282              		.loc 1 855 0
 2283 06ee 0121     		movs	r1, #1	@ tmp297,
 2284              	.LVL164:
 2285 06f0 5369     		ldr	r3, [r2, #20]	@ tmp296, i2c_71(D)->info.flags
 2286              	@ .\driver\src\i2c_va108xx.c:857:     return VOR_DRIVER_ERROR;
 2287              		.loc 1 857 0
 2288 06f2 4042     		rsbs	r0, r0, #0	@ <retval>, <retval>
 2289              	@ .\driver\src\i2c_va108xx.c:855:   if (!(i2c->info.flags & I2C_FLAG_INIT)) {
 855:.\driver\src/i2c_va108xx.c ****     /* Driver not yet configured */
 2290              		.loc 1 855 0
 2291 06f4 0B42     		tst	r3, r1	@ tmp296, tmp297
 2292 06f6 73D0     		beq	.L179	@,
 2293              	@ .\driver\src\i2c_va108xx.c:860:   i2c->reg->S0_IRQ_ENB = 0;
 858:.\driver\src/i2c_va108xx.c ****   }
 859:.\driver\src/i2c_va108xx.c **** 
 860:.\driver\src/i2c_va108xx.c ****   i2c->reg->S0_IRQ_ENB = 0;
 2294              		.loc 1 860 0
 2295 06f8 5368     		ldr	r3, [r2, #4]	@ tmp195, i2c_71(D)->reg
 2296              	@ .\driver\src\i2c_va108xx.c:861:   i2c->reg->S0_IRQ_CLR = 0xffffffff;
 861:.\driver\src/i2c_va108xx.c ****   i2c->reg->S0_IRQ_CLR = 0xffffffff;
 2297              		.loc 1 861 0
 2298 06fa 0122     		movs	r2, #1	@ tmp299,
 2299              	.LVL165:
 2300              	@ .\driver\src\i2c_va108xx.c:860:   i2c->reg->S0_IRQ_ENB = 0;
 860:.\driver\src/i2c_va108xx.c ****   i2c->reg->S0_IRQ_CLR = 0xffffffff;
 2301              		.loc 1 860 0
 2302 06fc 0020     		movs	r0, #0	@ tmp196,
 2303              	@ .\driver\src\i2c_va108xx.c:863:   if(i2c->info.poll_mode) {
 862:.\driver\src/i2c_va108xx.c ****   i2c->info.txidx = 0;
 863:.\driver\src/i2c_va108xx.c ****   if(i2c->info.poll_mode) {
 2304              		.loc 1 863 0
 2305 06fe A669     		ldr	r6, [r4, #24]	@ i2c_71(D)->info.poll_mode, i2c_71(D)->info.poll_mode
 2306              	@ .\driver\src\i2c_va108xx.c:860:   i2c->reg->S0_IRQ_ENB = 0;
 860:.\driver\src/i2c_va108xx.c ****   i2c->reg->S0_IRQ_CLR = 0xffffffff;
 2307              		.loc 1 860 0
 2308 0700 FC33     		adds	r3, r3, #252	@ tmp195,
 2309              	@ .\driver\src\i2c_va108xx.c:861:   i2c->reg->S0_IRQ_CLR = 0xffffffff;
 861:.\driver\src/i2c_va108xx.c ****   i2c->info.txidx = 0;
 2310              		.loc 1 861 0
 2311 0702 5242     		rsbs	r2, r2, #0	@ tmp299, tmp299
 2312              	@ .\driver\src\i2c_va108xx.c:860:   i2c->reg->S0_IRQ_ENB = 0;
 860:.\driver\src/i2c_va108xx.c ****   i2c->reg->S0_IRQ_CLR = 0xffffffff;
ARM GAS  C:\Users\claym\AppData\Local\Temp\ccxpUFUu.s 			page 68


 2313              		.loc 1 860 0
 2314 0704 D862     		str	r0, [r3, #44]	@ tmp196, _3->S0_IRQ_ENB
 2315              	@ .\driver\src\i2c_va108xx.c:861:   i2c->reg->S0_IRQ_CLR = 0xffffffff;
 861:.\driver\src/i2c_va108xx.c ****   i2c->info.txidx = 0;
 2316              		.loc 1 861 0
 2317 0706 9A63     		str	r2, [r3, #56]	@ tmp299, _3->S0_IRQ_CLR
 2318              	@ .\driver\src\i2c_va108xx.c:862:   i2c->info.txidx = 0;
 862:.\driver\src/i2c_va108xx.c ****   i2c->info.txidx = 0;
 2319              		.loc 1 862 0
 2320 0708 A065     		str	r0, [r4, #88]	@ tmp196, i2c_71(D)->info.txidx
 2321              	@ .\driver\src\i2c_va108xx.c:863:   if(i2c->info.poll_mode) {
 2322              		.loc 1 863 0
 2323 070a 8642     		cmp	r6, r0	@ i2c_71(D)->info.poll_mode,
 2324 070c 00D1     		bne	.LCB1831	@
 2325 070e 68E0     		b	.L181	@long jump	@
 2326              	.LCB1831:
 2327              	@ .\driver\src\i2c_va108xx.c:865: 	  i2c->info.status.mode = I2C_MODE_SLAVE;
 864:.\driver\src/i2c_va108xx.c **** 	  // Set Slave Mode
 865:.\driver\src/i2c_va108xx.c **** 	  i2c->info.status.mode = I2C_MODE_SLAVE;
 2328              		.loc 1 865 0
 2329 0710 637C     		ldrb	r3, [r4, #17]	@ tmp204,
 2330 0712 8032     		adds	r2, r2, #128	@ tmp206,
 2331 0714 1340     		ands	r3, r2	@ tmp205, tmp206
 2332 0716 6374     		strb	r3, [r4, #17]	@ tmp205,
 2333              	@ .\driver\src\i2c_va108xx.c:867: 	  i2c->info.status.direction = I2C_DIR_TRANSMIT;
 866:.\driver\src/i2c_va108xx.c **** 	  // Set Direction Transmit
 867:.\driver\src/i2c_va108xx.c **** 	  i2c->info.status.direction = I2C_DIR_TRANSMIT;
 2334              		.loc 1 867 0
 2335 0718 A37C     		ldrb	r3, [r4, #18]	@ tmp211,
 2336              	@ .\driver\src\i2c_va108xx.c:869:     VOR_I2C_Setup((uint32_t)NULL,num,i2c);
 868:.\driver\src/i2c_va108xx.c **** 	  // Set Up Control parameters
 869:.\driver\src/i2c_va108xx.c ****     VOR_I2C_Setup((uint32_t)NULL,num,i2c);
 2337              		.loc 1 869 0
 2338 071a 2200     		movs	r2, r4	@, i2c
 2339              	@ .\driver\src\i2c_va108xx.c:867: 	  i2c->info.status.direction = I2C_DIR_TRANSMIT;
 867:.\driver\src/i2c_va108xx.c **** 	  // Set Up Control parameters
 2340              		.loc 1 867 0
 2341 071c 8B43     		bics	r3, r1	@ tmp212, tmp300
 2342 071e A374     		strb	r3, [r4, #18]	@ tmp212,
 2343              	@ .\driver\src\i2c_va108xx.c:869:     VOR_I2C_Setup((uint32_t)NULL,num,i2c);
 2344              		.loc 1 869 0
 2345 0720 2900     		movs	r1, r5	@, num
 2346 0722 FFF76DFC 		bl	VOR_I2C_Setup	@
 2347              	.LVL166:
 2348              	@ .\driver\src\i2c_va108xx.c:874: 	  while((num !=0) && (i2c->reg->S0_STATUS&I2C_PERIPHERAL_S0_STAT
 870:.\driver\src/i2c_va108xx.c **** 	  
 871:.\driver\src/i2c_va108xx.c **** 	  // Load Slave TX FIFO
 872:.\driver\src/i2c_va108xx.c **** 	  i =0;
 873:.\driver\src/i2c_va108xx.c **** 		num++;
 874:.\driver\src/i2c_va108xx.c **** 	  while((num !=0) && (i2c->reg->S0_STATUS&I2C_PERIPHERAL_S0_STATUS_TXNFULL_Msk)) {
 2349              		.loc 1 874 0
 2350 0726 8021     		movs	r1, #128	@ tmp283,
 2351 0728 3A00     		movs	r2, r7	@ ivtmp.95, data
 2352              	@ .\driver\src\i2c_va108xx.c:873: 		num++;
 873:.\driver\src/i2c_va108xx.c **** 	  while((num !=0) && (i2c->reg->S0_STATUS&I2C_PERIPHERAL_S0_STATUS_TXNFULL_Msk)) {
 2353              		.loc 1 873 0
 2354 072a 0135     		adds	r5, r5, #1	@ num,
ARM GAS  C:\Users\claym\AppData\Local\Temp\ccxpUFUu.s 			page 69


 2355              	.LVL167:
 2356              	@ .\driver\src\i2c_va108xx.c:874: 	  while((num !=0) && (i2c->reg->S0_STATUS&I2C_PERIPHERAL_S0_STAT
 2357              		.loc 1 874 0
 2358 072c 8901     		lsls	r1, r1, #6	@ tmp283, tmp283,
 2359              	.LVL168:
 2360              	.L182:
 2361 072e D61B     		subs	r6, r2, r7	@ i, ivtmp.95, data
 2362              	.LVL169:
 2363 0730 002D     		cmp	r5, #0	@ num,
 2364 0732 04D0     		beq	.L183	@,
 2365              	@ .\driver\src\i2c_va108xx.c:874: 	  while((num !=0) && (i2c->reg->S0_STATUS&I2C_PERIPHERAL_S0_STAT
 2366              		.loc 1 874 0 is_stmt 0 discriminator 1
 2367 0734 6368     		ldr	r3, [r4, #4]	@ tmp218, i2c_71(D)->reg
 2368 0736 FC33     		adds	r3, r3, #252	@ tmp218,
 2369 0738 D869     		ldr	r0, [r3, #28]	@ _13, _12->S0_STATUS
 2370 073a 0842     		tst	r0, r1	@ _13, tmp283
 2371 073c 11D1     		bne	.L184	@,
 2372              	.L183:
 2373              	@ .\driver\src\i2c_va108xx.c:880: 	  start_time = VOR_Get_SysTime();
 875:.\driver\src/i2c_va108xx.c **** 		  i2c->reg->S0_DATA=data[i++];
 876:.\driver\src/i2c_va108xx.c **** 			i2c->info.txidx++;
 877:.\driver\src/i2c_va108xx.c **** 		  num--;
 878:.\driver\src/i2c_va108xx.c **** 	  }
 879:.\driver\src/i2c_va108xx.c **** 	  // Get Current Time
 880:.\driver\src/i2c_va108xx.c **** 	  start_time = VOR_Get_SysTime();
 2374              		.loc 1 880 0 is_stmt 1
 2375 073e FFF7FEFF 		bl	VOR_Get_SysTime	@
 2376              	.LVL170:
 2377              	@ .\driver\src\i2c_va108xx.c:881: 	  poll_time  = start_time - i2c->info.poll_tout;
 881:.\driver\src/i2c_va108xx.c **** 	  poll_time  = start_time - i2c->info.poll_tout;
 2378              		.loc 1 881 0
 2379 0742 E369     		ldr	r3, [r4, #28]	@ tmp304, i2c_71(D)->info.poll_tout
 2380 0744 C31A     		subs	r3, r0, r3	@ poll_time, start_time, tmp304
 2381 0746 0193     		str	r3, [sp, #4]	@ poll_time, %sfp
 2382              	.LVL171:
 2383              	.L185:
 2384              	@ .\driver\src\i2c_va108xx.c:883: 	  while((num !=0) && (poll_time <= VOR_Get_SysTime())) {
 882:.\driver\src/i2c_va108xx.c **** 	  // Load Remaining Data to TX FIFO
 883:.\driver\src/i2c_va108xx.c **** 	  while((num !=0) && (poll_time <= VOR_Get_SysTime())) {
 2385              		.loc 1 883 0
 2386 0748 002D     		cmp	r5, #0	@ num,
 2387 074a 2AD0     		beq	.L188	@,
 2388              	@ .\driver\src\i2c_va108xx.c:883: 	  while((num !=0) && (poll_time <= VOR_Get_SysTime())) {
 2389              		.loc 1 883 0 is_stmt 0 discriminator 1
 2390 074c FFF7FEFF 		bl	VOR_Get_SysTime	@
 2391              	.LVL172:
 2392 0750 019B     		ldr	r3, [sp, #4]	@ poll_time, %sfp
 2393 0752 9842     		cmp	r0, r3	@ _26, poll_time
 2394 0754 0DD2     		bcs	.L189	@,
 2395              	.LVL173:
 2396              	.L190:
 2397              	@ .\driver\src\i2c_va108xx.c:905: 		  VOR_I2C_Stop(i2c);
 884:.\driver\src/i2c_va108xx.c ****   		__NOP( ); 
 885:.\driver\src/i2c_va108xx.c **** 	  	__NOP( ); 
 886:.\driver\src/i2c_va108xx.c **** 			
 887:.\driver\src/i2c_va108xx.c **** 		  status = i2c->reg->S0_STATUS;
 888:.\driver\src/i2c_va108xx.c **** 		  if((status & I2C_PERIPHERAL_S0_STATUS_IDLE_Msk) || (status & I2C_PERIPHERAL_S0_STATUS_WAITING_M
ARM GAS  C:\Users\claym\AppData\Local\Temp\ccxpUFUu.s 			page 70


 889:.\driver\src/i2c_va108xx.c **** 			             || (status & I2C_PERIPHERAL_S0_STATUS_TXSTALLED_Msk)) {
 890:.\driver\src/i2c_va108xx.c **** 										 
 891:.\driver\src/i2c_va108xx.c **** 	      // Check TX fifo status and Load Remaining Data
 892:.\driver\src/i2c_va108xx.c **** 	      if(status&I2C_PERIPHERAL_S0_STATUS_TXNFULL_Msk) {
 893:.\driver\src/i2c_va108xx.c **** 		      i2c->reg->S0_DATA=data[i++];
 894:.\driver\src/i2c_va108xx.c **** 					i2c->info.txidx++;
 895:.\driver\src/i2c_va108xx.c **** 		      num--;			
 896:.\driver\src/i2c_va108xx.c **** 		    }
 897:.\driver\src/i2c_va108xx.c ****       }			
 898:.\driver\src/i2c_va108xx.c **** 
 899:.\driver\src/i2c_va108xx.c ****       irq_raw = i2c->reg->S0_IRQ_RAW;
 900:.\driver\src/i2c_va108xx.c **** 			// Check For Stop Condition
 901:.\driver\src/i2c_va108xx.c **** 			if(irq_raw & I2C_PERIPHERAL_S0_IRQ_RAW_I2C_STOP_Msk) 
 902:.\driver\src/i2c_va108xx.c **** 				break;
 903:.\driver\src/i2c_va108xx.c ****     }
 904:.\driver\src/i2c_va108xx.c **** 	  if(num!=0) {
 905:.\driver\src/i2c_va108xx.c **** 		  VOR_I2C_Stop(i2c);
 2398              		.loc 1 905 0 is_stmt 1
 2399 0756 2000     		movs	r0, r4	@, i2c
 2400 0758 FFF7F6FC 		bl	VOR_I2C_Stop	@
 2401              	.LVL174:
 2402              	@ .\driver\src\i2c_va108xx.c:906: 		  return VOR_I2C_ERROR_POLL_TOUT;
 906:.\driver\src/i2c_va108xx.c **** 		  return VOR_I2C_ERROR_POLL_TOUT;
 2403              		.loc 1 906 0
 2404 075c 0F20     		movs	r0, #15	@ <retval>,
 2405              	.LVL175:
 2406              	.L219:
 2407              	@ .\driver\src\i2c_va108xx.c:852:     return VOR_DRIVER_ERROR_PARAMETER;
 852:.\driver\src/i2c_va108xx.c ****   }
 2408              		.loc 1 852 0
 2409 075e 4042     		rsbs	r0, r0, #0	@ <retval>, <retval>
 2410 0760 3EE0     		b	.L179	@
 2411              	.LVL176:
 2412              	.L184:
 2413              	@ .\driver\src\i2c_va108xx.c:875: 		  i2c->reg->S0_DATA=data[i++];
 875:.\driver\src/i2c_va108xx.c **** 			i2c->info.txidx++;
 2414              		.loc 1 875 0
 2415 0762 1078     		ldrb	r0, [r2]	@ _9, MEM[base: _126, offset: 0B]
 2416              	@ .\driver\src\i2c_va108xx.c:877: 		  num--;
 877:.\driver\src/i2c_va108xx.c **** 	  }
 2417              		.loc 1 877 0
 2418 0764 013D     		subs	r5, r5, #1	@ num,
 2419              	.LVL177:
 2420              	@ .\driver\src\i2c_va108xx.c:875: 		  i2c->reg->S0_DATA=data[i++];
 875:.\driver\src/i2c_va108xx.c **** 			i2c->info.txidx++;
 2421              		.loc 1 875 0
 2422 0766 5861     		str	r0, [r3, #20]	@ _9, _12->S0_DATA
 2423              	@ .\driver\src\i2c_va108xx.c:876: 			i2c->info.txidx++;
 876:.\driver\src/i2c_va108xx.c **** 		  num--;
 2424              		.loc 1 876 0
 2425 0768 A36D     		ldr	r3, [r4, #88]	@ tmp301, i2c_71(D)->info.txidx
 2426 076a 0132     		adds	r2, r2, #1	@ ivtmp.95,
 2427              	.LVL178:
 2428 076c 0133     		adds	r3, r3, #1	@ tmp216,
 2429 076e A365     		str	r3, [r4, #88]	@ tmp216, i2c_71(D)->info.txidx
 2430 0770 DDE7     		b	.L182	@
 2431              	.LVL179:
ARM GAS  C:\Users\claym\AppData\Local\Temp\ccxpUFUu.s 			page 71


 2432              	.L189:
 2433              	.LBB130:
 2434              	.LBB131:
 2435              	@ .\inc/cmsis_gcc.h:375:   __ASM volatile ("nop");
 2436              		.loc 2 375 0
 2437              		.syntax divided
 2438              	@ 375 ".\inc/cmsis_gcc.h" 1
 2439 0772 C046     		nop
 2440              	@ 0 "" 2
 2441              		.thumb
 2442              		.syntax unified
 2443              	.LBE131:
 2444              	.LBE130:
 2445              	.LBB132:
 2446              	.LBB133:
 2447              		.syntax divided
 2448              	@ 375 ".\inc/cmsis_gcc.h" 1
 2449 0774 C046     		nop
 2450              	@ 0 "" 2
 2451              		.thumb
 2452              		.syntax unified
 2453              	.LBE133:
 2454              	.LBE132:
 2455              	@ .\driver\src\i2c_va108xx.c:888: 		  if((status & I2C_PERIPHERAL_S0_STATUS_IDLE_Msk) || (status & 
 888:.\driver\src/i2c_va108xx.c **** 			             || (status & I2C_PERIPHERAL_S0_STATUS_TXSTALLED_Msk)) {
 2456              		.loc 1 888 0
 2457 0776 0E21     		movs	r1, #14	@ tmp306,
 2458              	@ .\driver\src\i2c_va108xx.c:887: 		  status = i2c->reg->S0_STATUS;
 887:.\driver\src/i2c_va108xx.c **** 		  if((status & I2C_PERIPHERAL_S0_STATUS_IDLE_Msk) || (status & I2C_PERIPHERAL_S0_STATUS_WAITING_M
 2459              		.loc 1 887 0
 2460 0778 6368     		ldr	r3, [r4, #4]	@ tmp222, i2c_71(D)->reg
 2461 077a FC33     		adds	r3, r3, #252	@ tmp222,
 2462 077c DA69     		ldr	r2, [r3, #28]	@ status, _16->S0_STATUS
 2463              	.LVL180:
 2464              	@ .\driver\src\i2c_va108xx.c:888: 		  if((status & I2C_PERIPHERAL_S0_STATUS_IDLE_Msk) || (status & 
 888:.\driver\src/i2c_va108xx.c **** 			             || (status & I2C_PERIPHERAL_S0_STATUS_TXSTALLED_Msk)) {
 2465              		.loc 1 888 0
 2466 077e 0A42     		tst	r2, r1	@ status, tmp306
 2467 0780 0AD0     		beq	.L186	@,
 2468              	@ .\driver\src\i2c_va108xx.c:892: 	      if(status&I2C_PERIPHERAL_S0_STATUS_TXNFULL_Msk) {
 892:.\driver\src/i2c_va108xx.c **** 		      i2c->reg->S0_DATA=data[i++];
 2469              		.loc 1 892 0
 2470 0782 8021     		movs	r1, #128	@ tmp307,
 2471 0784 8901     		lsls	r1, r1, #6	@ tmp307, tmp307,
 2472 0786 0A42     		tst	r2, r1	@ status, tmp307
 2473 0788 06D0     		beq	.L186	@,
 2474              	.LVL181:
 2475              	@ .\driver\src\i2c_va108xx.c:893: 		      i2c->reg->S0_DATA=data[i++];
 893:.\driver\src/i2c_va108xx.c **** 					i2c->info.txidx++;
 2476              		.loc 1 893 0
 2477 078a BA5D     		ldrb	r2, [r7, r6]	@ _22, *_20
 2478              	.LVL182:
 2479              	@ .\driver\src\i2c_va108xx.c:895: 		      num--;			
 895:.\driver\src/i2c_va108xx.c **** 		    }
 2480              		.loc 1 895 0
 2481 078c 013D     		subs	r5, r5, #1	@ num,
 2482              	.LVL183:
ARM GAS  C:\Users\claym\AppData\Local\Temp\ccxpUFUu.s 			page 72


 2483              	@ .\driver\src\i2c_va108xx.c:893: 		      i2c->reg->S0_DATA=data[i++];
 893:.\driver\src/i2c_va108xx.c **** 					i2c->info.txidx++;
 2484              		.loc 1 893 0
 2485 078e 5A61     		str	r2, [r3, #20]	@ _22, _16->S0_DATA
 2486              	@ .\driver\src\i2c_va108xx.c:894: 					i2c->info.txidx++;
 894:.\driver\src/i2c_va108xx.c **** 		      num--;			
 2487              		.loc 1 894 0
 2488 0790 A26D     		ldr	r2, [r4, #88]	@ tmp308, i2c_71(D)->info.txidx
 2489              	@ .\driver\src\i2c_va108xx.c:893: 		      i2c->reg->S0_DATA=data[i++];
 893:.\driver\src/i2c_va108xx.c **** 					i2c->info.txidx++;
 2490              		.loc 1 893 0
 2491 0792 0136     		adds	r6, r6, #1	@ i,
 2492              	.LVL184:
 2493              	@ .\driver\src\i2c_va108xx.c:894: 					i2c->info.txidx++;
 894:.\driver\src/i2c_va108xx.c **** 		      num--;			
 2494              		.loc 1 894 0
 2495 0794 0132     		adds	r2, r2, #1	@ tmp228,
 2496 0796 A265     		str	r2, [r4, #88]	@ tmp228, i2c_71(D)->info.txidx
 2497              	.L186:
 2498              	@ .\driver\src\i2c_va108xx.c:899:       irq_raw = i2c->reg->S0_IRQ_RAW;
 899:.\driver\src/i2c_va108xx.c **** 			// Check For Stop Condition
 2499              		.loc 1 899 0
 2500 0798 1B6B     		ldr	r3, [r3, #48]	@ irq_raw, _16->S0_IRQ_RAW
 2501              	.LVL185:
 2502              	@ .\driver\src\i2c_va108xx.c:901: 			if(irq_raw & I2C_PERIPHERAL_S0_IRQ_RAW_I2C_STOP_Msk) 
 901:.\driver\src/i2c_va108xx.c **** 				break;
 2503              		.loc 1 901 0
 2504 079a 9B05     		lsls	r3, r3, #22	@ tmp295, irq_raw,
 2505 079c D4D5     		bpl	.L185	@,
 2506              	.LVL186:
 2507              	@ .\driver\src\i2c_va108xx.c:904: 	  if(num!=0) {
 904:.\driver\src/i2c_va108xx.c **** 		  VOR_I2C_Stop(i2c);
 2508              		.loc 1 904 0
 2509 079e 002D     		cmp	r5, #0	@ num,
 2510 07a0 D9D1     		bne	.L190	@,
 2511              	.L188:
 2512              	@ .\driver\src\i2c_va108xx.c:910: 			while(!(i2c->reg->S0_STATUS & I2C_PERIPHERAL_S0_STATUS_TXEMPTY
 907:.\driver\src/i2c_va108xx.c **** 	  }
 908:.\driver\src/i2c_va108xx.c **** 		else {
 909:.\driver\src/i2c_va108xx.c **** 			// Wait for Transfer to complete
 910:.\driver\src/i2c_va108xx.c **** 			while(!(i2c->reg->S0_STATUS & I2C_PERIPHERAL_S0_STATUS_TXEMPTY_Msk) && (poll_time <= VOR_Get_Sys
 2513              		.loc 1 910 0
 2514 07a2 8026     		movs	r6, #128	@ tmp238,
 2515              	.LVL187:
 2516              	@ .\driver\src\i2c_va108xx.c:913: 			  if(i2c->reg->S0_IRQ_RAW & I2C_PERIPHERAL_S0_IRQ_ENB_I2C_STOP
 911:.\driver\src/i2c_va108xx.c **** 				__NOP( ); 
 912:.\driver\src/i2c_va108xx.c **** 			  __NOP( );
 913:.\driver\src/i2c_va108xx.c **** 			  if(i2c->reg->S0_IRQ_RAW & I2C_PERIPHERAL_S0_IRQ_ENB_I2C_STOP_Msk) {
 2517              		.loc 1 913 0
 2518 07a4 8027     		movs	r7, #128	@ tmp280,
 2519              	.LVL188:
 2520              	@ .\driver\src\i2c_va108xx.c:910: 			while(!(i2c->reg->S0_STATUS & I2C_PERIPHERAL_S0_STATUS_TXEMPTY
 910:.\driver\src/i2c_va108xx.c **** 				__NOP( ); 
 2521              		.loc 1 910 0
 2522 07a6 7601     		lsls	r6, r6, #5	@ tmp238, tmp238,
 2523              	@ .\driver\src\i2c_va108xx.c:913: 			  if(i2c->reg->S0_IRQ_RAW & I2C_PERIPHERAL_S0_IRQ_ENB_I2C_STOP
 2524              		.loc 1 913 0
ARM GAS  C:\Users\claym\AppData\Local\Temp\ccxpUFUu.s 			page 73


 2525 07a8 BF00     		lsls	r7, r7, #2	@ tmp280, tmp280,
 2526              	.LVL189:
 2527              	.L192:
 2528              	@ .\driver\src\i2c_va108xx.c:910: 			while(!(i2c->reg->S0_STATUS & I2C_PERIPHERAL_S0_STATUS_TXEMPTY
 910:.\driver\src/i2c_va108xx.c **** 				__NOP( ); 
 2529              		.loc 1 910 0
 2530 07aa 6368     		ldr	r3, [r4, #4]	@ tmp236, i2c_71(D)->reg
 2531 07ac FC33     		adds	r3, r3, #252	@ tmp236,
 2532 07ae DD69     		ldr	r5, [r3, #28]	@ _31, _30->S0_STATUS
 2533 07b0 3540     		ands	r5, r6	@ tmp237, tmp238
 2534 07b2 05D0     		beq	.L193	@,
 2535              	.L195:
 2536              	@ .\driver\src\i2c_va108xx.c:918: 			if(!(i2c->reg->S0_STATUS & I2C_PERIPHERAL_S0_STATUS_TXEMPTY_Ms
 914:.\driver\src/i2c_va108xx.c **** 				   VOR_I2C_Stop(i2c);
 915:.\driver\src/i2c_va108xx.c **** 			     return VOR_DRIVER_OK;
 916:.\driver\src/i2c_va108xx.c **** 				}
 917:.\driver\src/i2c_va108xx.c **** 			}
 918:.\driver\src/i2c_va108xx.c **** 			if(!(i2c->reg->S0_STATUS & I2C_PERIPHERAL_S0_STATUS_TXEMPTY_Msk)) {
 2537              		.loc 1 918 0
 2538 07b4 6368     		ldr	r3, [r4, #4]	@ tmp239, i2c_71(D)->reg
 2539 07b6 FC33     		adds	r3, r3, #252	@ tmp239,
 2540 07b8 DB69     		ldr	r3, [r3, #28]	@ _35, _34->S0_STATUS
 2541 07ba 3342     		tst	r3, r6	@ _35, tmp238
 2542 07bc 0FD1     		bne	.L220	@,
 2543 07be CAE7     		b	.L190	@
 2544              	.L193:
 2545              	@ .\driver\src\i2c_va108xx.c:910: 			while(!(i2c->reg->S0_STATUS & I2C_PERIPHERAL_S0_STATUS_TXEMPTY
 910:.\driver\src/i2c_va108xx.c **** 				__NOP( ); 
 2546              		.loc 1 910 0 discriminator 1
 2547 07c0 FFF7FEFF 		bl	VOR_Get_SysTime	@
 2548              	.LVL190:
 2549 07c4 019B     		ldr	r3, [sp, #4]	@ poll_time, %sfp
 2550 07c6 9842     		cmp	r0, r3	@ _33, poll_time
 2551 07c8 F4D3     		bcc	.L195	@,
 2552              	.LBB134:
 2553              	.LBB135:
 2554              	@ .\inc/cmsis_gcc.h:375:   __ASM volatile ("nop");
 2555              		.loc 2 375 0
 2556              		.syntax divided
 2557              	@ 375 ".\inc/cmsis_gcc.h" 1
 2558 07ca C046     		nop
 2559              	@ 0 "" 2
 2560              		.thumb
 2561              		.syntax unified
 2562              	.LBE135:
 2563              	.LBE134:
 2564              	.LBB136:
 2565              	.LBB137:
 2566              		.syntax divided
 2567              	@ 375 ".\inc/cmsis_gcc.h" 1
 2568 07cc C046     		nop
 2569              	@ 0 "" 2
 2570              		.thumb
 2571              		.syntax unified
 2572              	.LBE137:
 2573              	.LBE136:
 2574              	@ .\driver\src\i2c_va108xx.c:913: 			  if(i2c->reg->S0_IRQ_RAW & I2C_PERIPHERAL_S0_IRQ_ENB_I2C_STOP
ARM GAS  C:\Users\claym\AppData\Local\Temp\ccxpUFUu.s 			page 74


 913:.\driver\src/i2c_va108xx.c **** 				   VOR_I2C_Stop(i2c);
 2575              		.loc 1 913 0
 2576 07ce 6368     		ldr	r3, [r4, #4]	@ tmp233, i2c_71(D)->reg
 2577 07d0 FC33     		adds	r3, r3, #252	@ tmp233,
 2578 07d2 1B6B     		ldr	r3, [r3, #48]	@ _28, _27->S0_IRQ_RAW
 2579 07d4 3B42     		tst	r3, r7	@ _28, tmp280
 2580 07d6 E8D0     		beq	.L192	@,
 2581              	@ .\driver\src\i2c_va108xx.c:914: 				   VOR_I2C_Stop(i2c);
 914:.\driver\src/i2c_va108xx.c **** 				   VOR_I2C_Stop(i2c);
 2582              		.loc 1 914 0
 2583 07d8 2000     		movs	r0, r4	@, i2c
 2584 07da FFF7B5FC 		bl	VOR_I2C_Stop	@
 2585              	.LVL191:
 2586              	.L220:
 2587              	@ .\driver\src\i2c_va108xx.c:957:   return VOR_DRIVER_OK;
 919:.\driver\src/i2c_va108xx.c **** 		    VOR_I2C_Stop(i2c);
 920:.\driver\src/i2c_va108xx.c **** 		    return VOR_I2C_ERROR_POLL_TOUT;
 921:.\driver\src/i2c_va108xx.c **** 			}
 922:.\driver\src/i2c_va108xx.c **** 		}
 923:.\driver\src/i2c_va108xx.c ****   } else {   // Interrupt Mode
 924:.\driver\src/i2c_va108xx.c ****     VOR_Disable_Irq(VOR_IRQ_I2C_SL, i2c->i2cId);
 925:.\driver\src/i2c_va108xx.c **** 	  i2c->reg->S0_IRQ_CLR = 0xffffffff;
 926:.\driver\src/i2c_va108xx.c **** 	  i2c->reg->S0_IRQ_CLR = 0;
 927:.\driver\src/i2c_va108xx.c **** 	  // Set Master Mode
 928:.\driver\src/i2c_va108xx.c **** 	  i2c->info.status.mode = I2C_MODE_SLAVE;
 929:.\driver\src/i2c_va108xx.c **** 	  // Set Direction Transmit
 930:.\driver\src/i2c_va108xx.c **** 	  i2c->info.status.direction = I2C_DIR_TRANSMIT;
 931:.\driver\src/i2c_va108xx.c **** 	  // Set Up Control parameters
 932:.\driver\src/i2c_va108xx.c ****     VOR_I2C_Setup((uint32_t)NULL,num,i2c);
 933:.\driver\src/i2c_va108xx.c **** 	  memcpy(i2c->info.txdata,data,num);
 934:.\driver\src/i2c_va108xx.c **** 	  i2c->info.txidx = 0;
 935:.\driver\src/i2c_va108xx.c **** 	  i2c->info.rxidx = 0;
 936:.\driver\src/i2c_va108xx.c **** 	  i2c->info.txcnt = num;
 937:.\driver\src/i2c_va108xx.c **** 	  i2c->info.rxcnt = 0;
 938:.\driver\src/i2c_va108xx.c **** 	  // Load TX FIFO
 939:.\driver\src/i2c_va108xx.c **** 	  i =0;
 940:.\driver\src/i2c_va108xx.c **** 	  while((i < i2c->info.txcnt) && (i2c->reg->S0_STATUS&I2C_PERIPHERAL_S0_STATUS_TXNFULL_Msk)) {
 941:.\driver\src/i2c_va108xx.c ****   	  i2c->reg->S0_DATA=data[i++];
 942:.\driver\src/i2c_va108xx.c ****   	}
 943:.\driver\src/i2c_va108xx.c **** 	  i2c->info.txidx = i;
 944:.\driver\src/i2c_va108xx.c **** 
 945:.\driver\src/i2c_va108xx.c **** 	  // Enable Interrupts
 946:.\driver\src/i2c_va108xx.c **** 	  i2c->reg->S0_IRQ_ENB = (I2C_PERIPHERAL_S0_IRQ_ENB_COMPLETED_Msk | \
 947:.\driver\src/i2c_va108xx.c **** 	                             I2C_PERIPHERAL_S0_IRQ_ENB_IDLE_Msk | \
 948:.\driver\src/i2c_va108xx.c **** 				               I2C_PERIPHERAL_S0_IRQ_ENB_ADDRESSMATCH_Msk | \
 949:.\driver\src/i2c_va108xx.c **** 		                       I2C_PERIPHERAL_S0_IRQ_ENB_NACKDATA_Msk | \
 950:.\driver\src/i2c_va108xx.c **** 					                I2C_PERIPHERAL_S0_IRQ_ENB_I2C_START_Msk | \
 951:.\driver\src/i2c_va108xx.c **** 					                 I2C_PERIPHERAL_S0_IRQ_ENB_I2C_STOP_Msk | \
 952:.\driver\src/i2c_va108xx.c **** 					              I2C_PERIPHERAL_S0_IRQ_ENB_TXUNDERFLOW_Msk | \
 953:.\driver\src/i2c_va108xx.c **** 						                I2C_PERIPHERAL_S0_IRQ_ENB_TXREADY_Msk | \
 954:.\driver\src/i2c_va108xx.c ****                  						I2C_PERIPHERAL_S0_IRQ_ENB_TXEMPTY_Msk );
 955:.\driver\src/i2c_va108xx.c **** 		VOR_Enable_Irq(VOR_IRQ_I2C_SL, i2c->i2cId);
 956:.\driver\src/i2c_va108xx.c ****   }
 957:.\driver\src/i2c_va108xx.c ****   return VOR_DRIVER_OK;
 2588              		.loc 1 957 0
 2589 07de 0020     		movs	r0, #0	@ <retval>,
 2590              	.L179:
ARM GAS  C:\Users\claym\AppData\Local\Temp\ccxpUFUu.s 			page 75


 2591              	@ .\driver\src\i2c_va108xx.c:958: }
 958:.\driver\src/i2c_va108xx.c **** }
 2592              		.loc 1 958 0
 2593              		@ sp needed	@
 2594              	.LVL192:
 2595 07e0 FEBD     		pop	{r1, r2, r3, r4, r5, r6, r7, pc}
 2596              	.LVL193:
 2597              	.L181:
 2598              	@ .\driver\src\i2c_va108xx.c:924:     VOR_Disable_Irq(VOR_IRQ_I2C_SL, i2c->i2cId);
 924:.\driver\src/i2c_va108xx.c **** 	  i2c->reg->S0_IRQ_CLR = 0xffffffff;
 2599              		.loc 1 924 0
 2600 07e2 2168     		ldr	r1, [r4]	@, i2c_71(D)->i2cId
 2601 07e4 0620     		movs	r0, #6	@,
 2602 07e6 FFF7FEFF 		bl	VOR_Disable_Irq	@
 2603              	.LVL194:
 2604              	@ .\driver\src\i2c_va108xx.c:925: 	  i2c->reg->S0_IRQ_CLR = 0xffffffff;
 925:.\driver\src/i2c_va108xx.c **** 	  i2c->reg->S0_IRQ_CLR = 0;
 2605              		.loc 1 925 0
 2606 07ea 0122     		movs	r2, #1	@ tmp317,
 2607 07ec 6368     		ldr	r3, [r4, #4]	@ tmp242, i2c_71(D)->reg
 2608 07ee 5242     		rsbs	r2, r2, #0	@ tmp317, tmp317
 2609 07f0 FC33     		adds	r3, r3, #252	@ tmp242,
 2610 07f2 9A63     		str	r2, [r3, #56]	@ tmp317, _38->S0_IRQ_CLR
 2611              	@ .\driver\src\i2c_va108xx.c:926: 	  i2c->reg->S0_IRQ_CLR = 0;
 926:.\driver\src/i2c_va108xx.c **** 	  // Set Master Mode
 2612              		.loc 1 926 0
 2613 07f4 9E63     		str	r6, [r3, #56]	@ i2c_71(D)->info.poll_mode, _38->S0_IRQ_CLR
 2614              	@ .\driver\src\i2c_va108xx.c:928: 	  i2c->info.status.mode = I2C_MODE_SLAVE;
 928:.\driver\src/i2c_va108xx.c **** 	  // Set Direction Transmit
 2615              		.loc 1 928 0
 2616 07f6 637C     		ldrb	r3, [r4, #17]	@ tmp249,
 2617 07f8 8032     		adds	r2, r2, #128	@ tmp251,
 2618 07fa 1340     		ands	r3, r2	@ tmp250, tmp251
 2619 07fc 6374     		strb	r3, [r4, #17]	@ tmp250,
 2620              	@ .\driver\src\i2c_va108xx.c:930: 	  i2c->info.status.direction = I2C_DIR_TRANSMIT;
 930:.\driver\src/i2c_va108xx.c **** 	  // Set Up Control parameters
 2621              		.loc 1 930 0
 2622 07fe A37C     		ldrb	r3, [r4, #18]	@ tmp256,
 2623 0800 7E3A     		subs	r2, r2, #126	@ tmp318,
 2624 0802 9343     		bics	r3, r2	@ tmp257, tmp318
 2625 0804 A374     		strb	r3, [r4, #18]	@ tmp257,
 2626              	@ .\driver\src\i2c_va108xx.c:932:     VOR_I2C_Setup((uint32_t)NULL,num,i2c);
 932:.\driver\src/i2c_va108xx.c **** 	  memcpy(i2c->info.txdata,data,num);
 2627              		.loc 1 932 0
 2628 0806 2200     		movs	r2, r4	@, i2c
 2629 0808 2900     		movs	r1, r5	@, num
 2630 080a 3000     		movs	r0, r6	@, i2c_71(D)->info.poll_mode
 2631 080c FFF7F8FB 		bl	VOR_I2C_Setup	@
 2632              	.LVL195:
 2633              	@ .\driver\src\i2c_va108xx.c:933: 	  memcpy(i2c->info.txdata,data,num);
 933:.\driver\src/i2c_va108xx.c **** 	  i2c->info.txidx = 0;
 2634              		.loc 1 933 0
 2635 0810 2000     		movs	r0, r4	@ tmp260, i2c
 2636 0812 2A00     		movs	r2, r5	@, num
 2637 0814 3900     		movs	r1, r7	@, data
 2638 0816 6030     		adds	r0, r0, #96	@ tmp260,
 2639 0818 FFF7FEFF 		bl	memcpy	@
ARM GAS  C:\Users\claym\AppData\Local\Temp\ccxpUFUu.s 			page 76


 2640              	.LVL196:
 2641              	@ .\driver\src\i2c_va108xx.c:940: 	  while((i < i2c->info.txcnt) && (i2c->reg->S0_STATUS&I2C_PERIPH
 940:.\driver\src/i2c_va108xx.c ****   	  i2c->reg->S0_DATA=data[i++];
 2642              		.loc 1 940 0
 2643 081c 8022     		movs	r2, #128	@ tmp284,
 2644 081e 6368     		ldr	r3, [r4, #4]	@ tmp277, i2c_71(D)->reg
 2645              	@ .\driver\src\i2c_va108xx.c:934: 	  i2c->info.txidx = 0;
 934:.\driver\src/i2c_va108xx.c **** 	  i2c->info.rxidx = 0;
 2646              		.loc 1 934 0
 2647 0820 A665     		str	r6, [r4, #88]	@ i2c_71(D)->info.poll_mode, i2c_71(D)->info.txidx
 2648              	@ .\driver\src\i2c_va108xx.c:935: 	  i2c->info.rxidx = 0;
 935:.\driver\src/i2c_va108xx.c **** 	  i2c->info.txcnt = num;
 2649              		.loc 1 935 0
 2650 0822 E665     		str	r6, [r4, #92]	@ i2c_71(D)->info.poll_mode, i2c_71(D)->info.rxidx
 2651              	@ .\driver\src\i2c_va108xx.c:936: 	  i2c->info.txcnt = num;
 936:.\driver\src/i2c_va108xx.c **** 	  i2c->info.rxcnt = 0;
 2652              		.loc 1 936 0
 2653 0824 2565     		str	r5, [r4, #80]	@ num, i2c_71(D)->info.txcnt
 2654              	@ .\driver\src\i2c_va108xx.c:937: 	  i2c->info.rxcnt = 0;
 937:.\driver\src/i2c_va108xx.c **** 	  // Load TX FIFO
 2655              		.loc 1 937 0
 2656 0826 6665     		str	r6, [r4, #84]	@ i2c_71(D)->info.poll_mode, i2c_71(D)->info.rxcnt
 2657              	.LVL197:
 2658 0828 FC33     		adds	r3, r3, #252	@ tmp277,
 2659              	@ .\driver\src\i2c_va108xx.c:940: 	  while((i < i2c->info.txcnt) && (i2c->reg->S0_STATUS&I2C_PERIPH
 940:.\driver\src/i2c_va108xx.c ****   	  i2c->reg->S0_DATA=data[i++];
 2660              		.loc 1 940 0
 2661 082a 9201     		lsls	r2, r2, #6	@ tmp284, tmp284,
 2662              	.LVL198:
 2663              	.L196:
 2664 082c B542     		cmp	r5, r6	@ num, ivtmp.98
 2665 082e 02D0     		beq	.L197	@,
 2666              	@ .\driver\src\i2c_va108xx.c:940: 	  while((i < i2c->info.txcnt) && (i2c->reg->S0_STATUS&I2C_PERIPH
 940:.\driver\src/i2c_va108xx.c ****   	  i2c->reg->S0_DATA=data[i++];
 2667              		.loc 1 940 0 is_stmt 0 discriminator 1
 2668 0830 D969     		ldr	r1, [r3, #28]	@ _47, pretmp_4->S0_STATUS
 2669 0832 1142     		tst	r1, r2	@ _47, tmp284
 2670 0834 07D1     		bne	.L198	@,
 2671              	.L197:
 2672              	@ .\driver\src\i2c_va108xx.c:946: 	  i2c->reg->S0_IRQ_ENB = (I2C_PERIPHERAL_S0_IRQ_ENB_COMPLETED_Ms
 946:.\driver\src/i2c_va108xx.c **** 	                             I2C_PERIPHERAL_S0_IRQ_ENB_IDLE_Msk | \
 2673              		.loc 1 946 0 is_stmt 1
 2674 0836 074A     		ldr	r2, .L221	@ tmp274,
 2675              	@ .\driver\src\i2c_va108xx.c:943: 	  i2c->info.txidx = i;
 943:.\driver\src/i2c_va108xx.c **** 
 2676              		.loc 1 943 0
 2677 0838 A665     		str	r6, [r4, #88]	@ ivtmp.98, i2c_71(D)->info.txidx
 2678              	@ .\driver\src\i2c_va108xx.c:955: 		VOR_Enable_Irq(VOR_IRQ_I2C_SL, i2c->i2cId);
 955:.\driver\src/i2c_va108xx.c ****   }
 2679              		.loc 1 955 0
 2680 083a 2168     		ldr	r1, [r4]	@, i2c_71(D)->i2cId
 2681              	@ .\driver\src\i2c_va108xx.c:946: 	  i2c->reg->S0_IRQ_ENB = (I2C_PERIPHERAL_S0_IRQ_ENB_COMPLETED_Ms
 946:.\driver\src/i2c_va108xx.c **** 	                             I2C_PERIPHERAL_S0_IRQ_ENB_IDLE_Msk | \
 2682              		.loc 1 946 0
 2683 083c DA62     		str	r2, [r3, #44]	@ tmp274, pretmp_4->S0_IRQ_ENB
 2684              	@ .\driver\src\i2c_va108xx.c:955: 		VOR_Enable_Irq(VOR_IRQ_I2C_SL, i2c->i2cId);
 955:.\driver\src/i2c_va108xx.c ****   }
ARM GAS  C:\Users\claym\AppData\Local\Temp\ccxpUFUu.s 			page 77


 2685              		.loc 1 955 0
 2686 083e 0620     		movs	r0, #6	@,
 2687 0840 FFF7FEFF 		bl	VOR_Enable_Irq	@
 2688              	.LVL199:
 2689 0844 CBE7     		b	.L220	@
 2690              	.L198:
 2691              	.LVL200:
 2692              	@ .\driver\src\i2c_va108xx.c:941:   	  i2c->reg->S0_DATA=data[i++];
 941:.\driver\src/i2c_va108xx.c ****   	}
 2693              		.loc 1 941 0
 2694 0846 B95D     		ldrb	r1, [r7, r6]	@ _43, MEM[base: data_68(D), index: ivtmp.98_127, offset: 0B]
 2695 0848 0136     		adds	r6, r6, #1	@ ivtmp.98,
 2696              	.LVL201:
 2697 084a 5961     		str	r1, [r3, #20]	@ _43, pretmp_4->S0_DATA
 2698 084c EEE7     		b	.L196	@
 2699              	.LVL202:
 2700              	.L200:
 2701              	@ .\driver\src\i2c_va108xx.c:852:     return VOR_DRIVER_ERROR_PARAMETER;
 852:.\driver\src/i2c_va108xx.c ****   }
 2702              		.loc 1 852 0
 2703 084e 0520     		movs	r0, #5	@ <retval>,
 2704              	.LVL203:
 2705 0850 85E7     		b	.L219	@
 2706              	.L222:
 2707 0852 C046     		.align	2
 2708              	.L221:
 2709 0854 63570000 		.word	22371
 2710              		.cfi_endproc
 2711              	.LFE62:
 2712              		.size	VOR_I2C_SlaveTransmit, .-VOR_I2C_SlaveTransmit
 2713              		.align	1
 2714              		.global	VOR_I2C_SlaveReceive
 2715              		.syntax unified
 2716              		.code	16
 2717              		.thumb_func
 2718              		.fpu softvfp
 2719              		.type	VOR_I2C_SlaveReceive, %function
 2720              	VOR_I2C_SlaveReceive:
 2721              	.LFB63:
 959:.\driver\src/i2c_va108xx.c **** 
 960:.\driver\src/i2c_va108xx.c **** /**
 961:.\driver\src/i2c_va108xx.c ****   function:    int32_t VOR_I2C_SlaveReceive (uint8_t       *data,
 962:.\driver\src/i2c_va108xx.c ****                                           uint32_t       num,
 963:.\driver\src/i2c_va108xx.c ****                                           I2C_RESOURCES *i2c)
 964:.\driver\src/i2c_va108xx.c ****   brief:       Start receiving data as I2C Slave.
 965:.\driver\src/i2c_va108xx.c ****   Output:      data  Pointer to buffer for data to receive from I2C Master
 966:.\driver\src/i2c_va108xx.c ****   Input:       num   Number of data bytes to receive
 967:.\driver\src/i2c_va108xx.c ****   Input:       i2c   Pointer to I2C resources
 968:.\driver\src/i2c_va108xx.c ****   return:      execution_status
 969:.\driver\src/i2c_va108xx.c **** */
 970:.\driver\src/i2c_va108xx.c **** int32_t VOR_I2C_SlaveReceive (uint8_t       *data,
 971:.\driver\src/i2c_va108xx.c ****                                   uint32_t       num,
 972:.\driver\src/i2c_va108xx.c ****                                   I2C_RESOURCES *i2c) {
 2722              		.loc 1 972 0
 2723              		.cfi_startproc
 2724              		@ args = 0, pretend = 0, frame = 8
 2725              		@ frame_needed = 0, uses_anonymous_args = 0
ARM GAS  C:\Users\claym\AppData\Local\Temp\ccxpUFUu.s 			page 78


 2726              	.LVL204:
 2727 0858 F7B5     		push	{r0, r1, r2, r4, r5, r6, r7, lr}	@
 2728              	.LCFI12:
 2729              		.cfi_def_cfa_offset 32
 2730              		.cfi_offset 0, -32
 2731              		.cfi_offset 1, -28
 2732              		.cfi_offset 2, -24
 2733              		.cfi_offset 4, -20
 2734              		.cfi_offset 5, -16
 2735              		.cfi_offset 6, -12
 2736              		.cfi_offset 7, -8
 2737              		.cfi_offset 14, -4
 2738              	@ .\driver\src\i2c_va108xx.c:972:                                   I2C_RESOURCES *i2c) {
 2739              		.loc 1 972 0
 2740 085a 0F00     		movs	r7, r1	@ num, num
 2741 085c 0090     		str	r0, [sp]	@ data, %sfp
 2742 085e 1400     		movs	r4, r2	@ i2c, i2c
 2743              	@ .\driver\src\i2c_va108xx.c:978:   if (!data || !num ) {
 973:.\driver\src/i2c_va108xx.c **** 	
 974:.\driver\src/i2c_va108xx.c ****   int32_t i;
 975:.\driver\src/i2c_va108xx.c ****   uint32_t poll_time, start_time;
 976:.\driver\src/i2c_va108xx.c **** 	uint32_t status, irq_raw;																		
 977:.\driver\src/i2c_va108xx.c **** 																	
 978:.\driver\src/i2c_va108xx.c ****   if (!data || !num ) {
 2744              		.loc 1 978 0
 2745 0860 0028     		cmp	r0, #0	@ data,
 2746 0862 00D1     		bne	.LCB2199	@
 2747 0864 75E0     		b	.L232	@long jump	@
 2748              	.LCB2199:
 2749              	@ .\driver\src\i2c_va108xx.c:978:   if (!data || !num ) {
 2750              		.loc 1 978 0 is_stmt 0 discriminator 1
 2751 0866 0029     		cmp	r1, #0	@ num,
 2752 0868 00D1     		bne	.LCB2201	@
 2753 086a 72E0     		b	.L232	@long jump	@
 2754              	.LCB2201:
 2755              	@ .\driver\src\i2c_va108xx.c:985:     return VOR_DRIVER_ERROR;
 979:.\driver\src/i2c_va108xx.c ****     /* Invalid parameters */
 980:.\driver\src/i2c_va108xx.c ****     return VOR_DRIVER_ERROR_PARAMETER;
 981:.\driver\src/i2c_va108xx.c ****   }
 982:.\driver\src/i2c_va108xx.c **** 
 983:.\driver\src/i2c_va108xx.c ****   if (!(i2c->info.flags & I2C_FLAG_INIT)) {
 984:.\driver\src/i2c_va108xx.c ****     /* Driver not yet configured */
 985:.\driver\src/i2c_va108xx.c ****     return VOR_DRIVER_ERROR;
 2756              		.loc 1 985 0 is_stmt 1
 2757 086c 0120     		movs	r0, #1	@ <retval>,
 2758              	.LVL205:
 2759              	@ .\driver\src\i2c_va108xx.c:983:   if (!(i2c->info.flags & I2C_FLAG_INIT)) {
 983:.\driver\src/i2c_va108xx.c ****     /* Driver not yet configured */
 2760              		.loc 1 983 0
 2761 086e 0121     		movs	r1, #1	@ tmp215,
 2762              	.LVL206:
 2763 0870 5369     		ldr	r3, [r2, #20]	@ tmp214, i2c_38(D)->info.flags
 2764              	@ .\driver\src\i2c_va108xx.c:985:     return VOR_DRIVER_ERROR;
 2765              		.loc 1 985 0
 2766 0872 4042     		rsbs	r0, r0, #0	@ <retval>, <retval>
 2767              	@ .\driver\src\i2c_va108xx.c:983:   if (!(i2c->info.flags & I2C_FLAG_INIT)) {
 983:.\driver\src/i2c_va108xx.c ****     /* Driver not yet configured */
ARM GAS  C:\Users\claym\AppData\Local\Temp\ccxpUFUu.s 			page 79


 2768              		.loc 1 983 0
 2769 0874 0B42     		tst	r3, r1	@ tmp214, tmp215
 2770 0876 6BD0     		beq	.L223	@,
 2771              	@ .\driver\src\i2c_va108xx.c:988:   i2c->reg->S0_IRQ_ENB = 0;
 986:.\driver\src/i2c_va108xx.c ****   }
 987:.\driver\src/i2c_va108xx.c **** 
 988:.\driver\src/i2c_va108xx.c ****   i2c->reg->S0_IRQ_ENB = 0;
 2772              		.loc 1 988 0
 2773 0878 0026     		movs	r6, #0	@ tmp145,
 2774 087a 5368     		ldr	r3, [r2, #4]	@ tmp144, i2c_38(D)->reg
 2775              	@ .\driver\src\i2c_va108xx.c:991:   if(i2c->info.poll_mode) {
 989:.\driver\src/i2c_va108xx.c ****   i2c->reg->S0_IRQ_CLR = 0xffffffff;
 990:.\driver\src/i2c_va108xx.c **** 	i2c->info.rxidx = 0;
 991:.\driver\src/i2c_va108xx.c ****   if(i2c->info.poll_mode) {
 2776              		.loc 1 991 0
 2777 087c A569     		ldr	r5, [r4, #24]	@ i2c_38(D)->info.poll_mode, i2c_38(D)->info.poll_mode
 2778              	@ .\driver\src\i2c_va108xx.c:988:   i2c->reg->S0_IRQ_ENB = 0;
 988:.\driver\src/i2c_va108xx.c ****   i2c->reg->S0_IRQ_CLR = 0xffffffff;
 2779              		.loc 1 988 0
 2780 087e FC33     		adds	r3, r3, #252	@ tmp144,
 2781 0880 DE62     		str	r6, [r3, #44]	@ tmp145, _3->S0_IRQ_ENB
 2782              	@ .\driver\src\i2c_va108xx.c:989:   i2c->reg->S0_IRQ_CLR = 0xffffffff;
 989:.\driver\src/i2c_va108xx.c ****   i2c->reg->S0_IRQ_CLR = 0xffffffff;
 2783              		.loc 1 989 0
 2784 0882 0200     		movs	r2, r0	@ tmp217, <retval>
 2785              	.LVL207:
 2786 0884 9863     		str	r0, [r3, #56]	@ tmp217, _3->S0_IRQ_CLR
 2787              	@ .\driver\src\i2c_va108xx.c:990: 	i2c->info.rxidx = 0;
 990:.\driver\src/i2c_va108xx.c ****   if(i2c->info.poll_mode) {
 2788              		.loc 1 990 0
 2789 0886 E665     		str	r6, [r4, #92]	@ tmp145, i2c_38(D)->info.rxidx
 2790              	@ .\driver\src\i2c_va108xx.c:991:   if(i2c->info.poll_mode) {
 2791              		.loc 1 991 0
 2792 0888 B542     		cmp	r5, r6	@ i2c_38(D)->info.poll_mode,
 2793 088a 39D0     		beq	.L225	@,
 2794              	@ .\driver\src\i2c_va108xx.c:993: 	  i2c->info.status.mode = I2C_MODE_SLAVE;
 992:.\driver\src/i2c_va108xx.c **** 	  // Set Master Mode
 993:.\driver\src/i2c_va108xx.c **** 	  i2c->info.status.mode = I2C_MODE_SLAVE;
 2795              		.loc 1 993 0
 2796 088c 637C     		ldrb	r3, [r4, #17]	@ tmp153,
 2797 088e 8032     		adds	r2, r2, #128	@ tmp155,
 2798 0890 1340     		ands	r3, r2	@ tmp154, tmp155
 2799 0892 6374     		strb	r3, [r4, #17]	@ tmp154,
 2800              	.LVL208:
 2801              	@ .\driver\src\i2c_va108xx.c:995: 	  i2c->info.status.direction = I2C_DIR_RECEIVE;
 994:.\driver\src/i2c_va108xx.c **** 	  // Set Direction Transmit
 995:.\driver\src/i2c_va108xx.c **** 	  i2c->info.status.direction = I2C_DIR_RECEIVE;
 2802              		.loc 1 995 0
 2803 0894 A37C     		ldrb	r3, [r4, #18]	@ tmp160,
 2804              	@ .\driver\src\i2c_va108xx.c:997:     VOR_I2C_Setup((uint32_t)NULL,num,i2c);
 996:.\driver\src/i2c_va108xx.c **** 	  // Set Up Control parameters
 997:.\driver\src/i2c_va108xx.c ****     VOR_I2C_Setup((uint32_t)NULL,num,i2c);
 2805              		.loc 1 997 0
 2806 0896 2200     		movs	r2, r4	@, i2c
 2807              	@ .\driver\src\i2c_va108xx.c:995: 	  i2c->info.status.direction = I2C_DIR_RECEIVE;
 995:.\driver\src/i2c_va108xx.c **** 	  // Set Up Control parameters
 2808              		.loc 1 995 0
ARM GAS  C:\Users\claym\AppData\Local\Temp\ccxpUFUu.s 			page 80


 2809 0898 0B43     		orrs	r3, r1	@ tmp161, tmp218
 2810 089a A374     		strb	r3, [r4, #18]	@ tmp161,
 2811              	@ .\driver\src\i2c_va108xx.c:997:     VOR_I2C_Setup((uint32_t)NULL,num,i2c);
 2812              		.loc 1 997 0
 2813 089c 3900     		movs	r1, r7	@, num
 2814 089e 3000     		movs	r0, r6	@, tmp145
 2815 08a0 FFF7AEFB 		bl	VOR_I2C_Setup	@
 2816              	.LVL209:
 2817              	@ .\driver\src\i2c_va108xx.c:999: 	  start_time = VOR_Get_SysTime();
 998:.\driver\src/i2c_va108xx.c **** 	  // Get Current Time
 999:.\driver\src/i2c_va108xx.c **** 	  start_time = VOR_Get_SysTime();
 2818              		.loc 1 999 0
 2819 08a4 FFF7FEFF 		bl	VOR_Get_SysTime	@
 2820              	.LVL210:
 2821              	@ .\driver\src\i2c_va108xx.c:1011: 	      if(status&I2C_PERIPHERAL_S0_STATUS_RXNEMPTY_Msk) {
1000:.\driver\src/i2c_va108xx.c **** 	  poll_time  = start_time - i2c->info.poll_tout;
1001:.\driver\src/i2c_va108xx.c **** 	  i =0;
1002:.\driver\src/i2c_va108xx.c **** 		// Load Remaining Data to TX FIFO
1003:.\driver\src/i2c_va108xx.c **** 	  while((i<(num)) && (poll_time <= VOR_Get_SysTime())) {
1004:.\driver\src/i2c_va108xx.c **** 		  __NOP( ); 
1005:.\driver\src/i2c_va108xx.c **** 		  __NOP( ); 
1006:.\driver\src/i2c_va108xx.c **** 			status = i2c->reg->S0_STATUS;
1007:.\driver\src/i2c_va108xx.c **** 		  if(!(status & I2C_PERIPHERAL_S0_STATUS_IDLE_Msk) || (status & I2C_PERIPHERAL_S0_STATUS_WAITING_
1008:.\driver\src/i2c_va108xx.c **** 			             || (status & I2C_PERIPHERAL_S0_STATUS_RXSTALLED_Msk)) {
1009:.\driver\src/i2c_va108xx.c **** 										 
1010:.\driver\src/i2c_va108xx.c **** 	      // Check TX fifo status and Load Remaining Data
1011:.\driver\src/i2c_va108xx.c **** 	      if(status&I2C_PERIPHERAL_S0_STATUS_RXNEMPTY_Msk) {
 2822              		.loc 1 1011 0
 2823 08a8 8025     		movs	r5, #128	@ tmp206,
 2824              	@ .\driver\src\i2c_va108xx.c:1000: 	  poll_time  = start_time - i2c->info.poll_tout;
1000:.\driver\src/i2c_va108xx.c **** 	  poll_time  = start_time - i2c->info.poll_tout;
 2825              		.loc 1 1000 0
 2826 08aa E369     		ldr	r3, [r4, #28]	@ tmp220, i2c_38(D)->info.poll_tout
 2827              	@ .\driver\src\i2c_va108xx.c:1011: 	      if(status&I2C_PERIPHERAL_S0_STATUS_RXNEMPTY_Msk) {
 2828              		.loc 1 1011 0
 2829 08ac 6D00     		lsls	r5, r5, #1	@ tmp206, tmp206,
 2830              	@ .\driver\src\i2c_va108xx.c:1000: 	  poll_time  = start_time - i2c->info.poll_tout;
1000:.\driver\src/i2c_va108xx.c **** 	  poll_time  = start_time - i2c->info.poll_tout;
 2831              		.loc 1 1000 0
 2832 08ae C31A     		subs	r3, r0, r3	@ poll_time, start_time, tmp220
 2833 08b0 0193     		str	r3, [sp, #4]	@ poll_time, %sfp
 2834              	.LVL211:
 2835              	.L227:
 2836              	@ .\driver\src\i2c_va108xx.c:1003: 	  while((i<(num)) && (poll_time <= VOR_Get_SysTime())) {
1003:.\driver\src/i2c_va108xx.c **** 		  __NOP( ); 
 2837              		.loc 1 1003 0
 2838 08b2 BE42     		cmp	r6, r7	@ i, num
 2839 08b4 1BD2     		bcs	.L229	@,
 2840              	@ .\driver\src\i2c_va108xx.c:1003: 	  while((i<(num)) && (poll_time <= VOR_Get_SysTime())) {
1003:.\driver\src/i2c_va108xx.c **** 		  __NOP( ); 
 2841              		.loc 1 1003 0 is_stmt 0 discriminator 1
 2842 08b6 FFF7FEFF 		bl	VOR_Get_SysTime	@
 2843              	.LVL212:
 2844 08ba 019B     		ldr	r3, [sp, #4]	@ poll_time, %sfp
 2845 08bc 9842     		cmp	r0, r3	@ _20, poll_time
 2846 08be 16D3     		bcc	.L229	@,
 2847              	.LBB138:
ARM GAS  C:\Users\claym\AppData\Local\Temp\ccxpUFUu.s 			page 81


 2848              	.LBB139:
 2849              	@ .\inc/cmsis_gcc.h:375:   __ASM volatile ("nop");
 2850              		.loc 2 375 0 is_stmt 1
 2851              		.syntax divided
 2852              	@ 375 ".\inc/cmsis_gcc.h" 1
 2853 08c0 C046     		nop
 2854              	@ 0 "" 2
 2855              		.thumb
 2856              		.syntax unified
 2857              	.LBE139:
 2858              	.LBE138:
 2859              	.LBB140:
 2860              	.LBB141:
 2861              		.syntax divided
 2862              	@ 375 ".\inc/cmsis_gcc.h" 1
 2863 08c2 C046     		nop
 2864              	@ 0 "" 2
 2865              		.thumb
 2866              		.syntax unified
 2867              	.LBE141:
 2868              	.LBE140:
 2869              	@ .\driver\src\i2c_va108xx.c:1008: 			             || (status & I2C_PERIPHERAL_S0_STATUS_RXSTALLED_
1008:.\driver\src/i2c_va108xx.c **** 										 
 2870              		.loc 1 1008 0
 2871 08c4 1621     		movs	r1, #22	@ tmp166,
 2872              	@ .\driver\src\i2c_va108xx.c:1006: 			status = i2c->reg->S0_STATUS;
1006:.\driver\src/i2c_va108xx.c **** 		  if(!(status & I2C_PERIPHERAL_S0_STATUS_IDLE_Msk) || (status & I2C_PERIPHERAL_S0_STATUS_WAITING_
 2873              		.loc 1 1006 0
 2874 08c6 6368     		ldr	r3, [r4, #4]	@ tmp165, i2c_38(D)->reg
 2875 08c8 FC33     		adds	r3, r3, #252	@ tmp165,
 2876 08ca DA69     		ldr	r2, [r3, #28]	@ status, _7->S0_STATUS
 2877              	.LVL213:
 2878              	@ .\driver\src\i2c_va108xx.c:1008: 			             || (status & I2C_PERIPHERAL_S0_STATUS_RXSTALLED_
1008:.\driver\src/i2c_va108xx.c **** 										 
 2879              		.loc 1 1008 0
 2880 08cc 1140     		ands	r1, r2	@ tmp166, status
 2881              	@ .\driver\src\i2c_va108xx.c:1007: 		  if(!(status & I2C_PERIPHERAL_S0_STATUS_IDLE_Msk) || (status 
1007:.\driver\src/i2c_va108xx.c **** 			             || (status & I2C_PERIPHERAL_S0_STATUS_RXSTALLED_Msk)) {
 2882              		.loc 1 1007 0
 2883 08ce 0229     		cmp	r1, #2	@ tmp166,
 2884 08d0 EFD0     		beq	.L227	@,
 2885              	@ .\driver\src\i2c_va108xx.c:1011: 	      if(status&I2C_PERIPHERAL_S0_STATUS_RXNEMPTY_Msk) {
 2886              		.loc 1 1011 0
 2887 08d2 2A42     		tst	r2, r5	@ status, tmp206
 2888 08d4 06D0     		beq	.L228	@,
 2889              	@ .\driver\src\i2c_va108xx.c:1012: 		      data[i] = i2c->reg->S0_DATA;
1012:.\driver\src/i2c_va108xx.c **** 		      data[i] = i2c->reg->S0_DATA;
 2890              		.loc 1 1012 0
 2891 08d6 5B69     		ldr	r3, [r3, #20]	@ _11, _7->S0_DATA
 2892 08d8 009A     		ldr	r2, [sp]	@ data, %sfp
 2893              	.LVL214:
 2894 08da 9355     		strb	r3, [r2, r6]	@ _11, *_13
 2895              	.LVL215:
 2896              	@ .\driver\src\i2c_va108xx.c:1014: 					i2c->info.rxidx++;
1013:.\driver\src/i2c_va108xx.c **** 		      i++;			
1014:.\driver\src/i2c_va108xx.c **** 					i2c->info.rxidx++;
 2897              		.loc 1 1014 0
ARM GAS  C:\Users\claym\AppData\Local\Temp\ccxpUFUu.s 			page 82


 2898 08dc E36D     		ldr	r3, [r4, #92]	@ tmp224, i2c_38(D)->info.rxidx
 2899              	@ .\driver\src\i2c_va108xx.c:1013: 		      i++;			
1013:.\driver\src/i2c_va108xx.c **** 		      i++;			
 2900              		.loc 1 1013 0
 2901 08de 0136     		adds	r6, r6, #1	@ i,
 2902              	.LVL216:
 2903              	@ .\driver\src\i2c_va108xx.c:1014: 					i2c->info.rxidx++;
 2904              		.loc 1 1014 0
 2905 08e0 0133     		adds	r3, r3, #1	@ tmp172,
 2906 08e2 E365     		str	r3, [r4, #92]	@ tmp172, i2c_38(D)->info.rxidx
 2907              	.LVL217:
 2908              	.L228:
 2909              	@ .\driver\src\i2c_va108xx.c:1016: 				irq_raw = i2c->reg->S0_IRQ_RAW;
1015:.\driver\src/i2c_va108xx.c **** 		    }		
1016:.\driver\src/i2c_va108xx.c **** 				irq_raw = i2c->reg->S0_IRQ_RAW;
 2910              		.loc 1 1016 0
 2911 08e4 6368     		ldr	r3, [r4, #4]	@ tmp174, i2c_38(D)->reg
 2912 08e6 FC33     		adds	r3, r3, #252	@ tmp174,
 2913 08e8 1B6B     		ldr	r3, [r3, #48]	@ irq_raw, _17->S0_IRQ_RAW
 2914              	.LVL218:
 2915              	@ .\driver\src\i2c_va108xx.c:1018: 			  if(irq_raw & I2C_PERIPHERAL_S0_IRQ_RAW_I2C_STOP_Msk) 
1017:.\driver\src/i2c_va108xx.c **** 			  // Check For Stop Condition
1018:.\driver\src/i2c_va108xx.c **** 			  if(irq_raw & I2C_PERIPHERAL_S0_IRQ_RAW_I2C_STOP_Msk) 
 2916              		.loc 1 1018 0
 2917 08ea 9B05     		lsls	r3, r3, #22	@ tmp212, irq_raw,
 2918 08ec E1D5     		bpl	.L227	@,
 2919              	.LVL219:
 2920              	.L229:
 2921              	@ .\driver\src\i2c_va108xx.c:1056:   return VOR_DRIVER_OK;
1019:.\driver\src/i2c_va108xx.c **** 				  break;
1020:.\driver\src/i2c_va108xx.c **** 				
1021:.\driver\src/i2c_va108xx.c **** 		  }
1022:.\driver\src/i2c_va108xx.c **** 	  }
1023:.\driver\src/i2c_va108xx.c **** 	  if(i<num) {
1024:.\driver\src/i2c_va108xx.c **** 		  VOR_I2C_Stop(i2c);
1025:.\driver\src/i2c_va108xx.c **** 		  return VOR_I2C_ERROR_POLL_TOUT;
1026:.\driver\src/i2c_va108xx.c **** 	  }
1027:.\driver\src/i2c_va108xx.c ****   } else {   // Interrupt Mode
1028:.\driver\src/i2c_va108xx.c ****     VOR_Disable_Irq(VOR_IRQ_I2C_SL, i2c->i2cId);
1029:.\driver\src/i2c_va108xx.c **** 	  i2c->reg->S0_IRQ_CLR = 0xffffffff;
1030:.\driver\src/i2c_va108xx.c **** 	  i2c->reg->S0_IRQ_CLR = 0;
1031:.\driver\src/i2c_va108xx.c **** 	  // Set Slave Mode
1032:.\driver\src/i2c_va108xx.c **** 	  i2c->info.status.mode = I2C_MODE_SLAVE;
1033:.\driver\src/i2c_va108xx.c **** 	  // Set Direction Transmit
1034:.\driver\src/i2c_va108xx.c **** 	  i2c->info.status.direction = I2C_DIR_RECEIVE;
1035:.\driver\src/i2c_va108xx.c **** 	
1036:.\driver\src/i2c_va108xx.c **** 	  // Set Up Control parameters
1037:.\driver\src/i2c_va108xx.c ****     VOR_I2C_Setup((uint32_t)NULL,num,i2c);
1038:.\driver\src/i2c_va108xx.c **** 	  i2c->info.rxdata = data;
1039:.\driver\src/i2c_va108xx.c **** 	  i2c->info.txidx = 0;
1040:.\driver\src/i2c_va108xx.c **** 	  i2c->info.rxidx = 0;
1041:.\driver\src/i2c_va108xx.c **** 	  i2c->info.txcnt = 0;
1042:.\driver\src/i2c_va108xx.c **** 	  i2c->info.rxcnt = num;
1043:.\driver\src/i2c_va108xx.c **** 	  
1044:.\driver\src/i2c_va108xx.c **** 	  // Enable Interrupts
1045:.\driver\src/i2c_va108xx.c **** 	  i2c->reg->S0_IRQ_ENB = (I2C_PERIPHERAL_S0_IRQ_ENB_COMPLETED_Msk | \
1046:.\driver\src/i2c_va108xx.c **** 	                             I2C_PERIPHERAL_S0_IRQ_ENB_IDLE_Msk | \
ARM GAS  C:\Users\claym\AppData\Local\Temp\ccxpUFUu.s 			page 83


1047:.\driver\src/i2c_va108xx.c **** 				               I2C_PERIPHERAL_S0_IRQ_ENB_ADDRESSMATCH_Msk | \
1048:.\driver\src/i2c_va108xx.c **** 		                       I2C_PERIPHERAL_S0_IRQ_ENB_NACKDATA_Msk | \
1049:.\driver\src/i2c_va108xx.c **** 					                I2C_PERIPHERAL_S0_IRQ_ENB_I2C_START_Msk | \
1050:.\driver\src/i2c_va108xx.c **** 					                 I2C_PERIPHERAL_S0_IRQ_ENB_I2C_STOP_Msk | \
1051:.\driver\src/i2c_va108xx.c **** 					               I2C_PERIPHERAL_S0_IRQ_ENB_RXOVERFLOW_Msk | \
1052:.\driver\src/i2c_va108xx.c **** 					 	                I2C_PERIPHERAL_S0_IRQ_ENB_RXREADY_Msk | \
1053:.\driver\src/i2c_va108xx.c ****  				 		                 I2C_PERIPHERAL_S0_IRQ_ENB_RXFULL_Msk );
1054:.\driver\src/i2c_va108xx.c **** 		VOR_Enable_Irq(VOR_IRQ_I2C_SL, i2c->i2cId);	  
1055:.\driver\src/i2c_va108xx.c ****   }
1056:.\driver\src/i2c_va108xx.c ****   return VOR_DRIVER_OK;
 2922              		.loc 1 1056 0
 2923 08ee 0020     		movs	r0, #0	@ <retval>,
 2924              	@ .\driver\src\i2c_va108xx.c:1023: 	  if(i<num) {
1023:.\driver\src/i2c_va108xx.c **** 		  VOR_I2C_Stop(i2c);
 2925              		.loc 1 1023 0
 2926 08f0 BE42     		cmp	r6, r7	@ i, num
 2927 08f2 2DD2     		bcs	.L223	@,
 2928              	@ .\driver\src\i2c_va108xx.c:1024: 		  VOR_I2C_Stop(i2c);
1024:.\driver\src/i2c_va108xx.c **** 		  return VOR_I2C_ERROR_POLL_TOUT;
 2929              		.loc 1 1024 0
 2930 08f4 2000     		movs	r0, r4	@, i2c
 2931 08f6 FFF727FC 		bl	VOR_I2C_Stop	@
 2932              	.LVL220:
 2933              	@ .\driver\src\i2c_va108xx.c:1025: 		  return VOR_I2C_ERROR_POLL_TOUT;
1025:.\driver\src/i2c_va108xx.c **** 	  }
 2934              		.loc 1 1025 0
 2935 08fa 0F20     		movs	r0, #15	@ <retval>,
 2936              	.LVL221:
 2937              	.L240:
 2938              	@ .\driver\src\i2c_va108xx.c:980:     return VOR_DRIVER_ERROR_PARAMETER;
 980:.\driver\src/i2c_va108xx.c ****   }
 2939              		.loc 1 980 0
 2940 08fc 4042     		rsbs	r0, r0, #0	@ <retval>, <retval>
 2941 08fe 27E0     		b	.L223	@
 2942              	.LVL222:
 2943              	.L225:
 2944              	@ .\driver\src\i2c_va108xx.c:1028:     VOR_Disable_Irq(VOR_IRQ_I2C_SL, i2c->i2cId);
1028:.\driver\src/i2c_va108xx.c **** 	  i2c->reg->S0_IRQ_CLR = 0xffffffff;
 2945              		.loc 1 1028 0
 2946 0900 2168     		ldr	r1, [r4]	@, i2c_38(D)->i2cId
 2947 0902 0620     		movs	r0, #6	@,
 2948 0904 FFF7FEFF 		bl	VOR_Disable_Irq	@
 2949              	.LVL223:
 2950              	@ .\driver\src\i2c_va108xx.c:1029: 	  i2c->reg->S0_IRQ_CLR = 0xffffffff;
1029:.\driver\src/i2c_va108xx.c **** 	  i2c->reg->S0_IRQ_CLR = 0;
 2951              		.loc 1 1029 0
 2952 0908 0122     		movs	r2, #1	@ tmp229,
 2953 090a 6368     		ldr	r3, [r4, #4]	@ tmp177, i2c_38(D)->reg
 2954 090c 5242     		rsbs	r2, r2, #0	@ tmp229, tmp229
 2955 090e FC33     		adds	r3, r3, #252	@ tmp177,
 2956 0910 9A63     		str	r2, [r3, #56]	@ tmp229, _23->S0_IRQ_CLR
 2957              	@ .\driver\src\i2c_va108xx.c:1030: 	  i2c->reg->S0_IRQ_CLR = 0;
1030:.\driver\src/i2c_va108xx.c **** 	  // Set Slave Mode
 2958              		.loc 1 1030 0
 2959 0912 9D63     		str	r5, [r3, #56]	@ i2c_38(D)->info.poll_mode, _23->S0_IRQ_CLR
 2960              	@ .\driver\src\i2c_va108xx.c:1032: 	  i2c->info.status.mode = I2C_MODE_SLAVE;
1032:.\driver\src/i2c_va108xx.c **** 	  // Set Direction Transmit
ARM GAS  C:\Users\claym\AppData\Local\Temp\ccxpUFUu.s 			page 84


 2961              		.loc 1 1032 0
 2962 0914 637C     		ldrb	r3, [r4, #17]	@ tmp184,
 2963 0916 8032     		adds	r2, r2, #128	@ tmp186,
 2964 0918 1340     		ands	r3, r2	@ tmp185, tmp186
 2965 091a 6374     		strb	r3, [r4, #17]	@ tmp185,
 2966              	.LVL224:
 2967              	@ .\driver\src\i2c_va108xx.c:1034: 	  i2c->info.status.direction = I2C_DIR_RECEIVE;
1034:.\driver\src/i2c_va108xx.c **** 	
 2968              		.loc 1 1034 0
 2969 091c A37C     		ldrb	r3, [r4, #18]	@ tmp191,
 2970 091e 7E3A     		subs	r2, r2, #126	@ tmp230,
 2971 0920 1343     		orrs	r3, r2	@ tmp192, tmp230
 2972 0922 A374     		strb	r3, [r4, #18]	@ tmp192,
 2973              	@ .\driver\src\i2c_va108xx.c:1037:     VOR_I2C_Setup((uint32_t)NULL,num,i2c);
1037:.\driver\src/i2c_va108xx.c **** 	  i2c->info.rxdata = data;
 2974              		.loc 1 1037 0
 2975 0924 2200     		movs	r2, r4	@, i2c
 2976 0926 3900     		movs	r1, r7	@, num
 2977 0928 2800     		movs	r0, r5	@, i2c_38(D)->info.poll_mode
 2978 092a FFF769FB 		bl	VOR_I2C_Setup	@
 2979              	.LVL225:
 2980              	@ .\driver\src\i2c_va108xx.c:1038: 	  i2c->info.rxdata = data;
1038:.\driver\src/i2c_va108xx.c **** 	  i2c->info.txidx = 0;
 2981              		.loc 1 1038 0
 2982 092e 2300     		movs	r3, r4	@ tmp197, i2c
 2983 0930 009A     		ldr	r2, [sp]	@ data, %sfp
 2984 0932 E033     		adds	r3, r3, #224	@ tmp197,
 2985 0934 1A60     		str	r2, [r3]	@ data, i2c_38(D)->info.rxdata
 2986              	@ .\driver\src\i2c_va108xx.c:1045: 	  i2c->reg->S0_IRQ_ENB = (I2C_PERIPHERAL_S0_IRQ_ENB_COMPLETED_M
1045:.\driver\src/i2c_va108xx.c **** 	                             I2C_PERIPHERAL_S0_IRQ_ENB_IDLE_Msk | \
 2987              		.loc 1 1045 0
 2988 0936 6368     		ldr	r3, [r4, #4]	@ tmp201, i2c_38(D)->reg
 2989 0938 074A     		ldr	r2, .L241	@ tmp202,
 2990 093a FC33     		adds	r3, r3, #252	@ tmp201,
 2991              	@ .\driver\src\i2c_va108xx.c:1039: 	  i2c->info.txidx = 0;
1039:.\driver\src/i2c_va108xx.c **** 	  i2c->info.rxidx = 0;
 2992              		.loc 1 1039 0
 2993 093c A565     		str	r5, [r4, #88]	@ i2c_38(D)->info.poll_mode, i2c_38(D)->info.txidx
 2994              	@ .\driver\src\i2c_va108xx.c:1040: 	  i2c->info.rxidx = 0;
1040:.\driver\src/i2c_va108xx.c **** 	  i2c->info.txcnt = 0;
 2995              		.loc 1 1040 0
 2996 093e E565     		str	r5, [r4, #92]	@ i2c_38(D)->info.poll_mode, i2c_38(D)->info.rxidx
 2997              	@ .\driver\src\i2c_va108xx.c:1041: 	  i2c->info.txcnt = 0;
1041:.\driver\src/i2c_va108xx.c **** 	  i2c->info.rxcnt = num;
 2998              		.loc 1 1041 0
 2999 0940 2565     		str	r5, [r4, #80]	@ i2c_38(D)->info.poll_mode, i2c_38(D)->info.txcnt
 3000              	@ .\driver\src\i2c_va108xx.c:1042: 	  i2c->info.rxcnt = num;
1042:.\driver\src/i2c_va108xx.c **** 	  
 3001              		.loc 1 1042 0
 3002 0942 6765     		str	r7, [r4, #84]	@ num, i2c_38(D)->info.rxcnt
 3003              	@ .\driver\src\i2c_va108xx.c:1054: 		VOR_Enable_Irq(VOR_IRQ_I2C_SL, i2c->i2cId);	  
1054:.\driver\src/i2c_va108xx.c ****   }
 3004              		.loc 1 1054 0
 3005 0944 2168     		ldr	r1, [r4]	@, i2c_38(D)->i2cId
 3006              	@ .\driver\src\i2c_va108xx.c:1045: 	  i2c->reg->S0_IRQ_ENB = (I2C_PERIPHERAL_S0_IRQ_ENB_COMPLETED_M
1045:.\driver\src/i2c_va108xx.c **** 	                             I2C_PERIPHERAL_S0_IRQ_ENB_IDLE_Msk | \
 3007              		.loc 1 1045 0
ARM GAS  C:\Users\claym\AppData\Local\Temp\ccxpUFUu.s 			page 85


 3008 0946 DA62     		str	r2, [r3, #44]	@ tmp202, _25->S0_IRQ_ENB
 3009              	@ .\driver\src\i2c_va108xx.c:1054: 		VOR_Enable_Irq(VOR_IRQ_I2C_SL, i2c->i2cId);	  
1054:.\driver\src/i2c_va108xx.c ****   }
 3010              		.loc 1 1054 0
 3011 0948 0620     		movs	r0, #6	@,
 3012 094a FFF7FEFF 		bl	VOR_Enable_Irq	@
 3013              	.LVL226:
 3014              	@ .\driver\src\i2c_va108xx.c:1056:   return VOR_DRIVER_OK;
 3015              		.loc 1 1056 0
 3016 094e 2800     		movs	r0, r5	@ <retval>, i2c_38(D)->info.poll_mode
 3017              	.L223:
 3018              	@ .\driver\src\i2c_va108xx.c:1057: }
1057:.\driver\src/i2c_va108xx.c **** }
 3019              		.loc 1 1057 0
 3020              		@ sp needed	@
 3021              	.LVL227:
 3022              	.LVL228:
 3023 0950 FEBD     		pop	{r1, r2, r3, r4, r5, r6, r7, pc}
 3024              	.LVL229:
 3025              	.L232:
 3026              	@ .\driver\src\i2c_va108xx.c:980:     return VOR_DRIVER_ERROR_PARAMETER;
 980:.\driver\src/i2c_va108xx.c ****   }
 3027              		.loc 1 980 0
 3028 0952 0520     		movs	r0, #5	@ <retval>,
 3029              	.LVL230:
 3030 0954 D2E7     		b	.L240	@
 3031              	.L242:
 3032 0956 C046     		.align	2
 3033              	.L241:
 3034 0958 63AB0000 		.word	43875
 3035              		.cfi_endproc
 3036              	.LFE63:
 3037              		.size	VOR_I2C_SlaveReceive, .-VOR_I2C_SlaveReceive
 3038              		.align	1
 3039              		.global	VOR_I2C_MasterHandler
 3040              		.syntax unified
 3041              		.code	16
 3042              		.thumb_func
 3043              		.fpu softvfp
 3044              		.type	VOR_I2C_MasterHandler, %function
 3045              	VOR_I2C_MasterHandler:
 3046              	.LFB64:
1058:.\driver\src/i2c_va108xx.c **** 
1059:.\driver\src/i2c_va108xx.c **** 
1060:.\driver\src/i2c_va108xx.c **** 
1061:.\driver\src/i2c_va108xx.c **** /**
1062:.\driver\src/i2c_va108xx.c ****   function:    void VOR_I2C_MasterHandler (I2C_RESOURCES *i2c)
1063:.\driver\src/i2c_va108xx.c ****   brief:       I2C Master state event handler.
1064:.\driver\src/i2c_va108xx.c ****   Input:       i2c  Pointer to I2C resources
1065:.\driver\src/i2c_va108xx.c ****   return:      I2C event notification flags
1066:.\driver\src/i2c_va108xx.c **** */
1067:.\driver\src/i2c_va108xx.c **** void VOR_I2C_MasterHandler (I2C_RESOURCES *i2c) {
 3047              		.loc 1 1067 0
 3048              		.cfi_startproc
 3049              		@ args = 0, pretend = 0, frame = 0
 3050              		@ frame_needed = 0, uses_anonymous_args = 0
 3051              	.LVL231:
ARM GAS  C:\Users\claym\AppData\Local\Temp\ccxpUFUu.s 			page 86


 3052 095c F8B5     		push	{r3, r4, r5, r6, r7, lr}	@
 3053              	.LCFI13:
 3054              		.cfi_def_cfa_offset 24
 3055              		.cfi_offset 3, -24
 3056              		.cfi_offset 4, -20
 3057              		.cfi_offset 5, -16
 3058              		.cfi_offset 6, -12
 3059              		.cfi_offset 7, -8
 3060              		.cfi_offset 14, -4
 3061              	@ .\driver\src\i2c_va108xx.c:1072:   if (!(i2c->info.flags & I2C_FLAG_INIT)) {
1068:.\driver\src/i2c_va108xx.c ****   uint32_t event  = 0;
1069:.\driver\src/i2c_va108xx.c ****   uint32_t irq_end;
1070:.\driver\src/i2c_va108xx.c **** 	uint32_t status;
1071:.\driver\src/i2c_va108xx.c **** 	
1072:.\driver\src/i2c_va108xx.c ****   if (!(i2c->info.flags & I2C_FLAG_INIT)) {
 3062              		.loc 1 1072 0
 3063 095e 0123     		movs	r3, #1	@ tmp172,
 3064 0960 4169     		ldr	r1, [r0, #20]	@ tmp301, i2c_83(D)->info.flags
 3065              	@ .\driver\src\i2c_va108xx.c:1067: void VOR_I2C_MasterHandler (I2C_RESOURCES *i2c) {
1067:.\driver\src/i2c_va108xx.c ****   uint32_t event  = 0;
 3066              		.loc 1 1067 0
 3067 0962 0400     		movs	r4, r0	@ i2c, i2c
 3068 0964 4268     		ldr	r2, [r0, #4]	@ pretmp_16, i2c_83(D)->reg
 3069              	@ .\driver\src\i2c_va108xx.c:1072:   if (!(i2c->info.flags & I2C_FLAG_INIT)) {
 3070              		.loc 1 1072 0
 3071 0966 0B40     		ands	r3, r1	@ tmp170, tmp301
 3072 0968 05D1     		bne	.L244	@,
 3073              	@ .\driver\src\i2c_va108xx.c:1075: 		VOR_Disable_Irq(VOR_IRQ_I2C_MS, i2c->i2cId);
1073:.\driver\src/i2c_va108xx.c ****     /* Driver not yet configured */
1074:.\driver\src/i2c_va108xx.c **** 	  i2c->reg->IRQ_ENB = 0;
1075:.\driver\src/i2c_va108xx.c **** 		VOR_Disable_Irq(VOR_IRQ_I2C_MS, i2c->i2cId);
 3074              		.loc 1 1075 0
 3075 096a 0168     		ldr	r1, [r0]	@, i2c_83(D)->i2cId
 3076              	@ .\driver\src\i2c_va108xx.c:1074: 	  i2c->reg->IRQ_ENB = 0;
1074:.\driver\src/i2c_va108xx.c **** 		VOR_Disable_Irq(VOR_IRQ_I2C_MS, i2c->i2cId);
 3077              		.loc 1 1074 0
 3078 096c 9362     		str	r3, [r2, #40]	@ tmp170, pretmp_16->IRQ_ENB
 3079              	@ .\driver\src\i2c_va108xx.c:1075: 		VOR_Disable_Irq(VOR_IRQ_I2C_MS, i2c->i2cId);
 3080              		.loc 1 1075 0
 3081 096e 0520     		movs	r0, #5	@,
 3082              	.LVL232:
 3083 0970 FFF7FEFF 		bl	VOR_Disable_Irq	@
 3084              	.LVL233:
 3085              	.L243:
 3086              	@ .\driver\src\i2c_va108xx.c:1166: }
1076:.\driver\src/i2c_va108xx.c ****     return;
1077:.\driver\src/i2c_va108xx.c ****   }
1078:.\driver\src/i2c_va108xx.c ****   
1079:.\driver\src/i2c_va108xx.c ****   status  = i2c->reg->STATUS;
1080:.\driver\src/i2c_va108xx.c ****   irq_end = i2c->reg->IRQ_END;
1081:.\driver\src/i2c_va108xx.c ****   if(irq_end & (I2C_PERIPHERAL_IRQ_END_TXREADY_Msk | I2C_PERIPHERAL_IRQ_END_TXEMPTY_Msk)) {
1082:.\driver\src/i2c_va108xx.c ****     if(status & (I2C_PERIPHERAL_STATUS_TXEMPTY_Msk | I2C_PERIPHERAL_STATUS_TXTRIGGER_Msk )){
1083:.\driver\src/i2c_va108xx.c **** 	    if(i2c->info.txidx < i2c->info.txcnt) {
1084:.\driver\src/i2c_va108xx.c **** 		    while(( i2c->info.txidx < i2c->info.txcnt) && (i2c->reg->STATUS&I2C_PERIPHERAL_STATUS_TXNFULL
1085:.\driver\src/i2c_va108xx.c **** 	        i2c->reg->DATA=i2c->info.txdata[i2c->info.txidx++];
1086:.\driver\src/i2c_va108xx.c **** 			    if(i2c->info.txidx == i2c->info.txcnt) {
1087:.\driver\src/i2c_va108xx.c **** 						event = VOR_I2C_EVENT_TRANSFER_DONE;
ARM GAS  C:\Users\claym\AppData\Local\Temp\ccxpUFUu.s 			page 87


1088:.\driver\src/i2c_va108xx.c ****             if(i2c->info.cb_event)
1089:.\driver\src/i2c_va108xx.c **** 	            i2c->info.cb_event(event);
1090:.\driver\src/i2c_va108xx.c **** 						
1091:.\driver\src/i2c_va108xx.c **** 					  i2c->reg->CMD = I2C_CMD_STOP;
1092:.\driver\src/i2c_va108xx.c **** 					  i2c->reg->IRQ_ENB = 0;
1093:.\driver\src/i2c_va108xx.c **** 						VOR_Disable_Irq(VOR_IRQ_I2C_MS, i2c->i2cId);
1094:.\driver\src/i2c_va108xx.c **** 					}
1095:.\driver\src/i2c_va108xx.c **** 	      }
1096:.\driver\src/i2c_va108xx.c **** 		    i2c->reg->IRQ_CLR = (irq_end & (I2C_PERIPHERAL_IRQ_END_TXREADY_Msk | I2C_PERIPHERAL_IRQ_END_T
1097:.\driver\src/i2c_va108xx.c **** 		    return;
1098:.\driver\src/i2c_va108xx.c **** 	    }
1099:.\driver\src/i2c_va108xx.c **** 	  }
1100:.\driver\src/i2c_va108xx.c ****   }
1101:.\driver\src/i2c_va108xx.c ****   
1102:.\driver\src/i2c_va108xx.c ****   if(irq_end & (I2C_PERIPHERAL_IRQ_END_RXREADY_Msk | I2C_PERIPHERAL_IRQ_END_RXFULL_Msk )) {
1103:.\driver\src/i2c_va108xx.c ****     if(status & (I2C_PERIPHERAL_STATUS_RXNEMPTY_Msk | I2C_PERIPHERAL_STATUS_RXFULL_Msk | I2C_PERIPH
1104:.\driver\src/i2c_va108xx.c **** 	    if((i2c->info.rxidx < i2c->info.rxcnt) && i2c->info.rxdata) {
1105:.\driver\src/i2c_va108xx.c **** 		    while(( i2c->info.rxidx < i2c->info.rxcnt) && (i2c->reg->STATUS&I2C_PERIPHERAL_STATUS_RXNEMPT
1106:.\driver\src/i2c_va108xx.c **** 		      i2c->info.rxdata[i2c->info.rxidx++] = i2c->reg->DATA;
1107:.\driver\src/i2c_va108xx.c **** 			    if(i2c->info.rxidx == i2c->info.rxcnt) {
1108:.\driver\src/i2c_va108xx.c **** 					  i2c->reg->CMD = I2C_CMD_STOP;
1109:.\driver\src/i2c_va108xx.c **** 					  i2c->reg->IRQ_ENB = 0;
1110:.\driver\src/i2c_va108xx.c **** 						VOR_Disable_Irq(VOR_IRQ_I2C_MS, i2c->i2cId);
1111:.\driver\src/i2c_va108xx.c **** 						event = VOR_I2C_EVENT_TRANSFER_DONE;
1112:.\driver\src/i2c_va108xx.c ****             if(i2c->info.cb_event)
1113:.\driver\src/i2c_va108xx.c **** 	            i2c->info.cb_event(event);
1114:.\driver\src/i2c_va108xx.c **** 					}
1115:.\driver\src/i2c_va108xx.c **** 	      }
1116:.\driver\src/i2c_va108xx.c **** 		    i2c->reg->IRQ_CLR = (irq_end & (I2C_PERIPHERAL_IRQ_END_RXREADY_Msk | I2C_PERIPHERAL_IRQ_END_R
1117:.\driver\src/i2c_va108xx.c **** 		    return;
1118:.\driver\src/i2c_va108xx.c **** 	    }
1119:.\driver\src/i2c_va108xx.c **** 	  }
1120:.\driver\src/i2c_va108xx.c ****   }
1121:.\driver\src/i2c_va108xx.c **** 
1122:.\driver\src/i2c_va108xx.c ****   if(status & I2C_PERIPHERAL_STATUS_ARBLOST_Msk) 
1123:.\driver\src/i2c_va108xx.c **** 	event |= (VOR_I2C_EVENT_ARBITRATION_LOST);
1124:.\driver\src/i2c_va108xx.c ****   
1125:.\driver\src/i2c_va108xx.c ****   if(status & I2C_PERIPHERAL_STATUS_NACKADDR_Msk)
1126:.\driver\src/i2c_va108xx.c **** 	event |= (VOR_I2C_EVENT_ADDRESS_NACK);
1127:.\driver\src/i2c_va108xx.c ****   
1128:.\driver\src/i2c_va108xx.c ****   if(status & I2C_PERIPHERAL_STATUS_NACKDATA_Pos)
1129:.\driver\src/i2c_va108xx.c **** 	event |= (VOR_I2C_EVENT_TRANSFER_INCOMPLETE);
1130:.\driver\src/i2c_va108xx.c **** 
1131:.\driver\src/i2c_va108xx.c ****   if((status & I2C_PERIPHERAL_STATUS_IDLE_Msk) && (i2c->info.txidx >= i2c->info.txcnt))
1132:.\driver\src/i2c_va108xx.c **** 	event |= VOR_I2C_EVENT_TRANSFER_DONE;
1133:.\driver\src/i2c_va108xx.c **** 
1134:.\driver\src/i2c_va108xx.c ****   if((status & I2C_PERIPHERAL_STATUS_WAITING_Msk))
1135:.\driver\src/i2c_va108xx.c **** 	event |= VOR_I2C_EVENT_TRANSFER_INCOMPLETE;
1136:.\driver\src/i2c_va108xx.c ****   
1137:.\driver\src/i2c_va108xx.c ****   if((status & I2C_PERIPHERAL_STATUS_STALLED_Msk))
1138:.\driver\src/i2c_va108xx.c **** 	event |= VOR_I2C_EVENT_TRANSFER_INCOMPLETE;
1139:.\driver\src/i2c_va108xx.c ****   
1140:.\driver\src/i2c_va108xx.c ****   if(irq_end & I2C_PERIPHERAL_IRQ_END_CLKLOTO_Msk)
1141:.\driver\src/i2c_va108xx.c **** 	event |= VOR_I2C_EVENT_CLKLOTO;
1142:.\driver\src/i2c_va108xx.c ****   
1143:.\driver\src/i2c_va108xx.c ****   if(irq_end & I2C_PERIPHERAL_IRQ_END_RXOVERFLOW_Msk)
1144:.\driver\src/i2c_va108xx.c **** 	event |= VOR_I2C_EVENT_RXOVERFLOW;
ARM GAS  C:\Users\claym\AppData\Local\Temp\ccxpUFUu.s 			page 88


1145:.\driver\src/i2c_va108xx.c ****   
1146:.\driver\src/i2c_va108xx.c ****   if(irq_end & I2C_PERIPHERAL_IRQ_END_TXOVERFLOW_Msk)
1147:.\driver\src/i2c_va108xx.c **** 	event |= VOR_I2C_EVENT_TXOVERFLOW;
1148:.\driver\src/i2c_va108xx.c **** 	  
1149:.\driver\src/i2c_va108xx.c ****   if(irq_end & I2C_PERIPHERAL_IRQ_END_TXREADY_Msk)
1150:.\driver\src/i2c_va108xx.c **** 	event |= VOR_I2C_EVENT_TXREADY;
1151:.\driver\src/i2c_va108xx.c ****   
1152:.\driver\src/i2c_va108xx.c ****   if(irq_end & I2C_PERIPHERAL_IRQ_END_RXREADY_Msk)
1153:.\driver\src/i2c_va108xx.c **** 	event |= VOR_I2C_EVENT_RXREADY;
1154:.\driver\src/i2c_va108xx.c ****   
1155:.\driver\src/i2c_va108xx.c ****   if(irq_end & I2C_PERIPHERAL_IRQ_END_TXEMPTY_Msk)
1156:.\driver\src/i2c_va108xx.c **** 	event |= VOR_I2C_EVENT_TXEMPTY;
1157:.\driver\src/i2c_va108xx.c ****   
1158:.\driver\src/i2c_va108xx.c ****   if(irq_end & I2C_PERIPHERAL_IRQ_END_RXFULL_Msk)
1159:.\driver\src/i2c_va108xx.c **** 	event |= VOR_I2C_EVENT_RXFULL;
1160:.\driver\src/i2c_va108xx.c ****   
1161:.\driver\src/i2c_va108xx.c ****   if(i2c->info.cb_event)
1162:.\driver\src/i2c_va108xx.c **** 	  i2c->info.cb_event(event);
1163:.\driver\src/i2c_va108xx.c ****   
1164:.\driver\src/i2c_va108xx.c ****   i2c->reg->IRQ_CLR = irq_end;
1165:.\driver\src/i2c_va108xx.c ****   return;
1166:.\driver\src/i2c_va108xx.c **** }
 3087              		.loc 1 1166 0
 3088              		@ sp needed	@
 3089              	.LVL234:
 3090 0974 F8BD     		pop	{r3, r4, r5, r6, r7, pc}
 3091              	.LVL235:
 3092              	.L244:
 3093              	@ .\driver\src\i2c_va108xx.c:1081:   if(irq_end & (I2C_PERIPHERAL_IRQ_END_TXREADY_Msk | I2C_PERIPHE
1081:.\driver\src/i2c_va108xx.c ****     if(status & (I2C_PERIPHERAL_STATUS_TXEMPTY_Msk | I2C_PERIPHERAL_STATUS_TXTRIGGER_Msk )){
 3094              		.loc 1 1081 0
 3095 0976 A025     		movs	r5, #160	@ tmp174,
 3096              	@ .\driver\src\i2c_va108xx.c:1079:   status  = i2c->reg->STATUS;
1079:.\driver\src/i2c_va108xx.c ****   irq_end = i2c->reg->IRQ_END;
 3097              		.loc 1 1079 0
 3098 0978 9369     		ldr	r3, [r2, #24]	@ status, pretmp_16->STATUS
 3099              	.LVL236:
 3100              	@ .\driver\src\i2c_va108xx.c:1080:   irq_end = i2c->reg->IRQ_END;
1080:.\driver\src/i2c_va108xx.c ****   if(irq_end & (I2C_PERIPHERAL_IRQ_END_TXREADY_Msk | I2C_PERIPHERAL_IRQ_END_TXEMPTY_Msk)) {
 3101              		.loc 1 1080 0
 3102 097a 176B     		ldr	r7, [r2, #48]	@ irq_end, pretmp_16->IRQ_END
 3103              	.LVL237:
 3104              	@ .\driver\src\i2c_va108xx.c:1081:   if(irq_end & (I2C_PERIPHERAL_IRQ_END_TXREADY_Msk | I2C_PERIPHE
1081:.\driver\src/i2c_va108xx.c ****     if(status & (I2C_PERIPHERAL_STATUS_TXEMPTY_Msk | I2C_PERIPHERAL_STATUS_TXTRIGGER_Msk )){
 3105              		.loc 1 1081 0
 3106 097c ED01     		lsls	r5, r5, #7	@ tmp174, tmp174,
 3107 097e 3D40     		ands	r5, r7	@ _7, irq_end
 3108 0980 2AD0     		beq	.L246	@,
 3109              	@ .\driver\src\i2c_va108xx.c:1082:     if(status & (I2C_PERIPHERAL_STATUS_TXEMPTY_Msk | I2C_PERIPHE
1082:.\driver\src/i2c_va108xx.c **** 	    if(i2c->info.txidx < i2c->info.txcnt) {
 3110              		.loc 1 1082 0
 3111 0982 9022     		movs	r2, #144	@ tmp176,
 3112 0984 1202     		lsls	r2, r2, #8	@ tmp176, tmp176,
 3113 0986 1342     		tst	r3, r2	@ status, tmp176
 3114 0988 26D0     		beq	.L246	@,
 3115              	@ .\driver\src\i2c_va108xx.c:1083: 	    if(i2c->info.txidx < i2c->info.txcnt) {
1083:.\driver\src/i2c_va108xx.c **** 		    while(( i2c->info.txidx < i2c->info.txcnt) && (i2c->reg->STATUS&I2C_PERIPHERAL_STATUS_TXNFULL
ARM GAS  C:\Users\claym\AppData\Local\Temp\ccxpUFUu.s 			page 89


 3116              		.loc 1 1083 0
 3117 098a 826D     		ldr	r2, [r0, #88]	@ tmp302, i2c_83(D)->info.txidx
 3118 098c 016D     		ldr	r1, [r0, #80]	@ tmp303, i2c_83(D)->info.txcnt
 3119 098e 8A42     		cmp	r2, r1	@ tmp302, tmp303
 3120 0990 22D2     		bcs	.L246	@,
 3121              	@ .\driver\src\i2c_va108xx.c:1084: 		    while(( i2c->info.txidx < i2c->info.txcnt) && (i2c->reg->S
1084:.\driver\src/i2c_va108xx.c **** 	        i2c->reg->DATA=i2c->info.txdata[i2c->info.txidx++];
 3122              		.loc 1 1084 0
 3123 0992 8026     		movs	r6, #128	@ tmp276,
 3124              	@ .\driver\src\i2c_va108xx.c:1091: 					  i2c->reg->CMD = I2C_CMD_STOP;
1091:.\driver\src/i2c_va108xx.c **** 					  i2c->reg->IRQ_ENB = 0;
 3125              		.loc 1 1091 0
 3126 0994 0227     		movs	r7, #2	@ tmp277,
 3127              	.LVL238:
 3128              	@ .\driver\src\i2c_va108xx.c:1084: 		    while(( i2c->info.txidx < i2c->info.txcnt) && (i2c->reg->S
1084:.\driver\src/i2c_va108xx.c **** 	        i2c->reg->DATA=i2c->info.txdata[i2c->info.txidx++];
 3129              		.loc 1 1084 0
 3130 0996 B601     		lsls	r6, r6, #6	@ tmp276, tmp276,
 3131              	.LVL239:
 3132              	.L247:
 3133 0998 216D     		ldr	r1, [r4, #80]	@ _21, i2c_83(D)->info.txcnt
 3134 099a 6268     		ldr	r2, [r4, #4]	@ pretmp_133, i2c_83(D)->reg
 3135              	.L248:
 3136 099c A36D     		ldr	r3, [r4, #88]	@ _20, i2c_83(D)->info.txidx
 3137 099e 8B42     		cmp	r3, r1	@ _20, _21
 3138 09a0 02D2     		bcs	.L250	@,
 3139              	@ .\driver\src\i2c_va108xx.c:1084: 		    while(( i2c->info.txidx < i2c->info.txcnt) && (i2c->reg->S
1084:.\driver\src/i2c_va108xx.c **** 	        i2c->reg->DATA=i2c->info.txdata[i2c->info.txidx++];
 3140              		.loc 1 1084 0 is_stmt 0 discriminator 1
 3141 09a2 9069     		ldr	r0, [r2, #24]	@ _23, pretmp_133->STATUS
 3142 09a4 3042     		tst	r0, r6	@ _23, tmp276
 3143 09a6 01D1     		bne	.L251	@,
 3144              	.L250:
 3145              	@ .\driver\src\i2c_va108xx.c:1096: 		    i2c->reg->IRQ_CLR = (irq_end & (I2C_PERIPHERAL_IRQ_END_TXR
1096:.\driver\src/i2c_va108xx.c **** 		    return;
 3146              		.loc 1 1096 0 is_stmt 1
 3147 09a8 5563     		str	r5, [r2, #52]	@ _7, pretmp_133->IRQ_CLR
 3148              	@ .\driver\src\i2c_va108xx.c:1097: 		    return;
1097:.\driver\src/i2c_va108xx.c **** 	    }
 3149              		.loc 1 1097 0
 3150 09aa E3E7     		b	.L243	@
 3151              	.L251:
 3152              	@ .\driver\src\i2c_va108xx.c:1085: 	        i2c->reg->DATA=i2c->info.txdata[i2c->info.txidx++];
1085:.\driver\src/i2c_va108xx.c **** 			    if(i2c->info.txidx == i2c->info.txcnt) {
 3153              		.loc 1 1085 0
 3154 09ac 581C     		adds	r0, r3, #1	@ _12, _20,
 3155 09ae E318     		adds	r3, r4, r3	@ tmp179, i2c, _20
 3156 09b0 A065     		str	r0, [r4, #88]	@ _12, i2c_83(D)->info.txidx
 3157 09b2 6033     		adds	r3, r3, #96	@ tmp181,
 3158 09b4 1B78     		ldrb	r3, [r3]	@ _15, *i2c_83(D)
 3159 09b6 1361     		str	r3, [r2, #16]	@ _15, pretmp_133->DATA
 3160              	@ .\driver\src\i2c_va108xx.c:1086: 			    if(i2c->info.txidx == i2c->info.txcnt) {
1086:.\driver\src/i2c_va108xx.c **** 						event = VOR_I2C_EVENT_TRANSFER_DONE;
 3161              		.loc 1 1086 0
 3162 09b8 8842     		cmp	r0, r1	@ _12, _21
 3163 09ba EFD1     		bne	.L248	@,
 3164              	.LVL240:
ARM GAS  C:\Users\claym\AppData\Local\Temp\ccxpUFUu.s 			page 90


 3165              	@ .\driver\src\i2c_va108xx.c:1088:             if(i2c->info.cb_event)
1088:.\driver\src/i2c_va108xx.c **** 	            i2c->info.cb_event(event);
 3166              		.loc 1 1088 0
 3167 09bc E368     		ldr	r3, [r4, #12]	@ _17, i2c_83(D)->info.cb_event
 3168 09be 002B     		cmp	r3, #0	@ _17,
 3169 09c0 01D0     		beq	.L249	@,
 3170              	@ .\driver\src\i2c_va108xx.c:1089: 	            i2c->info.cb_event(event);
1089:.\driver\src/i2c_va108xx.c **** 						
 3171              		.loc 1 1089 0
 3172 09c2 0120     		movs	r0, #1	@,
 3173 09c4 9847     		blx	r3	@ _17
 3174              	.LVL241:
 3175              	.L249:
 3176              	@ .\driver\src\i2c_va108xx.c:1092: 					  i2c->reg->IRQ_ENB = 0;
1092:.\driver\src/i2c_va108xx.c **** 						VOR_Disable_Irq(VOR_IRQ_I2C_MS, i2c->i2cId);
 3177              		.loc 1 1092 0
 3178 09c6 0022     		movs	r2, #0	@ tmp183,
 3179              	@ .\driver\src\i2c_va108xx.c:1091: 					  i2c->reg->CMD = I2C_CMD_STOP;
1091:.\driver\src/i2c_va108xx.c **** 					  i2c->reg->IRQ_ENB = 0;
 3180              		.loc 1 1091 0
 3181 09c8 6368     		ldr	r3, [r4, #4]	@ _18, i2c_83(D)->reg
 3182              	@ .\driver\src\i2c_va108xx.c:1093: 						VOR_Disable_Irq(VOR_IRQ_I2C_MS, i2c->i2cId);
1093:.\driver\src/i2c_va108xx.c **** 					}
 3183              		.loc 1 1093 0
 3184 09ca 2168     		ldr	r1, [r4]	@, i2c_83(D)->i2cId
 3185              	@ .\driver\src\i2c_va108xx.c:1091: 					  i2c->reg->CMD = I2C_CMD_STOP;
1091:.\driver\src/i2c_va108xx.c **** 					  i2c->reg->IRQ_ENB = 0;
 3186              		.loc 1 1091 0
 3187 09cc 5F61     		str	r7, [r3, #20]	@ tmp277, _18->CMD
 3188              	@ .\driver\src\i2c_va108xx.c:1093: 						VOR_Disable_Irq(VOR_IRQ_I2C_MS, i2c->i2cId);
1093:.\driver\src/i2c_va108xx.c **** 					}
 3189              		.loc 1 1093 0
 3190 09ce 0520     		movs	r0, #5	@,
 3191              	@ .\driver\src\i2c_va108xx.c:1092: 					  i2c->reg->IRQ_ENB = 0;
1092:.\driver\src/i2c_va108xx.c **** 						VOR_Disable_Irq(VOR_IRQ_I2C_MS, i2c->i2cId);
 3192              		.loc 1 1092 0
 3193 09d0 9A62     		str	r2, [r3, #40]	@ tmp183, _18->IRQ_ENB
 3194              	@ .\driver\src\i2c_va108xx.c:1093: 						VOR_Disable_Irq(VOR_IRQ_I2C_MS, i2c->i2cId);
1093:.\driver\src/i2c_va108xx.c **** 					}
 3195              		.loc 1 1093 0
 3196 09d2 FFF7FEFF 		bl	VOR_Disable_Irq	@
 3197              	.LVL242:
 3198 09d6 DFE7     		b	.L247	@
 3199              	.LVL243:
 3200              	.L246:
 3201              	@ .\driver\src\i2c_va108xx.c:1102:   if(irq_end & (I2C_PERIPHERAL_IRQ_END_RXREADY_Msk | I2C_PERIPHE
1102:.\driver\src/i2c_va108xx.c ****     if(status & (I2C_PERIPHERAL_STATUS_RXNEMPTY_Msk | I2C_PERIPHERAL_STATUS_RXFULL_Msk | I2C_PERIPH
 3202              		.loc 1 1102 0
 3203 09d8 A025     		movs	r5, #160	@ tmp186,
 3204 09da 2D02     		lsls	r5, r5, #8	@ tmp186, tmp186,
 3205 09dc 3D40     		ands	r5, r7	@ _26, irq_end
 3206 09de 30D0     		beq	.L252	@,
 3207              	@ .\driver\src\i2c_va108xx.c:1103:     if(status & (I2C_PERIPHERAL_STATUS_RXNEMPTY_Msk | I2C_PERIPH
1103:.\driver\src/i2c_va108xx.c **** 	    if((i2c->info.rxidx < i2c->info.rxcnt) && i2c->info.rxdata) {
 3208              		.loc 1 1103 0
 3209 09e0 B022     		movs	r2, #176	@ tmp188,
 3210 09e2 1201     		lsls	r2, r2, #4	@ tmp188, tmp188,
ARM GAS  C:\Users\claym\AppData\Local\Temp\ccxpUFUu.s 			page 91


 3211 09e4 1342     		tst	r3, r2	@ status, tmp188
 3212 09e6 2CD0     		beq	.L252	@,
 3213              	@ .\driver\src\i2c_va108xx.c:1104: 	    if((i2c->info.rxidx < i2c->info.rxcnt) && i2c->info.rxdata)
1104:.\driver\src/i2c_va108xx.c **** 		    while(( i2c->info.rxidx < i2c->info.rxcnt) && (i2c->reg->STATUS&I2C_PERIPHERAL_STATUS_RXNEMPT
 3214              		.loc 1 1104 0
 3215 09e8 E26D     		ldr	r2, [r4, #92]	@ tmp306, i2c_83(D)->info.rxidx
 3216 09ea 616D     		ldr	r1, [r4, #84]	@ tmp307, i2c_83(D)->info.rxcnt
 3217 09ec 8A42     		cmp	r2, r1	@ tmp306, tmp307
 3218 09ee 28D2     		bcs	.L252	@,
 3219              	@ .\driver\src\i2c_va108xx.c:1104: 	    if((i2c->info.rxidx < i2c->info.rxcnt) && i2c->info.rxdata)
1104:.\driver\src/i2c_va108xx.c **** 		    while(( i2c->info.rxidx < i2c->info.rxcnt) && (i2c->reg->STATUS&I2C_PERIPHERAL_STATUS_RXNEMPT
 3220              		.loc 1 1104 0 is_stmt 0 discriminator 1
 3221 09f0 2600     		movs	r6, r4	@ tmp193, i2c
 3222 09f2 E036     		adds	r6, r6, #224	@ tmp193,
 3223 09f4 3268     		ldr	r2, [r6]	@ tmp311, i2c_83(D)->info.rxdata
 3224 09f6 002A     		cmp	r2, #0	@ tmp311,
 3225 09f8 23D0     		beq	.L252	@,
 3226              	@ .\driver\src\i2c_va108xx.c:1108: 					  i2c->reg->CMD = I2C_CMD_STOP;
1108:.\driver\src/i2c_va108xx.c **** 					  i2c->reg->IRQ_ENB = 0;
 3227              		.loc 1 1108 0 is_stmt 1
 3228 09fa 0227     		movs	r7, #2	@ tmp279,
 3229              	.LVL244:
 3230              	.L254:
 3231              	@ .\driver\src\i2c_va108xx.c:1105: 		    while(( i2c->info.rxidx < i2c->info.rxcnt) && (i2c->reg->S
1105:.\driver\src/i2c_va108xx.c **** 		      i2c->info.rxdata[i2c->info.rxidx++] = i2c->reg->DATA;
 3232              		.loc 1 1105 0
 3233 09fc E26D     		ldr	r2, [r4, #92]	@ _41, i2c_83(D)->info.rxidx
 3234 09fe 616D     		ldr	r1, [r4, #84]	@ tmp316, i2c_83(D)->info.rxcnt
 3235 0a00 6368     		ldr	r3, [r4, #4]	@ pretmp_128, i2c_83(D)->reg
 3236 0a02 8A42     		cmp	r2, r1	@ _41, tmp316
 3237 0a04 04D2     		bcs	.L256	@,
 3238              	@ .\driver\src\i2c_va108xx.c:1105: 		    while(( i2c->info.rxidx < i2c->info.rxcnt) && (i2c->reg->S
1105:.\driver\src/i2c_va108xx.c **** 		      i2c->info.rxdata[i2c->info.rxidx++] = i2c->reg->DATA;
 3239              		.loc 1 1105 0 is_stmt 0 discriminator 1
 3240 0a06 8020     		movs	r0, #128	@ tmp318,
 3241 0a08 9969     		ldr	r1, [r3, #24]	@ _44, pretmp_128->STATUS
 3242 0a0a 4000     		lsls	r0, r0, #1	@ tmp318, tmp318,
 3243 0a0c 0142     		tst	r1, r0	@ _44, tmp318
 3244 0a0e 01D1     		bne	.L257	@,
 3245              	.L256:
 3246              	@ .\driver\src\i2c_va108xx.c:1116: 		    i2c->reg->IRQ_CLR = (irq_end & (I2C_PERIPHERAL_IRQ_END_RXR
1116:.\driver\src/i2c_va108xx.c **** 		    return;
 3247              		.loc 1 1116 0 is_stmt 1
 3248 0a10 5D63     		str	r5, [r3, #52]	@ _26, pretmp_128->IRQ_CLR
 3249              	@ .\driver\src\i2c_va108xx.c:1117: 		    return;
1117:.\driver\src/i2c_va108xx.c **** 	    }
 3250              		.loc 1 1117 0
 3251 0a12 AFE7     		b	.L243	@
 3252              	.L257:
 3253              	@ .\driver\src\i2c_va108xx.c:1106: 		      i2c->info.rxdata[i2c->info.rxidx++] = i2c->reg->DATA;
1106:.\driver\src/i2c_va108xx.c **** 			    if(i2c->info.rxidx == i2c->info.rxcnt) {
 3254              		.loc 1 1106 0
 3255 0a14 1969     		ldr	r1, [r3, #16]	@ _31, pretmp_128->DATA
 3256 0a16 3368     		ldr	r3, [r6]	@ _32, i2c_83(D)->info.rxdata
 3257 0a18 501C     		adds	r0, r2, #1	@ tmp198, _41,
 3258 0a1a E065     		str	r0, [r4, #92]	@ tmp198, i2c_83(D)->info.rxidx
 3259 0a1c 9954     		strb	r1, [r3, r2]	@ _31, *_34
ARM GAS  C:\Users\claym\AppData\Local\Temp\ccxpUFUu.s 			page 92


 3260              	@ .\driver\src\i2c_va108xx.c:1107: 			    if(i2c->info.rxidx == i2c->info.rxcnt) {
1107:.\driver\src/i2c_va108xx.c **** 					  i2c->reg->CMD = I2C_CMD_STOP;
 3261              		.loc 1 1107 0
 3262 0a1e E36D     		ldr	r3, [r4, #92]	@ tmp312, i2c_83(D)->info.rxidx
 3263 0a20 626D     		ldr	r2, [r4, #84]	@ tmp313, i2c_83(D)->info.rxcnt
 3264 0a22 9342     		cmp	r3, r2	@ tmp312, tmp313
 3265 0a24 EAD1     		bne	.L254	@,
 3266              	@ .\driver\src\i2c_va108xx.c:1109: 					  i2c->reg->IRQ_ENB = 0;
1109:.\driver\src/i2c_va108xx.c **** 						VOR_Disable_Irq(VOR_IRQ_I2C_MS, i2c->i2cId);
 3267              		.loc 1 1109 0
 3268 0a26 0022     		movs	r2, #0	@ tmp203,
 3269              	@ .\driver\src\i2c_va108xx.c:1108: 					  i2c->reg->CMD = I2C_CMD_STOP;
1108:.\driver\src/i2c_va108xx.c **** 					  i2c->reg->IRQ_ENB = 0;
 3270              		.loc 1 1108 0
 3271 0a28 6368     		ldr	r3, [r4, #4]	@ _38, i2c_83(D)->reg
 3272              	@ .\driver\src\i2c_va108xx.c:1110: 						VOR_Disable_Irq(VOR_IRQ_I2C_MS, i2c->i2cId);
1110:.\driver\src/i2c_va108xx.c **** 						event = VOR_I2C_EVENT_TRANSFER_DONE;
 3273              		.loc 1 1110 0
 3274 0a2a 2168     		ldr	r1, [r4]	@, i2c_83(D)->i2cId
 3275              	@ .\driver\src\i2c_va108xx.c:1108: 					  i2c->reg->CMD = I2C_CMD_STOP;
1108:.\driver\src/i2c_va108xx.c **** 					  i2c->reg->IRQ_ENB = 0;
 3276              		.loc 1 1108 0
 3277 0a2c 5F61     		str	r7, [r3, #20]	@ tmp279, _38->CMD
 3278              	@ .\driver\src\i2c_va108xx.c:1110: 						VOR_Disable_Irq(VOR_IRQ_I2C_MS, i2c->i2cId);
1110:.\driver\src/i2c_va108xx.c **** 						event = VOR_I2C_EVENT_TRANSFER_DONE;
 3279              		.loc 1 1110 0
 3280 0a2e 0520     		movs	r0, #5	@,
 3281              	@ .\driver\src\i2c_va108xx.c:1109: 					  i2c->reg->IRQ_ENB = 0;
1109:.\driver\src/i2c_va108xx.c **** 						VOR_Disable_Irq(VOR_IRQ_I2C_MS, i2c->i2cId);
 3282              		.loc 1 1109 0
 3283 0a30 9A62     		str	r2, [r3, #40]	@ tmp203, _38->IRQ_ENB
 3284              	@ .\driver\src\i2c_va108xx.c:1110: 						VOR_Disable_Irq(VOR_IRQ_I2C_MS, i2c->i2cId);
1110:.\driver\src/i2c_va108xx.c **** 						event = VOR_I2C_EVENT_TRANSFER_DONE;
 3285              		.loc 1 1110 0
 3286 0a32 FFF7FEFF 		bl	VOR_Disable_Irq	@
 3287              	.LVL245:
 3288              	@ .\driver\src\i2c_va108xx.c:1112:             if(i2c->info.cb_event)
1112:.\driver\src/i2c_va108xx.c **** 	            i2c->info.cb_event(event);
 3289              		.loc 1 1112 0
 3290 0a36 E368     		ldr	r3, [r4, #12]	@ _40, i2c_83(D)->info.cb_event
 3291 0a38 002B     		cmp	r3, #0	@ _40,
 3292 0a3a DFD0     		beq	.L254	@,
 3293              	@ .\driver\src\i2c_va108xx.c:1113: 	            i2c->info.cb_event(event);
1113:.\driver\src/i2c_va108xx.c **** 					}
 3294              		.loc 1 1113 0
 3295 0a3c 0120     		movs	r0, #1	@,
 3296 0a3e 9847     		blx	r3	@ _40
 3297              	.LVL246:
 3298 0a40 DCE7     		b	.L254	@
 3299              	.LVL247:
 3300              	.L252:
 3301              	@ .\driver\src\i2c_va108xx.c:1122:   if(status & I2C_PERIPHERAL_STATUS_ARBLOST_Msk) 
1122:.\driver\src/i2c_va108xx.c **** 	event |= (VOR_I2C_EVENT_ARBITRATION_LOST);
 3302              		.loc 1 1122 0
 3303 0a42 1022     		movs	r2, #16	@ tmp208,
 3304 0a44 1800     		movs	r0, r3	@ tmp207, status
 3305              	.LVL248:
ARM GAS  C:\Users\claym\AppData\Local\Temp\ccxpUFUu.s 			page 93


 3306 0a46 1040     		ands	r0, r2	@ tmp207, tmp208
 3307              	@ .\driver\src\i2c_va108xx.c:1068:   uint32_t event  = 0;
1068:.\driver\src/i2c_va108xx.c ****   uint32_t irq_end;
 3308              		.loc 1 1068 0
 3309 0a48 411E     		subs	r1, r0, #1	@ tmp275, tmp207
 3310 0a4a 8841     		sbcs	r0, r0, r1	@ tmp274, tmp207, tmp275
 3311 0a4c 4001     		lsls	r0, r0, #5	@ event, tmp274,
 3312              	.LVL249:
 3313              	@ .\driver\src\i2c_va108xx.c:1125:   if(status & I2C_PERIPHERAL_STATUS_NACKADDR_Msk)
1125:.\driver\src/i2c_va108xx.c **** 	event |= (VOR_I2C_EVENT_ADDRESS_NACK);
 3314              		.loc 1 1125 0
 3315 0a4e 9906     		lsls	r1, r3, #26	@ tmp291, status,
 3316 0a50 00D5     		bpl	.L259	@,
 3317              	@ .\driver\src\i2c_va108xx.c:1126: 	event |= (VOR_I2C_EVENT_ADDRESS_NACK);
1126:.\driver\src/i2c_va108xx.c ****   
 3318              		.loc 1 1126 0
 3319 0a52 1043     		orrs	r0, r2	@ event, tmp208
 3320              	.LVL250:
 3321              	.L259:
 3322              	@ .\driver\src\i2c_va108xx.c:1128:   if(status & I2C_PERIPHERAL_STATUS_NACKDATA_Pos)
1128:.\driver\src/i2c_va108xx.c **** 	event |= (VOR_I2C_EVENT_TRANSFER_INCOMPLETE);
 3323              		.loc 1 1128 0
 3324 0a54 0621     		movs	r1, #6	@ tmp215,
 3325 0a56 0222     		movs	r2, #2	@ tmp272,
 3326 0a58 0B42     		tst	r3, r1	@ status, tmp215
 3327 0a5a 00D0     		beq	.L260	@,
 3328              	@ .\driver\src\i2c_va108xx.c:1129: 	event |= (VOR_I2C_EVENT_TRANSFER_INCOMPLETE);
1129:.\driver\src/i2c_va108xx.c **** 
 3329              		.loc 1 1129 0
 3330 0a5c 1043     		orrs	r0, r2	@ event, tmp272
 3331              	.LVL251:
 3332              	.L260:
 3333              	@ .\driver\src\i2c_va108xx.c:1131:   if((status & I2C_PERIPHERAL_STATUS_IDLE_Msk) && (i2c->info.txi
1131:.\driver\src/i2c_va108xx.c **** 	event |= VOR_I2C_EVENT_TRANSFER_DONE;
 3334              		.loc 1 1131 0
 3335 0a5e 1342     		tst	r3, r2	@ status, tmp272
 3336 0a60 05D0     		beq	.L261	@,
 3337              	@ .\driver\src\i2c_va108xx.c:1131:   if((status & I2C_PERIPHERAL_STATUS_IDLE_Msk) && (i2c->info.txi
1131:.\driver\src/i2c_va108xx.c **** 	event |= VOR_I2C_EVENT_TRANSFER_DONE;
 3338              		.loc 1 1131 0 is_stmt 0 discriminator 1
 3339 0a62 A26D     		ldr	r2, [r4, #88]	@ tmp320, i2c_83(D)->info.txidx
 3340 0a64 216D     		ldr	r1, [r4, #80]	@ tmp321, i2c_83(D)->info.txcnt
 3341 0a66 8A42     		cmp	r2, r1	@ tmp320, tmp321
 3342 0a68 01D3     		bcc	.L261	@,
 3343              	@ .\driver\src\i2c_va108xx.c:1132: 	event |= VOR_I2C_EVENT_TRANSFER_DONE;
1132:.\driver\src/i2c_va108xx.c **** 
 3344              		.loc 1 1132 0 is_stmt 1
 3345 0a6a 0122     		movs	r2, #1	@ tmp225,
 3346 0a6c 1043     		orrs	r0, r2	@ event, tmp225
 3347              	.LVL252:
 3348              	.L261:
 3349              	@ .\driver\src\i2c_va108xx.c:1134:   if((status & I2C_PERIPHERAL_STATUS_WAITING_Msk))
1134:.\driver\src/i2c_va108xx.c **** 	event |= VOR_I2C_EVENT_TRANSFER_INCOMPLETE;
 3350              		.loc 1 1134 0
 3351 0a6e 5A07     		lsls	r2, r3, #29	@ tmp292, status,
 3352 0a70 01D5     		bpl	.L262	@,
 3353              	@ .\driver\src\i2c_va108xx.c:1135: 	event |= VOR_I2C_EVENT_TRANSFER_INCOMPLETE;
ARM GAS  C:\Users\claym\AppData\Local\Temp\ccxpUFUu.s 			page 94


1135:.\driver\src/i2c_va108xx.c ****   
 3354              		.loc 1 1135 0
 3355 0a72 0222     		movs	r2, #2	@ tmp230,
 3356 0a74 1043     		orrs	r0, r2	@ event, tmp230
 3357              	.LVL253:
 3358              	.L262:
 3359              	@ .\driver\src\i2c_va108xx.c:1137:   if((status & I2C_PERIPHERAL_STATUS_STALLED_Msk))
1137:.\driver\src/i2c_va108xx.c **** 	event |= VOR_I2C_EVENT_TRANSFER_INCOMPLETE;
 3360              		.loc 1 1137 0
 3361 0a76 1B07     		lsls	r3, r3, #28	@ tmp293, status,
 3362 0a78 01D5     		bpl	.L263	@,
 3363              	.LVL254:
 3364              	@ .\driver\src\i2c_va108xx.c:1138: 	event |= VOR_I2C_EVENT_TRANSFER_INCOMPLETE;
1138:.\driver\src/i2c_va108xx.c ****   
 3365              		.loc 1 1138 0
 3366 0a7a 0223     		movs	r3, #2	@ tmp235,
 3367 0a7c 1843     		orrs	r0, r3	@ event, tmp235
 3368              	.LVL255:
 3369              	.L263:
 3370              	@ .\driver\src\i2c_va108xx.c:1140:   if(irq_end & I2C_PERIPHERAL_IRQ_END_CLKLOTO_Msk)
1140:.\driver\src/i2c_va108xx.c **** 	event |= VOR_I2C_EVENT_CLKLOTO;
 3371              		.loc 1 1140 0
 3372 0a7e 3B06     		lsls	r3, r7, #24	@ tmp294, irq_end,
 3373 0a80 02D5     		bpl	.L264	@,
 3374              	@ .\driver\src\i2c_va108xx.c:1141: 	event |= VOR_I2C_EVENT_CLKLOTO;
1141:.\driver\src/i2c_va108xx.c ****   
 3375              		.loc 1 1141 0
 3376 0a82 8023     		movs	r3, #128	@ tmp240,
 3377 0a84 5B01     		lsls	r3, r3, #5	@ tmp240, tmp240,
 3378 0a86 1843     		orrs	r0, r3	@ event, tmp240
 3379              	.LVL256:
 3380              	.L264:
 3381              	@ .\driver\src\i2c_va108xx.c:1143:   if(irq_end & I2C_PERIPHERAL_IRQ_END_RXOVERFLOW_Msk)
1143:.\driver\src/i2c_va108xx.c **** 	event |= VOR_I2C_EVENT_RXOVERFLOW;
 3382              		.loc 1 1143 0
 3383 0a88 3B05     		lsls	r3, r7, #20	@ tmp295, irq_end,
 3384 0a8a 01D5     		bpl	.L265	@,
 3385              	@ .\driver\src\i2c_va108xx.c:1144: 	event |= VOR_I2C_EVENT_RXOVERFLOW;
1144:.\driver\src/i2c_va108xx.c ****   
 3386              		.loc 1 1144 0
 3387 0a8c 8023     		movs	r3, #128	@ tmp245,
 3388 0a8e 1843     		orrs	r0, r3	@ event, tmp245
 3389              	.LVL257:
 3390              	.L265:
 3391              	@ .\driver\src\i2c_va108xx.c:1146:   if(irq_end & I2C_PERIPHERAL_IRQ_END_TXOVERFLOW_Msk)
1146:.\driver\src/i2c_va108xx.c **** 	event |= VOR_I2C_EVENT_TXOVERFLOW;
 3392              		.loc 1 1146 0
 3393 0a90 7B05     		lsls	r3, r7, #21	@ tmp296, irq_end,
 3394 0a92 01D5     		bpl	.L266	@,
 3395              	@ .\driver\src\i2c_va108xx.c:1147: 	event |= VOR_I2C_EVENT_TXOVERFLOW;
1147:.\driver\src/i2c_va108xx.c **** 	  
 3396              		.loc 1 1147 0
 3397 0a94 4023     		movs	r3, #64	@ tmp250,
 3398 0a96 1843     		orrs	r0, r3	@ event, tmp250
 3399              	.LVL258:
 3400              	.L266:
 3401              	@ .\driver\src\i2c_va108xx.c:1149:   if(irq_end & I2C_PERIPHERAL_IRQ_END_TXREADY_Msk)
ARM GAS  C:\Users\claym\AppData\Local\Temp\ccxpUFUu.s 			page 95


1149:.\driver\src/i2c_va108xx.c **** 	event |= VOR_I2C_EVENT_TXREADY;
 3402              		.loc 1 1149 0
 3403 0a98 FB04     		lsls	r3, r7, #19	@ tmp297, irq_end,
 3404 0a9a 02D5     		bpl	.L267	@,
 3405              	@ .\driver\src\i2c_va108xx.c:1150: 	event |= VOR_I2C_EVENT_TXREADY;
1150:.\driver\src/i2c_va108xx.c ****   
 3406              		.loc 1 1150 0
 3407 0a9c 8023     		movs	r3, #128	@ tmp255,
 3408 0a9e 5B00     		lsls	r3, r3, #1	@ tmp255, tmp255,
 3409 0aa0 1843     		orrs	r0, r3	@ event, tmp255
 3410              	.LVL259:
 3411              	.L267:
 3412              	@ .\driver\src\i2c_va108xx.c:1152:   if(irq_end & I2C_PERIPHERAL_IRQ_END_RXREADY_Msk)
1152:.\driver\src/i2c_va108xx.c **** 	event |= VOR_I2C_EVENT_RXREADY;
 3413              		.loc 1 1152 0
 3414 0aa2 BB04     		lsls	r3, r7, #18	@ tmp298, irq_end,
 3415 0aa4 02D5     		bpl	.L268	@,
 3416              	@ .\driver\src\i2c_va108xx.c:1153: 	event |= VOR_I2C_EVENT_RXREADY;
1153:.\driver\src/i2c_va108xx.c ****   
 3417              		.loc 1 1153 0
 3418 0aa6 8023     		movs	r3, #128	@ tmp260,
 3419 0aa8 9B00     		lsls	r3, r3, #2	@ tmp260, tmp260,
 3420 0aaa 1843     		orrs	r0, r3	@ event, tmp260
 3421              	.LVL260:
 3422              	.L268:
 3423              	@ .\driver\src\i2c_va108xx.c:1155:   if(irq_end & I2C_PERIPHERAL_IRQ_END_TXEMPTY_Msk)
1155:.\driver\src/i2c_va108xx.c **** 	event |= VOR_I2C_EVENT_TXEMPTY;
 3424              		.loc 1 1155 0
 3425 0aac 7B04     		lsls	r3, r7, #17	@ tmp299, irq_end,
 3426 0aae 02D5     		bpl	.L269	@,
 3427              	@ .\driver\src\i2c_va108xx.c:1156: 	event |= VOR_I2C_EVENT_TXEMPTY;
1156:.\driver\src/i2c_va108xx.c ****   
 3428              		.loc 1 1156 0
 3429 0ab0 8023     		movs	r3, #128	@ tmp265,
 3430 0ab2 DB00     		lsls	r3, r3, #3	@ tmp265, tmp265,
 3431 0ab4 1843     		orrs	r0, r3	@ event, tmp265
 3432              	.LVL261:
 3433              	.L269:
 3434              	@ .\driver\src\i2c_va108xx.c:1158:   if(irq_end & I2C_PERIPHERAL_IRQ_END_RXFULL_Msk)
1158:.\driver\src/i2c_va108xx.c **** 	event |= VOR_I2C_EVENT_RXFULL;
 3435              		.loc 1 1158 0
 3436 0ab6 3B04     		lsls	r3, r7, #16	@ tmp300, irq_end,
 3437 0ab8 02D5     		bpl	.L270	@,
 3438              	@ .\driver\src\i2c_va108xx.c:1159: 	event |= VOR_I2C_EVENT_RXFULL;
1159:.\driver\src/i2c_va108xx.c ****   
 3439              		.loc 1 1159 0
 3440 0aba 8023     		movs	r3, #128	@ tmp270,
 3441 0abc 1B01     		lsls	r3, r3, #4	@ tmp270, tmp270,
 3442 0abe 1843     		orrs	r0, r3	@ event, tmp270
 3443              	.LVL262:
 3444              	.L270:
 3445              	@ .\driver\src\i2c_va108xx.c:1161:   if(i2c->info.cb_event)
1161:.\driver\src/i2c_va108xx.c **** 	  i2c->info.cb_event(event);
 3446              		.loc 1 1161 0
 3447 0ac0 E368     		ldr	r3, [r4, #12]	@ _62, i2c_83(D)->info.cb_event
 3448 0ac2 002B     		cmp	r3, #0	@ _62,
 3449 0ac4 00D0     		beq	.L271	@,
ARM GAS  C:\Users\claym\AppData\Local\Temp\ccxpUFUu.s 			page 96


 3450              	@ .\driver\src\i2c_va108xx.c:1162: 	  i2c->info.cb_event(event);
1162:.\driver\src/i2c_va108xx.c ****   
 3451              		.loc 1 1162 0
 3452 0ac6 9847     		blx	r3	@ _62
 3453              	.LVL263:
 3454              	.L271:
 3455              	@ .\driver\src\i2c_va108xx.c:1164:   i2c->reg->IRQ_CLR = irq_end;
1164:.\driver\src/i2c_va108xx.c ****   return;
 3456              		.loc 1 1164 0
 3457 0ac8 6368     		ldr	r3, [r4, #4]	@ _63, i2c_83(D)->reg
 3458 0aca 5F63     		str	r7, [r3, #52]	@ irq_end, _63->IRQ_CLR
 3459              	@ .\driver\src\i2c_va108xx.c:1165:   return;
1165:.\driver\src/i2c_va108xx.c **** }
 3460              		.loc 1 1165 0
 3461 0acc 52E7     		b	.L243	@
 3462              		.cfi_endproc
 3463              	.LFE64:
 3464              		.size	VOR_I2C_MasterHandler, .-VOR_I2C_MasterHandler
 3465              		.align	1
 3466              		.global	VOR_I2C_SlaveHandler
 3467              		.syntax unified
 3468              		.code	16
 3469              		.thumb_func
 3470              		.fpu softvfp
 3471              		.type	VOR_I2C_SlaveHandler, %function
 3472              	VOR_I2C_SlaveHandler:
 3473              	.LFB65:
1167:.\driver\src/i2c_va108xx.c **** 
1168:.\driver\src/i2c_va108xx.c **** 
1169:.\driver\src/i2c_va108xx.c **** /**
1170:.\driver\src/i2c_va108xx.c ****   function:    void VOR_I2C_SlaveHandler (I2C_RESOURCES *i2c)
1171:.\driver\src/i2c_va108xx.c ****   brief:       I2C Slave event handler.
1172:.\driver\src/i2c_va108xx.c ****   Input:       i2c  Pointer to I2C resources
1173:.\driver\src/i2c_va108xx.c ****   return:      I2C event notification flags
1174:.\driver\src/i2c_va108xx.c **** */
1175:.\driver\src/i2c_va108xx.c **** void VOR_I2C_SlaveHandler (I2C_RESOURCES *i2c) {
 3474              		.loc 1 1175 0
 3475              		.cfi_startproc
 3476              		@ args = 0, pretend = 0, frame = 0
 3477              		@ frame_needed = 0, uses_anonymous_args = 0
 3478              	.LVL264:
 3479 0ace F8B5     		push	{r3, r4, r5, r6, r7, lr}	@
 3480              	.LCFI14:
 3481              		.cfi_def_cfa_offset 24
 3482              		.cfi_offset 3, -24
 3483              		.cfi_offset 4, -20
 3484              		.cfi_offset 5, -16
 3485              		.cfi_offset 6, -12
 3486              		.cfi_offset 7, -8
 3487              		.cfi_offset 14, -4
 3488              	@ .\driver\src\i2c_va108xx.c:1180:   if (!(i2c->info.flags & I2C_FLAG_INIT)) {
1176:.\driver\src/i2c_va108xx.c ****   uint32_t event  = 0;
1177:.\driver\src/i2c_va108xx.c ****   uint32_t irq_end;
1178:.\driver\src/i2c_va108xx.c **** 	uint32_t status;
1179:.\driver\src/i2c_va108xx.c **** 
1180:.\driver\src/i2c_va108xx.c ****   if (!(i2c->info.flags & I2C_FLAG_INIT)) {
 3489              		.loc 1 1180 0
ARM GAS  C:\Users\claym\AppData\Local\Temp\ccxpUFUu.s 			page 97


 3490 0ad0 0123     		movs	r3, #1	@ tmp172,
 3491 0ad2 4169     		ldr	r1, [r0, #20]	@ tmp288, i2c_81(D)->info.flags
 3492              	@ .\driver\src\i2c_va108xx.c:1175: void VOR_I2C_SlaveHandler (I2C_RESOURCES *i2c) {
1175:.\driver\src/i2c_va108xx.c ****   uint32_t event  = 0;
 3493              		.loc 1 1175 0
 3494 0ad4 0400     		movs	r4, r0	@ i2c, i2c
 3495 0ad6 4268     		ldr	r2, [r0, #4]	@ pretmp_22, i2c_81(D)->reg
 3496              	@ .\driver\src\i2c_va108xx.c:1180:   if (!(i2c->info.flags & I2C_FLAG_INIT)) {
 3497              		.loc 1 1180 0
 3498 0ad8 0B40     		ands	r3, r1	@ tmp170, tmp288
 3499 0ada 05D1     		bne	.L334	@,
 3500              	@ .\driver\src\i2c_va108xx.c:1183: 		VOR_Disable_Irq(VOR_IRQ_I2C_SL, i2c->i2cId);
1181:.\driver\src/i2c_va108xx.c ****     /* Driver not yet configured */
1182:.\driver\src/i2c_va108xx.c **** 	  i2c->reg->IRQ_ENB = 0;
1183:.\driver\src/i2c_va108xx.c **** 		VOR_Disable_Irq(VOR_IRQ_I2C_SL, i2c->i2cId);
 3501              		.loc 1 1183 0
 3502 0adc 0168     		ldr	r1, [r0]	@, i2c_81(D)->i2cId
 3503              	@ .\driver\src\i2c_va108xx.c:1182: 	  i2c->reg->IRQ_ENB = 0;
1182:.\driver\src/i2c_va108xx.c **** 		VOR_Disable_Irq(VOR_IRQ_I2C_SL, i2c->i2cId);
 3504              		.loc 1 1182 0
 3505 0ade 9362     		str	r3, [r2, #40]	@ tmp170, pretmp_22->IRQ_ENB
 3506              	@ .\driver\src\i2c_va108xx.c:1183: 		VOR_Disable_Irq(VOR_IRQ_I2C_SL, i2c->i2cId);
 3507              		.loc 1 1183 0
 3508 0ae0 0620     		movs	r0, #6	@,
 3509              	.LVL265:
 3510 0ae2 FFF7FEFF 		bl	VOR_Disable_Irq	@
 3511              	.LVL266:
 3512              	.L333:
 3513              	@ .\driver\src\i2c_va108xx.c:1275: }
1184:.\driver\src/i2c_va108xx.c ****     return ;
1185:.\driver\src/i2c_va108xx.c ****   }
1186:.\driver\src/i2c_va108xx.c ****   status  = i2c->reg->S0_STATUS;
1187:.\driver\src/i2c_va108xx.c ****   irq_end = i2c->reg->S0_IRQ_END;
1188:.\driver\src/i2c_va108xx.c ****   
1189:.\driver\src/i2c_va108xx.c ****   // Check For Stop Condition
1190:.\driver\src/i2c_va108xx.c **** 	if(irq_end & I2C_PERIPHERAL_S0_IRQ_RAW_I2C_STOP_Msk) {
1191:.\driver\src/i2c_va108xx.c **** 		if(i2c->info.txidx != i2c->info.txcnt) {
1192:.\driver\src/i2c_va108xx.c **** 		  i2c->reg->IRQ_ENB = 0;
1193:.\driver\src/i2c_va108xx.c **** 			VOR_Disable_Irq(VOR_IRQ_I2C_SL, i2c->i2cId);
1194:.\driver\src/i2c_va108xx.c **** 			event = VOR_I2C_EVENT_TRANSFER_INCOMPLETE;
1195:.\driver\src/i2c_va108xx.c ****       if(i2c->info.cb_event)
1196:.\driver\src/i2c_va108xx.c **** 	       i2c->info.cb_event(event);
1197:.\driver\src/i2c_va108xx.c **** 		}	  return;
1198:.\driver\src/i2c_va108xx.c **** 	}
1199:.\driver\src/i2c_va108xx.c **** 
1200:.\driver\src/i2c_va108xx.c **** 	
1201:.\driver\src/i2c_va108xx.c ****   if(irq_end & (I2C_PERIPHERAL_S0_IRQ_END_TXREADY_Msk | I2C_PERIPHERAL_S0_IRQ_END_TXEMPTY_Msk | I2C
1202:.\driver\src/i2c_va108xx.c ****     if(status & (I2C_PERIPHERAL_S0_STATUS_TXEMPTY_Msk | I2C_PERIPHERAL_S0_STATUS_TXTRIGGER_Msk | I2
1203:.\driver\src/i2c_va108xx.c **** 	    if(i2c->info.txidx < i2c->info.txcnt) {
1204:.\driver\src/i2c_va108xx.c **** 		    while(( i2c->info.txidx < i2c->info.txcnt) && (i2c->reg->S0_STATUS&I2C_PERIPHERAL_S0_STATUS_T
1205:.\driver\src/i2c_va108xx.c **** 	        i2c->reg->S0_DATA=i2c->info.txdata[i2c->info.txidx++];
1206:.\driver\src/i2c_va108xx.c **** 					if(i2c->info.txidx == i2c->info.txcnt) {
1207:.\driver\src/i2c_va108xx.c **** 					  i2c->reg->IRQ_ENB = 0;
1208:.\driver\src/i2c_va108xx.c **** 						VOR_Disable_Irq(VOR_IRQ_I2C_SL, i2c->i2cId);
1209:.\driver\src/i2c_va108xx.c **** 						event = VOR_I2C_EVENT_TRANSFER_DONE;
1210:.\driver\src/i2c_va108xx.c ****             if(i2c->info.cb_event)
1211:.\driver\src/i2c_va108xx.c **** 	            i2c->info.cb_event(event);
ARM GAS  C:\Users\claym\AppData\Local\Temp\ccxpUFUu.s 			page 98


1212:.\driver\src/i2c_va108xx.c **** 					}
1213:.\driver\src/i2c_va108xx.c **** 	      }
1214:.\driver\src/i2c_va108xx.c **** 		
1215:.\driver\src/i2c_va108xx.c **** 		    i2c->reg->S0_IRQ_CLR = (irq_end & (I2C_PERIPHERAL_S0_IRQ_END_TXREADY_Msk | I2C_PERIPHERAL_S0_
1216:.\driver\src/i2c_va108xx.c **** 		    return;
1217:.\driver\src/i2c_va108xx.c **** 	    }
1218:.\driver\src/i2c_va108xx.c **** 	  }
1219:.\driver\src/i2c_va108xx.c ****   }
1220:.\driver\src/i2c_va108xx.c **** 
1221:.\driver\src/i2c_va108xx.c ****   
1222:.\driver\src/i2c_va108xx.c ****   if(irq_end & (I2C_PERIPHERAL_S0_IRQ_END_RXREADY_Msk | I2C_PERIPHERAL_S0_IRQ_END_RXFULL_Msk )) {
1223:.\driver\src/i2c_va108xx.c ****     if(status & (I2C_PERIPHERAL_S0_STATUS_RXNEMPTY_Msk | I2C_PERIPHERAL_S0_STATUS_RXFULL_Msk | I2C_
1224:.\driver\src/i2c_va108xx.c **** 	    if((i2c->info.rxidx < i2c->info.rxcnt) && i2c->info.rxdata) {
1225:.\driver\src/i2c_va108xx.c **** 		    while(( i2c->info.rxidx < i2c->info.rxcnt) && (i2c->reg->S0_STATUS&I2C_PERIPHERAL_S0_STATUS_R
1226:.\driver\src/i2c_va108xx.c **** 		      i2c->info.rxdata[i2c->info.rxidx++] = i2c->reg->S0_DATA;
1227:.\driver\src/i2c_va108xx.c **** 					if(i2c->info.rxidx == i2c->info.rxcnt) {
1228:.\driver\src/i2c_va108xx.c **** 					  i2c->reg->IRQ_ENB = 0;
1229:.\driver\src/i2c_va108xx.c **** 						VOR_Disable_Irq(VOR_IRQ_I2C_SL, i2c->i2cId);
1230:.\driver\src/i2c_va108xx.c **** 						event = VOR_I2C_EVENT_TRANSFER_DONE;
1231:.\driver\src/i2c_va108xx.c ****             if(i2c->info.cb_event)
1232:.\driver\src/i2c_va108xx.c **** 	            i2c->info.cb_event(event);
1233:.\driver\src/i2c_va108xx.c **** 					}
1234:.\driver\src/i2c_va108xx.c **** 	      }
1235:.\driver\src/i2c_va108xx.c **** 		    i2c->reg->S0_IRQ_CLR = (irq_end & (I2C_PERIPHERAL_S0_IRQ_END_RXREADY_Msk | I2C_PERIPHERAL_S0_
1236:.\driver\src/i2c_va108xx.c **** 		    return;
1237:.\driver\src/i2c_va108xx.c **** 	    }
1238:.\driver\src/i2c_va108xx.c **** 	  }
1239:.\driver\src/i2c_va108xx.c ****   }
1240:.\driver\src/i2c_va108xx.c **** 
1241:.\driver\src/i2c_va108xx.c ****   if(status & I2C_PERIPHERAL_S0_STATUS_NACKDATA_Msk)
1242:.\driver\src/i2c_va108xx.c **** 	event |= (VOR_I2C_EVENT_TRANSFER_INCOMPLETE);
1243:.\driver\src/i2c_va108xx.c **** 
1244:.\driver\src/i2c_va108xx.c ****   if((status & I2C_PERIPHERAL_S0_STATUS_COMPLETED_Msk) && (i2c->info.txidx >= i2c->info.txcnt))
1245:.\driver\src/i2c_va108xx.c **** 	event |= VOR_I2C_EVENT_TRANSFER_DONE;
1246:.\driver\src/i2c_va108xx.c **** 
1247:.\driver\src/i2c_va108xx.c ****   if((status & I2C_PERIPHERAL_S0_STATUS_WAITING_Msk))
1248:.\driver\src/i2c_va108xx.c **** 	event |= VOR_I2C_EVENT_TRANSFER_INCOMPLETE;
1249:.\driver\src/i2c_va108xx.c ****   
1250:.\driver\src/i2c_va108xx.c ****   if((status & (I2C_PERIPHERAL_S0_STATUS_TXSTALLED_Msk|I2C_PERIPHERAL_S0_STATUS_RXSTALLED_Msk)))
1251:.\driver\src/i2c_va108xx.c **** 	event |= VOR_I2C_EVENT_TRANSFER_INCOMPLETE;
1252:.\driver\src/i2c_va108xx.c ****   
1253:.\driver\src/i2c_va108xx.c ****   if(irq_end & I2C_PERIPHERAL_S0_IRQ_END_RXOVERFLOW_Msk)
1254:.\driver\src/i2c_va108xx.c **** 	event |= VOR_I2C_EVENT_RXOVERFLOW;
1255:.\driver\src/i2c_va108xx.c ****   
1256:.\driver\src/i2c_va108xx.c ****   if(irq_end & (I2C_PERIPHERAL_S0_IRQ_END_TXUNDERFLOW_Msk |I2C_PERIPHERAL_S0_IRQ_END_TXREADY_Msk))
1257:.\driver\src/i2c_va108xx.c **** 	event |= VOR_I2C_EVENT_TXREADY;
1258:.\driver\src/i2c_va108xx.c ****   
1259:.\driver\src/i2c_va108xx.c ****   if(irq_end & I2C_PERIPHERAL_S0_IRQ_END_RXREADY_Msk)
1260:.\driver\src/i2c_va108xx.c **** 	event |= VOR_I2C_EVENT_RXREADY;
1261:.\driver\src/i2c_va108xx.c ****   
1262:.\driver\src/i2c_va108xx.c ****   if(irq_end & I2C_PERIPHERAL_S0_IRQ_END_TXEMPTY_Msk)
1263:.\driver\src/i2c_va108xx.c **** 	event |= VOR_I2C_EVENT_TXEMPTY;
1264:.\driver\src/i2c_va108xx.c ****   
1265:.\driver\src/i2c_va108xx.c ****   if(irq_end & I2C_PERIPHERAL_S0_IRQ_END_RXFULL_Msk)
1266:.\driver\src/i2c_va108xx.c **** 	event |= VOR_I2C_EVENT_RXFULL;
1267:.\driver\src/i2c_va108xx.c ****   
1268:.\driver\src/i2c_va108xx.c ****   if(i2c->info.cb_event)
ARM GAS  C:\Users\claym\AppData\Local\Temp\ccxpUFUu.s 			page 99


1269:.\driver\src/i2c_va108xx.c **** 	i2c->info.cb_event(event);
1270:.\driver\src/i2c_va108xx.c ****   
1271:.\driver\src/i2c_va108xx.c ****   i2c->reg->S0_IRQ_CLR = irq_end;
1272:.\driver\src/i2c_va108xx.c ****   i2c->reg->S0_IRQ_CLR = 0;
1273:.\driver\src/i2c_va108xx.c ****   
1274:.\driver\src/i2c_va108xx.c ****   return;
1275:.\driver\src/i2c_va108xx.c **** }
 3514              		.loc 1 1275 0
 3515              		@ sp needed	@
 3516              	.LVL267:
 3517 0ae6 F8BD     		pop	{r3, r4, r5, r6, r7, pc}
 3518              	.LVL268:
 3519              	.L334:
 3520              	@ .\driver\src\i2c_va108xx.c:1186:   status  = i2c->reg->S0_STATUS;
1186:.\driver\src/i2c_va108xx.c ****   irq_end = i2c->reg->S0_IRQ_END;
 3521              		.loc 1 1186 0
 3522 0ae8 1100     		movs	r1, r2	@ tmp174, pretmp_22
 3523 0aea FC31     		adds	r1, r1, #252	@ tmp174,
 3524 0aec CB69     		ldr	r3, [r1, #28]	@ status, pretmp_22->S0_STATUS
 3525              	.LVL269:
 3526              	@ .\driver\src\i2c_va108xx.c:1187:   irq_end = i2c->reg->S0_IRQ_END;
1187:.\driver\src/i2c_va108xx.c ****   
 3527              		.loc 1 1187 0
 3528 0aee 4D6B     		ldr	r5, [r1, #52]	@ irq_end, pretmp_22->S0_IRQ_END
 3529              	.LVL270:
 3530              	@ .\driver\src\i2c_va108xx.c:1190: 	if(irq_end & I2C_PERIPHERAL_S0_IRQ_RAW_I2C_STOP_Msk) {
1190:.\driver\src/i2c_va108xx.c **** 		if(i2c->info.txidx != i2c->info.txcnt) {
 3531              		.loc 1 1190 0
 3532 0af0 A905     		lsls	r1, r5, #22	@ tmp282, irq_end,
 3533 0af2 0FD5     		bpl	.L336	@,
 3534              	@ .\driver\src\i2c_va108xx.c:1191: 		if(i2c->info.txidx != i2c->info.txcnt) {
1191:.\driver\src/i2c_va108xx.c **** 		  i2c->reg->IRQ_ENB = 0;
 3535              		.loc 1 1191 0
 3536 0af4 836D     		ldr	r3, [r0, #88]	@ tmp290, i2c_81(D)->info.txidx
 3537              	.LVL271:
 3538 0af6 016D     		ldr	r1, [r0, #80]	@ tmp291, i2c_81(D)->info.txcnt
 3539 0af8 8B42     		cmp	r3, r1	@ tmp290, tmp291
 3540 0afa F4D0     		beq	.L333	@,
 3541              	@ .\driver\src\i2c_va108xx.c:1192: 		  i2c->reg->IRQ_ENB = 0;
1192:.\driver\src/i2c_va108xx.c **** 			VOR_Disable_Irq(VOR_IRQ_I2C_SL, i2c->i2cId);
 3542              		.loc 1 1192 0
 3543 0afc 0023     		movs	r3, #0	@ tmp180,
 3544              	@ .\driver\src\i2c_va108xx.c:1193: 			VOR_Disable_Irq(VOR_IRQ_I2C_SL, i2c->i2cId);
1193:.\driver\src/i2c_va108xx.c **** 			event = VOR_I2C_EVENT_TRANSFER_INCOMPLETE;
 3545              		.loc 1 1193 0
 3546 0afe 0168     		ldr	r1, [r0]	@, i2c_81(D)->i2cId
 3547              	@ .\driver\src\i2c_va108xx.c:1192: 		  i2c->reg->IRQ_ENB = 0;
1192:.\driver\src/i2c_va108xx.c **** 			VOR_Disable_Irq(VOR_IRQ_I2C_SL, i2c->i2cId);
 3548              		.loc 1 1192 0
 3549 0b00 9362     		str	r3, [r2, #40]	@ tmp180, pretmp_22->IRQ_ENB
 3550              	@ .\driver\src\i2c_va108xx.c:1193: 			VOR_Disable_Irq(VOR_IRQ_I2C_SL, i2c->i2cId);
1193:.\driver\src/i2c_va108xx.c **** 			event = VOR_I2C_EVENT_TRANSFER_INCOMPLETE;
 3551              		.loc 1 1193 0
 3552 0b02 0620     		movs	r0, #6	@,
 3553              	.LVL272:
 3554 0b04 FFF7FEFF 		bl	VOR_Disable_Irq	@
 3555              	.LVL273:
ARM GAS  C:\Users\claym\AppData\Local\Temp\ccxpUFUu.s 			page 100


 3556              	@ .\driver\src\i2c_va108xx.c:1195:       if(i2c->info.cb_event)
1195:.\driver\src/i2c_va108xx.c **** 	       i2c->info.cb_event(event);
 3557              		.loc 1 1195 0
 3558 0b08 E368     		ldr	r3, [r4, #12]	@ _11, i2c_81(D)->info.cb_event
 3559 0b0a 002B     		cmp	r3, #0	@ _11,
 3560 0b0c EBD0     		beq	.L333	@,
 3561              	@ .\driver\src\i2c_va108xx.c:1196: 	       i2c->info.cb_event(event);
1196:.\driver\src/i2c_va108xx.c **** 		}	  return;
 3562              		.loc 1 1196 0
 3563 0b0e 0220     		movs	r0, #2	@,
 3564 0b10 9847     		blx	r3	@ _11
 3565              	.LVL274:
 3566 0b12 E8E7     		b	.L333	@
 3567              	.LVL275:
 3568              	.L336:
 3569              	@ .\driver\src\i2c_va108xx.c:1201:   if(irq_end & (I2C_PERIPHERAL_S0_IRQ_END_TXREADY_Msk | I2C_PERI
1201:.\driver\src/i2c_va108xx.c ****     if(status & (I2C_PERIPHERAL_S0_STATUS_TXEMPTY_Msk | I2C_PERIPHERAL_S0_STATUS_TXTRIGGER_Msk | I2
 3570              		.loc 1 1201 0
 3571 0b14 A826     		movs	r6, #168	@ tmp181,
 3572 0b16 F601     		lsls	r6, r6, #7	@ tmp181, tmp181,
 3573 0b18 2E40     		ands	r6, r5	@ _12, irq_end
 3574 0b1a 28D0     		beq	.L339	@,
 3575              	@ .\driver\src\i2c_va108xx.c:1202:     if(status & (I2C_PERIPHERAL_S0_STATUS_TXEMPTY_Msk | I2C_PERI
1202:.\driver\src/i2c_va108xx.c **** 	    if(i2c->info.txidx < i2c->info.txcnt) {
 3576              		.loc 1 1202 0
 3577 0b1c 4A4A     		ldr	r2, .L412	@ tmp183,
 3578 0b1e 1342     		tst	r3, r2	@ status, tmp183
 3579 0b20 25D0     		beq	.L339	@,
 3580              	@ .\driver\src\i2c_va108xx.c:1203: 	    if(i2c->info.txidx < i2c->info.txcnt) {
1203:.\driver\src/i2c_va108xx.c **** 		    while(( i2c->info.txidx < i2c->info.txcnt) && (i2c->reg->S0_STATUS&I2C_PERIPHERAL_S0_STATUS_T
 3581              		.loc 1 1203 0
 3582 0b22 826D     		ldr	r2, [r0, #88]	@ tmp294, i2c_81(D)->info.txidx
 3583 0b24 016D     		ldr	r1, [r0, #80]	@ tmp295, i2c_81(D)->info.txcnt
 3584 0b26 8A42     		cmp	r2, r1	@ tmp294, tmp295
 3585 0b28 21D2     		bcs	.L339	@,
 3586              	@ .\driver\src\i2c_va108xx.c:1204: 		    while(( i2c->info.txidx < i2c->info.txcnt) && (i2c->reg->S
1204:.\driver\src/i2c_va108xx.c **** 	        i2c->reg->S0_DATA=i2c->info.txdata[i2c->info.txidx++];
 3587              		.loc 1 1204 0
 3588 0b2a 8025     		movs	r5, #128	@ tmp270,
 3589              	.LVL276:
 3590 0b2c AD01     		lsls	r5, r5, #6	@ tmp270, tmp270,
 3591              	.LVL277:
 3592              	.L342:
 3593 0b2e 6168     		ldr	r1, [r4, #4]	@ pretmp_26, i2c_81(D)->reg
 3594 0b30 206D     		ldr	r0, [r4, #80]	@ _28, i2c_81(D)->info.txcnt
 3595 0b32 0A00     		movs	r2, r1	@ tmp266, pretmp_26
 3596 0b34 FC32     		adds	r2, r2, #252	@ tmp266,
 3597              	.L341:
 3598 0b36 A36D     		ldr	r3, [r4, #88]	@ _27, i2c_81(D)->info.txidx
 3599 0b38 8342     		cmp	r3, r0	@ _27, _28
 3600 0b3a 02D2     		bcs	.L343	@,
 3601              	@ .\driver\src\i2c_va108xx.c:1204: 		    while(( i2c->info.txidx < i2c->info.txcnt) && (i2c->reg->S
1204:.\driver\src/i2c_va108xx.c **** 	        i2c->reg->S0_DATA=i2c->info.txdata[i2c->info.txidx++];
 3602              		.loc 1 1204 0 is_stmt 0 discriminator 1
 3603 0b3c D769     		ldr	r7, [r2, #28]	@ _30, pretmp_26->S0_STATUS
 3604 0b3e 2F42     		tst	r7, r5	@ _30, tmp270
 3605 0b40 01D1     		bne	.L344	@,
ARM GAS  C:\Users\claym\AppData\Local\Temp\ccxpUFUu.s 			page 101


 3606              	.L343:
 3607              	@ .\driver\src\i2c_va108xx.c:1215: 		    i2c->reg->S0_IRQ_CLR = (irq_end & (I2C_PERIPHERAL_S0_IRQ_E
1215:.\driver\src/i2c_va108xx.c **** 		    return;
 3608              		.loc 1 1215 0 is_stmt 1
 3609 0b42 9663     		str	r6, [r2, #56]	@ _12, pretmp_26->S0_IRQ_CLR
 3610              	@ .\driver\src\i2c_va108xx.c:1216: 		    return;
1216:.\driver\src/i2c_va108xx.c **** 	    }
 3611              		.loc 1 1216 0
 3612 0b44 CFE7     		b	.L333	@
 3613              	.L344:
 3614              	@ .\driver\src\i2c_va108xx.c:1205: 	        i2c->reg->S0_DATA=i2c->info.txdata[i2c->info.txidx++];
1205:.\driver\src/i2c_va108xx.c **** 					if(i2c->info.txidx == i2c->info.txcnt) {
 3615              		.loc 1 1205 0
 3616 0b46 5F1C     		adds	r7, r3, #1	@ _17, _27,
 3617 0b48 E318     		adds	r3, r4, r3	@ tmp186, i2c, _27
 3618 0b4a A765     		str	r7, [r4, #88]	@ _17, i2c_81(D)->info.txidx
 3619 0b4c 6033     		adds	r3, r3, #96	@ tmp188,
 3620 0b4e 1B78     		ldrb	r3, [r3]	@ _20, *i2c_81(D)
 3621 0b50 5361     		str	r3, [r2, #20]	@ _20, pretmp_26->S0_DATA
 3622              	@ .\driver\src\i2c_va108xx.c:1206: 					if(i2c->info.txidx == i2c->info.txcnt) {
1206:.\driver\src/i2c_va108xx.c **** 					  i2c->reg->IRQ_ENB = 0;
 3623              		.loc 1 1206 0
 3624 0b52 8742     		cmp	r7, r0	@ _17, _28
 3625 0b54 EFD1     		bne	.L341	@,
 3626              	@ .\driver\src\i2c_va108xx.c:1207: 					  i2c->reg->IRQ_ENB = 0;
1207:.\driver\src/i2c_va108xx.c **** 						VOR_Disable_Irq(VOR_IRQ_I2C_SL, i2c->i2cId);
 3627              		.loc 1 1207 0
 3628 0b56 0023     		movs	r3, #0	@ tmp190,
 3629              	@ .\driver\src\i2c_va108xx.c:1208: 						VOR_Disable_Irq(VOR_IRQ_I2C_SL, i2c->i2cId);
1208:.\driver\src/i2c_va108xx.c **** 						event = VOR_I2C_EVENT_TRANSFER_DONE;
 3630              		.loc 1 1208 0
 3631 0b58 0620     		movs	r0, #6	@,
 3632              	@ .\driver\src\i2c_va108xx.c:1207: 					  i2c->reg->IRQ_ENB = 0;
1207:.\driver\src/i2c_va108xx.c **** 						VOR_Disable_Irq(VOR_IRQ_I2C_SL, i2c->i2cId);
 3633              		.loc 1 1207 0
 3634 0b5a 8B62     		str	r3, [r1, #40]	@ tmp190, pretmp_26->IRQ_ENB
 3635              	@ .\driver\src\i2c_va108xx.c:1208: 						VOR_Disable_Irq(VOR_IRQ_I2C_SL, i2c->i2cId);
1208:.\driver\src/i2c_va108xx.c **** 						event = VOR_I2C_EVENT_TRANSFER_DONE;
 3636              		.loc 1 1208 0
 3637 0b5c 2168     		ldr	r1, [r4]	@, i2c_81(D)->i2cId
 3638 0b5e FFF7FEFF 		bl	VOR_Disable_Irq	@
 3639              	.LVL278:
 3640              	@ .\driver\src\i2c_va108xx.c:1210:             if(i2c->info.cb_event)
1210:.\driver\src/i2c_va108xx.c **** 	            i2c->info.cb_event(event);
 3641              		.loc 1 1210 0
 3642 0b62 E368     		ldr	r3, [r4, #12]	@ _25, i2c_81(D)->info.cb_event
 3643 0b64 002B     		cmp	r3, #0	@ _25,
 3644 0b66 E2D0     		beq	.L342	@,
 3645              	@ .\driver\src\i2c_va108xx.c:1211: 	            i2c->info.cb_event(event);
1211:.\driver\src/i2c_va108xx.c **** 					}
 3646              		.loc 1 1211 0
 3647 0b68 0120     		movs	r0, #1	@,
 3648 0b6a 9847     		blx	r3	@ _25
 3649              	.LVL279:
 3650 0b6c DFE7     		b	.L342	@
 3651              	.LVL280:
 3652              	.L339:
ARM GAS  C:\Users\claym\AppData\Local\Temp\ccxpUFUu.s 			page 102


 3653              	@ .\driver\src\i2c_va108xx.c:1222:   if(irq_end & (I2C_PERIPHERAL_S0_IRQ_END_RXREADY_Msk | I2C_PERI
1222:.\driver\src/i2c_va108xx.c ****     if(status & (I2C_PERIPHERAL_S0_STATUS_RXNEMPTY_Msk | I2C_PERIPHERAL_S0_STATUS_RXFULL_Msk | I2C_
 3654              		.loc 1 1222 0
 3655 0b6e A026     		movs	r6, #160	@ tmp195,
 3656 0b70 3602     		lsls	r6, r6, #8	@ tmp195, tmp195,
 3657 0b72 2E40     		ands	r6, r5	@ _33, irq_end
 3658 0b74 2FD0     		beq	.L345	@,
 3659              	@ .\driver\src\i2c_va108xx.c:1223:     if(status & (I2C_PERIPHERAL_S0_STATUS_RXNEMPTY_Msk | I2C_PER
1223:.\driver\src/i2c_va108xx.c **** 	    if((i2c->info.rxidx < i2c->info.rxcnt) && i2c->info.rxdata) {
 3660              		.loc 1 1223 0
 3661 0b76 B022     		movs	r2, #176	@ tmp197,
 3662 0b78 1201     		lsls	r2, r2, #4	@ tmp197, tmp197,
 3663 0b7a 1342     		tst	r3, r2	@ status, tmp197
 3664 0b7c 2BD0     		beq	.L345	@,
 3665              	@ .\driver\src\i2c_va108xx.c:1224: 	    if((i2c->info.rxidx < i2c->info.rxcnt) && i2c->info.rxdata)
1224:.\driver\src/i2c_va108xx.c **** 		    while(( i2c->info.rxidx < i2c->info.rxcnt) && (i2c->reg->S0_STATUS&I2C_PERIPHERAL_S0_STATUS_R
 3666              		.loc 1 1224 0
 3667 0b7e E26D     		ldr	r2, [r4, #92]	@ tmp299, i2c_81(D)->info.rxidx
 3668 0b80 616D     		ldr	r1, [r4, #84]	@ tmp300, i2c_81(D)->info.rxcnt
 3669 0b82 8A42     		cmp	r2, r1	@ tmp299, tmp300
 3670 0b84 27D2     		bcs	.L345	@,
 3671              	@ .\driver\src\i2c_va108xx.c:1224: 	    if((i2c->info.rxidx < i2c->info.rxcnt) && i2c->info.rxdata)
1224:.\driver\src/i2c_va108xx.c **** 		    while(( i2c->info.rxidx < i2c->info.rxcnt) && (i2c->reg->S0_STATUS&I2C_PERIPHERAL_S0_STATUS_R
 3672              		.loc 1 1224 0 is_stmt 0 discriminator 1
 3673 0b86 2700     		movs	r7, r4	@ tmp202, i2c
 3674 0b88 E037     		adds	r7, r7, #224	@ tmp202,
 3675 0b8a 3A68     		ldr	r2, [r7]	@ tmp304, i2c_81(D)->info.rxdata
 3676 0b8c 002A     		cmp	r2, #0	@ tmp304,
 3677 0b8e 22D0     		beq	.L345	@,
 3678              	@ .\driver\src\i2c_va108xx.c:1225: 		    while(( i2c->info.rxidx < i2c->info.rxcnt) && (i2c->reg->S
1225:.\driver\src/i2c_va108xx.c **** 		      i2c->info.rxdata[i2c->info.rxidx++] = i2c->reg->S0_DATA;
 3679              		.loc 1 1225 0 is_stmt 1
 3680 0b90 8025     		movs	r5, #128	@ tmp271,
 3681              	.LVL281:
 3682 0b92 6D00     		lsls	r5, r5, #1	@ tmp271, tmp271,
 3683              	.LVL282:
 3684              	.L347:
 3685 0b94 6368     		ldr	r3, [r4, #4]	@ tmp267, i2c_81(D)->reg
 3686 0b96 E26D     		ldr	r2, [r4, #92]	@ _48, i2c_81(D)->info.rxidx
 3687 0b98 616D     		ldr	r1, [r4, #84]	@ tmp310, i2c_81(D)->info.rxcnt
 3688 0b9a FC33     		adds	r3, r3, #252	@ tmp267,
 3689 0b9c 8A42     		cmp	r2, r1	@ _48, tmp310
 3690 0b9e 02D2     		bcs	.L349	@,
 3691              	@ .\driver\src\i2c_va108xx.c:1225: 		    while(( i2c->info.rxidx < i2c->info.rxcnt) && (i2c->reg->S
1225:.\driver\src/i2c_va108xx.c **** 		      i2c->info.rxdata[i2c->info.rxidx++] = i2c->reg->S0_DATA;
 3692              		.loc 1 1225 0 is_stmt 0 discriminator 1
 3693 0ba0 D969     		ldr	r1, [r3, #28]	@ _51, pretmp_23->S0_STATUS
 3694 0ba2 2942     		tst	r1, r5	@ _51, tmp271
 3695 0ba4 01D1     		bne	.L350	@,
 3696              	.L349:
 3697              	@ .\driver\src\i2c_va108xx.c:1235: 		    i2c->reg->S0_IRQ_CLR = (irq_end & (I2C_PERIPHERAL_S0_IRQ_E
1235:.\driver\src/i2c_va108xx.c **** 		    return;
 3698              		.loc 1 1235 0 is_stmt 1
 3699 0ba6 9E63     		str	r6, [r3, #56]	@ _33, pretmp_23->S0_IRQ_CLR
 3700              	@ .\driver\src\i2c_va108xx.c:1236: 		    return;
1236:.\driver\src/i2c_va108xx.c **** 	    }
 3701              		.loc 1 1236 0
ARM GAS  C:\Users\claym\AppData\Local\Temp\ccxpUFUu.s 			page 103


 3702 0ba8 9DE7     		b	.L333	@
 3703              	.L350:
 3704              	@ .\driver\src\i2c_va108xx.c:1226: 		      i2c->info.rxdata[i2c->info.rxidx++] = i2c->reg->S0_DATA;
1226:.\driver\src/i2c_va108xx.c **** 					if(i2c->info.rxidx == i2c->info.rxcnt) {
 3705              		.loc 1 1226 0
 3706 0baa 5969     		ldr	r1, [r3, #20]	@ _38, pretmp_23->S0_DATA
 3707 0bac 3B68     		ldr	r3, [r7]	@ _39, i2c_81(D)->info.rxdata
 3708 0bae 501C     		adds	r0, r2, #1	@ tmp208, _48,
 3709 0bb0 E065     		str	r0, [r4, #92]	@ tmp208, i2c_81(D)->info.rxidx
 3710 0bb2 9954     		strb	r1, [r3, r2]	@ _38, *_41
 3711              	@ .\driver\src\i2c_va108xx.c:1227: 					if(i2c->info.rxidx == i2c->info.rxcnt) {
1227:.\driver\src/i2c_va108xx.c **** 					  i2c->reg->IRQ_ENB = 0;
 3712              		.loc 1 1227 0
 3713 0bb4 E36D     		ldr	r3, [r4, #92]	@ tmp305, i2c_81(D)->info.rxidx
 3714 0bb6 626D     		ldr	r2, [r4, #84]	@ tmp306, i2c_81(D)->info.rxcnt
 3715 0bb8 9342     		cmp	r3, r2	@ tmp305, tmp306
 3716 0bba EBD1     		bne	.L347	@,
 3717              	@ .\driver\src\i2c_va108xx.c:1228: 					  i2c->reg->IRQ_ENB = 0;
1228:.\driver\src/i2c_va108xx.c **** 						VOR_Disable_Irq(VOR_IRQ_I2C_SL, i2c->i2cId);
 3718              		.loc 1 1228 0
 3719 0bbc 0022     		movs	r2, #0	@ tmp212,
 3720 0bbe 6368     		ldr	r3, [r4, #4]	@ _45, i2c_81(D)->reg
 3721              	@ .\driver\src\i2c_va108xx.c:1229: 						VOR_Disable_Irq(VOR_IRQ_I2C_SL, i2c->i2cId);
1229:.\driver\src/i2c_va108xx.c **** 						event = VOR_I2C_EVENT_TRANSFER_DONE;
 3722              		.loc 1 1229 0
 3723 0bc0 2168     		ldr	r1, [r4]	@, i2c_81(D)->i2cId
 3724              	@ .\driver\src\i2c_va108xx.c:1228: 					  i2c->reg->IRQ_ENB = 0;
1228:.\driver\src/i2c_va108xx.c **** 						VOR_Disable_Irq(VOR_IRQ_I2C_SL, i2c->i2cId);
 3725              		.loc 1 1228 0
 3726 0bc2 9A62     		str	r2, [r3, #40]	@ tmp212, _45->IRQ_ENB
 3727              	@ .\driver\src\i2c_va108xx.c:1229: 						VOR_Disable_Irq(VOR_IRQ_I2C_SL, i2c->i2cId);
1229:.\driver\src/i2c_va108xx.c **** 						event = VOR_I2C_EVENT_TRANSFER_DONE;
 3728              		.loc 1 1229 0
 3729 0bc4 0620     		movs	r0, #6	@,
 3730 0bc6 FFF7FEFF 		bl	VOR_Disable_Irq	@
 3731              	.LVL283:
 3732              	@ .\driver\src\i2c_va108xx.c:1231:             if(i2c->info.cb_event)
1231:.\driver\src/i2c_va108xx.c **** 	            i2c->info.cb_event(event);
 3733              		.loc 1 1231 0
 3734 0bca E368     		ldr	r3, [r4, #12]	@ _47, i2c_81(D)->info.cb_event
 3735 0bcc 002B     		cmp	r3, #0	@ _47,
 3736 0bce E1D0     		beq	.L347	@,
 3737              	@ .\driver\src\i2c_va108xx.c:1232: 	            i2c->info.cb_event(event);
1232:.\driver\src/i2c_va108xx.c **** 					}
 3738              		.loc 1 1232 0
 3739 0bd0 0120     		movs	r0, #1	@,
 3740 0bd2 9847     		blx	r3	@ _47
 3741              	.LVL284:
 3742 0bd4 DEE7     		b	.L347	@
 3743              	.LVL285:
 3744              	.L345:
 3745              	@ .\driver\src\i2c_va108xx.c:1244:   if((status & I2C_PERIPHERAL_S0_STATUS_COMPLETED_Msk) && (i2c->
1244:.\driver\src/i2c_va108xx.c **** 	event |= VOR_I2C_EVENT_TRANSFER_DONE;
 3746              		.loc 1 1244 0
 3747 0bd6 0122     		movs	r2, #1	@ tmp221,
 3748              	@ .\driver\src\i2c_va108xx.c:1241:   if(status & I2C_PERIPHERAL_S0_STATUS_NACKDATA_Msk)
1241:.\driver\src/i2c_va108xx.c **** 	event |= (VOR_I2C_EVENT_TRANSFER_INCOMPLETE);
ARM GAS  C:\Users\claym\AppData\Local\Temp\ccxpUFUu.s 			page 104


 3749              		.loc 1 1241 0
 3750 0bd8 5806     		lsls	r0, r3, #25	@ tmp218, status,
 3751              	.LVL286:
 3752              	@ .\driver\src\i2c_va108xx.c:1176:   uint32_t event  = 0;
1176:.\driver\src/i2c_va108xx.c ****   uint32_t irq_end;
 3753              		.loc 1 1176 0
 3754 0bda C00F     		lsrs	r0, r0, #31	@ tmp268, tmp218,
 3755 0bdc 4000     		lsls	r0, r0, #1	@ event, tmp268,
 3756              	.LVL287:
 3757              	@ .\driver\src\i2c_va108xx.c:1244:   if((status & I2C_PERIPHERAL_S0_STATUS_COMPLETED_Msk) && (i2c->
1244:.\driver\src/i2c_va108xx.c **** 	event |= VOR_I2C_EVENT_TRANSFER_DONE;
 3758              		.loc 1 1244 0
 3759 0bde 1342     		tst	r3, r2	@ status, tmp221
 3760 0be0 04D0     		beq	.L352	@,
 3761              	@ .\driver\src\i2c_va108xx.c:1244:   if((status & I2C_PERIPHERAL_S0_STATUS_COMPLETED_Msk) && (i2c->
1244:.\driver\src/i2c_va108xx.c **** 	event |= VOR_I2C_EVENT_TRANSFER_DONE;
 3762              		.loc 1 1244 0 is_stmt 0 discriminator 1
 3763 0be2 A16D     		ldr	r1, [r4, #88]	@ tmp312, i2c_81(D)->info.txidx
 3764 0be4 266D     		ldr	r6, [r4, #80]	@ tmp313, i2c_81(D)->info.txcnt
 3765 0be6 B142     		cmp	r1, r6	@ tmp312, tmp313
 3766 0be8 00D3     		bcc	.L352	@,
 3767              	@ .\driver\src\i2c_va108xx.c:1245: 	event |= VOR_I2C_EVENT_TRANSFER_DONE;
1245:.\driver\src/i2c_va108xx.c **** 
 3768              		.loc 1 1245 0 is_stmt 1
 3769 0bea 1043     		orrs	r0, r2	@ event, tmp221
 3770              	.LVL288:
 3771              	.L352:
 3772              	@ .\driver\src\i2c_va108xx.c:1247:   if((status & I2C_PERIPHERAL_S0_STATUS_WAITING_Msk))
1247:.\driver\src/i2c_va108xx.c **** 	event |= VOR_I2C_EVENT_TRANSFER_INCOMPLETE;
 3773              		.loc 1 1247 0
 3774 0bec 5A07     		lsls	r2, r3, #29	@ tmp283, status,
 3775 0bee 01D5     		bpl	.L353	@,
 3776              	@ .\driver\src\i2c_va108xx.c:1248: 	event |= VOR_I2C_EVENT_TRANSFER_INCOMPLETE;
1248:.\driver\src/i2c_va108xx.c ****   
 3777              		.loc 1 1248 0
 3778 0bf0 0222     		movs	r2, #2	@ tmp231,
 3779 0bf2 1043     		orrs	r0, r2	@ event, tmp231
 3780              	.LVL289:
 3781              	.L353:
 3782              	@ .\driver\src\i2c_va108xx.c:1250:   if((status & (I2C_PERIPHERAL_S0_STATUS_TXSTALLED_Msk|I2C_PERIP
1250:.\driver\src/i2c_va108xx.c **** 	event |= VOR_I2C_EVENT_TRANSFER_INCOMPLETE;
 3783              		.loc 1 1250 0
 3784 0bf4 1822     		movs	r2, #24	@ tmp233,
 3785 0bf6 1342     		tst	r3, r2	@ status, tmp233
 3786 0bf8 01D0     		beq	.L354	@,
 3787              	@ .\driver\src\i2c_va108xx.c:1251: 	event |= VOR_I2C_EVENT_TRANSFER_INCOMPLETE;
1251:.\driver\src/i2c_va108xx.c ****   
 3788              		.loc 1 1251 0
 3789 0bfa 0223     		movs	r3, #2	@ tmp236,
 3790              	.LVL290:
 3791 0bfc 1843     		orrs	r0, r3	@ event, tmp236
 3792              	.LVL291:
 3793              	.L354:
 3794              	@ .\driver\src\i2c_va108xx.c:1253:   if(irq_end & I2C_PERIPHERAL_S0_IRQ_END_RXOVERFLOW_Msk)
1253:.\driver\src/i2c_va108xx.c **** 	event |= VOR_I2C_EVENT_RXOVERFLOW;
 3795              		.loc 1 1253 0
 3796 0bfe 2B05     		lsls	r3, r5, #20	@ tmp284, irq_end,
ARM GAS  C:\Users\claym\AppData\Local\Temp\ccxpUFUu.s 			page 105


 3797 0c00 01D5     		bpl	.L355	@,
 3798              	@ .\driver\src\i2c_va108xx.c:1254: 	event |= VOR_I2C_EVENT_RXOVERFLOW;
1254:.\driver\src/i2c_va108xx.c ****   
 3799              		.loc 1 1254 0
 3800 0c02 8023     		movs	r3, #128	@ tmp241,
 3801 0c04 1843     		orrs	r0, r3	@ event, tmp241
 3802              	.LVL292:
 3803              	.L355:
 3804              	@ .\driver\src\i2c_va108xx.c:1256:   if(irq_end & (I2C_PERIPHERAL_S0_IRQ_END_TXUNDERFLOW_Msk |I2C_P
1256:.\driver\src/i2c_va108xx.c **** 	event |= VOR_I2C_EVENT_TXREADY;
 3805              		.loc 1 1256 0
 3806 0c06 A023     		movs	r3, #160	@ tmp243,
 3807 0c08 5B01     		lsls	r3, r3, #5	@ tmp243, tmp243,
 3808 0c0a 1D42     		tst	r5, r3	@ irq_end, tmp243
 3809 0c0c 02D0     		beq	.L356	@,
 3810              	@ .\driver\src\i2c_va108xx.c:1257: 	event |= VOR_I2C_EVENT_TXREADY;
1257:.\driver\src/i2c_va108xx.c ****   
 3811              		.loc 1 1257 0
 3812 0c0e 8023     		movs	r3, #128	@ tmp246,
 3813 0c10 5B00     		lsls	r3, r3, #1	@ tmp246, tmp246,
 3814 0c12 1843     		orrs	r0, r3	@ event, tmp246
 3815              	.LVL293:
 3816              	.L356:
 3817              	@ .\driver\src\i2c_va108xx.c:1259:   if(irq_end & I2C_PERIPHERAL_S0_IRQ_END_RXREADY_Msk)
1259:.\driver\src/i2c_va108xx.c **** 	event |= VOR_I2C_EVENT_RXREADY;
 3818              		.loc 1 1259 0
 3819 0c14 AB04     		lsls	r3, r5, #18	@ tmp285, irq_end,
 3820 0c16 02D5     		bpl	.L357	@,
 3821              	@ .\driver\src\i2c_va108xx.c:1260: 	event |= VOR_I2C_EVENT_RXREADY;
1260:.\driver\src/i2c_va108xx.c ****   
 3822              		.loc 1 1260 0
 3823 0c18 8023     		movs	r3, #128	@ tmp251,
 3824 0c1a 9B00     		lsls	r3, r3, #2	@ tmp251, tmp251,
 3825 0c1c 1843     		orrs	r0, r3	@ event, tmp251
 3826              	.LVL294:
 3827              	.L357:
 3828              	@ .\driver\src\i2c_va108xx.c:1262:   if(irq_end & I2C_PERIPHERAL_S0_IRQ_END_TXEMPTY_Msk)
1262:.\driver\src/i2c_va108xx.c **** 	event |= VOR_I2C_EVENT_TXEMPTY;
 3829              		.loc 1 1262 0
 3830 0c1e 6B04     		lsls	r3, r5, #17	@ tmp286, irq_end,
 3831 0c20 02D5     		bpl	.L358	@,
 3832              	@ .\driver\src\i2c_va108xx.c:1263: 	event |= VOR_I2C_EVENT_TXEMPTY;
1263:.\driver\src/i2c_va108xx.c ****   
 3833              		.loc 1 1263 0
 3834 0c22 8023     		movs	r3, #128	@ tmp256,
 3835 0c24 DB00     		lsls	r3, r3, #3	@ tmp256, tmp256,
 3836 0c26 1843     		orrs	r0, r3	@ event, tmp256
 3837              	.LVL295:
 3838              	.L358:
 3839              	@ .\driver\src\i2c_va108xx.c:1265:   if(irq_end & I2C_PERIPHERAL_S0_IRQ_END_RXFULL_Msk)
1265:.\driver\src/i2c_va108xx.c **** 	event |= VOR_I2C_EVENT_RXFULL;
 3840              		.loc 1 1265 0
 3841 0c28 2B04     		lsls	r3, r5, #16	@ tmp287, irq_end,
 3842 0c2a 02D5     		bpl	.L359	@,
 3843              	@ .\driver\src\i2c_va108xx.c:1266: 	event |= VOR_I2C_EVENT_RXFULL;
1266:.\driver\src/i2c_va108xx.c ****   
 3844              		.loc 1 1266 0
ARM GAS  C:\Users\claym\AppData\Local\Temp\ccxpUFUu.s 			page 106


 3845 0c2c 8023     		movs	r3, #128	@ tmp261,
 3846 0c2e 1B01     		lsls	r3, r3, #4	@ tmp261, tmp261,
 3847 0c30 1843     		orrs	r0, r3	@ event, tmp261
 3848              	.LVL296:
 3849              	.L359:
 3850              	@ .\driver\src\i2c_va108xx.c:1268:   if(i2c->info.cb_event)
1268:.\driver\src/i2c_va108xx.c **** 	i2c->info.cb_event(event);
 3851              		.loc 1 1268 0
 3852 0c32 E368     		ldr	r3, [r4, #12]	@ _65, i2c_81(D)->info.cb_event
 3853 0c34 002B     		cmp	r3, #0	@ _65,
 3854 0c36 00D0     		beq	.L360	@,
 3855              	@ .\driver\src\i2c_va108xx.c:1269: 	i2c->info.cb_event(event);
1269:.\driver\src/i2c_va108xx.c ****   
 3856              		.loc 1 1269 0
 3857 0c38 9847     		blx	r3	@ _65
 3858              	.LVL297:
 3859              	.L360:
 3860              	@ .\driver\src\i2c_va108xx.c:1272:   i2c->reg->S0_IRQ_CLR = 0;
1272:.\driver\src/i2c_va108xx.c ****   
 3861              		.loc 1 1272 0
 3862 0c3a 0022     		movs	r2, #0	@ tmp264,
 3863              	@ .\driver\src\i2c_va108xx.c:1271:   i2c->reg->S0_IRQ_CLR = irq_end;
1271:.\driver\src/i2c_va108xx.c ****   i2c->reg->S0_IRQ_CLR = 0;
 3864              		.loc 1 1271 0
 3865 0c3c 6368     		ldr	r3, [r4, #4]	@ _66, i2c_81(D)->reg
 3866 0c3e FC33     		adds	r3, r3, #252	@ tmp262,
 3867 0c40 9D63     		str	r5, [r3, #56]	@ irq_end, _66->S0_IRQ_CLR
 3868              	@ .\driver\src\i2c_va108xx.c:1272:   i2c->reg->S0_IRQ_CLR = 0;
1272:.\driver\src/i2c_va108xx.c ****   
 3869              		.loc 1 1272 0
 3870 0c42 9A63     		str	r2, [r3, #56]	@ tmp264, _66->S0_IRQ_CLR
 3871              	@ .\driver\src\i2c_va108xx.c:1274:   return;
1274:.\driver\src/i2c_va108xx.c **** }
 3872              		.loc 1 1274 0
 3873 0c44 4FE7     		b	.L333	@
 3874              	.L413:
 3875 0c46 C046     		.align	2
 3876              	.L412:
 3877 0c48 0C900000 		.word	36876
 3878              		.cfi_endproc
 3879              	.LFE65:
 3880              		.size	VOR_I2C_SlaveHandler, .-VOR_I2C_SlaveHandler
 3881              		.align	1
 3882              		.global	VOR_I2C_GetDataCount
 3883              		.syntax unified
 3884              		.code	16
 3885              		.thumb_func
 3886              		.fpu softvfp
 3887              		.type	VOR_I2C_GetDataCount, %function
 3888              	VOR_I2C_GetDataCount:
 3889              	.LFB66:
1276:.\driver\src/i2c_va108xx.c **** 	
1277:.\driver\src/i2c_va108xx.c **** 
1278:.\driver\src/i2c_va108xx.c **** 
1279:.\driver\src/i2c_va108xx.c **** /**
1280:.\driver\src/i2c_va108xx.c ****   function:    int32_t VOR_I2C_GetDataCount (I2C_RESOURCES *i2c)
1281:.\driver\src/i2c_va108xx.c ****   brief:       Get transferred data count.
ARM GAS  C:\Users\claym\AppData\Local\Temp\ccxpUFUu.s 			page 107


1282:.\driver\src/i2c_va108xx.c ****   return:      number of data bytes transferred; 
1283:.\driver\src/i2c_va108xx.c **** */
1284:.\driver\src/i2c_va108xx.c **** int32_t VOR_I2C_GetDataCount (I2C_RESOURCES *i2c) {
 3890              		.loc 1 1284 0
 3891              		.cfi_startproc
 3892              		@ args = 0, pretend = 0, frame = 0
 3893              		@ frame_needed = 0, uses_anonymous_args = 0
 3894              		@ link register save eliminated.
 3895              	.LVL298:
 3896              	@ .\driver\src\i2c_va108xx.c:1285:   if(i2c->info.status.direction == I2C_DIR_RECEIVE)
1285:.\driver\src/i2c_va108xx.c ****   if(i2c->info.status.direction == I2C_DIR_RECEIVE)
 3897              		.loc 1 1285 0
 3898 0c4c 837C     		ldrb	r3, [r0, #18]	@ *i2c_7(D), *i2c_7(D)
 3899 0c4e DB07     		lsls	r3, r3, #31	@ tmp124, *i2c_7(D),
 3900 0c50 01D5     		bpl	.L415	@,
 3901              	@ .\driver\src\i2c_va108xx.c:1286: 	return i2c->info.rxidx;
1286:.\driver\src/i2c_va108xx.c **** 	return i2c->info.rxidx;
 3902              		.loc 1 1286 0
 3903 0c52 C06D     		ldr	r0, [r0, #92]	@ <retval>, i2c_7(D)->info.rxidx
 3904              	.LVL299:
 3905              	.L414:
 3906              	@ .\driver\src\i2c_va108xx.c:1289: }
1287:.\driver\src/i2c_va108xx.c ****   else
1288:.\driver\src/i2c_va108xx.c **** 	return i2c->info.txidx;
1289:.\driver\src/i2c_va108xx.c **** }
 3907              		.loc 1 1289 0
 3908              		@ sp needed	@
 3909 0c54 7047     		bx	lr
 3910              	.LVL300:
 3911              	.L415:
 3912              	@ .\driver\src\i2c_va108xx.c:1288: 	return i2c->info.txidx;
1288:.\driver\src/i2c_va108xx.c **** }
 3913              		.loc 1 1288 0
 3914 0c56 806D     		ldr	r0, [r0, #88]	@ <retval>, i2c_7(D)->info.txidx
 3915              	.LVL301:
 3916 0c58 FCE7     		b	.L414	@
 3917              		.cfi_endproc
 3918              	.LFE66:
 3919              		.size	VOR_I2C_GetDataCount, .-VOR_I2C_GetDataCount
 3920              		.global	I2C1_Resources
 3921              		.global	I2C0_Resources
 3922              		.section	.rodata
 3923              		.align	1
 3924              		.set	.LANCHOR0,. + 0
 3925              		.type	i2c_driver_version, %object
 3926              		.size	i2c_driver_version, 4
 3927              	i2c_driver_version:
 3928              	@ api:
 3929 0000 0001     		.short	256
 3930              	@ drv:
 3931 0002 0001     		.short	256
 3932              		.data
 3933              		.align	2
 3934              		.type	I2C1_Resources, %object
 3935              		.size	I2C1_Resources, 232
 3936              	I2C1_Resources:
 3937              	@ i2cId:
ARM GAS  C:\Users\claym\AppData\Local\Temp\ccxpUFUu.s 			page 108


 3938 0000 01000000 		.word	1
 3939              	@ reg:
 3940 0004 00100640 		.word	1074139136
 3941              	@ drv:
 3942 0008 00000000 		.word	Driver_I2C1
 3943              	@ info:
 3944              	@ cb_event:
 3945 000c 00000000 		.word	0
 3946 0010 00000000 		.space	212
 3946      00000000 
 3946      00000000 
 3946      00000000 
 3946      00000000 
 3947              	@ i2cClkEn:
 3948 00e4 00000200 		.word	131072
 3949              		.type	I2C0_Resources, %object
 3950              		.size	I2C0_Resources, 232
 3951              	I2C0_Resources:
 3952              	@ i2cId:
 3953 00e8 00000000 		.word	0
 3954              	@ reg:
 3955 00ec 00000640 		.word	1074135040
 3956              	@ drv:
 3957 00f0 00000000 		.word	Driver_I2C0
 3958              	@ info:
 3959              	@ cb_event:
 3960 00f4 00000000 		.word	0
 3961 00f8 00000000 		.space	212
 3961      00000000 
 3961      00000000 
 3961      00000000 
 3961      00000000 
 3962              	@ i2cClkEn:
 3963 01cc 00000100 		.word	65536
 3964              		.text
 3965              	.Letext0:
 3966              		.file 3 "c:\\program files (x86)\\gnu tools arm embedded\\7 2017-q4-major\\arm-none-eabi\\include\
 3967              		.file 4 "c:\\program files (x86)\\gnu tools arm embedded\\7 2017-q4-major\\arm-none-eabi\\include\
 3968              		.file 5 "c:\\program files (x86)\\gnu tools arm embedded\\7 2017-q4-major\\arm-none-eabi\\include\
 3969              		.file 6 "c:\\program files (x86)\\gnu tools arm embedded\\7 2017-q4-major\\lib\\gcc\\arm-none-eabi
 3970              		.file 7 "c:\\program files (x86)\\gnu tools arm embedded\\7 2017-q4-major\\arm-none-eabi\\include\
 3971              		.file 8 "c:\\program files (x86)\\gnu tools arm embedded\\7 2017-q4-major\\arm-none-eabi\\include\
 3972              		.file 9 "c:\\program files (x86)\\gnu tools arm embedded\\7 2017-q4-major\\arm-none-eabi\\include\
 3973              		.file 10 ".\\driver\\hdr/driver_common.h"
 3974              		.file 11 ".\\driver\\hdr/driver_i2c.h"
 3975              		.file 12 ".\\common\\hdr/system_va108xx.h"
 3976              		.file 13 ".\\common\\hdr/va108xx.h"
 3977              		.file 14 ".\\driver\\hdr/i2c_va108xx.h"
 3978              		.file 15 ".\\common\\hdr/irq_va108xx.h"
 3979              		.file 16 "<built-in>"
 3980 0c5a C046     		.section	.debug_info,"",%progbits
 3981              	.Ldebug_info0:
 3982 0000 BF240000 		.4byte	0x24bf
 3983 0004 0200     		.2byte	0x2
 3984 0006 00000000 		.4byte	.Ldebug_abbrev0
 3985 000a 04       		.byte	0x4
 3986 000b 01       		.uleb128 0x1
ARM GAS  C:\Users\claym\AppData\Local\Temp\ccxpUFUu.s 			page 109


 3987 000c 60020000 		.4byte	.LASF339
 3988 0010 0C       		.byte	0xc
 3989 0011 670F0000 		.4byte	.LASF340
 3990 0015 BE090000 		.4byte	.LASF341
 3991 0019 00000000 		.4byte	.Ltext0
 3992 001d 5A0C0000 		.4byte	.Letext0
 3993 0021 00000000 		.4byte	.Ldebug_line0
 3994 0025 02       		.uleb128 0x2
 3995 0026 04       		.byte	0x4
 3996 0027 07       		.byte	0x7
 3997 0028 31010000 		.4byte	.LASF0
 3998 002c 03       		.uleb128 0x3
 3999 002d 04       		.byte	0x4
 4000 002e 05       		.byte	0x5
 4001 002f 696E7400 		.ascii	"int\000"
 4002 0033 02       		.uleb128 0x2
 4003 0034 08       		.byte	0x8
 4004 0035 05       		.byte	0x5
 4005 0036 B2060000 		.4byte	.LASF1
 4006 003a 02       		.uleb128 0x2
 4007 003b 08       		.byte	0x8
 4008 003c 04       		.byte	0x4
 4009 003d B5080000 		.4byte	.LASF2
 4010 0041 02       		.uleb128 0x2
 4011 0042 01       		.byte	0x1
 4012 0043 06       		.byte	0x6
 4013 0044 D70D0000 		.4byte	.LASF3
 4014 0048 04       		.uleb128 0x4
 4015 0049 200B0000 		.4byte	.LASF6
 4016 004d 03       		.byte	0x3
 4017 004e 2B       		.byte	0x2b
 4018 004f 53000000 		.4byte	0x53
 4019 0053 02       		.uleb128 0x2
 4020 0054 01       		.byte	0x1
 4021 0055 08       		.byte	0x8
 4022 0056 A00C0000 		.4byte	.LASF4
 4023 005a 02       		.uleb128 0x2
 4024 005b 02       		.byte	0x2
 4025 005c 05       		.byte	0x5
 4026 005d B4090000 		.4byte	.LASF5
 4027 0061 04       		.uleb128 0x4
 4028 0062 38040000 		.4byte	.LASF7
 4029 0066 03       		.byte	0x3
 4030 0067 39       		.byte	0x39
 4031 0068 6C000000 		.4byte	0x6c
 4032 006c 02       		.uleb128 0x2
 4033 006d 02       		.byte	0x2
 4034 006e 07       		.byte	0x7
 4035 006f F50D0000 		.4byte	.LASF8
 4036 0073 04       		.uleb128 0x4
 4037 0074 9A010000 		.4byte	.LASF9
 4038 0078 03       		.byte	0x3
 4039 0079 4D       		.byte	0x4d
 4040 007a 7E000000 		.4byte	0x7e
 4041 007e 02       		.uleb128 0x2
 4042 007f 04       		.byte	0x4
 4043 0080 05       		.byte	0x5
ARM GAS  C:\Users\claym\AppData\Local\Temp\ccxpUFUu.s 			page 110


 4044 0081 130A0000 		.4byte	.LASF10
 4045 0085 04       		.uleb128 0x4
 4046 0086 B40C0000 		.4byte	.LASF11
 4047 008a 03       		.byte	0x3
 4048 008b 4F       		.byte	0x4f
 4049 008c 90000000 		.4byte	0x90
 4050 0090 02       		.uleb128 0x2
 4051 0091 04       		.byte	0x4
 4052 0092 07       		.byte	0x7
 4053 0093 C30B0000 		.4byte	.LASF12
 4054 0097 02       		.uleb128 0x2
 4055 0098 08       		.byte	0x8
 4056 0099 07       		.byte	0x7
 4057 009a E1030000 		.4byte	.LASF13
 4058 009e 04       		.uleb128 0x4
 4059 009f C1080000 		.4byte	.LASF14
 4060 00a3 04       		.byte	0x4
 4061 00a4 22       		.byte	0x22
 4062 00a5 A9000000 		.4byte	0xa9
 4063 00a9 05       		.uleb128 0x5
 4064 00aa 04       		.byte	0x4
 4065 00ab AF000000 		.4byte	0xaf
 4066 00af 06       		.uleb128 0x6
 4067 00b0 670C0000 		.4byte	.LASF121
 4068 00b4 01       		.byte	0x1
 4069 00b5 04       		.uleb128 0x4
 4070 00b6 410E0000 		.4byte	.LASF15
 4071 00ba 05       		.byte	0x5
 4072 00bb 2C       		.byte	0x2c
 4073 00bc 7E000000 		.4byte	0x7e
 4074 00c0 04       		.uleb128 0x4
 4075 00c1 FA020000 		.4byte	.LASF16
 4076 00c5 05       		.byte	0x5
 4077 00c6 72       		.byte	0x72
 4078 00c7 7E000000 		.4byte	0x7e
 4079 00cb 07       		.uleb128 0x7
 4080 00cc 0B0C0000 		.4byte	.LASF17
 4081 00d0 06       		.byte	0x6
 4082 00d1 6501     		.2byte	0x165
 4083 00d3 25000000 		.4byte	0x25
 4084 00d7 08       		.uleb128 0x8
 4085 00d8 04       		.byte	0x4
 4086 00d9 05       		.byte	0x5
 4087 00da A6       		.byte	0xa6
 4088 00db F6000000 		.4byte	0xf6
 4089 00df 09       		.uleb128 0x9
 4090 00e0 20060000 		.4byte	.LASF18
 4091 00e4 05       		.byte	0x5
 4092 00e5 A8       		.byte	0xa8
 4093 00e6 CB000000 		.4byte	0xcb
 4094 00ea 09       		.uleb128 0x9
 4095 00eb 880A0000 		.4byte	.LASF19
 4096 00ef 05       		.byte	0x5
 4097 00f0 A9       		.byte	0xa9
 4098 00f1 F6000000 		.4byte	0xf6
 4099 00f5 00       		.byte	0
 4100 00f6 0A       		.uleb128 0xa
ARM GAS  C:\Users\claym\AppData\Local\Temp\ccxpUFUu.s 			page 111


 4101 00f7 53000000 		.4byte	0x53
 4102 00fb 06010000 		.4byte	0x106
 4103 00ff 0B       		.uleb128 0xb
 4104 0100 25000000 		.4byte	0x25
 4105 0104 03       		.byte	0x3
 4106 0105 00       		.byte	0
 4107 0106 0C       		.uleb128 0xc
 4108 0107 08       		.byte	0x8
 4109 0108 05       		.byte	0x5
 4110 0109 A3       		.byte	0xa3
 4111 010a 2B010000 		.4byte	0x12b
 4112 010e 0D       		.uleb128 0xd
 4113 010f 84030000 		.4byte	.LASF20
 4114 0113 05       		.byte	0x5
 4115 0114 A5       		.byte	0xa5
 4116 0115 2C000000 		.4byte	0x2c
 4117 0119 02       		.byte	0x2
 4118 011a 23       		.byte	0x23
 4119 011b 00       		.uleb128 0
 4120 011c 0D       		.uleb128 0xd
 4121 011d 68050000 		.4byte	.LASF21
 4122 0121 05       		.byte	0x5
 4123 0122 AA       		.byte	0xaa
 4124 0123 D7000000 		.4byte	0xd7
 4125 0127 02       		.byte	0x2
 4126 0128 23       		.byte	0x23
 4127 0129 04       		.uleb128 0x4
 4128 012a 00       		.byte	0
 4129 012b 04       		.uleb128 0x4
 4130 012c B4070000 		.4byte	.LASF22
 4131 0130 05       		.byte	0x5
 4132 0131 AB       		.byte	0xab
 4133 0132 06010000 		.4byte	0x106
 4134 0136 04       		.uleb128 0x4
 4135 0137 F0050000 		.4byte	.LASF23
 4136 013b 05       		.byte	0x5
 4137 013c AF       		.byte	0xaf
 4138 013d 9E000000 		.4byte	0x9e
 4139 0141 0E       		.uleb128 0xe
 4140 0142 04       		.byte	0x4
 4141 0143 05       		.uleb128 0x5
 4142 0144 04       		.byte	0x4
 4143 0145 49010000 		.4byte	0x149
 4144 0149 02       		.uleb128 0x2
 4145 014a 01       		.byte	0x1
 4146 014b 08       		.byte	0x8
 4147 014c A3050000 		.4byte	.LASF24
 4148 0150 0F       		.uleb128 0xf
 4149 0151 49010000 		.4byte	0x149
 4150 0155 04       		.uleb128 0x4
 4151 0156 EF060000 		.4byte	.LASF25
 4152 015a 07       		.byte	0x7
 4153 015b 16       		.byte	0x16
 4154 015c 90000000 		.4byte	0x90
 4155 0160 10       		.uleb128 0x10
 4156 0161 39030000 		.4byte	.LASF30
 4157 0165 18       		.byte	0x18
ARM GAS  C:\Users\claym\AppData\Local\Temp\ccxpUFUu.s 			page 112


 4158 0166 07       		.byte	0x7
 4159 0167 2F       		.byte	0x2f
 4160 0168 BF010000 		.4byte	0x1bf
 4161 016c 0D       		.uleb128 0xd
 4162 016d 2D050000 		.4byte	.LASF26
 4163 0171 07       		.byte	0x7
 4164 0172 31       		.byte	0x31
 4165 0173 BF010000 		.4byte	0x1bf
 4166 0177 02       		.byte	0x2
 4167 0178 23       		.byte	0x23
 4168 0179 00       		.uleb128 0
 4169 017a 11       		.uleb128 0x11
 4170 017b 5F6B00   		.ascii	"_k\000"
 4171 017e 07       		.byte	0x7
 4172 017f 32       		.byte	0x32
 4173 0180 2C000000 		.4byte	0x2c
 4174 0184 02       		.byte	0x2
 4175 0185 23       		.byte	0x23
 4176 0186 04       		.uleb128 0x4
 4177 0187 0D       		.uleb128 0xd
 4178 0188 370B0000 		.4byte	.LASF27
 4179 018c 07       		.byte	0x7
 4180 018d 32       		.byte	0x32
 4181 018e 2C000000 		.4byte	0x2c
 4182 0192 02       		.byte	0x2
 4183 0193 23       		.byte	0x23
 4184 0194 08       		.uleb128 0x8
 4185 0195 0D       		.uleb128 0xd
 4186 0196 650A0000 		.4byte	.LASF28
 4187 019a 07       		.byte	0x7
 4188 019b 32       		.byte	0x32
 4189 019c 2C000000 		.4byte	0x2c
 4190 01a0 02       		.byte	0x2
 4191 01a1 23       		.byte	0x23
 4192 01a2 0C       		.uleb128 0xc
 4193 01a3 0D       		.uleb128 0xd
 4194 01a4 13040000 		.4byte	.LASF29
 4195 01a8 07       		.byte	0x7
 4196 01a9 32       		.byte	0x32
 4197 01aa 2C000000 		.4byte	0x2c
 4198 01ae 02       		.byte	0x2
 4199 01af 23       		.byte	0x23
 4200 01b0 10       		.uleb128 0x10
 4201 01b1 11       		.uleb128 0x11
 4202 01b2 5F7800   		.ascii	"_x\000"
 4203 01b5 07       		.byte	0x7
 4204 01b6 33       		.byte	0x33
 4205 01b7 C5010000 		.4byte	0x1c5
 4206 01bb 02       		.byte	0x2
 4207 01bc 23       		.byte	0x23
 4208 01bd 14       		.uleb128 0x14
 4209 01be 00       		.byte	0
 4210 01bf 05       		.uleb128 0x5
 4211 01c0 04       		.byte	0x4
 4212 01c1 60010000 		.4byte	0x160
 4213 01c5 0A       		.uleb128 0xa
 4214 01c6 55010000 		.4byte	0x155
ARM GAS  C:\Users\claym\AppData\Local\Temp\ccxpUFUu.s 			page 113


 4215 01ca D5010000 		.4byte	0x1d5
 4216 01ce 0B       		.uleb128 0xb
 4217 01cf 25000000 		.4byte	0x25
 4218 01d3 00       		.byte	0
 4219 01d4 00       		.byte	0
 4220 01d5 10       		.uleb128 0x10
 4221 01d6 9E0B0000 		.4byte	.LASF31
 4222 01da 24       		.byte	0x24
 4223 01db 07       		.byte	0x7
 4224 01dc 37       		.byte	0x37
 4225 01dd 60020000 		.4byte	0x260
 4226 01e1 0D       		.uleb128 0xd
 4227 01e2 F4040000 		.4byte	.LASF32
 4228 01e6 07       		.byte	0x7
 4229 01e7 39       		.byte	0x39
 4230 01e8 2C000000 		.4byte	0x2c
 4231 01ec 02       		.byte	0x2
 4232 01ed 23       		.byte	0x23
 4233 01ee 00       		.uleb128 0
 4234 01ef 0D       		.uleb128 0xd
 4235 01f0 92030000 		.4byte	.LASF33
 4236 01f4 07       		.byte	0x7
 4237 01f5 3A       		.byte	0x3a
 4238 01f6 2C000000 		.4byte	0x2c
 4239 01fa 02       		.byte	0x2
 4240 01fb 23       		.byte	0x23
 4241 01fc 04       		.uleb128 0x4
 4242 01fd 0D       		.uleb128 0xd
 4243 01fe 62030000 		.4byte	.LASF34
 4244 0202 07       		.byte	0x7
 4245 0203 3B       		.byte	0x3b
 4246 0204 2C000000 		.4byte	0x2c
 4247 0208 02       		.byte	0x2
 4248 0209 23       		.byte	0x23
 4249 020a 08       		.uleb128 0x8
 4250 020b 0D       		.uleb128 0xd
 4251 020c A8050000 		.4byte	.LASF35
 4252 0210 07       		.byte	0x7
 4253 0211 3C       		.byte	0x3c
 4254 0212 2C000000 		.4byte	0x2c
 4255 0216 02       		.byte	0x2
 4256 0217 23       		.byte	0x23
 4257 0218 0C       		.uleb128 0xc
 4258 0219 0D       		.uleb128 0xd
 4259 021a 97080000 		.4byte	.LASF36
 4260 021e 07       		.byte	0x7
 4261 021f 3D       		.byte	0x3d
 4262 0220 2C000000 		.4byte	0x2c
 4263 0224 02       		.byte	0x2
 4264 0225 23       		.byte	0x23
 4265 0226 10       		.uleb128 0x10
 4266 0227 0D       		.uleb128 0xd
 4267 0228 BE0A0000 		.4byte	.LASF37
 4268 022c 07       		.byte	0x7
 4269 022d 3E       		.byte	0x3e
 4270 022e 2C000000 		.4byte	0x2c
 4271 0232 02       		.byte	0x2
ARM GAS  C:\Users\claym\AppData\Local\Temp\ccxpUFUu.s 			page 114


 4272 0233 23       		.byte	0x23
 4273 0234 14       		.uleb128 0x14
 4274 0235 0D       		.uleb128 0xd
 4275 0236 41030000 		.4byte	.LASF38
 4276 023a 07       		.byte	0x7
 4277 023b 3F       		.byte	0x3f
 4278 023c 2C000000 		.4byte	0x2c
 4279 0240 02       		.byte	0x2
 4280 0241 23       		.byte	0x23
 4281 0242 18       		.uleb128 0x18
 4282 0243 0D       		.uleb128 0xd
 4283 0244 07050000 		.4byte	.LASF39
 4284 0248 07       		.byte	0x7
 4285 0249 40       		.byte	0x40
 4286 024a 2C000000 		.4byte	0x2c
 4287 024e 02       		.byte	0x2
 4288 024f 23       		.byte	0x23
 4289 0250 1C       		.uleb128 0x1c
 4290 0251 0D       		.uleb128 0xd
 4291 0252 0D080000 		.4byte	.LASF40
 4292 0256 07       		.byte	0x7
 4293 0257 41       		.byte	0x41
 4294 0258 2C000000 		.4byte	0x2c
 4295 025c 02       		.byte	0x2
 4296 025d 23       		.byte	0x23
 4297 025e 20       		.uleb128 0x20
 4298 025f 00       		.byte	0
 4299 0260 12       		.uleb128 0x12
 4300 0261 80000000 		.4byte	.LASF41
 4301 0265 0801     		.2byte	0x108
 4302 0267 07       		.byte	0x7
 4303 0268 4A       		.byte	0x4a
 4304 0269 A9020000 		.4byte	0x2a9
 4305 026d 0D       		.uleb128 0xd
 4306 026e CF0D0000 		.4byte	.LASF42
 4307 0272 07       		.byte	0x7
 4308 0273 4B       		.byte	0x4b
 4309 0274 A9020000 		.4byte	0x2a9
 4310 0278 02       		.byte	0x2
 4311 0279 23       		.byte	0x23
 4312 027a 00       		.uleb128 0
 4313 027b 0D       		.uleb128 0xd
 4314 027c 510C0000 		.4byte	.LASF43
 4315 0280 07       		.byte	0x7
 4316 0281 4C       		.byte	0x4c
 4317 0282 A9020000 		.4byte	0x2a9
 4318 0286 03       		.byte	0x3
 4319 0287 23       		.byte	0x23
 4320 0288 8001     		.uleb128 0x80
 4321 028a 0D       		.uleb128 0xd
 4322 028b 180E0000 		.4byte	.LASF44
 4323 028f 07       		.byte	0x7
 4324 0290 4E       		.byte	0x4e
 4325 0291 55010000 		.4byte	0x155
 4326 0295 03       		.byte	0x3
 4327 0296 23       		.byte	0x23
 4328 0297 8002     		.uleb128 0x100
ARM GAS  C:\Users\claym\AppData\Local\Temp\ccxpUFUu.s 			page 115


 4329 0299 0D       		.uleb128 0xd
 4330 029a B60E0000 		.4byte	.LASF45
 4331 029e 07       		.byte	0x7
 4332 029f 51       		.byte	0x51
 4333 02a0 55010000 		.4byte	0x155
 4334 02a4 03       		.byte	0x3
 4335 02a5 23       		.byte	0x23
 4336 02a6 8402     		.uleb128 0x104
 4337 02a8 00       		.byte	0
 4338 02a9 0A       		.uleb128 0xa
 4339 02aa 41010000 		.4byte	0x141
 4340 02ae B9020000 		.4byte	0x2b9
 4341 02b2 0B       		.uleb128 0xb
 4342 02b3 25000000 		.4byte	0x25
 4343 02b7 1F       		.byte	0x1f
 4344 02b8 00       		.byte	0
 4345 02b9 12       		.uleb128 0x12
 4346 02ba 25090000 		.4byte	.LASF46
 4347 02be 9001     		.2byte	0x190
 4348 02c0 07       		.byte	0x7
 4349 02c1 5D       		.byte	0x5d
 4350 02c2 00030000 		.4byte	0x300
 4351 02c6 0D       		.uleb128 0xd
 4352 02c7 2D050000 		.4byte	.LASF26
 4353 02cb 07       		.byte	0x7
 4354 02cc 5E       		.byte	0x5e
 4355 02cd 00030000 		.4byte	0x300
 4356 02d1 02       		.byte	0x2
 4357 02d2 23       		.byte	0x23
 4358 02d3 00       		.uleb128 0
 4359 02d4 0D       		.uleb128 0xd
 4360 02d5 16050000 		.4byte	.LASF47
 4361 02d9 07       		.byte	0x7
 4362 02da 5F       		.byte	0x5f
 4363 02db 2C000000 		.4byte	0x2c
 4364 02df 02       		.byte	0x2
 4365 02e0 23       		.byte	0x23
 4366 02e1 04       		.uleb128 0x4
 4367 02e2 0D       		.uleb128 0xd
 4368 02e3 02030000 		.4byte	.LASF48
 4369 02e7 07       		.byte	0x7
 4370 02e8 61       		.byte	0x61
 4371 02e9 06030000 		.4byte	0x306
 4372 02ed 02       		.byte	0x2
 4373 02ee 23       		.byte	0x23
 4374 02ef 08       		.uleb128 0x8
 4375 02f0 0D       		.uleb128 0xd
 4376 02f1 80000000 		.4byte	.LASF41
 4377 02f5 07       		.byte	0x7
 4378 02f6 62       		.byte	0x62
 4379 02f7 60020000 		.4byte	0x260
 4380 02fb 03       		.byte	0x3
 4381 02fc 23       		.byte	0x23
 4382 02fd 8801     		.uleb128 0x88
 4383 02ff 00       		.byte	0
 4384 0300 05       		.uleb128 0x5
 4385 0301 04       		.byte	0x4
ARM GAS  C:\Users\claym\AppData\Local\Temp\ccxpUFUu.s 			page 116


 4386 0302 B9020000 		.4byte	0x2b9
 4387 0306 0A       		.uleb128 0xa
 4388 0307 16030000 		.4byte	0x316
 4389 030b 16030000 		.4byte	0x316
 4390 030f 0B       		.uleb128 0xb
 4391 0310 25000000 		.4byte	0x25
 4392 0314 1F       		.byte	0x1f
 4393 0315 00       		.byte	0
 4394 0316 05       		.uleb128 0x5
 4395 0317 04       		.byte	0x4
 4396 0318 1C030000 		.4byte	0x31c
 4397 031c 13       		.uleb128 0x13
 4398 031d 01       		.byte	0x1
 4399 031e 10       		.uleb128 0x10
 4400 031f 360D0000 		.4byte	.LASF49
 4401 0323 08       		.byte	0x8
 4402 0324 07       		.byte	0x7
 4403 0325 75       		.byte	0x75
 4404 0326 47030000 		.4byte	0x347
 4405 032a 0D       		.uleb128 0xd
 4406 032b C0060000 		.4byte	.LASF50
 4407 032f 07       		.byte	0x7
 4408 0330 76       		.byte	0x76
 4409 0331 47030000 		.4byte	0x347
 4410 0335 02       		.byte	0x2
 4411 0336 23       		.byte	0x23
 4412 0337 00       		.uleb128 0
 4413 0338 0D       		.uleb128 0xd
 4414 0339 2A0E0000 		.4byte	.LASF51
 4415 033d 07       		.byte	0x7
 4416 033e 77       		.byte	0x77
 4417 033f 2C000000 		.4byte	0x2c
 4418 0343 02       		.byte	0x2
 4419 0344 23       		.byte	0x23
 4420 0345 04       		.uleb128 0x4
 4421 0346 00       		.byte	0
 4422 0347 05       		.uleb128 0x5
 4423 0348 04       		.byte	0x4
 4424 0349 53000000 		.4byte	0x53
 4425 034d 10       		.uleb128 0x10
 4426 034e 0B040000 		.4byte	.LASF52
 4427 0352 68       		.byte	0x68
 4428 0353 07       		.byte	0x7
 4429 0354 B5       		.byte	0xb5
 4430 0355 A7040000 		.4byte	0x4a7
 4431 0359 11       		.uleb128 0x11
 4432 035a 5F7000   		.ascii	"_p\000"
 4433 035d 07       		.byte	0x7
 4434 035e B6       		.byte	0xb6
 4435 035f 47030000 		.4byte	0x347
 4436 0363 02       		.byte	0x2
 4437 0364 23       		.byte	0x23
 4438 0365 00       		.uleb128 0
 4439 0366 11       		.uleb128 0x11
 4440 0367 5F7200   		.ascii	"_r\000"
 4441 036a 07       		.byte	0x7
 4442 036b B7       		.byte	0xb7
ARM GAS  C:\Users\claym\AppData\Local\Temp\ccxpUFUu.s 			page 117


 4443 036c 2C000000 		.4byte	0x2c
 4444 0370 02       		.byte	0x2
 4445 0371 23       		.byte	0x23
 4446 0372 04       		.uleb128 0x4
 4447 0373 11       		.uleb128 0x11
 4448 0374 5F7700   		.ascii	"_w\000"
 4449 0377 07       		.byte	0x7
 4450 0378 B8       		.byte	0xb8
 4451 0379 2C000000 		.4byte	0x2c
 4452 037d 02       		.byte	0x2
 4453 037e 23       		.byte	0x23
 4454 037f 08       		.uleb128 0x8
 4455 0380 0D       		.uleb128 0xd
 4456 0381 7D010000 		.4byte	.LASF53
 4457 0385 07       		.byte	0x7
 4458 0386 B9       		.byte	0xb9
 4459 0387 5A000000 		.4byte	0x5a
 4460 038b 02       		.byte	0x2
 4461 038c 23       		.byte	0x23
 4462 038d 0C       		.uleb128 0xc
 4463 038e 0D       		.uleb128 0xd
 4464 038f 10070000 		.4byte	.LASF54
 4465 0393 07       		.byte	0x7
 4466 0394 BA       		.byte	0xba
 4467 0395 5A000000 		.4byte	0x5a
 4468 0399 02       		.byte	0x2
 4469 039a 23       		.byte	0x23
 4470 039b 0E       		.uleb128 0xe
 4471 039c 11       		.uleb128 0x11
 4472 039d 5F626600 		.ascii	"_bf\000"
 4473 03a1 07       		.byte	0x7
 4474 03a2 BB       		.byte	0xbb
 4475 03a3 1E030000 		.4byte	0x31e
 4476 03a7 02       		.byte	0x2
 4477 03a8 23       		.byte	0x23
 4478 03a9 10       		.uleb128 0x10
 4479 03aa 0D       		.uleb128 0xd
 4480 03ab 74010000 		.4byte	.LASF55
 4481 03af 07       		.byte	0x7
 4482 03b0 BC       		.byte	0xbc
 4483 03b1 2C000000 		.4byte	0x2c
 4484 03b5 02       		.byte	0x2
 4485 03b6 23       		.byte	0x23
 4486 03b7 18       		.uleb128 0x18
 4487 03b8 0D       		.uleb128 0xd
 4488 03b9 0F030000 		.4byte	.LASF56
 4489 03bd 07       		.byte	0x7
 4490 03be C3       		.byte	0xc3
 4491 03bf 41010000 		.4byte	0x141
 4492 03c3 02       		.byte	0x2
 4493 03c4 23       		.byte	0x23
 4494 03c5 1C       		.uleb128 0x1c
 4495 03c6 0D       		.uleb128 0xd
 4496 03c7 05020000 		.4byte	.LASF57
 4497 03cb 07       		.byte	0x7
 4498 03cc C5       		.byte	0xc5
 4499 03cd 2F060000 		.4byte	0x62f
ARM GAS  C:\Users\claym\AppData\Local\Temp\ccxpUFUu.s 			page 118


 4500 03d1 02       		.byte	0x2
 4501 03d2 23       		.byte	0x23
 4502 03d3 20       		.uleb128 0x20
 4503 03d4 0D       		.uleb128 0xd
 4504 03d5 EA080000 		.4byte	.LASF58
 4505 03d9 07       		.byte	0x7
 4506 03da C7       		.byte	0xc7
 4507 03db 5A060000 		.4byte	0x65a
 4508 03df 02       		.byte	0x2
 4509 03e0 23       		.byte	0x23
 4510 03e1 24       		.uleb128 0x24
 4511 03e2 0D       		.uleb128 0xd
 4512 03e3 2F0F0000 		.4byte	.LASF59
 4513 03e7 07       		.byte	0x7
 4514 03e8 CA       		.byte	0xca
 4515 03e9 7F060000 		.4byte	0x67f
 4516 03ed 02       		.byte	0x2
 4517 03ee 23       		.byte	0x23
 4518 03ef 28       		.uleb128 0x28
 4519 03f0 0D       		.uleb128 0xd
 4520 03f1 4D060000 		.4byte	.LASF60
 4521 03f5 07       		.byte	0x7
 4522 03f6 CB       		.byte	0xcb
 4523 03f7 9A060000 		.4byte	0x69a
 4524 03fb 02       		.byte	0x2
 4525 03fc 23       		.byte	0x23
 4526 03fd 2C       		.uleb128 0x2c
 4527 03fe 11       		.uleb128 0x11
 4528 03ff 5F756200 		.ascii	"_ub\000"
 4529 0403 07       		.byte	0x7
 4530 0404 CE       		.byte	0xce
 4531 0405 1E030000 		.4byte	0x31e
 4532 0409 02       		.byte	0x2
 4533 040a 23       		.byte	0x23
 4534 040b 30       		.uleb128 0x30
 4535 040c 11       		.uleb128 0x11
 4536 040d 5F757000 		.ascii	"_up\000"
 4537 0411 07       		.byte	0x7
 4538 0412 CF       		.byte	0xcf
 4539 0413 47030000 		.4byte	0x347
 4540 0417 02       		.byte	0x2
 4541 0418 23       		.byte	0x23
 4542 0419 38       		.uleb128 0x38
 4543 041a 11       		.uleb128 0x11
 4544 041b 5F757200 		.ascii	"_ur\000"
 4545 041f 07       		.byte	0x7
 4546 0420 D0       		.byte	0xd0
 4547 0421 2C000000 		.4byte	0x2c
 4548 0425 02       		.byte	0x2
 4549 0426 23       		.byte	0x23
 4550 0427 3C       		.uleb128 0x3c
 4551 0428 0D       		.uleb128 0xd
 4552 0429 590F0000 		.4byte	.LASF61
 4553 042d 07       		.byte	0x7
 4554 042e D3       		.byte	0xd3
 4555 042f A0060000 		.4byte	0x6a0
 4556 0433 02       		.byte	0x2
ARM GAS  C:\Users\claym\AppData\Local\Temp\ccxpUFUu.s 			page 119


 4557 0434 23       		.byte	0x23
 4558 0435 40       		.uleb128 0x40
 4559 0436 0D       		.uleb128 0xd
 4560 0437 5A0E0000 		.4byte	.LASF62
 4561 043b 07       		.byte	0x7
 4562 043c D4       		.byte	0xd4
 4563 043d B0060000 		.4byte	0x6b0
 4564 0441 02       		.byte	0x2
 4565 0442 23       		.byte	0x23
 4566 0443 43       		.uleb128 0x43
 4567 0444 11       		.uleb128 0x11
 4568 0445 5F6C6200 		.ascii	"_lb\000"
 4569 0449 07       		.byte	0x7
 4570 044a D7       		.byte	0xd7
 4571 044b 1E030000 		.4byte	0x31e
 4572 044f 02       		.byte	0x2
 4573 0450 23       		.byte	0x23
 4574 0451 44       		.uleb128 0x44
 4575 0452 0D       		.uleb128 0xd
 4576 0453 950B0000 		.4byte	.LASF63
 4577 0457 07       		.byte	0x7
 4578 0458 DA       		.byte	0xda
 4579 0459 2C000000 		.4byte	0x2c
 4580 045d 02       		.byte	0x2
 4581 045e 23       		.byte	0x23
 4582 045f 4C       		.uleb128 0x4c
 4583 0460 0D       		.uleb128 0xd
 4584 0461 82040000 		.4byte	.LASF64
 4585 0465 07       		.byte	0x7
 4586 0466 DB       		.byte	0xdb
 4587 0467 B5000000 		.4byte	0xb5
 4588 046b 02       		.byte	0x2
 4589 046c 23       		.byte	0x23
 4590 046d 50       		.uleb128 0x50
 4591 046e 0D       		.uleb128 0xd
 4592 046f 820A0000 		.4byte	.LASF65
 4593 0473 07       		.byte	0x7
 4594 0474 DE       		.byte	0xde
 4595 0475 C6040000 		.4byte	0x4c6
 4596 0479 02       		.byte	0x2
 4597 047a 23       		.byte	0x23
 4598 047b 54       		.uleb128 0x54
 4599 047c 0D       		.uleb128 0xd
 4600 047d AA0B0000 		.4byte	.LASF66
 4601 0481 07       		.byte	0x7
 4602 0482 E2       		.byte	0xe2
 4603 0483 36010000 		.4byte	0x136
 4604 0487 02       		.byte	0x2
 4605 0488 23       		.byte	0x23
 4606 0489 58       		.uleb128 0x58
 4607 048a 0D       		.uleb128 0xd
 4608 048b ED010000 		.4byte	.LASF67
 4609 048f 07       		.byte	0x7
 4610 0490 E4       		.byte	0xe4
 4611 0491 2B010000 		.4byte	0x12b
 4612 0495 02       		.byte	0x2
 4613 0496 23       		.byte	0x23
ARM GAS  C:\Users\claym\AppData\Local\Temp\ccxpUFUu.s 			page 120


 4614 0497 5C       		.uleb128 0x5c
 4615 0498 0D       		.uleb128 0xd
 4616 0499 AE0E0000 		.4byte	.LASF68
 4617 049d 07       		.byte	0x7
 4618 049e E5       		.byte	0xe5
 4619 049f 2C000000 		.4byte	0x2c
 4620 04a3 02       		.byte	0x2
 4621 04a4 23       		.byte	0x23
 4622 04a5 64       		.uleb128 0x64
 4623 04a6 00       		.byte	0
 4624 04a7 14       		.uleb128 0x14
 4625 04a8 01       		.byte	0x1
 4626 04a9 2C000000 		.4byte	0x2c
 4627 04ad C6040000 		.4byte	0x4c6
 4628 04b1 15       		.uleb128 0x15
 4629 04b2 C6040000 		.4byte	0x4c6
 4630 04b6 15       		.uleb128 0x15
 4631 04b7 41010000 		.4byte	0x141
 4632 04bb 15       		.uleb128 0x15
 4633 04bc 43010000 		.4byte	0x143
 4634 04c0 15       		.uleb128 0x15
 4635 04c1 2C000000 		.4byte	0x2c
 4636 04c5 00       		.byte	0
 4637 04c6 05       		.uleb128 0x5
 4638 04c7 04       		.byte	0x4
 4639 04c8 D1040000 		.4byte	0x4d1
 4640 04cc 0F       		.uleb128 0xf
 4641 04cd C6040000 		.4byte	0x4c6
 4642 04d1 16       		.uleb128 0x16
 4643 04d2 EE0D0000 		.4byte	.LASF69
 4644 04d6 2804     		.2byte	0x428
 4645 04d8 07       		.byte	0x7
 4646 04d9 3902     		.2byte	0x239
 4647 04db 2F060000 		.4byte	0x62f
 4648 04df 17       		.uleb128 0x17
 4649 04e0 A4010000 		.4byte	.LASF70
 4650 04e4 07       		.byte	0x7
 4651 04e5 3B02     		.2byte	0x23b
 4652 04e7 2C000000 		.4byte	0x2c
 4653 04eb 02       		.byte	0x2
 4654 04ec 23       		.byte	0x23
 4655 04ed 00       		.uleb128 0
 4656 04ee 17       		.uleb128 0x17
 4657 04ef 9C060000 		.4byte	.LASF71
 4658 04f3 07       		.byte	0x7
 4659 04f4 4002     		.2byte	0x240
 4660 04f6 0D070000 		.4byte	0x70d
 4661 04fa 02       		.byte	0x2
 4662 04fb 23       		.byte	0x23
 4663 04fc 04       		.uleb128 0x4
 4664 04fd 17       		.uleb128 0x17
 4665 04fe E4020000 		.4byte	.LASF72
 4666 0502 07       		.byte	0x7
 4667 0503 4002     		.2byte	0x240
 4668 0505 0D070000 		.4byte	0x70d
 4669 0509 02       		.byte	0x2
 4670 050a 23       		.byte	0x23
ARM GAS  C:\Users\claym\AppData\Local\Temp\ccxpUFUu.s 			page 121


 4671 050b 08       		.uleb128 0x8
 4672 050c 17       		.uleb128 0x17
 4673 050d 480F0000 		.4byte	.LASF73
 4674 0511 07       		.byte	0x7
 4675 0512 4002     		.2byte	0x240
 4676 0514 0D070000 		.4byte	0x70d
 4677 0518 02       		.byte	0x2
 4678 0519 23       		.byte	0x23
 4679 051a 0C       		.uleb128 0xc
 4680 051b 17       		.uleb128 0x17
 4681 051c 11050000 		.4byte	.LASF74
 4682 0520 07       		.byte	0x7
 4683 0521 4202     		.2byte	0x242
 4684 0523 2C000000 		.4byte	0x2c
 4685 0527 02       		.byte	0x2
 4686 0528 23       		.byte	0x23
 4687 0529 10       		.uleb128 0x10
 4688 052a 17       		.uleb128 0x17
 4689 052b 97040000 		.4byte	.LASF75
 4690 052f 07       		.byte	0x7
 4691 0530 4302     		.2byte	0x243
 4692 0532 28090000 		.4byte	0x928
 4693 0536 02       		.byte	0x2
 4694 0537 23       		.byte	0x23
 4695 0538 14       		.uleb128 0x14
 4696 0539 17       		.uleb128 0x17
 4697 053a 850E0000 		.4byte	.LASF76
 4698 053e 07       		.byte	0x7
 4699 053f 4602     		.2byte	0x246
 4700 0541 2C000000 		.4byte	0x2c
 4701 0545 02       		.byte	0x2
 4702 0546 23       		.byte	0x23
 4703 0547 30       		.uleb128 0x30
 4704 0548 17       		.uleb128 0x17
 4705 0549 A00D0000 		.4byte	.LASF77
 4706 054d 07       		.byte	0x7
 4707 054e 4702     		.2byte	0x247
 4708 0550 3E090000 		.4byte	0x93e
 4709 0554 02       		.byte	0x2
 4710 0555 23       		.byte	0x23
 4711 0556 34       		.uleb128 0x34
 4712 0557 17       		.uleb128 0x17
 4713 0558 5E060000 		.4byte	.LASF78
 4714 055c 07       		.byte	0x7
 4715 055d 4902     		.2byte	0x249
 4716 055f 2C000000 		.4byte	0x2c
 4717 0563 02       		.byte	0x2
 4718 0564 23       		.byte	0x23
 4719 0565 38       		.uleb128 0x38
 4720 0566 17       		.uleb128 0x17
 4721 0567 9B070000 		.4byte	.LASF79
 4722 056b 07       		.byte	0x7
 4723 056c 4B02     		.2byte	0x24b
 4724 056e 50090000 		.4byte	0x950
 4725 0572 02       		.byte	0x2
 4726 0573 23       		.byte	0x23
 4727 0574 3C       		.uleb128 0x3c
ARM GAS  C:\Users\claym\AppData\Local\Temp\ccxpUFUu.s 			page 122


 4728 0575 17       		.uleb128 0x17
 4729 0576 51030000 		.4byte	.LASF80
 4730 057a 07       		.byte	0x7
 4731 057b 4E02     		.2byte	0x24e
 4732 057d BF010000 		.4byte	0x1bf
 4733 0581 02       		.byte	0x2
 4734 0582 23       		.byte	0x23
 4735 0583 40       		.uleb128 0x40
 4736 0584 17       		.uleb128 0x17
 4737 0585 D7030000 		.4byte	.LASF81
 4738 0589 07       		.byte	0x7
 4739 058a 4F02     		.2byte	0x24f
 4740 058c 2C000000 		.4byte	0x2c
 4741 0590 02       		.byte	0x2
 4742 0591 23       		.byte	0x23
 4743 0592 44       		.uleb128 0x44
 4744 0593 17       		.uleb128 0x17
 4745 0594 70050000 		.4byte	.LASF82
 4746 0598 07       		.byte	0x7
 4747 0599 5002     		.2byte	0x250
 4748 059b BF010000 		.4byte	0x1bf
 4749 059f 02       		.byte	0x2
 4750 05a0 23       		.byte	0x23
 4751 05a1 48       		.uleb128 0x48
 4752 05a2 17       		.uleb128 0x17
 4753 05a3 D1060000 		.4byte	.LASF83
 4754 05a7 07       		.byte	0x7
 4755 05a8 5102     		.2byte	0x251
 4756 05aa 56090000 		.4byte	0x956
 4757 05ae 02       		.byte	0x2
 4758 05af 23       		.byte	0x23
 4759 05b0 4C       		.uleb128 0x4c
 4760 05b1 17       		.uleb128 0x17
 4761 05b2 2F0B0000 		.4byte	.LASF84
 4762 05b6 07       		.byte	0x7
 4763 05b7 5402     		.2byte	0x254
 4764 05b9 2C000000 		.4byte	0x2c
 4765 05bd 02       		.byte	0x2
 4766 05be 23       		.byte	0x23
 4767 05bf 50       		.uleb128 0x50
 4768 05c0 17       		.uleb128 0x17
 4769 05c1 890C0000 		.4byte	.LASF85
 4770 05c5 07       		.byte	0x7
 4771 05c6 5502     		.2byte	0x255
 4772 05c8 43010000 		.4byte	0x143
 4773 05cc 02       		.byte	0x2
 4774 05cd 23       		.byte	0x23
 4775 05ce 54       		.uleb128 0x54
 4776 05cf 17       		.uleb128 0x17
 4777 05d0 2A0B0000 		.4byte	.LASF86
 4778 05d4 07       		.byte	0x7
 4779 05d5 7802     		.2byte	0x278
 4780 05d7 06090000 		.4byte	0x906
 4781 05db 02       		.byte	0x2
 4782 05dc 23       		.byte	0x23
 4783 05dd 58       		.uleb128 0x58
 4784 05de 17       		.uleb128 0x17
ARM GAS  C:\Users\claym\AppData\Local\Temp\ccxpUFUu.s 			page 123


 4785 05df 25090000 		.4byte	.LASF46
 4786 05e3 07       		.byte	0x7
 4787 05e4 7C02     		.2byte	0x27c
 4788 05e6 00030000 		.4byte	0x300
 4789 05ea 03       		.byte	0x3
 4790 05eb 23       		.byte	0x23
 4791 05ec C802     		.uleb128 0x148
 4792 05ee 17       		.uleb128 0x17
 4793 05ef CB050000 		.4byte	.LASF87
 4794 05f3 07       		.byte	0x7
 4795 05f4 7D02     		.2byte	0x27d
 4796 05f6 B9020000 		.4byte	0x2b9
 4797 05fa 03       		.byte	0x3
 4798 05fb 23       		.byte	0x23
 4799 05fc CC02     		.uleb128 0x14c
 4800 05fe 17       		.uleb128 0x17
 4801 05ff B2050000 		.4byte	.LASF88
 4802 0603 07       		.byte	0x7
 4803 0604 8102     		.2byte	0x281
 4804 0606 68090000 		.4byte	0x968
 4805 060a 03       		.byte	0x3
 4806 060b 23       		.byte	0x23
 4807 060c DC05     		.uleb128 0x2dc
 4808 060e 17       		.uleb128 0x17
 4809 060f 5C0D0000 		.4byte	.LASF89
 4810 0613 07       		.byte	0x7
 4811 0614 8602     		.2byte	0x286
 4812 0616 CC060000 		.4byte	0x6cc
 4813 061a 03       		.byte	0x3
 4814 061b 23       		.byte	0x23
 4815 061c E005     		.uleb128 0x2e0
 4816 061e 17       		.uleb128 0x17
 4817 061f 600A0000 		.4byte	.LASF90
 4818 0623 07       		.byte	0x7
 4819 0624 8802     		.2byte	0x288
 4820 0626 74090000 		.4byte	0x974
 4821 062a 03       		.byte	0x3
 4822 062b 23       		.byte	0x23
 4823 062c EC05     		.uleb128 0x2ec
 4824 062e 00       		.byte	0
 4825 062f 05       		.uleb128 0x5
 4826 0630 04       		.byte	0x4
 4827 0631 A7040000 		.4byte	0x4a7
 4828 0635 14       		.uleb128 0x14
 4829 0636 01       		.byte	0x1
 4830 0637 2C000000 		.4byte	0x2c
 4831 063b 54060000 		.4byte	0x654
 4832 063f 15       		.uleb128 0x15
 4833 0640 C6040000 		.4byte	0x4c6
 4834 0644 15       		.uleb128 0x15
 4835 0645 41010000 		.4byte	0x141
 4836 0649 15       		.uleb128 0x15
 4837 064a 54060000 		.4byte	0x654
 4838 064e 15       		.uleb128 0x15
 4839 064f 2C000000 		.4byte	0x2c
 4840 0653 00       		.byte	0
 4841 0654 05       		.uleb128 0x5
ARM GAS  C:\Users\claym\AppData\Local\Temp\ccxpUFUu.s 			page 124


 4842 0655 04       		.byte	0x4
 4843 0656 50010000 		.4byte	0x150
 4844 065a 05       		.uleb128 0x5
 4845 065b 04       		.byte	0x4
 4846 065c 35060000 		.4byte	0x635
 4847 0660 14       		.uleb128 0x14
 4848 0661 01       		.byte	0x1
 4849 0662 C0000000 		.4byte	0xc0
 4850 0666 7F060000 		.4byte	0x67f
 4851 066a 15       		.uleb128 0x15
 4852 066b C6040000 		.4byte	0x4c6
 4853 066f 15       		.uleb128 0x15
 4854 0670 41010000 		.4byte	0x141
 4855 0674 15       		.uleb128 0x15
 4856 0675 C0000000 		.4byte	0xc0
 4857 0679 15       		.uleb128 0x15
 4858 067a 2C000000 		.4byte	0x2c
 4859 067e 00       		.byte	0
 4860 067f 05       		.uleb128 0x5
 4861 0680 04       		.byte	0x4
 4862 0681 60060000 		.4byte	0x660
 4863 0685 14       		.uleb128 0x14
 4864 0686 01       		.byte	0x1
 4865 0687 2C000000 		.4byte	0x2c
 4866 068b 9A060000 		.4byte	0x69a
 4867 068f 15       		.uleb128 0x15
 4868 0690 C6040000 		.4byte	0x4c6
 4869 0694 15       		.uleb128 0x15
 4870 0695 41010000 		.4byte	0x141
 4871 0699 00       		.byte	0
 4872 069a 05       		.uleb128 0x5
 4873 069b 04       		.byte	0x4
 4874 069c 85060000 		.4byte	0x685
 4875 06a0 0A       		.uleb128 0xa
 4876 06a1 53000000 		.4byte	0x53
 4877 06a5 B0060000 		.4byte	0x6b0
 4878 06a9 0B       		.uleb128 0xb
 4879 06aa 25000000 		.4byte	0x25
 4880 06ae 02       		.byte	0x2
 4881 06af 00       		.byte	0
 4882 06b0 0A       		.uleb128 0xa
 4883 06b1 53000000 		.4byte	0x53
 4884 06b5 C0060000 		.4byte	0x6c0
 4885 06b9 0B       		.uleb128 0xb
 4886 06ba 25000000 		.4byte	0x25
 4887 06be 00       		.byte	0
 4888 06bf 00       		.byte	0
 4889 06c0 07       		.uleb128 0x7
 4890 06c1 54040000 		.4byte	.LASF91
 4891 06c5 07       		.byte	0x7
 4892 06c6 1F01     		.2byte	0x11f
 4893 06c8 4D030000 		.4byte	0x34d
 4894 06cc 18       		.uleb128 0x18
 4895 06cd 470D0000 		.4byte	.LASF92
 4896 06d1 0C       		.byte	0xc
 4897 06d2 07       		.byte	0x7
 4898 06d3 2301     		.2byte	0x123
ARM GAS  C:\Users\claym\AppData\Local\Temp\ccxpUFUu.s 			page 125


 4899 06d5 07070000 		.4byte	0x707
 4900 06d9 17       		.uleb128 0x17
 4901 06da 2D050000 		.4byte	.LASF26
 4902 06de 07       		.byte	0x7
 4903 06df 2501     		.2byte	0x125
 4904 06e1 07070000 		.4byte	0x707
 4905 06e5 02       		.byte	0x2
 4906 06e6 23       		.byte	0x23
 4907 06e7 00       		.uleb128 0
 4908 06e8 17       		.uleb128 0x17
 4909 06e9 040C0000 		.4byte	.LASF93
 4910 06ed 07       		.byte	0x7
 4911 06ee 2601     		.2byte	0x126
 4912 06f0 2C000000 		.4byte	0x2c
 4913 06f4 02       		.byte	0x2
 4914 06f5 23       		.byte	0x23
 4915 06f6 04       		.uleb128 0x4
 4916 06f7 17       		.uleb128 0x17
 4917 06f8 26060000 		.4byte	.LASF94
 4918 06fc 07       		.byte	0x7
 4919 06fd 2701     		.2byte	0x127
 4920 06ff 0D070000 		.4byte	0x70d
 4921 0703 02       		.byte	0x2
 4922 0704 23       		.byte	0x23
 4923 0705 08       		.uleb128 0x8
 4924 0706 00       		.byte	0
 4925 0707 05       		.uleb128 0x5
 4926 0708 04       		.byte	0x4
 4927 0709 CC060000 		.4byte	0x6cc
 4928 070d 05       		.uleb128 0x5
 4929 070e 04       		.byte	0x4
 4930 070f C0060000 		.4byte	0x6c0
 4931 0713 18       		.uleb128 0x18
 4932 0714 C7030000 		.4byte	.LASF95
 4933 0718 0E       		.byte	0xe
 4934 0719 07       		.byte	0x7
 4935 071a 3F01     		.2byte	0x13f
 4936 071c 4E070000 		.4byte	0x74e
 4937 0720 17       		.uleb128 0x17
 4938 0721 F10E0000 		.4byte	.LASF96
 4939 0725 07       		.byte	0x7
 4940 0726 4001     		.2byte	0x140
 4941 0728 4E070000 		.4byte	0x74e
 4942 072c 02       		.byte	0x2
 4943 072d 23       		.byte	0x23
 4944 072e 00       		.uleb128 0
 4945 072f 17       		.uleb128 0x17
 4946 0730 E9060000 		.4byte	.LASF97
 4947 0734 07       		.byte	0x7
 4948 0735 4101     		.2byte	0x141
 4949 0737 4E070000 		.4byte	0x74e
 4950 073b 02       		.byte	0x2
 4951 073c 23       		.byte	0x23
 4952 073d 06       		.uleb128 0x6
 4953 073e 17       		.uleb128 0x17
 4954 073f 230D0000 		.4byte	.LASF98
 4955 0743 07       		.byte	0x7
ARM GAS  C:\Users\claym\AppData\Local\Temp\ccxpUFUu.s 			page 126


 4956 0744 4201     		.2byte	0x142
 4957 0746 6C000000 		.4byte	0x6c
 4958 074a 02       		.byte	0x2
 4959 074b 23       		.byte	0x23
 4960 074c 0C       		.uleb128 0xc
 4961 074d 00       		.byte	0
 4962 074e 0A       		.uleb128 0xa
 4963 074f 6C000000 		.4byte	0x6c
 4964 0753 5E070000 		.4byte	0x75e
 4965 0757 0B       		.uleb128 0xb
 4966 0758 25000000 		.4byte	0x25
 4967 075c 02       		.byte	0x2
 4968 075d 00       		.byte	0
 4969 075e 19       		.uleb128 0x19
 4970 075f D0       		.byte	0xd0
 4971 0760 07       		.byte	0x7
 4972 0761 5902     		.2byte	0x259
 4973 0763 8E080000 		.4byte	0x88e
 4974 0767 17       		.uleb128 0x17
 4975 0768 600E0000 		.4byte	.LASF99
 4976 076c 07       		.byte	0x7
 4977 076d 5B02     		.2byte	0x25b
 4978 076f 25000000 		.4byte	0x25
 4979 0773 02       		.byte	0x2
 4980 0774 23       		.byte	0x23
 4981 0775 00       		.uleb128 0
 4982 0776 17       		.uleb128 0x17
 4983 0777 710D0000 		.4byte	.LASF100
 4984 077b 07       		.byte	0x7
 4985 077c 5C02     		.2byte	0x25c
 4986 077e 43010000 		.4byte	0x143
 4987 0782 02       		.byte	0x2
 4988 0783 23       		.byte	0x23
 4989 0784 04       		.uleb128 0x4
 4990 0785 17       		.uleb128 0x17
 4991 0786 FE030000 		.4byte	.LASF101
 4992 078a 07       		.byte	0x7
 4993 078b 5D02     		.2byte	0x25d
 4994 078d 8E080000 		.4byte	0x88e
 4995 0791 02       		.byte	0x2
 4996 0792 23       		.byte	0x23
 4997 0793 08       		.uleb128 0x8
 4998 0794 17       		.uleb128 0x17
 4999 0795 FF0A0000 		.4byte	.LASF102
 5000 0799 07       		.byte	0x7
 5001 079a 5E02     		.2byte	0x25e
 5002 079c D5010000 		.4byte	0x1d5
 5003 07a0 02       		.byte	0x2
 5004 07a1 23       		.byte	0x23
 5005 07a2 24       		.uleb128 0x24
 5006 07a3 17       		.uleb128 0x17
 5007 07a4 A3060000 		.4byte	.LASF103
 5008 07a8 07       		.byte	0x7
 5009 07a9 5F02     		.2byte	0x25f
 5010 07ab 2C000000 		.4byte	0x2c
 5011 07af 02       		.byte	0x2
 5012 07b0 23       		.byte	0x23
ARM GAS  C:\Users\claym\AppData\Local\Temp\ccxpUFUu.s 			page 127


 5013 07b1 48       		.uleb128 0x48
 5014 07b2 17       		.uleb128 0x17
 5015 07b3 080F0000 		.4byte	.LASF104
 5016 07b7 07       		.byte	0x7
 5017 07b8 6002     		.2byte	0x260
 5018 07ba 97000000 		.4byte	0x97
 5019 07be 02       		.byte	0x2
 5020 07bf 23       		.byte	0x23
 5021 07c0 50       		.uleb128 0x50
 5022 07c1 17       		.uleb128 0x17
 5023 07c2 F3000000 		.4byte	.LASF105
 5024 07c6 07       		.byte	0x7
 5025 07c7 6102     		.2byte	0x261
 5026 07c9 13070000 		.4byte	0x713
 5027 07cd 02       		.byte	0x2
 5028 07ce 23       		.byte	0x23
 5029 07cf 58       		.uleb128 0x58
 5030 07d0 17       		.uleb128 0x17
 5031 07d1 96050000 		.4byte	.LASF106
 5032 07d5 07       		.byte	0x7
 5033 07d6 6202     		.2byte	0x262
 5034 07d8 2B010000 		.4byte	0x12b
 5035 07dc 02       		.byte	0x2
 5036 07dd 23       		.byte	0x23
 5037 07de 68       		.uleb128 0x68
 5038 07df 17       		.uleb128 0x17
 5039 07e0 7E0D0000 		.4byte	.LASF107
 5040 07e4 07       		.byte	0x7
 5041 07e5 6302     		.2byte	0x263
 5042 07e7 2B010000 		.4byte	0x12b
 5043 07eb 02       		.byte	0x2
 5044 07ec 23       		.byte	0x23
 5045 07ed 70       		.uleb128 0x70
 5046 07ee 17       		.uleb128 0x17
 5047 07ef BA000000 		.4byte	.LASF108
 5048 07f3 07       		.byte	0x7
 5049 07f4 6402     		.2byte	0x264
 5050 07f6 2B010000 		.4byte	0x12b
 5051 07fa 02       		.byte	0x2
 5052 07fb 23       		.byte	0x23
 5053 07fc 78       		.uleb128 0x78
 5054 07fd 17       		.uleb128 0x17
 5055 07fe 3F0B0000 		.4byte	.LASF109
 5056 0802 07       		.byte	0x7
 5057 0803 6502     		.2byte	0x265
 5058 0805 9E080000 		.4byte	0x89e
 5059 0809 03       		.byte	0x3
 5060 080a 23       		.byte	0x23
 5061 080b 8001     		.uleb128 0x80
 5062 080d 17       		.uleb128 0x17
 5063 080e 0F010000 		.4byte	.LASF110
 5064 0812 07       		.byte	0x7
 5065 0813 6602     		.2byte	0x266
 5066 0815 AE080000 		.4byte	0x8ae
 5067 0819 03       		.byte	0x3
 5068 081a 23       		.byte	0x23
 5069 081b 8801     		.uleb128 0x88
ARM GAS  C:\Users\claym\AppData\Local\Temp\ccxpUFUu.s 			page 128


 5070 081d 17       		.uleb128 0x17
 5071 081e DC0C0000 		.4byte	.LASF111
 5072 0822 07       		.byte	0x7
 5073 0823 6702     		.2byte	0x267
 5074 0825 2C000000 		.4byte	0x2c
 5075 0829 03       		.byte	0x3
 5076 082a 23       		.byte	0x23
 5077 082b A001     		.uleb128 0xa0
 5078 082d 17       		.uleb128 0x17
 5079 082e 32020000 		.4byte	.LASF112
 5080 0832 07       		.byte	0x7
 5081 0833 6802     		.2byte	0x268
 5082 0835 2B010000 		.4byte	0x12b
 5083 0839 03       		.byte	0x3
 5084 083a 23       		.byte	0x23
 5085 083b A401     		.uleb128 0xa4
 5086 083d 17       		.uleb128 0x17
 5087 083e BC050000 		.4byte	.LASF113
 5088 0842 07       		.byte	0x7
 5089 0843 6902     		.2byte	0x269
 5090 0845 2B010000 		.4byte	0x12b
 5091 0849 03       		.byte	0x3
 5092 084a 23       		.byte	0x23
 5093 084b AC01     		.uleb128 0xac
 5094 084d 17       		.uleb128 0x17
 5095 084e 3C050000 		.4byte	.LASF114
 5096 0852 07       		.byte	0x7
 5097 0853 6A02     		.2byte	0x26a
 5098 0855 2B010000 		.4byte	0x12b
 5099 0859 03       		.byte	0x3
 5100 085a 23       		.byte	0x23
 5101 085b B401     		.uleb128 0xb4
 5102 085d 17       		.uleb128 0x17
 5103 085e F7060000 		.4byte	.LASF115
 5104 0862 07       		.byte	0x7
 5105 0863 6B02     		.2byte	0x26b
 5106 0865 2B010000 		.4byte	0x12b
 5107 0869 03       		.byte	0x3
 5108 086a 23       		.byte	0x23
 5109 086b BC01     		.uleb128 0xbc
 5110 086d 17       		.uleb128 0x17
 5111 086e 85050000 		.4byte	.LASF116
 5112 0872 07       		.byte	0x7
 5113 0873 6C02     		.2byte	0x26c
 5114 0875 2B010000 		.4byte	0x12b
 5115 0879 03       		.byte	0x3
 5116 087a 23       		.byte	0x23
 5117 087b C401     		.uleb128 0xc4
 5118 087d 17       		.uleb128 0x17
 5119 087e 48080000 		.4byte	.LASF117
 5120 0882 07       		.byte	0x7
 5121 0883 6D02     		.2byte	0x26d
 5122 0885 2C000000 		.4byte	0x2c
 5123 0889 03       		.byte	0x3
 5124 088a 23       		.byte	0x23
 5125 088b CC01     		.uleb128 0xcc
 5126 088d 00       		.byte	0
ARM GAS  C:\Users\claym\AppData\Local\Temp\ccxpUFUu.s 			page 129


 5127 088e 0A       		.uleb128 0xa
 5128 088f 49010000 		.4byte	0x149
 5129 0893 9E080000 		.4byte	0x89e
 5130 0897 0B       		.uleb128 0xb
 5131 0898 25000000 		.4byte	0x25
 5132 089c 19       		.byte	0x19
 5133 089d 00       		.byte	0
 5134 089e 0A       		.uleb128 0xa
 5135 089f 49010000 		.4byte	0x149
 5136 08a3 AE080000 		.4byte	0x8ae
 5137 08a7 0B       		.uleb128 0xb
 5138 08a8 25000000 		.4byte	0x25
 5139 08ac 07       		.byte	0x7
 5140 08ad 00       		.byte	0
 5141 08ae 0A       		.uleb128 0xa
 5142 08af 49010000 		.4byte	0x149
 5143 08b3 BE080000 		.4byte	0x8be
 5144 08b7 0B       		.uleb128 0xb
 5145 08b8 25000000 		.4byte	0x25
 5146 08bc 17       		.byte	0x17
 5147 08bd 00       		.byte	0
 5148 08be 19       		.uleb128 0x19
 5149 08bf F0       		.byte	0xf0
 5150 08c0 07       		.byte	0x7
 5151 08c1 7202     		.2byte	0x272
 5152 08c3 E6080000 		.4byte	0x8e6
 5153 08c7 17       		.uleb128 0x17
 5154 08c8 A7030000 		.4byte	.LASF118
 5155 08cc 07       		.byte	0x7
 5156 08cd 7502     		.2byte	0x275
 5157 08cf E6080000 		.4byte	0x8e6
 5158 08d3 02       		.byte	0x2
 5159 08d4 23       		.byte	0x23
 5160 08d5 00       		.uleb128 0
 5161 08d6 17       		.uleb128 0x17
 5162 08d7 500F0000 		.4byte	.LASF119
 5163 08db 07       		.byte	0x7
 5164 08dc 7602     		.2byte	0x276
 5165 08de F6080000 		.4byte	0x8f6
 5166 08e2 02       		.byte	0x2
 5167 08e3 23       		.byte	0x23
 5168 08e4 78       		.uleb128 0x78
 5169 08e5 00       		.byte	0
 5170 08e6 0A       		.uleb128 0xa
 5171 08e7 47030000 		.4byte	0x347
 5172 08eb F6080000 		.4byte	0x8f6
 5173 08ef 0B       		.uleb128 0xb
 5174 08f0 25000000 		.4byte	0x25
 5175 08f4 1D       		.byte	0x1d
 5176 08f5 00       		.byte	0
 5177 08f6 0A       		.uleb128 0xa
 5178 08f7 25000000 		.4byte	0x25
 5179 08fb 06090000 		.4byte	0x906
 5180 08ff 0B       		.uleb128 0xb
 5181 0900 25000000 		.4byte	0x25
 5182 0904 1D       		.byte	0x1d
 5183 0905 00       		.byte	0
ARM GAS  C:\Users\claym\AppData\Local\Temp\ccxpUFUu.s 			page 130


 5184 0906 1A       		.uleb128 0x1a
 5185 0907 F0       		.byte	0xf0
 5186 0908 07       		.byte	0x7
 5187 0909 5702     		.2byte	0x257
 5188 090b 28090000 		.4byte	0x928
 5189 090f 1B       		.uleb128 0x1b
 5190 0910 EE0D0000 		.4byte	.LASF69
 5191 0914 07       		.byte	0x7
 5192 0915 6E02     		.2byte	0x26e
 5193 0917 5E070000 		.4byte	0x75e
 5194 091b 1B       		.uleb128 0x1b
 5195 091c 180B0000 		.4byte	.LASF120
 5196 0920 07       		.byte	0x7
 5197 0921 7702     		.2byte	0x277
 5198 0923 BE080000 		.4byte	0x8be
 5199 0927 00       		.byte	0
 5200 0928 0A       		.uleb128 0xa
 5201 0929 49010000 		.4byte	0x149
 5202 092d 38090000 		.4byte	0x938
 5203 0931 0B       		.uleb128 0xb
 5204 0932 25000000 		.4byte	0x25
 5205 0936 18       		.byte	0x18
 5206 0937 00       		.byte	0
 5207 0938 06       		.uleb128 0x6
 5208 0939 240F0000 		.4byte	.LASF122
 5209 093d 01       		.byte	0x1
 5210 093e 05       		.uleb128 0x5
 5211 093f 04       		.byte	0x4
 5212 0940 38090000 		.4byte	0x938
 5213 0944 1C       		.uleb128 0x1c
 5214 0945 01       		.byte	0x1
 5215 0946 50090000 		.4byte	0x950
 5216 094a 15       		.uleb128 0x15
 5217 094b C6040000 		.4byte	0x4c6
 5218 094f 00       		.byte	0
 5219 0950 05       		.uleb128 0x5
 5220 0951 04       		.byte	0x4
 5221 0952 44090000 		.4byte	0x944
 5222 0956 05       		.uleb128 0x5
 5223 0957 04       		.byte	0x4
 5224 0958 BF010000 		.4byte	0x1bf
 5225 095c 1C       		.uleb128 0x1c
 5226 095d 01       		.byte	0x1
 5227 095e 68090000 		.4byte	0x968
 5228 0962 15       		.uleb128 0x15
 5229 0963 2C000000 		.4byte	0x2c
 5230 0967 00       		.byte	0
 5231 0968 05       		.uleb128 0x5
 5232 0969 04       		.byte	0x4
 5233 096a 6E090000 		.4byte	0x96e
 5234 096e 05       		.uleb128 0x5
 5235 096f 04       		.byte	0x4
 5236 0970 5C090000 		.4byte	0x95c
 5237 0974 0A       		.uleb128 0xa
 5238 0975 C0060000 		.4byte	0x6c0
 5239 0979 84090000 		.4byte	0x984
 5240 097d 0B       		.uleb128 0xb
ARM GAS  C:\Users\claym\AppData\Local\Temp\ccxpUFUu.s 			page 131


 5241 097e 25000000 		.4byte	0x25
 5242 0982 02       		.byte	0x2
 5243 0983 00       		.byte	0
 5244 0984 1D       		.uleb128 0x1d
 5245 0985 9B030000 		.4byte	.LASF123
 5246 0989 07       		.byte	0x7
 5247 098a 0703     		.2byte	0x307
 5248 098c C6040000 		.4byte	0x4c6
 5249 0990 01       		.byte	0x1
 5250 0991 01       		.byte	0x1
 5251 0992 1D       		.uleb128 0x1d
 5252 0993 8F0A0000 		.4byte	.LASF124
 5253 0997 07       		.byte	0x7
 5254 0998 0803     		.2byte	0x308
 5255 099a CC040000 		.4byte	0x4cc
 5256 099e 01       		.byte	0x1
 5257 099f 01       		.byte	0x1
 5258 09a0 1E       		.uleb128 0x1e
 5259 09a1 FD040000 		.4byte	.LASF125
 5260 09a5 08       		.byte	0x8
 5261 09a6 63       		.byte	0x63
 5262 09a7 43010000 		.4byte	0x143
 5263 09ab 01       		.byte	0x1
 5264 09ac 01       		.byte	0x1
 5265 09ad 04       		.uleb128 0x4
 5266 09ae 2C060000 		.4byte	.LASF126
 5267 09b2 09       		.byte	0x9
 5268 09b3 18       		.byte	0x18
 5269 09b4 48000000 		.4byte	0x48
 5270 09b8 0F       		.uleb128 0xf
 5271 09b9 AD090000 		.4byte	0x9ad
 5272 09bd 04       		.uleb128 0x4
 5273 09be C9080000 		.4byte	.LASF127
 5274 09c2 09       		.byte	0x9
 5275 09c3 24       		.byte	0x24
 5276 09c4 61000000 		.4byte	0x61
 5277 09c8 04       		.uleb128 0x4
 5278 09c9 2B0C0000 		.4byte	.LASF128
 5279 09cd 09       		.byte	0x9
 5280 09ce 2C       		.byte	0x2c
 5281 09cf 73000000 		.4byte	0x73
 5282 09d3 04       		.uleb128 0x4
 5283 09d4 59030000 		.4byte	.LASF129
 5284 09d8 09       		.byte	0x9
 5285 09d9 30       		.byte	0x30
 5286 09da 85000000 		.4byte	0x85
 5287 09de 1F       		.uleb128 0x1f
 5288 09df D3090000 		.4byte	0x9d3
 5289 09e3 0F       		.uleb128 0xf
 5290 09e4 DE090000 		.4byte	0x9de
 5291 09e8 10       		.uleb128 0x10
 5292 09e9 8C0D0000 		.4byte	.LASF130
 5293 09ed 04       		.byte	0x4
 5294 09ee 0A       		.byte	0xa
 5295 09ef 2D       		.byte	0x2d
 5296 09f0 110A0000 		.4byte	0xa11
 5297 09f4 11       		.uleb128 0x11
ARM GAS  C:\Users\claym\AppData\Local\Temp\ccxpUFUu.s 			page 132


 5298 09f5 61706900 		.ascii	"api\000"
 5299 09f9 0A       		.byte	0xa
 5300 09fa 2E       		.byte	0x2e
 5301 09fb BD090000 		.4byte	0x9bd
 5302 09ff 02       		.byte	0x2
 5303 0a00 23       		.byte	0x23
 5304 0a01 00       		.uleb128 0
 5305 0a02 11       		.uleb128 0x11
 5306 0a03 64727600 		.ascii	"drv\000"
 5307 0a07 0A       		.byte	0xa
 5308 0a08 2F       		.byte	0x2f
 5309 0a09 BD090000 		.4byte	0x9bd
 5310 0a0d 02       		.byte	0x2
 5311 0a0e 23       		.byte	0x23
 5312 0a0f 02       		.uleb128 0x2
 5313 0a10 00       		.byte	0
 5314 0a11 04       		.uleb128 0x4
 5315 0a12 69060000 		.4byte	.LASF131
 5316 0a16 0A       		.byte	0xa
 5317 0a17 30       		.byte	0x30
 5318 0a18 E8090000 		.4byte	0x9e8
 5319 0a1c 0F       		.uleb128 0xf
 5320 0a1d 110A0000 		.4byte	0xa11
 5321 0a21 10       		.uleb128 0x10
 5322 0a22 75050000 		.4byte	.LASF132
 5323 0a26 04       		.byte	0x4
 5324 0a27 0B       		.byte	0xb
 5325 0a28 45       		.byte	0x45
 5326 0a29 B40A0000 		.4byte	0xab4
 5327 0a2d 20       		.uleb128 0x20
 5328 0a2e 547200   		.ascii	"Tr\000"
 5329 0a31 0B       		.byte	0xb
 5330 0a32 46       		.byte	0x46
 5331 0a33 D3090000 		.4byte	0x9d3
 5332 0a37 04       		.byte	0x4
 5333 0a38 04       		.byte	0x4
 5334 0a39 1C       		.byte	0x1c
 5335 0a3a 02       		.byte	0x2
 5336 0a3b 23       		.byte	0x23
 5337 0a3c 00       		.uleb128 0
 5338 0a3d 20       		.uleb128 0x20
 5339 0a3e 546600   		.ascii	"Tf\000"
 5340 0a41 0B       		.byte	0xb
 5341 0a42 47       		.byte	0x47
 5342 0a43 D3090000 		.4byte	0x9d3
 5343 0a47 04       		.byte	0x4
 5344 0a48 04       		.byte	0x4
 5345 0a49 18       		.byte	0x18
 5346 0a4a 02       		.byte	0x2
 5347 0a4b 23       		.byte	0x23
 5348 0a4c 00       		.uleb128 0
 5349 0a4d 21       		.uleb128 0x21
 5350 0a4e 4B030000 		.4byte	.LASF133
 5351 0a52 0B       		.byte	0xb
 5352 0a53 48       		.byte	0x48
 5353 0a54 D3090000 		.4byte	0x9d3
 5354 0a58 04       		.byte	0x4
ARM GAS  C:\Users\claym\AppData\Local\Temp\ccxpUFUu.s 			page 133


 5355 0a59 04       		.byte	0x4
 5356 0a5a 14       		.byte	0x14
 5357 0a5b 02       		.byte	0x2
 5358 0a5c 23       		.byte	0x23
 5359 0a5d 00       		.uleb128 0
 5360 0a5e 21       		.uleb128 0x21
 5361 0a5f C7010000 		.4byte	.LASF134
 5362 0a63 0B       		.byte	0xb
 5363 0a64 49       		.byte	0x49
 5364 0a65 D3090000 		.4byte	0x9d3
 5365 0a69 04       		.byte	0x4
 5366 0a6a 04       		.byte	0x4
 5367 0a6b 10       		.byte	0x10
 5368 0a6c 02       		.byte	0x2
 5369 0a6d 23       		.byte	0x23
 5370 0a6e 00       		.uleb128 0
 5371 0a6f 21       		.uleb128 0x21
 5372 0a70 82090000 		.4byte	.LASF135
 5373 0a74 0B       		.byte	0xb
 5374 0a75 4A       		.byte	0x4a
 5375 0a76 D3090000 		.4byte	0x9d3
 5376 0a7a 04       		.byte	0x4
 5377 0a7b 04       		.byte	0x4
 5378 0a7c 0C       		.byte	0xc
 5379 0a7d 02       		.byte	0x2
 5380 0a7e 23       		.byte	0x23
 5381 0a7f 00       		.uleb128 0
 5382 0a80 21       		.uleb128 0x21
 5383 0a81 780C0000 		.4byte	.LASF136
 5384 0a85 0B       		.byte	0xb
 5385 0a86 4B       		.byte	0x4b
 5386 0a87 D3090000 		.4byte	0x9d3
 5387 0a8b 04       		.byte	0x4
 5388 0a8c 04       		.byte	0x4
 5389 0a8d 08       		.byte	0x8
 5390 0a8e 02       		.byte	0x2
 5391 0a8f 23       		.byte	0x23
 5392 0a90 00       		.uleb128 0
 5393 0a91 21       		.uleb128 0x21
 5394 0a92 F10C0000 		.4byte	.LASF137
 5395 0a96 0B       		.byte	0xb
 5396 0a97 4C       		.byte	0x4c
 5397 0a98 D3090000 		.4byte	0x9d3
 5398 0a9c 04       		.byte	0x4
 5399 0a9d 04       		.byte	0x4
 5400 0a9e 04       		.byte	0x4
 5401 0a9f 02       		.byte	0x2
 5402 0aa0 23       		.byte	0x23
 5403 0aa1 00       		.uleb128 0
 5404 0aa2 21       		.uleb128 0x21
 5405 0aa3 D70C0000 		.4byte	.LASF138
 5406 0aa7 0B       		.byte	0xb
 5407 0aa8 4D       		.byte	0x4d
 5408 0aa9 D3090000 		.4byte	0x9d3
 5409 0aad 04       		.byte	0x4
 5410 0aae 04       		.byte	0x4
 5411 0aaf 00       		.byte	0
ARM GAS  C:\Users\claym\AppData\Local\Temp\ccxpUFUu.s 			page 134


 5412 0ab0 02       		.byte	0x2
 5413 0ab1 23       		.byte	0x23
 5414 0ab2 00       		.uleb128 0
 5415 0ab3 00       		.byte	0
 5416 0ab4 04       		.uleb128 0x4
 5417 0ab5 E1050000 		.4byte	.LASF139
 5418 0ab9 0B       		.byte	0xb
 5419 0aba 4E       		.byte	0x4e
 5420 0abb 210A0000 		.4byte	0xa21
 5421 0abf 10       		.uleb128 0x10
 5422 0ac0 A5080000 		.4byte	.LASF140
 5423 0ac4 04       		.byte	0x4
 5424 0ac5 0B       		.byte	0xb
 5425 0ac6 5E       		.byte	0x5e
 5426 0ac7 ED0B0000 		.4byte	0xbed
 5427 0acb 21       		.uleb128 0x21
 5428 0acc BB0B0000 		.4byte	.LASF141
 5429 0ad0 0B       		.byte	0xb
 5430 0ad1 5F       		.byte	0x5f
 5431 0ad2 D3090000 		.4byte	0x9d3
 5432 0ad6 04       		.byte	0x4
 5433 0ad7 01       		.byte	0x1
 5434 0ad8 1F       		.byte	0x1f
 5435 0ad9 02       		.byte	0x2
 5436 0ada 23       		.byte	0x23
 5437 0adb 00       		.uleb128 0
 5438 0adc 21       		.uleb128 0x21
 5439 0add 5C070000 		.4byte	.LASF142
 5440 0ae1 0B       		.byte	0xb
 5441 0ae2 60       		.byte	0x60
 5442 0ae3 D3090000 		.4byte	0x9d3
 5443 0ae7 04       		.byte	0x4
 5444 0ae8 01       		.byte	0x1
 5445 0ae9 1E       		.byte	0x1e
 5446 0aea 02       		.byte	0x2
 5447 0aeb 23       		.byte	0x23
 5448 0aec 00       		.uleb128 0
 5449 0aed 21       		.uleb128 0x21
 5450 0aee BF0C0000 		.4byte	.LASF143
 5451 0af2 0B       		.byte	0xb
 5452 0af3 61       		.byte	0x61
 5453 0af4 D3090000 		.4byte	0x9d3
 5454 0af8 04       		.byte	0x4
 5455 0af9 01       		.byte	0x1
 5456 0afa 1D       		.byte	0x1d
 5457 0afb 02       		.byte	0x2
 5458 0afc 23       		.byte	0x23
 5459 0afd 00       		.uleb128 0
 5460 0afe 21       		.uleb128 0x21
 5461 0aff 6D0E0000 		.4byte	.LASF144
 5462 0b03 0B       		.byte	0xb
 5463 0b04 62       		.byte	0x62
 5464 0b05 D3090000 		.4byte	0x9d3
 5465 0b09 04       		.byte	0x4
 5466 0b0a 01       		.byte	0x1
 5467 0b0b 1C       		.byte	0x1c
 5468 0b0c 02       		.byte	0x2
ARM GAS  C:\Users\claym\AppData\Local\Temp\ccxpUFUu.s 			page 135


 5469 0b0d 23       		.byte	0x23
 5470 0b0e 00       		.uleb128 0
 5471 0b0f 21       		.uleb128 0x21
 5472 0b10 3B060000 		.4byte	.LASF145
 5473 0b14 0B       		.byte	0xb
 5474 0b15 63       		.byte	0x63
 5475 0b16 D3090000 		.4byte	0x9d3
 5476 0b1a 04       		.byte	0x4
 5477 0b1b 01       		.byte	0x1
 5478 0b1c 1B       		.byte	0x1b
 5479 0b1d 02       		.byte	0x2
 5480 0b1e 23       		.byte	0x23
 5481 0b1f 00       		.uleb128 0
 5482 0b20 21       		.uleb128 0x21
 5483 0b21 0F0E0000 		.4byte	.LASF146
 5484 0b25 0B       		.byte	0xb
 5485 0b26 64       		.byte	0x64
 5486 0b27 D3090000 		.4byte	0x9d3
 5487 0b2b 04       		.byte	0x4
 5488 0b2c 01       		.byte	0x1
 5489 0b2d 1A       		.byte	0x1a
 5490 0b2e 02       		.byte	0x2
 5491 0b2f 23       		.byte	0x23
 5492 0b30 00       		.uleb128 0
 5493 0b31 21       		.uleb128 0x21
 5494 0b32 8E000000 		.4byte	.LASF147
 5495 0b36 0B       		.byte	0xb
 5496 0b37 65       		.byte	0x65
 5497 0b38 D3090000 		.4byte	0x9d3
 5498 0b3c 04       		.byte	0x4
 5499 0b3d 01       		.byte	0x1
 5500 0b3e 19       		.byte	0x19
 5501 0b3f 02       		.byte	0x2
 5502 0b40 23       		.byte	0x23
 5503 0b41 00       		.uleb128 0
 5504 0b42 21       		.uleb128 0x21
 5505 0b43 F1020000 		.4byte	.LASF148
 5506 0b47 0B       		.byte	0xb
 5507 0b48 66       		.byte	0x66
 5508 0b49 D3090000 		.4byte	0x9d3
 5509 0b4d 04       		.byte	0x4
 5510 0b4e 01       		.byte	0x1
 5511 0b4f 18       		.byte	0x18
 5512 0b50 02       		.byte	0x2
 5513 0b51 23       		.byte	0x23
 5514 0b52 00       		.uleb128 0
 5515 0b53 21       		.uleb128 0x21
 5516 0b54 FF080000 		.4byte	.LASF149
 5517 0b58 0B       		.byte	0xb
 5518 0b59 67       		.byte	0x67
 5519 0b5a D3090000 		.4byte	0x9d3
 5520 0b5e 04       		.byte	0x4
 5521 0b5f 01       		.byte	0x1
 5522 0b60 17       		.byte	0x17
 5523 0b61 02       		.byte	0x2
 5524 0b62 23       		.byte	0x23
 5525 0b63 00       		.uleb128 0
ARM GAS  C:\Users\claym\AppData\Local\Temp\ccxpUFUu.s 			page 136


 5526 0b64 21       		.uleb128 0x21
 5527 0b65 B0040000 		.4byte	.LASF150
 5528 0b69 0B       		.byte	0xb
 5529 0b6a 68       		.byte	0x68
 5530 0b6b D3090000 		.4byte	0x9d3
 5531 0b6f 04       		.byte	0x4
 5532 0b70 01       		.byte	0x1
 5533 0b71 16       		.byte	0x16
 5534 0b72 02       		.byte	0x2
 5535 0b73 23       		.byte	0x23
 5536 0b74 00       		.uleb128 0
 5537 0b75 21       		.uleb128 0x21
 5538 0b76 FC0B0000 		.4byte	.LASF151
 5539 0b7a 0B       		.byte	0xb
 5540 0b7b 69       		.byte	0x69
 5541 0b7c D3090000 		.4byte	0x9d3
 5542 0b80 04       		.byte	0x4
 5543 0b81 01       		.byte	0x1
 5544 0b82 15       		.byte	0x15
 5545 0b83 02       		.byte	0x2
 5546 0b84 23       		.byte	0x23
 5547 0b85 00       		.uleb128 0
 5548 0b86 21       		.uleb128 0x21
 5549 0b87 7D080000 		.4byte	.LASF152
 5550 0b8b 0B       		.byte	0xb
 5551 0b8c 6A       		.byte	0x6a
 5552 0b8d D3090000 		.4byte	0x9d3
 5553 0b91 04       		.byte	0x4
 5554 0b92 01       		.byte	0x1
 5555 0b93 14       		.byte	0x14
 5556 0b94 02       		.byte	0x2
 5557 0b95 23       		.byte	0x23
 5558 0b96 00       		.uleb128 0
 5559 0b97 21       		.uleb128 0x21
 5560 0b98 4D0D0000 		.4byte	.LASF153
 5561 0b9c 0B       		.byte	0xb
 5562 0b9d 6B       		.byte	0x6b
 5563 0b9e D3090000 		.4byte	0x9d3
 5564 0ba2 04       		.byte	0x4
 5565 0ba3 01       		.byte	0x1
 5566 0ba4 13       		.byte	0x13
 5567 0ba5 02       		.byte	0x2
 5568 0ba6 23       		.byte	0x23
 5569 0ba7 00       		.uleb128 0
 5570 0ba8 21       		.uleb128 0x21
 5571 0ba9 A30B0000 		.4byte	.LASF154
 5572 0bad 0B       		.byte	0xb
 5573 0bae 6C       		.byte	0x6c
 5574 0baf D3090000 		.4byte	0x9d3
 5575 0bb3 04       		.byte	0x4
 5576 0bb4 01       		.byte	0x1
 5577 0bb5 12       		.byte	0x12
 5578 0bb6 02       		.byte	0x2
 5579 0bb7 23       		.byte	0x23
 5580 0bb8 00       		.uleb128 0
 5581 0bb9 21       		.uleb128 0x21
 5582 0bba B70A0000 		.4byte	.LASF155
ARM GAS  C:\Users\claym\AppData\Local\Temp\ccxpUFUu.s 			page 137


 5583 0bbe 0B       		.byte	0xb
 5584 0bbf 6D       		.byte	0x6d
 5585 0bc0 D3090000 		.4byte	0x9d3
 5586 0bc4 04       		.byte	0x4
 5587 0bc5 01       		.byte	0x1
 5588 0bc6 11       		.byte	0x11
 5589 0bc7 02       		.byte	0x2
 5590 0bc8 23       		.byte	0x23
 5591 0bc9 00       		.uleb128 0
 5592 0bca 21       		.uleb128 0x21
 5593 0bcb 2D020000 		.4byte	.LASF156
 5594 0bcf 0B       		.byte	0xb
 5595 0bd0 6E       		.byte	0x6e
 5596 0bd1 D3090000 		.4byte	0x9d3
 5597 0bd5 04       		.byte	0x4
 5598 0bd6 01       		.byte	0x1
 5599 0bd7 10       		.byte	0x10
 5600 0bd8 02       		.byte	0x2
 5601 0bd9 23       		.byte	0x23
 5602 0bda 00       		.uleb128 0
 5603 0bdb 21       		.uleb128 0x21
 5604 0bdc 18000000 		.4byte	.LASF157
 5605 0be0 0B       		.byte	0xb
 5606 0be1 6F       		.byte	0x6f
 5607 0be2 D3090000 		.4byte	0x9d3
 5608 0be6 04       		.byte	0x4
 5609 0be7 01       		.byte	0x1
 5610 0be8 0F       		.byte	0xf
 5611 0be9 02       		.byte	0x2
 5612 0bea 23       		.byte	0x23
 5613 0beb 00       		.uleb128 0
 5614 0bec 00       		.byte	0
 5615 0bed 04       		.uleb128 0x4
 5616 0bee 06090000 		.4byte	.LASF158
 5617 0bf2 0B       		.byte	0xb
 5618 0bf3 70       		.byte	0x70
 5619 0bf4 BF0A0000 		.4byte	0xabf
 5620 0bf8 04       		.uleb128 0x4
 5621 0bf9 B1010000 		.4byte	.LASF159
 5622 0bfd 0B       		.byte	0xb
 5623 0bfe C1       		.byte	0xc1
 5624 0bff 030C0000 		.4byte	0xc03
 5625 0c03 05       		.uleb128 0x5
 5626 0c04 04       		.byte	0x4
 5627 0c05 090C0000 		.4byte	0xc09
 5628 0c09 1C       		.uleb128 0x1c
 5629 0c0a 01       		.byte	0x1
 5630 0c0b 150C0000 		.4byte	0xc15
 5631 0c0f 15       		.uleb128 0x15
 5632 0c10 D3090000 		.4byte	0x9d3
 5633 0c14 00       		.byte	0
 5634 0c15 10       		.uleb128 0x10
 5635 0c16 15090000 		.4byte	.LASF160
 5636 0c1a 28       		.byte	0x28
 5637 0c1b 0B       		.byte	0xb
 5638 0c1c C6       		.byte	0xc6
 5639 0c1d AE0C0000 		.4byte	0xcae
ARM GAS  C:\Users\claym\AppData\Local\Temp\ccxpUFUu.s 			page 138


 5640 0c21 0D       		.uleb128 0xd
 5641 0c22 4F0E0000 		.4byte	.LASF161
 5642 0c26 0B       		.byte	0xb
 5643 0c27 C7       		.byte	0xc7
 5644 0c28 B40C0000 		.4byte	0xcb4
 5645 0c2c 02       		.byte	0x2
 5646 0c2d 23       		.byte	0x23
 5647 0c2e 00       		.uleb128 0
 5648 0c2f 0D       		.uleb128 0xd
 5649 0c30 E90A0000 		.4byte	.LASF162
 5650 0c34 0B       		.byte	0xb
 5651 0c35 C8       		.byte	0xc8
 5652 0c36 CA0C0000 		.4byte	0xcca
 5653 0c3a 02       		.byte	0x2
 5654 0c3b 23       		.byte	0x23
 5655 0c3c 04       		.uleb128 0x4
 5656 0c3d 0D       		.uleb128 0xd
 5657 0c3e 0B000000 		.4byte	.LASF163
 5658 0c42 0B       		.byte	0xb
 5659 0c43 C9       		.byte	0xc9
 5660 0c44 D60C0000 		.4byte	0xcd6
 5661 0c48 02       		.byte	0x2
 5662 0c49 23       		.byte	0x23
 5663 0c4a 08       		.uleb128 0x8
 5664 0c4b 0D       		.uleb128 0xd
 5665 0c4c FE0C0000 		.4byte	.LASF164
 5666 0c50 0B       		.byte	0xb
 5667 0c51 CA       		.byte	0xca
 5668 0c52 080D0000 		.4byte	0xd08
 5669 0c56 02       		.byte	0x2
 5670 0c57 23       		.byte	0x23
 5671 0c58 0C       		.uleb128 0xc
 5672 0c59 0D       		.uleb128 0xd
 5673 0c5a 2C070000 		.4byte	.LASF165
 5674 0c5e 0B       		.byte	0xb
 5675 0c5f CB       		.byte	0xcb
 5676 0c60 330D0000 		.4byte	0xd33
 5677 0c64 02       		.byte	0x2
 5678 0c65 23       		.byte	0x23
 5679 0c66 10       		.uleb128 0x10
 5680 0c67 0D       		.uleb128 0xd
 5681 0c68 DB060000 		.4byte	.LASF166
 5682 0c6c 0B       		.byte	0xb
 5683 0c6d CC       		.byte	0xcc
 5684 0c6e 4E0D0000 		.4byte	0xd4e
 5685 0c72 02       		.byte	0x2
 5686 0c73 23       		.byte	0x23
 5687 0c74 14       		.uleb128 0x14
 5688 0c75 0D       		.uleb128 0xd
 5689 0c76 8A040000 		.4byte	.LASF167
 5690 0c7a 0B       		.byte	0xb
 5691 0c7b CD       		.byte	0xcd
 5692 0c7c 690D0000 		.4byte	0xd69
 5693 0c80 02       		.byte	0x2
 5694 0c81 23       		.byte	0x23
 5695 0c82 18       		.uleb128 0x18
 5696 0c83 0D       		.uleb128 0xd
ARM GAS  C:\Users\claym\AppData\Local\Temp\ccxpUFUu.s 			page 139


 5697 0c84 750A0000 		.4byte	.LASF168
 5698 0c88 0B       		.byte	0xb
 5699 0c89 CE       		.byte	0xce
 5700 0c8a D60C0000 		.4byte	0xcd6
 5701 0c8e 02       		.byte	0x2
 5702 0c8f 23       		.byte	0x23
 5703 0c90 1C       		.uleb128 0x1c
 5704 0c91 0D       		.uleb128 0xd
 5705 0c92 BF030000 		.4byte	.LASF169
 5706 0c96 0B       		.byte	0xb
 5707 0c97 CF       		.byte	0xcf
 5708 0c98 840D0000 		.4byte	0xd84
 5709 0c9c 02       		.byte	0x2
 5710 0c9d 23       		.byte	0x23
 5711 0c9e 20       		.uleb128 0x20
 5712 0c9f 0D       		.uleb128 0xd
 5713 0ca0 DB040000 		.4byte	.LASF170
 5714 0ca4 0B       		.byte	0xb
 5715 0ca5 D0       		.byte	0xd0
 5716 0ca6 900D0000 		.4byte	0xd90
 5717 0caa 02       		.byte	0x2
 5718 0cab 23       		.byte	0x23
 5719 0cac 24       		.uleb128 0x24
 5720 0cad 00       		.byte	0
 5721 0cae 22       		.uleb128 0x22
 5722 0caf 01       		.byte	0x1
 5723 0cb0 110A0000 		.4byte	0xa11
 5724 0cb4 05       		.uleb128 0x5
 5725 0cb5 04       		.byte	0x4
 5726 0cb6 AE0C0000 		.4byte	0xcae
 5727 0cba 14       		.uleb128 0x14
 5728 0cbb 01       		.byte	0x1
 5729 0cbc C8090000 		.4byte	0x9c8
 5730 0cc0 CA0C0000 		.4byte	0xcca
 5731 0cc4 15       		.uleb128 0x15
 5732 0cc5 F80B0000 		.4byte	0xbf8
 5733 0cc9 00       		.byte	0
 5734 0cca 05       		.uleb128 0x5
 5735 0ccb 04       		.byte	0x4
 5736 0ccc BA0C0000 		.4byte	0xcba
 5737 0cd0 22       		.uleb128 0x22
 5738 0cd1 01       		.byte	0x1
 5739 0cd2 C8090000 		.4byte	0x9c8
 5740 0cd6 05       		.uleb128 0x5
 5741 0cd7 04       		.byte	0x4
 5742 0cd8 D00C0000 		.4byte	0xcd0
 5743 0cdc 14       		.uleb128 0x14
 5744 0cdd 01       		.byte	0x1
 5745 0cde C8090000 		.4byte	0x9c8
 5746 0ce2 FB0C0000 		.4byte	0xcfb
 5747 0ce6 15       		.uleb128 0x15
 5748 0ce7 D3090000 		.4byte	0x9d3
 5749 0ceb 15       		.uleb128 0x15
 5750 0cec FB0C0000 		.4byte	0xcfb
 5751 0cf0 15       		.uleb128 0x15
 5752 0cf1 D3090000 		.4byte	0x9d3
 5753 0cf5 15       		.uleb128 0x15
ARM GAS  C:\Users\claym\AppData\Local\Temp\ccxpUFUu.s 			page 140


 5754 0cf6 010D0000 		.4byte	0xd01
 5755 0cfa 00       		.byte	0
 5756 0cfb 05       		.uleb128 0x5
 5757 0cfc 04       		.byte	0x4
 5758 0cfd B8090000 		.4byte	0x9b8
 5759 0d01 02       		.uleb128 0x2
 5760 0d02 01       		.byte	0x1
 5761 0d03 02       		.byte	0x2
 5762 0d04 77080000 		.4byte	.LASF171
 5763 0d08 05       		.uleb128 0x5
 5764 0d09 04       		.byte	0x4
 5765 0d0a DC0C0000 		.4byte	0xcdc
 5766 0d0e 14       		.uleb128 0x14
 5767 0d0f 01       		.byte	0x1
 5768 0d10 C8090000 		.4byte	0x9c8
 5769 0d14 2D0D0000 		.4byte	0xd2d
 5770 0d18 15       		.uleb128 0x15
 5771 0d19 D3090000 		.4byte	0x9d3
 5772 0d1d 15       		.uleb128 0x15
 5773 0d1e 2D0D0000 		.4byte	0xd2d
 5774 0d22 15       		.uleb128 0x15
 5775 0d23 D3090000 		.4byte	0x9d3
 5776 0d27 15       		.uleb128 0x15
 5777 0d28 010D0000 		.4byte	0xd01
 5778 0d2c 00       		.byte	0
 5779 0d2d 05       		.uleb128 0x5
 5780 0d2e 04       		.byte	0x4
 5781 0d2f AD090000 		.4byte	0x9ad
 5782 0d33 05       		.uleb128 0x5
 5783 0d34 04       		.byte	0x4
 5784 0d35 0E0D0000 		.4byte	0xd0e
 5785 0d39 14       		.uleb128 0x14
 5786 0d3a 01       		.byte	0x1
 5787 0d3b C8090000 		.4byte	0x9c8
 5788 0d3f 4E0D0000 		.4byte	0xd4e
 5789 0d43 15       		.uleb128 0x15
 5790 0d44 FB0C0000 		.4byte	0xcfb
 5791 0d48 15       		.uleb128 0x15
 5792 0d49 D3090000 		.4byte	0x9d3
 5793 0d4d 00       		.byte	0
 5794 0d4e 05       		.uleb128 0x5
 5795 0d4f 04       		.byte	0x4
 5796 0d50 390D0000 		.4byte	0xd39
 5797 0d54 14       		.uleb128 0x14
 5798 0d55 01       		.byte	0x1
 5799 0d56 C8090000 		.4byte	0x9c8
 5800 0d5a 690D0000 		.4byte	0xd69
 5801 0d5e 15       		.uleb128 0x15
 5802 0d5f 2D0D0000 		.4byte	0xd2d
 5803 0d63 15       		.uleb128 0x15
 5804 0d64 D3090000 		.4byte	0x9d3
 5805 0d68 00       		.byte	0
 5806 0d69 05       		.uleb128 0x5
 5807 0d6a 04       		.byte	0x4
 5808 0d6b 540D0000 		.4byte	0xd54
 5809 0d6f 14       		.uleb128 0x14
 5810 0d70 01       		.byte	0x1
ARM GAS  C:\Users\claym\AppData\Local\Temp\ccxpUFUu.s 			page 141


 5811 0d71 C8090000 		.4byte	0x9c8
 5812 0d75 840D0000 		.4byte	0xd84
 5813 0d79 15       		.uleb128 0x15
 5814 0d7a D3090000 		.4byte	0x9d3
 5815 0d7e 15       		.uleb128 0x15
 5816 0d7f D3090000 		.4byte	0x9d3
 5817 0d83 00       		.byte	0
 5818 0d84 05       		.uleb128 0x5
 5819 0d85 04       		.byte	0x4
 5820 0d86 6F0D0000 		.4byte	0xd6f
 5821 0d8a 22       		.uleb128 0x22
 5822 0d8b 01       		.byte	0x1
 5823 0d8c ED0B0000 		.4byte	0xbed
 5824 0d90 05       		.uleb128 0x5
 5825 0d91 04       		.byte	0x4
 5826 0d92 8A0D0000 		.4byte	0xd8a
 5827 0d96 04       		.uleb128 0x4
 5828 0d97 040A0000 		.4byte	.LASF172
 5829 0d9b 0B       		.byte	0xb
 5830 0d9c D1       		.byte	0xd1
 5831 0d9d 150C0000 		.4byte	0xc15
 5832 0da1 1E       		.uleb128 0x1e
 5833 0da2 D2080000 		.4byte	.LASF173
 5834 0da6 0B       		.byte	0xb
 5835 0da7 D3       		.byte	0xd3
 5836 0da8 960D0000 		.4byte	0xd96
 5837 0dac 01       		.byte	0x1
 5838 0dad 01       		.byte	0x1
 5839 0dae 1E       		.uleb128 0x1e
 5840 0daf DE080000 		.4byte	.LASF174
 5841 0db3 0B       		.byte	0xb
 5842 0db4 D4       		.byte	0xd4
 5843 0db5 960D0000 		.4byte	0xd96
 5844 0db9 01       		.byte	0x1
 5845 0dba 01       		.byte	0x1
 5846 0dbb 1E       		.uleb128 0x1e
 5847 0dbc 22080000 		.4byte	.LASF175
 5848 0dc0 0C       		.byte	0xc
 5849 0dc1 B2       		.byte	0xb2
 5850 0dc2 D3090000 		.4byte	0x9d3
 5851 0dc6 01       		.byte	0x1
 5852 0dc7 01       		.byte	0x1
 5853 0dc8 23       		.uleb128 0x23
 5854 0dc9 0010     		.2byte	0x1000
 5855 0dcb 0D       		.byte	0xd
 5856 0dcc 9C       		.byte	0x9c
 5857 0dcd EC0F0000 		.4byte	0xfec
 5858 0dd1 0D       		.uleb128 0xd
 5859 0dd2 330C0000 		.4byte	.LASF176
 5860 0dd6 0D       		.byte	0xd
 5861 0dd7 9D       		.byte	0x9d
 5862 0dd8 DE090000 		.4byte	0x9de
 5863 0ddc 02       		.byte	0x2
 5864 0ddd 23       		.byte	0x23
 5865 0dde 00       		.uleb128 0
 5866 0ddf 0D       		.uleb128 0xd
 5867 0de0 85080000 		.4byte	.LASF177
ARM GAS  C:\Users\claym\AppData\Local\Temp\ccxpUFUu.s 			page 142


 5868 0de4 0D       		.byte	0xd
 5869 0de5 9E       		.byte	0x9e
 5870 0de6 DE090000 		.4byte	0x9de
 5871 0dea 02       		.byte	0x2
 5872 0deb 23       		.byte	0x23
 5873 0dec 04       		.uleb128 0x4
 5874 0ded 0D       		.uleb128 0xd
 5875 0dee 2E0A0000 		.4byte	.LASF178
 5876 0df2 0D       		.byte	0xd
 5877 0df3 9F       		.byte	0x9f
 5878 0df4 DE090000 		.4byte	0x9de
 5879 0df8 02       		.byte	0x2
 5880 0df9 23       		.byte	0x23
 5881 0dfa 08       		.uleb128 0x8
 5882 0dfb 0D       		.uleb128 0xd
 5883 0dfc 820F0000 		.4byte	.LASF179
 5884 0e00 0D       		.byte	0xd
 5885 0e01 A0       		.byte	0xa0
 5886 0e02 DE090000 		.4byte	0x9de
 5887 0e06 02       		.byte	0x2
 5888 0e07 23       		.byte	0x23
 5889 0e08 0C       		.uleb128 0xc
 5890 0e09 0D       		.uleb128 0xd
 5891 0e0a 78090000 		.4byte	.LASF180
 5892 0e0e 0D       		.byte	0xd
 5893 0e0f A1       		.byte	0xa1
 5894 0e10 DE090000 		.4byte	0x9de
 5895 0e14 02       		.byte	0x2
 5896 0e15 23       		.byte	0x23
 5897 0e16 10       		.uleb128 0x10
 5898 0e17 0D       		.uleb128 0xd
 5899 0e18 06070000 		.4byte	.LASF181
 5900 0e1c 0D       		.byte	0xd
 5901 0e1d A2       		.byte	0xa2
 5902 0e1e DE090000 		.4byte	0x9de
 5903 0e22 02       		.byte	0x2
 5904 0e23 23       		.byte	0x23
 5905 0e24 14       		.uleb128 0x14
 5906 0e25 0D       		.uleb128 0xd
 5907 0e26 A2040000 		.4byte	.LASF182
 5908 0e2a 0D       		.byte	0xd
 5909 0e2b A3       		.byte	0xa3
 5910 0e2c DE090000 		.4byte	0x9de
 5911 0e30 02       		.byte	0x2
 5912 0e31 23       		.byte	0x23
 5913 0e32 18       		.uleb128 0x18
 5914 0e33 0D       		.uleb128 0xd
 5915 0e34 2D090000 		.4byte	.LASF183
 5916 0e38 0D       		.byte	0xd
 5917 0e39 A4       		.byte	0xa4
 5918 0e3a DE090000 		.4byte	0x9de
 5919 0e3e 02       		.byte	0x2
 5920 0e3f 23       		.byte	0x23
 5921 0e40 1C       		.uleb128 0x1c
 5922 0e41 0D       		.uleb128 0xd
 5923 0e42 5A050000 		.4byte	.LASF184
 5924 0e46 0D       		.byte	0xd
ARM GAS  C:\Users\claym\AppData\Local\Temp\ccxpUFUu.s 			page 143


 5925 0e47 A5       		.byte	0xa5
 5926 0e48 DE090000 		.4byte	0x9de
 5927 0e4c 02       		.byte	0x2
 5928 0e4d 23       		.byte	0x23
 5929 0e4e 20       		.uleb128 0x20
 5930 0e4f 0D       		.uleb128 0xd
 5931 0e50 DB0A0000 		.4byte	.LASF185
 5932 0e54 0D       		.byte	0xd
 5933 0e55 A6       		.byte	0xa6
 5934 0e56 DE090000 		.4byte	0x9de
 5935 0e5a 02       		.byte	0x2
 5936 0e5b 23       		.byte	0x23
 5937 0e5c 24       		.uleb128 0x24
 5938 0e5d 0D       		.uleb128 0xd
 5939 0e5e 6C000000 		.4byte	.LASF186
 5940 0e62 0D       		.byte	0xd
 5941 0e63 A7       		.byte	0xa7
 5942 0e64 DE090000 		.4byte	0x9de
 5943 0e68 02       		.byte	0x2
 5944 0e69 23       		.byte	0x23
 5945 0e6a 28       		.uleb128 0x28
 5946 0e6b 0D       		.uleb128 0xd
 5947 0e6c BA040000 		.4byte	.LASF187
 5948 0e70 0D       		.byte	0xd
 5949 0e71 A8       		.byte	0xa8
 5950 0e72 E3090000 		.4byte	0x9e3
 5951 0e76 02       		.byte	0x2
 5952 0e77 23       		.byte	0x23
 5953 0e78 2C       		.uleb128 0x2c
 5954 0e79 0D       		.uleb128 0xd
 5955 0e7a 5F0F0000 		.4byte	.LASF188
 5956 0e7e 0D       		.byte	0xd
 5957 0e7f A9       		.byte	0xa9
 5958 0e80 E3090000 		.4byte	0x9e3
 5959 0e84 02       		.byte	0x2
 5960 0e85 23       		.byte	0x23
 5961 0e86 30       		.uleb128 0x30
 5962 0e87 0D       		.uleb128 0xd
 5963 0e88 47010000 		.4byte	.LASF189
 5964 0e8c 0D       		.byte	0xd
 5965 0e8d AA       		.byte	0xaa
 5966 0e8e DE090000 		.4byte	0x9de
 5967 0e92 02       		.byte	0x2
 5968 0e93 23       		.byte	0x23
 5969 0e94 34       		.uleb128 0x34
 5970 0e95 0D       		.uleb128 0xd
 5971 0e96 E90C0000 		.4byte	.LASF190
 5972 0e9a 0D       		.byte	0xd
 5973 0e9b AB       		.byte	0xab
 5974 0e9c DE090000 		.4byte	0x9de
 5975 0ea0 02       		.byte	0x2
 5976 0ea1 23       		.byte	0x23
 5977 0ea2 38       		.uleb128 0x38
 5978 0ea3 0D       		.uleb128 0xd
 5979 0ea4 16070000 		.4byte	.LASF191
 5980 0ea8 0D       		.byte	0xd
 5981 0ea9 AC       		.byte	0xac
ARM GAS  C:\Users\claym\AppData\Local\Temp\ccxpUFUu.s 			page 144


 5982 0eaa DE090000 		.4byte	0x9de
 5983 0eae 02       		.byte	0x2
 5984 0eaf 23       		.byte	0x23
 5985 0eb0 3C       		.uleb128 0x3c
 5986 0eb1 0D       		.uleb128 0xd
 5987 0eb2 C2040000 		.4byte	.LASF192
 5988 0eb6 0D       		.byte	0xd
 5989 0eb7 AD       		.byte	0xad
 5990 0eb8 DE090000 		.4byte	0x9de
 5991 0ebc 02       		.byte	0x2
 5992 0ebd 23       		.byte	0x23
 5993 0ebe 40       		.uleb128 0x40
 5994 0ebf 0D       		.uleb128 0xd
 5995 0ec0 FC090000 		.4byte	.LASF193
 5996 0ec4 0D       		.byte	0xd
 5997 0ec5 AE       		.byte	0xae
 5998 0ec6 DE090000 		.4byte	0x9de
 5999 0eca 02       		.byte	0x2
 6000 0ecb 23       		.byte	0x23
 6001 0ecc 44       		.uleb128 0x44
 6002 0ecd 0D       		.uleb128 0xd
 6003 0ece BE0E0000 		.4byte	.LASF194
 6004 0ed2 0D       		.byte	0xd
 6005 0ed3 AF       		.byte	0xaf
 6006 0ed4 E3090000 		.4byte	0x9e3
 6007 0ed8 02       		.byte	0x2
 6008 0ed9 23       		.byte	0x23
 6009 0eda 48       		.uleb128 0x48
 6010 0edb 0D       		.uleb128 0xd
 6011 0edc CF0E0000 		.4byte	.LASF195
 6012 0ee0 0D       		.byte	0xd
 6013 0ee1 B0       		.byte	0xb0
 6014 0ee2 DE090000 		.4byte	0x9de
 6015 0ee6 02       		.byte	0x2
 6016 0ee7 23       		.byte	0x23
 6017 0ee8 4C       		.uleb128 0x4c
 6018 0ee9 0D       		.uleb128 0xd
 6019 0eea E00E0000 		.4byte	.LASF196
 6020 0eee 0D       		.byte	0xd
 6021 0eef B1       		.byte	0xb1
 6022 0ef0 DE090000 		.4byte	0x9de
 6023 0ef4 02       		.byte	0x2
 6024 0ef5 23       		.byte	0x23
 6025 0ef6 50       		.uleb128 0x50
 6026 0ef7 0D       		.uleb128 0xd
 6027 0ef8 43040000 		.4byte	.LASF197
 6028 0efc 0D       		.byte	0xd
 6029 0efd B2       		.byte	0xb2
 6030 0efe DE090000 		.4byte	0x9de
 6031 0f02 02       		.byte	0x2
 6032 0f03 23       		.byte	0x23
 6033 0f04 54       		.uleb128 0x54
 6034 0f05 0D       		.uleb128 0xd
 6035 0f06 F70E0000 		.4byte	.LASF198
 6036 0f0a 0D       		.byte	0xd
 6037 0f0b B3       		.byte	0xb3
 6038 0f0c DE090000 		.4byte	0x9de
ARM GAS  C:\Users\claym\AppData\Local\Temp\ccxpUFUu.s 			page 145


 6039 0f10 02       		.byte	0x2
 6040 0f11 23       		.byte	0x23
 6041 0f12 58       		.uleb128 0x58
 6042 0f13 0D       		.uleb128 0xd
 6043 0f14 FC070000 		.4byte	.LASF199
 6044 0f18 0D       		.byte	0xd
 6045 0f19 B4       		.byte	0xb4
 6046 0f1a DE090000 		.4byte	0x9de
 6047 0f1e 02       		.byte	0x2
 6048 0f1f 23       		.byte	0x23
 6049 0f20 5C       		.uleb128 0x5c
 6050 0f21 0D       		.uleb128 0xd
 6051 0f22 130F0000 		.4byte	.LASF200
 6052 0f26 0D       		.byte	0xd
 6053 0f27 B5       		.byte	0xb5
 6054 0f28 DE090000 		.4byte	0x9de
 6055 0f2c 02       		.byte	0x2
 6056 0f2d 23       		.byte	0x23
 6057 0f2e 60       		.uleb128 0x60
 6058 0f2f 0D       		.uleb128 0xd
 6059 0f30 71040000 		.4byte	.LASF201
 6060 0f34 0D       		.byte	0xd
 6061 0f35 B6       		.byte	0xb6
 6062 0f36 DE090000 		.4byte	0x9de
 6063 0f3a 02       		.byte	0x2
 6064 0f3b 23       		.byte	0x23
 6065 0f3c 64       		.uleb128 0x64
 6066 0f3d 0D       		.uleb128 0xd
 6067 0f3e 03010000 		.4byte	.LASF202
 6068 0f42 0D       		.byte	0xd
 6069 0f43 B7       		.byte	0xb7
 6070 0f44 E3090000 		.4byte	0x9e3
 6071 0f48 02       		.byte	0x2
 6072 0f49 23       		.byte	0x23
 6073 0f4a 68       		.uleb128 0x68
 6074 0f4b 0D       		.uleb128 0xd
 6075 0f4c 01060000 		.4byte	.LASF203
 6076 0f50 0D       		.byte	0xd
 6077 0f51 B8       		.byte	0xb8
 6078 0f52 DE090000 		.4byte	0x9de
 6079 0f56 02       		.byte	0x2
 6080 0f57 23       		.byte	0x23
 6081 0f58 6C       		.uleb128 0x6c
 6082 0f59 0D       		.uleb128 0xd
 6083 0f5a 0D0D0000 		.4byte	.LASF204
 6084 0f5e 0D       		.byte	0xd
 6085 0f5f B9       		.byte	0xb9
 6086 0f60 DE090000 		.4byte	0x9de
 6087 0f64 02       		.byte	0x2
 6088 0f65 23       		.byte	0x23
 6089 0f66 70       		.uleb128 0x70
 6090 0f67 0D       		.uleb128 0xd
 6091 0f68 910C0000 		.4byte	.LASF205
 6092 0f6c 0D       		.byte	0xd
 6093 0f6d BA       		.byte	0xba
 6094 0f6e DE090000 		.4byte	0x9de
 6095 0f72 02       		.byte	0x2
ARM GAS  C:\Users\claym\AppData\Local\Temp\ccxpUFUu.s 			page 146


 6096 0f73 23       		.byte	0x23
 6097 0f74 74       		.uleb128 0x74
 6098 0f75 0D       		.uleb128 0xd
 6099 0f76 CA040000 		.4byte	.LASF206
 6100 0f7a 0D       		.byte	0xd
 6101 0f7b BB       		.byte	0xbb
 6102 0f7c DE090000 		.4byte	0x9de
 6103 0f80 02       		.byte	0x2
 6104 0f81 23       		.byte	0x23
 6105 0f82 78       		.uleb128 0x78
 6106 0f83 0D       		.uleb128 0xd
 6107 0f84 0B020000 		.4byte	.LASF207
 6108 0f88 0D       		.byte	0xd
 6109 0f89 BC       		.byte	0xbc
 6110 0f8a DE090000 		.4byte	0x9de
 6111 0f8e 02       		.byte	0x2
 6112 0f8f 23       		.byte	0x23
 6113 0f90 7C       		.uleb128 0x7c
 6114 0f91 0D       		.uleb128 0xd
 6115 0f92 D4050000 		.4byte	.LASF208
 6116 0f96 0D       		.byte	0xd
 6117 0f97 BD       		.byte	0xbd
 6118 0f98 DE090000 		.4byte	0x9de
 6119 0f9c 03       		.byte	0x3
 6120 0f9d 23       		.byte	0x23
 6121 0f9e 8001     		.uleb128 0x80
 6122 0fa0 0D       		.uleb128 0xd
 6123 0fa1 89090000 		.4byte	.LASF209
 6124 0fa5 0D       		.byte	0xd
 6125 0fa6 BE       		.byte	0xbe
 6126 0fa7 02100000 		.4byte	0x1002
 6127 0fab 03       		.byte	0x3
 6128 0fac 23       		.byte	0x23
 6129 0fad 8401     		.uleb128 0x84
 6130 0faf 0D       		.uleb128 0xd
 6131 0fb0 3D0D0000 		.4byte	.LASF210
 6132 0fb4 0D       		.byte	0xd
 6133 0fb5 BF       		.byte	0xbf
 6134 0fb6 E3090000 		.4byte	0x9e3
 6135 0fba 03       		.byte	0x3
 6136 0fbb 23       		.byte	0x23
 6137 0fbc F01F     		.uleb128 0xff0
 6138 0fbe 0D       		.uleb128 0xd
 6139 0fbf AE0C0000 		.4byte	.LASF211
 6140 0fc3 0D       		.byte	0xd
 6141 0fc4 C0       		.byte	0xc0
 6142 0fc5 E3090000 		.4byte	0x9e3
 6143 0fc9 03       		.byte	0x3
 6144 0fca 23       		.byte	0x23
 6145 0fcb F41F     		.uleb128 0xff4
 6146 0fcd 0D       		.uleb128 0xd
 6147 0fce 53050000 		.4byte	.LASF212
 6148 0fd2 0D       		.byte	0xd
 6149 0fd3 C1       		.byte	0xc1
 6150 0fd4 E3090000 		.4byte	0x9e3
 6151 0fd8 03       		.byte	0x3
 6152 0fd9 23       		.byte	0x23
ARM GAS  C:\Users\claym\AppData\Local\Temp\ccxpUFUu.s 			page 147


 6153 0fda F81F     		.uleb128 0xff8
 6154 0fdc 0D       		.uleb128 0xd
 6155 0fdd 32040000 		.4byte	.LASF213
 6156 0fe1 0D       		.byte	0xd
 6157 0fe2 C2       		.byte	0xc2
 6158 0fe3 E3090000 		.4byte	0x9e3
 6159 0fe7 03       		.byte	0x3
 6160 0fe8 23       		.byte	0x23
 6161 0fe9 FC1F     		.uleb128 0xffc
 6162 0feb 00       		.byte	0
 6163 0fec 0A       		.uleb128 0xa
 6164 0fed E3090000 		.4byte	0x9e3
 6165 0ff1 FD0F0000 		.4byte	0xffd
 6166 0ff5 24       		.uleb128 0x24
 6167 0ff6 25000000 		.4byte	0x25
 6168 0ffa DA03     		.2byte	0x3da
 6169 0ffc 00       		.byte	0
 6170 0ffd 0F       		.uleb128 0xf
 6171 0ffe EC0F0000 		.4byte	0xfec
 6172 1002 1F       		.uleb128 0x1f
 6173 1003 FD0F0000 		.4byte	0xffd
 6174 1007 04       		.uleb128 0x4
 6175 1008 C80A0000 		.4byte	.LASF214
 6176 100c 0D       		.byte	0xd
 6177 100d C3       		.byte	0xc3
 6178 100e C80D0000 		.4byte	0xdc8
 6179 1012 25       		.uleb128 0x25
 6180 1013 0010     		.2byte	0x1000
 6181 1015 0D       		.byte	0xd
 6182 1016 D201     		.2byte	0x1d2
 6183 1018 99120000 		.4byte	0x1299
 6184 101c 17       		.uleb128 0x17
 6185 101d 1E070000 		.4byte	.LASF215
 6186 1021 0D       		.byte	0xd
 6187 1022 D301     		.2byte	0x1d3
 6188 1024 DE090000 		.4byte	0x9de
 6189 1028 02       		.byte	0x2
 6190 1029 23       		.byte	0x23
 6191 102a 00       		.uleb128 0
 6192 102b 17       		.uleb128 0x17
 6193 102c F6010000 		.4byte	.LASF216
 6194 1030 0D       		.byte	0xd
 6195 1031 D401     		.2byte	0x1d4
 6196 1033 DE090000 		.4byte	0x9de
 6197 1037 02       		.byte	0x2
 6198 1038 23       		.byte	0x23
 6199 1039 04       		.uleb128 0x4
 6200 103a 17       		.uleb128 0x17
 6201 103b C70C0000 		.4byte	.LASF217
 6202 103f 0D       		.byte	0xd
 6203 1040 D501     		.2byte	0x1d5
 6204 1042 DE090000 		.4byte	0x9de
 6205 1046 02       		.byte	0x2
 6206 1047 23       		.byte	0x23
 6207 1048 08       		.uleb128 0x8
 6208 1049 17       		.uleb128 0x17
 6209 104a F9050000 		.4byte	.LASF218
ARM GAS  C:\Users\claym\AppData\Local\Temp\ccxpUFUu.s 			page 148


 6210 104e 0D       		.byte	0xd
 6211 104f D601     		.2byte	0x1d6
 6212 1051 DE090000 		.4byte	0x9de
 6213 1055 02       		.byte	0x2
 6214 1056 23       		.byte	0x23
 6215 1057 0C       		.uleb128 0xc
 6216 1058 17       		.uleb128 0x17
 6217 1059 EC020000 		.4byte	.LASF219
 6218 105d 0D       		.byte	0xd
 6219 105e D701     		.2byte	0x1d7
 6220 1060 DE090000 		.4byte	0x9de
 6221 1064 02       		.byte	0x2
 6222 1065 23       		.byte	0x23
 6223 1066 10       		.uleb128 0x10
 6224 1067 26       		.uleb128 0x26
 6225 1068 434D4400 		.ascii	"CMD\000"
 6226 106c 0D       		.byte	0xd
 6227 106d D801     		.2byte	0x1d8
 6228 106f DE090000 		.4byte	0x9de
 6229 1073 02       		.byte	0x2
 6230 1074 23       		.byte	0x23
 6231 1075 14       		.uleb128 0x14
 6232 1076 17       		.uleb128 0x17
 6233 1077 480E0000 		.4byte	.LASF220
 6234 107b 0D       		.byte	0xd
 6235 107c D901     		.2byte	0x1d9
 6236 107e E3090000 		.4byte	0x9e3
 6237 1082 02       		.byte	0x2
 6238 1083 23       		.byte	0x23
 6239 1084 18       		.uleb128 0x18
 6240 1085 17       		.uleb128 0x17
 6241 1086 F80C0000 		.4byte	.LASF221
 6242 108a 0D       		.byte	0xd
 6243 108b DA01     		.2byte	0x1da
 6244 108d E3090000 		.4byte	0x9e3
 6245 1091 02       		.byte	0x2
 6246 1092 23       		.byte	0x23
 6247 1093 1C       		.uleb128 0x1c
 6248 1094 17       		.uleb128 0x17
 6249 1095 CF030000 		.4byte	.LASF222
 6250 1099 0D       		.byte	0xd
 6251 109a DB01     		.2byte	0x1db
 6252 109c E3090000 		.4byte	0x9e3
 6253 10a0 02       		.byte	0x2
 6254 10a1 23       		.byte	0x23
 6255 10a2 20       		.uleb128 0x20
 6256 10a3 17       		.uleb128 0x17
 6257 10a4 66080000 		.4byte	.LASF223
 6258 10a8 0D       		.byte	0xd
 6259 10a9 DC01     		.2byte	0x1dc
 6260 10ab E3090000 		.4byte	0x9e3
 6261 10af 02       		.byte	0x2
 6262 10b0 23       		.byte	0x23
 6263 10b1 24       		.uleb128 0x24
 6264 10b2 17       		.uleb128 0x17
 6265 10b3 6C000000 		.4byte	.LASF186
 6266 10b7 0D       		.byte	0xd
ARM GAS  C:\Users\claym\AppData\Local\Temp\ccxpUFUu.s 			page 149


 6267 10b8 DD01     		.2byte	0x1dd
 6268 10ba DE090000 		.4byte	0x9de
 6269 10be 02       		.byte	0x2
 6270 10bf 23       		.byte	0x23
 6271 10c0 28       		.uleb128 0x28
 6272 10c1 17       		.uleb128 0x17
 6273 10c2 BA040000 		.4byte	.LASF187
 6274 10c6 0D       		.byte	0xd
 6275 10c7 DE01     		.2byte	0x1de
 6276 10c9 E3090000 		.4byte	0x9e3
 6277 10cd 02       		.byte	0x2
 6278 10ce 23       		.byte	0x23
 6279 10cf 2C       		.uleb128 0x2c
 6280 10d0 17       		.uleb128 0x17
 6281 10d1 5F0F0000 		.4byte	.LASF188
 6282 10d5 0D       		.byte	0xd
 6283 10d6 DF01     		.2byte	0x1df
 6284 10d8 E3090000 		.4byte	0x9e3
 6285 10dc 02       		.byte	0x2
 6286 10dd 23       		.byte	0x23
 6287 10de 30       		.uleb128 0x30
 6288 10df 17       		.uleb128 0x17
 6289 10e0 47010000 		.4byte	.LASF189
 6290 10e4 0D       		.byte	0xd
 6291 10e5 E001     		.2byte	0x1e0
 6292 10e7 DE090000 		.4byte	0x9de
 6293 10eb 02       		.byte	0x2
 6294 10ec 23       		.byte	0x23
 6295 10ed 34       		.uleb128 0x34
 6296 10ee 17       		.uleb128 0x17
 6297 10ef 640D0000 		.4byte	.LASF224
 6298 10f3 0D       		.byte	0xd
 6299 10f4 E101     		.2byte	0x1e1
 6300 10f6 DE090000 		.4byte	0x9de
 6301 10fa 02       		.byte	0x2
 6302 10fb 23       		.byte	0x23
 6303 10fc 38       		.uleb128 0x38
 6304 10fd 17       		.uleb128 0x17
 6305 10fe 3B090000 		.4byte	.LASF225
 6306 1102 0D       		.byte	0xd
 6307 1103 E201     		.2byte	0x1e2
 6308 1105 DE090000 		.4byte	0x9de
 6309 1109 02       		.byte	0x2
 6310 110a 23       		.byte	0x23
 6311 110b 3C       		.uleb128 0x3c
 6312 110c 17       		.uleb128 0x17
 6313 110d 210E0000 		.4byte	.LASF226
 6314 1111 0D       		.byte	0xd
 6315 1112 E301     		.2byte	0x1e3
 6316 1114 DE090000 		.4byte	0x9de
 6317 1118 02       		.byte	0x2
 6318 1119 23       		.byte	0x23
 6319 111a 40       		.uleb128 0x40
 6320 111b 17       		.uleb128 0x17
 6321 111c 6E080000 		.4byte	.LASF227
 6322 1120 0D       		.byte	0xd
 6323 1121 E401     		.2byte	0x1e4
ARM GAS  C:\Users\claym\AppData\Local\Temp\ccxpUFUu.s 			page 150


 6324 1123 DE090000 		.4byte	0x9de
 6325 1127 02       		.byte	0x2
 6326 1128 23       		.byte	0x23
 6327 1129 44       		.uleb128 0x44
 6328 112a 17       		.uleb128 0x17
 6329 112b 00000000 		.4byte	.LASF228
 6330 112f 0D       		.byte	0xd
 6331 1130 E501     		.2byte	0x1e5
 6332 1132 DE090000 		.4byte	0x9de
 6333 1136 02       		.byte	0x2
 6334 1137 23       		.byte	0x23
 6335 1138 48       		.uleb128 0x48
 6336 1139 17       		.uleb128 0x17
 6337 113a 89090000 		.4byte	.LASF209
 6338 113e 0D       		.byte	0xd
 6339 113f E601     		.2byte	0x1e6
 6340 1141 AE120000 		.4byte	0x12ae
 6341 1145 02       		.byte	0x2
 6342 1146 23       		.byte	0x23
 6343 1147 4C       		.uleb128 0x4c
 6344 1148 17       		.uleb128 0x17
 6345 1149 07030000 		.4byte	.LASF229
 6346 114d 0D       		.byte	0xd
 6347 114e E701     		.2byte	0x1e7
 6348 1150 DE090000 		.4byte	0x9de
 6349 1154 03       		.byte	0x3
 6350 1155 23       		.byte	0x23
 6351 1156 8002     		.uleb128 0x100
 6352 1158 17       		.uleb128 0x17
 6353 1159 74000000 		.4byte	.LASF230
 6354 115d 0D       		.byte	0xd
 6355 115e E801     		.2byte	0x1e8
 6356 1160 DE090000 		.4byte	0x9de
 6357 1164 03       		.byte	0x3
 6358 1165 23       		.byte	0x23
 6359 1166 8402     		.uleb128 0x104
 6360 1168 17       		.uleb128 0x17
 6361 1169 CC010000 		.4byte	.LASF231
 6362 116d 0D       		.byte	0xd
 6363 116e E901     		.2byte	0x1e9
 6364 1170 DE090000 		.4byte	0x9de
 6365 1174 03       		.byte	0x3
 6366 1175 23       		.byte	0x23
 6367 1176 8802     		.uleb128 0x108
 6368 1178 17       		.uleb128 0x17
 6369 1179 490B0000 		.4byte	.LASF232
 6370 117d 0D       		.byte	0xd
 6371 117e EA01     		.2byte	0x1ea
 6372 1180 DE090000 		.4byte	0x9de
 6373 1184 03       		.byte	0x3
 6374 1185 23       		.byte	0x23
 6375 1186 8C02     		.uleb128 0x10c
 6376 1188 17       		.uleb128 0x17
 6377 1189 EC040000 		.4byte	.LASF233
 6378 118d 0D       		.byte	0xd
 6379 118e EB01     		.2byte	0x1eb
 6380 1190 DE090000 		.4byte	0x9de
ARM GAS  C:\Users\claym\AppData\Local\Temp\ccxpUFUu.s 			page 151


 6381 1194 03       		.byte	0x3
 6382 1195 23       		.byte	0x23
 6383 1196 9002     		.uleb128 0x110
 6384 1198 17       		.uleb128 0x17
 6385 1199 CC070000 		.4byte	.LASF234
 6386 119d 0D       		.byte	0xd
 6387 119e EC01     		.2byte	0x1ec
 6388 11a0 E3090000 		.4byte	0x9e3
 6389 11a4 03       		.byte	0x3
 6390 11a5 23       		.byte	0x23
 6391 11a6 9402     		.uleb128 0x114
 6392 11a8 17       		.uleb128 0x17
 6393 11a9 6E0C0000 		.4byte	.LASF235
 6394 11ad 0D       		.byte	0xd
 6395 11ae ED01     		.2byte	0x1ed
 6396 11b0 E3090000 		.4byte	0x9e3
 6397 11b4 03       		.byte	0x3
 6398 11b5 23       		.byte	0x23
 6399 11b6 9802     		.uleb128 0x118
 6400 11b8 17       		.uleb128 0x17
 6401 11b9 480C0000 		.4byte	.LASF236
 6402 11bd 0D       		.byte	0xd
 6403 11be EE01     		.2byte	0x1ee
 6404 11c0 E3090000 		.4byte	0x9e3
 6405 11c4 03       		.byte	0x3
 6406 11c5 23       		.byte	0x23
 6407 11c6 9C02     		.uleb128 0x11c
 6408 11c8 17       		.uleb128 0x17
 6409 11c9 C6060000 		.4byte	.LASF237
 6410 11cd 0D       		.byte	0xd
 6411 11ce EF01     		.2byte	0x1ef
 6412 11d0 E3090000 		.4byte	0x9e3
 6413 11d4 03       		.byte	0x3
 6414 11d5 23       		.byte	0x23
 6415 11d6 A002     		.uleb128 0x120
 6416 11d8 17       		.uleb128 0x17
 6417 11d9 F8000000 		.4byte	.LASF238
 6418 11dd 0D       		.byte	0xd
 6419 11de F001     		.2byte	0x1f0
 6420 11e0 E3090000 		.4byte	0x9e3
 6421 11e4 03       		.byte	0x3
 6422 11e5 23       		.byte	0x23
 6423 11e6 A402     		.uleb128 0x124
 6424 11e8 17       		.uleb128 0x17
 6425 11e9 55090000 		.4byte	.LASF239
 6426 11ed 0D       		.byte	0xd
 6427 11ee F101     		.2byte	0x1f1
 6428 11f0 DE090000 		.4byte	0x9de
 6429 11f4 03       		.byte	0x3
 6430 11f5 23       		.byte	0x23
 6431 11f6 A802     		.uleb128 0x128
 6432 11f8 17       		.uleb128 0x17
 6433 11f9 350F0000 		.4byte	.LASF240
 6434 11fd 0D       		.byte	0xd
 6435 11fe F201     		.2byte	0x1f2
 6436 1200 E3090000 		.4byte	0x9e3
 6437 1204 03       		.byte	0x3
ARM GAS  C:\Users\claym\AppData\Local\Temp\ccxpUFUu.s 			page 152


 6438 1205 23       		.byte	0x23
 6439 1206 AC02     		.uleb128 0x12c
 6440 1208 17       		.uleb128 0x17
 6441 1209 B00B0000 		.4byte	.LASF241
 6442 120d 0D       		.byte	0xd
 6443 120e F301     		.2byte	0x1f3
 6444 1210 E3090000 		.4byte	0x9e3
 6445 1214 03       		.byte	0x3
 6446 1215 23       		.byte	0x23
 6447 1216 B002     		.uleb128 0x130
 6448 1218 17       		.uleb128 0x17
 6449 1219 360E0000 		.4byte	.LASF242
 6450 121d 0D       		.byte	0xd
 6451 121e F401     		.2byte	0x1f4
 6452 1220 DE090000 		.4byte	0x9de
 6453 1224 03       		.byte	0x3
 6454 1225 23       		.byte	0x23
 6455 1226 B402     		.uleb128 0x134
 6456 1228 17       		.uleb128 0x17
 6457 1229 EC0B0000 		.4byte	.LASF243
 6458 122d 0D       		.byte	0xd
 6459 122e F501     		.2byte	0x1f5
 6460 1230 DE090000 		.4byte	0x9de
 6461 1234 03       		.byte	0x3
 6462 1235 23       		.byte	0x23
 6463 1236 B802     		.uleb128 0x138
 6464 1238 17       		.uleb128 0x17
 6465 1239 10060000 		.4byte	.LASF244
 6466 123d 0D       		.byte	0xd
 6467 123e F601     		.2byte	0x1f6
 6468 1240 DE090000 		.4byte	0x9de
 6469 1244 03       		.byte	0x3
 6470 1245 23       		.byte	0x23
 6471 1246 BC02     		.uleb128 0x13c
 6472 1248 17       		.uleb128 0x17
 6473 1249 3C0C0000 		.4byte	.LASF245
 6474 124d 0D       		.byte	0xd
 6475 124e F701     		.2byte	0x1f7
 6476 1250 DE090000 		.4byte	0x9de
 6477 1254 03       		.byte	0x3
 6478 1255 23       		.byte	0x23
 6479 1256 C002     		.uleb128 0x140
 6480 1258 17       		.uleb128 0x17
 6481 1259 21020000 		.4byte	.LASF246
 6482 125d 0D       		.byte	0xd
 6483 125e F801     		.2byte	0x1f8
 6484 1260 DE090000 		.4byte	0x9de
 6485 1264 03       		.byte	0x3
 6486 1265 23       		.byte	0x23
 6487 1266 C402     		.uleb128 0x144
 6488 1268 17       		.uleb128 0x17
 6489 1269 750E0000 		.4byte	.LASF247
 6490 126d 0D       		.byte	0xd
 6491 126e F901     		.2byte	0x1f9
 6492 1270 DE090000 		.4byte	0x9de
 6493 1274 03       		.byte	0x3
 6494 1275 23       		.byte	0x23
ARM GAS  C:\Users\claym\AppData\Local\Temp\ccxpUFUu.s 			page 153


 6495 1276 C802     		.uleb128 0x148
 6496 1278 17       		.uleb128 0x17
 6497 1279 93090000 		.4byte	.LASF248
 6498 127d 0D       		.byte	0xd
 6499 127e FA01     		.2byte	0x1fa
 6500 1280 C9120000 		.4byte	0x12c9
 6501 1284 03       		.byte	0x3
 6502 1285 23       		.byte	0x23
 6503 1286 CC02     		.uleb128 0x14c
 6504 1288 17       		.uleb128 0x17
 6505 1289 32040000 		.4byte	.LASF213
 6506 128d 0D       		.byte	0xd
 6507 128e FB01     		.2byte	0x1fb
 6508 1290 E3090000 		.4byte	0x9e3
 6509 1294 03       		.byte	0x3
 6510 1295 23       		.byte	0x23
 6511 1296 FC1F     		.uleb128 0xffc
 6512 1298 00       		.byte	0
 6513 1299 0A       		.uleb128 0xa
 6514 129a E3090000 		.4byte	0x9e3
 6515 129e A9120000 		.4byte	0x12a9
 6516 12a2 0B       		.uleb128 0xb
 6517 12a3 25000000 		.4byte	0x25
 6518 12a7 2C       		.byte	0x2c
 6519 12a8 00       		.byte	0
 6520 12a9 0F       		.uleb128 0xf
 6521 12aa 99120000 		.4byte	0x1299
 6522 12ae 1F       		.uleb128 0x1f
 6523 12af A9120000 		.4byte	0x12a9
 6524 12b3 0A       		.uleb128 0xa
 6525 12b4 E3090000 		.4byte	0x9e3
 6526 12b8 C4120000 		.4byte	0x12c4
 6527 12bc 24       		.uleb128 0x24
 6528 12bd 25000000 		.4byte	0x25
 6529 12c1 AB03     		.2byte	0x3ab
 6530 12c3 00       		.byte	0
 6531 12c4 0F       		.uleb128 0xf
 6532 12c5 B3120000 		.4byte	0x12b3
 6533 12c9 1F       		.uleb128 0x1f
 6534 12ca C4120000 		.4byte	0x12c4
 6535 12ce 07       		.uleb128 0x7
 6536 12cf 60090000 		.4byte	.LASF249
 6537 12d3 0D       		.byte	0xd
 6538 12d4 FC01     		.2byte	0x1fc
 6539 12d6 12100000 		.4byte	0x1012
 6540 12da 25       		.uleb128 0x25
 6541 12db 0020     		.2byte	0x2000
 6542 12dd 0D       		.byte	0xd
 6543 12de 1202     		.2byte	0x212
 6544 12e0 F4120000 		.4byte	0x12f4
 6545 12e4 17       		.uleb128 0x17
 6546 12e5 A0080000 		.4byte	.LASF250
 6547 12e9 0D       		.byte	0xd
 6548 12ea 1302     		.2byte	0x213
 6549 12ec F4120000 		.4byte	0x12f4
 6550 12f0 02       		.byte	0x2
 6551 12f1 23       		.byte	0x23
ARM GAS  C:\Users\claym\AppData\Local\Temp\ccxpUFUu.s 			page 154


 6552 12f2 00       		.uleb128 0
 6553 12f3 00       		.byte	0
 6554 12f4 0A       		.uleb128 0xa
 6555 12f5 CE120000 		.4byte	0x12ce
 6556 12f9 04130000 		.4byte	0x1304
 6557 12fd 0B       		.uleb128 0xb
 6558 12fe 25000000 		.4byte	0x25
 6559 1302 01       		.byte	0x1
 6560 1303 00       		.byte	0
 6561 1304 07       		.uleb128 0x7
 6562 1305 670B0000 		.4byte	.LASF251
 6563 1309 0D       		.byte	0xd
 6564 130a 1402     		.2byte	0x214
 6565 130c DA120000 		.4byte	0x12da
 6566 1310 27       		.uleb128 0x27
 6567 1311 C8000000 		.4byte	.LASF290
 6568 1315 0E       		.byte	0xe
 6569 1316 22       		.byte	0x22
 6570 1317 1C0A0000 		.4byte	0xa1c
 6571 131b 05       		.byte	0x5
 6572 131c 03       		.byte	0x3
 6573 131d 00000000 		.4byte	i2c_driver_version
 6574 1321 28       		.uleb128 0x28
 6575 1322 F40A0000 		.4byte	.LASF342
 6576 1326 04       		.byte	0x4
 6577 1327 0E       		.byte	0xe
 6578 1328 40       		.byte	0x40
 6579 1329 44130000 		.4byte	0x1344
 6580 132d 09       		.uleb128 0x9
 6581 132e 67000000 		.4byte	.LASF252
 6582 1332 0E       		.byte	0xe
 6583 1333 41       		.byte	0x41
 6584 1334 B40A0000 		.4byte	0xab4
 6585 1338 29       		.uleb128 0x29
 6586 1339 76616C00 		.ascii	"val\000"
 6587 133d 0E       		.byte	0xe
 6588 133e 42       		.byte	0x42
 6589 133f D3090000 		.4byte	0x9d3
 6590 1343 00       		.byte	0
 6591 1344 0C       		.uleb128 0xc
 6592 1345 D8       		.byte	0xd8
 6593 1346 0E       		.byte	0xe
 6594 1347 46       		.byte	0x46
 6595 1348 90140000 		.4byte	0x1490
 6596 134c 0D       		.uleb128 0xd
 6597 134d 280D0000 		.4byte	.LASF253
 6598 1351 0E       		.byte	0xe
 6599 1352 47       		.byte	0x47
 6600 1353 F80B0000 		.4byte	0xbf8
 6601 1357 02       		.byte	0x2
 6602 1358 23       		.byte	0x23
 6603 1359 00       		.uleb128 0
 6604 135a 0D       		.uleb128 0xd
 6605 135b 34060000 		.4byte	.LASF254
 6606 135f 0E       		.byte	0xe
 6607 1360 48       		.byte	0x48
 6608 1361 ED0B0000 		.4byte	0xbed
ARM GAS  C:\Users\claym\AppData\Local\Temp\ccxpUFUu.s 			page 155


 6609 1365 02       		.byte	0x2
 6610 1366 23       		.byte	0x23
 6611 1367 04       		.uleb128 0x4
 6612 1368 0D       		.uleb128 0xd
 6613 1369 E4000000 		.4byte	.LASF255
 6614 136d 0E       		.byte	0xe
 6615 136e 49       		.byte	0x49
 6616 136f D3090000 		.4byte	0x9d3
 6617 1373 02       		.byte	0x2
 6618 1374 23       		.byte	0x23
 6619 1375 08       		.uleb128 0x8
 6620 1376 0D       		.uleb128 0xd
 6621 1377 18080000 		.4byte	.LASF256
 6622 137b 0E       		.byte	0xe
 6623 137c 4A       		.byte	0x4a
 6624 137d D3090000 		.4byte	0x9d3
 6625 1381 02       		.byte	0x2
 6626 1382 23       		.byte	0x23
 6627 1383 0C       		.uleb128 0xc
 6628 1384 0D       		.uleb128 0xd
 6629 1385 0E0B0000 		.4byte	.LASF257
 6630 1389 0E       		.byte	0xe
 6631 138a 4B       		.byte	0x4b
 6632 138b D3090000 		.4byte	0x9d3
 6633 138f 02       		.byte	0x2
 6634 1390 23       		.byte	0x23
 6635 1391 10       		.uleb128 0x10
 6636 1392 0D       		.uleb128 0xd
 6637 1393 D7010000 		.4byte	.LASF258
 6638 1397 0E       		.byte	0xe
 6639 1398 4C       		.byte	0x4c
 6640 1399 D3090000 		.4byte	0x9d3
 6641 139d 02       		.byte	0x2
 6642 139e 23       		.byte	0x23
 6643 139f 14       		.uleb128 0x14
 6644 13a0 0D       		.uleb128 0xd
 6645 13a1 DB000000 		.4byte	.LASF259
 6646 13a5 0E       		.byte	0xe
 6647 13a6 4D       		.byte	0x4d
 6648 13a7 D3090000 		.4byte	0x9d3
 6649 13ab 02       		.byte	0x2
 6650 13ac 23       		.byte	0x23
 6651 13ad 18       		.uleb128 0x18
 6652 13ae 0D       		.uleb128 0xd
 6653 13af 54060000 		.4byte	.LASF260
 6654 13b3 0E       		.byte	0xe
 6655 13b4 4E       		.byte	0x4e
 6656 13b5 D3090000 		.4byte	0x9d3
 6657 13b9 02       		.byte	0x2
 6658 13ba 23       		.byte	0x23
 6659 13bb 1C       		.uleb128 0x1c
 6660 13bc 0D       		.uleb128 0xd
 6661 13bd 33050000 		.4byte	.LASF261
 6662 13c1 0E       		.byte	0xe
 6663 13c2 4F       		.byte	0x4f
 6664 13c3 D3090000 		.4byte	0x9d3
 6665 13c7 02       		.byte	0x2
ARM GAS  C:\Users\claym\AppData\Local\Temp\ccxpUFUu.s 			page 156


 6666 13c8 23       		.byte	0x23
 6667 13c9 20       		.uleb128 0x20
 6668 13ca 0D       		.uleb128 0xd
 6669 13cb 93010000 		.4byte	.LASF262
 6670 13cf 0E       		.byte	0xe
 6671 13d0 50       		.byte	0x50
 6672 13d1 D3090000 		.4byte	0x9d3
 6673 13d5 02       		.byte	0x2
 6674 13d6 23       		.byte	0x23
 6675 13d7 24       		.uleb128 0x24
 6676 13d8 0D       		.uleb128 0xd
 6677 13d9 4E070000 		.4byte	.LASF263
 6678 13dd 0E       		.byte	0xe
 6679 13de 51       		.byte	0x51
 6680 13df D3090000 		.4byte	0x9d3
 6681 13e3 02       		.byte	0x2
 6682 13e4 23       		.byte	0x23
 6683 13e5 28       		.uleb128 0x28
 6684 13e6 0D       		.uleb128 0xd
 6685 13e7 6B0A0000 		.4byte	.LASF264
 6686 13eb 0E       		.byte	0xe
 6687 13ec 52       		.byte	0x52
 6688 13ed D3090000 		.4byte	0x9d3
 6689 13f1 02       		.byte	0x2
 6690 13f2 23       		.byte	0x23
 6691 13f3 2C       		.uleb128 0x2c
 6692 13f4 0D       		.uleb128 0xd
 6693 13f5 70070000 		.4byte	.LASF265
 6694 13f9 0E       		.byte	0xe
 6695 13fa 53       		.byte	0x53
 6696 13fb D3090000 		.4byte	0x9d3
 6697 13ff 02       		.byte	0x2
 6698 1400 23       		.byte	0x23
 6699 1401 30       		.uleb128 0x30
 6700 1402 0D       		.uleb128 0xd
 6701 1403 CD0C0000 		.4byte	.LASF266
 6702 1407 0E       		.byte	0xe
 6703 1408 54       		.byte	0x54
 6704 1409 D3090000 		.4byte	0x9d3
 6705 140d 02       		.byte	0x2
 6706 140e 23       		.byte	0x23
 6707 140f 34       		.uleb128 0x34
 6708 1410 0D       		.uleb128 0xd
 6709 1411 8B0F0000 		.4byte	.LASF267
 6710 1415 0E       		.byte	0xe
 6711 1416 55       		.byte	0x55
 6712 1417 D3090000 		.4byte	0x9d3
 6713 141b 02       		.byte	0x2
 6714 141c 23       		.byte	0x23
 6715 141d 38       		.uleb128 0x38
 6716 141e 0D       		.uleb128 0xd
 6717 141f E30D0000 		.4byte	.LASF268
 6718 1423 0E       		.byte	0xe
 6719 1424 56       		.byte	0x56
 6720 1425 D3090000 		.4byte	0x9d3
 6721 1429 02       		.byte	0x2
 6722 142a 23       		.byte	0x23
ARM GAS  C:\Users\claym\AppData\Local\Temp\ccxpUFUu.s 			page 157


 6723 142b 3C       		.uleb128 0x3c
 6724 142c 0D       		.uleb128 0xd
 6725 142d 23070000 		.4byte	.LASF269
 6726 1431 0E       		.byte	0xe
 6727 1432 57       		.byte	0x57
 6728 1433 21130000 		.4byte	0x1321
 6729 1437 02       		.byte	0x2
 6730 1438 23       		.byte	0x23
 6731 1439 40       		.uleb128 0x40
 6732 143a 0D       		.uleb128 0xd
 6733 143b F8030000 		.4byte	.LASF270
 6734 143f 0E       		.byte	0xe
 6735 1440 58       		.byte	0x58
 6736 1441 D3090000 		.4byte	0x9d3
 6737 1445 02       		.byte	0x2
 6738 1446 23       		.byte	0x23
 6739 1447 44       		.uleb128 0x44
 6740 1448 0D       		.uleb128 0xd
 6741 1449 300E0000 		.4byte	.LASF271
 6742 144d 0E       		.byte	0xe
 6743 144e 59       		.byte	0x59
 6744 144f D3090000 		.4byte	0x9d3
 6745 1453 02       		.byte	0x2
 6746 1454 23       		.byte	0x23
 6747 1455 48       		.uleb128 0x48
 6748 1456 0D       		.uleb128 0xd
 6749 1457 FF010000 		.4byte	.LASF272
 6750 145b 0E       		.byte	0xe
 6751 145c 5A       		.byte	0x5a
 6752 145d D3090000 		.4byte	0x9d3
 6753 1461 02       		.byte	0x2
 6754 1462 23       		.byte	0x23
 6755 1463 4C       		.uleb128 0x4c
 6756 1464 0D       		.uleb128 0xd
 6757 1465 AE090000 		.4byte	.LASF273
 6758 1469 0E       		.byte	0xe
 6759 146a 5B       		.byte	0x5b
 6760 146b D3090000 		.4byte	0x9d3
 6761 146f 02       		.byte	0x2
 6762 1470 23       		.byte	0x23
 6763 1471 50       		.uleb128 0x50
 6764 1472 0D       		.uleb128 0xd
 6765 1473 E5040000 		.4byte	.LASF274
 6766 1477 0E       		.byte	0xe
 6767 1478 5C       		.byte	0x5c
 6768 1479 90140000 		.4byte	0x1490
 6769 147d 02       		.byte	0x2
 6770 147e 23       		.byte	0x23
 6771 147f 54       		.uleb128 0x54
 6772 1480 0D       		.uleb128 0xd
 6773 1481 55070000 		.4byte	.LASF275
 6774 1485 0E       		.byte	0xe
 6775 1486 5D       		.byte	0x5d
 6776 1487 2D0D0000 		.4byte	0xd2d
 6777 148b 03       		.byte	0x3
 6778 148c 23       		.byte	0x23
 6779 148d D401     		.uleb128 0xd4
ARM GAS  C:\Users\claym\AppData\Local\Temp\ccxpUFUu.s 			page 158


 6780 148f 00       		.byte	0
 6781 1490 0A       		.uleb128 0xa
 6782 1491 AD090000 		.4byte	0x9ad
 6783 1495 A0140000 		.4byte	0x14a0
 6784 1499 0B       		.uleb128 0xb
 6785 149a 25000000 		.4byte	0x25
 6786 149e 7F       		.byte	0x7f
 6787 149f 00       		.byte	0
 6788 14a0 04       		.uleb128 0x4
 6789 14a1 3E010000 		.4byte	.LASF276
 6790 14a5 0E       		.byte	0xe
 6791 14a6 5E       		.byte	0x5e
 6792 14a7 44130000 		.4byte	0x1344
 6793 14ab 0C       		.uleb128 0xc
 6794 14ac E8       		.byte	0xe8
 6795 14ad 0E       		.byte	0xe
 6796 14ae 61       		.byte	0x61
 6797 14af FB140000 		.4byte	0x14fb
 6798 14b3 0D       		.uleb128 0xd
 6799 14b4 4D050000 		.4byte	.LASF277
 6800 14b8 0E       		.byte	0xe
 6801 14b9 62       		.byte	0x62
 6802 14ba D3090000 		.4byte	0x9d3
 6803 14be 02       		.byte	0x2
 6804 14bf 23       		.byte	0x23
 6805 14c0 00       		.uleb128 0
 6806 14c1 11       		.uleb128 0x11
 6807 14c2 72656700 		.ascii	"reg\000"
 6808 14c6 0E       		.byte	0xe
 6809 14c7 63       		.byte	0x63
 6810 14c8 FB140000 		.4byte	0x14fb
 6811 14cc 02       		.byte	0x2
 6812 14cd 23       		.byte	0x23
 6813 14ce 04       		.uleb128 0x4
 6814 14cf 11       		.uleb128 0x11
 6815 14d0 64727600 		.ascii	"drv\000"
 6816 14d4 0E       		.byte	0xe
 6817 14d5 64       		.byte	0x64
 6818 14d6 01150000 		.4byte	0x1501
 6819 14da 02       		.byte	0x2
 6820 14db 23       		.byte	0x23
 6821 14dc 08       		.uleb128 0x8
 6822 14dd 0D       		.uleb128 0xd
 6823 14de 570D0000 		.4byte	.LASF278
 6824 14e2 0E       		.byte	0xe
 6825 14e3 65       		.byte	0x65
 6826 14e4 A0140000 		.4byte	0x14a0
 6827 14e8 02       		.byte	0x2
 6828 14e9 23       		.byte	0x23
 6829 14ea 0C       		.uleb128 0xc
 6830 14eb 0D       		.uleb128 0xd
 6831 14ec 44060000 		.4byte	.LASF279
 6832 14f0 0E       		.byte	0xe
 6833 14f1 66       		.byte	0x66
 6834 14f2 D3090000 		.4byte	0x9d3
 6835 14f6 03       		.byte	0x3
 6836 14f7 23       		.byte	0x23
ARM GAS  C:\Users\claym\AppData\Local\Temp\ccxpUFUu.s 			page 159


 6837 14f8 E401     		.uleb128 0xe4
 6838 14fa 00       		.byte	0
 6839 14fb 05       		.uleb128 0x5
 6840 14fc 04       		.byte	0x4
 6841 14fd CE120000 		.4byte	0x12ce
 6842 1501 05       		.uleb128 0x5
 6843 1502 04       		.byte	0x4
 6844 1503 960D0000 		.4byte	0xd96
 6845 1507 04       		.uleb128 0x4
 6846 1508 F1080000 		.4byte	.LASF280
 6847 150c 0E       		.byte	0xe
 6848 150d 67       		.byte	0x67
 6849 150e AB140000 		.4byte	0x14ab
 6850 1512 2A       		.uleb128 0x2a
 6851 1513 07       		.byte	0x7
 6852 1514 01       		.byte	0x1
 6853 1515 53000000 		.4byte	0x53
 6854 1519 0F       		.byte	0xf
 6855 151a 1C       		.byte	0x1c
 6856 151b 4A150000 		.4byte	0x154a
 6857 151f 2B       		.uleb128 0x2b
 6858 1520 4B000000 		.4byte	.LASF281
 6859 1524 00       		.byte	0
 6860 1525 2B       		.uleb128 0x2b
 6861 1526 59000000 		.4byte	.LASF282
 6862 152a 01       		.byte	0x1
 6863 152b 2B       		.uleb128 0x2b
 6864 152c 120C0000 		.4byte	.LASF283
 6865 1530 02       		.byte	0x2
 6866 1531 2B       		.uleb128 0x2b
 6867 1532 1E0C0000 		.4byte	.LASF284
 6868 1536 03       		.byte	0x3
 6869 1537 2B       		.uleb128 0x2b
 6870 1538 170D0000 		.4byte	.LASF285
 6871 153c 04       		.byte	0x4
 6872 153d 2B       		.uleb128 0x2b
 6873 153e 580B0000 		.4byte	.LASF286
 6874 1542 05       		.byte	0x5
 6875 1543 2B       		.uleb128 0x2b
 6876 1544 40020000 		.4byte	.LASF287
 6877 1548 06       		.byte	0x6
 6878 1549 00       		.byte	0
 6879 154a 2C       		.uleb128 0x2c
 6880 154b 84010000 		.4byte	.LASF288
 6881 154f 01       		.byte	0x1
 6882 1550 22       		.byte	0x22
 6883 1551 07150000 		.4byte	0x1507
 6884 1555 01       		.byte	0x1
 6885 1556 05       		.byte	0x5
 6886 1557 03       		.byte	0x3
 6887 1558 00000000 		.4byte	I2C0_Resources
 6888 155c 2C       		.uleb128 0x2c
 6889 155d 8D060000 		.4byte	.LASF289
 6890 1561 01       		.byte	0x1
 6891 1562 27       		.byte	0x27
 6892 1563 07150000 		.4byte	0x1507
 6893 1567 01       		.byte	0x1
ARM GAS  C:\Users\claym\AppData\Local\Temp\ccxpUFUu.s 			page 160


 6894 1568 05       		.byte	0x5
 6895 1569 03       		.byte	0x3
 6896 156a 00000000 		.4byte	I2C1_Resources
 6897 156e 2D       		.uleb128 0x2d
 6898 156f 01       		.byte	0x1
 6899 1570 51080000 		.4byte	.LASF295
 6900 1574 01       		.byte	0x1
 6901 1575 0405     		.2byte	0x504
 6902 1577 01       		.byte	0x1
 6903 1578 C8090000 		.4byte	0x9c8
 6904 157c 4C0C0000 		.4byte	.LFB66
 6905 1580 5A0C0000 		.4byte	.LFE66
 6906 1584 02       		.byte	0x2
 6907 1585 7D       		.byte	0x7d
 6908 1586 00       		.sleb128 0
 6909 1587 01       		.byte	0x1
 6910 1588 9D150000 		.4byte	0x159d
 6911 158c 2E       		.uleb128 0x2e
 6912 158d 69326300 		.ascii	"i2c\000"
 6913 1591 01       		.byte	0x1
 6914 1592 0405     		.2byte	0x504
 6915 1594 9D150000 		.4byte	0x159d
 6916 1598 00000000 		.4byte	.LLST95
 6917 159c 00       		.byte	0
 6918 159d 05       		.uleb128 0x5
 6919 159e 04       		.byte	0x4
 6920 159f 07150000 		.4byte	0x1507
 6921 15a3 2F       		.uleb128 0x2f
 6922 15a4 01       		.byte	0x1
 6923 15a5 5F010000 		.4byte	.LASF293
 6924 15a9 01       		.byte	0x1
 6925 15aa 9704     		.2byte	0x497
 6926 15ac 01       		.byte	0x1
 6927 15ad CE0A0000 		.4byte	.LFB65
 6928 15b1 4C0C0000 		.4byte	.LFE65
 6929 15b5 3A000000 		.4byte	.LLST90
 6930 15b9 01       		.byte	0x1
 6931 15ba 74160000 		.4byte	0x1674
 6932 15be 2E       		.uleb128 0x2e
 6933 15bf 69326300 		.ascii	"i2c\000"
 6934 15c3 01       		.byte	0x1
 6935 15c4 9704     		.2byte	0x497
 6936 15c6 9D150000 		.4byte	0x159d
 6937 15ca 5A000000 		.4byte	.LLST91
 6938 15ce 30       		.uleb128 0x30
 6939 15cf 8C030000 		.4byte	.LASF291
 6940 15d3 01       		.byte	0x1
 6941 15d4 9804     		.2byte	0x498
 6942 15d6 D3090000 		.4byte	0x9d3
 6943 15da DE000000 		.4byte	.LLST92
 6944 15de 30       		.uleb128 0x30
 6945 15df 400F0000 		.4byte	.LASF292
 6946 15e3 01       		.byte	0x1
 6947 15e4 9904     		.2byte	0x499
 6948 15e6 D3090000 		.4byte	0x9d3
 6949 15ea 51010000 		.4byte	.LLST93
 6950 15ee 30       		.uleb128 0x30
ARM GAS  C:\Users\claym\AppData\Local\Temp\ccxpUFUu.s 			page 161


 6951 15ef 34060000 		.4byte	.LASF254
 6952 15f3 01       		.byte	0x1
 6953 15f4 9A04     		.2byte	0x49a
 6954 15f6 D3090000 		.4byte	0x9d3
 6955 15fa 7A010000 		.4byte	.LLST94
 6956 15fe 31       		.uleb128 0x31
 6957 15ff E60A0000 		.4byte	.LVL266
 6958 1603 5F240000 		.4byte	0x245f
 6959 1607 11160000 		.4byte	0x1611
 6960 160b 32       		.uleb128 0x32
 6961 160c 01       		.byte	0x1
 6962 160d 50       		.byte	0x50
 6963 160e 01       		.byte	0x1
 6964 160f 36       		.byte	0x36
 6965 1610 00       		.byte	0
 6966 1611 31       		.uleb128 0x31
 6967 1612 080B0000 		.4byte	.LVL273
 6968 1616 5F240000 		.4byte	0x245f
 6969 161a 24160000 		.4byte	0x1624
 6970 161e 32       		.uleb128 0x32
 6971 161f 01       		.byte	0x1
 6972 1620 50       		.byte	0x50
 6973 1621 01       		.byte	0x1
 6974 1622 36       		.byte	0x36
 6975 1623 00       		.byte	0
 6976 1624 33       		.uleb128 0x33
 6977 1625 120B0000 		.4byte	.LVL274
 6978 1629 33160000 		.4byte	0x1633
 6979 162d 32       		.uleb128 0x32
 6980 162e 01       		.byte	0x1
 6981 162f 50       		.byte	0x50
 6982 1630 01       		.byte	0x1
 6983 1631 32       		.byte	0x32
 6984 1632 00       		.byte	0
 6985 1633 31       		.uleb128 0x31
 6986 1634 620B0000 		.4byte	.LVL278
 6987 1638 5F240000 		.4byte	0x245f
 6988 163c 46160000 		.4byte	0x1646
 6989 1640 32       		.uleb128 0x32
 6990 1641 01       		.byte	0x1
 6991 1642 50       		.byte	0x50
 6992 1643 01       		.byte	0x1
 6993 1644 36       		.byte	0x36
 6994 1645 00       		.byte	0
 6995 1646 33       		.uleb128 0x33
 6996 1647 6C0B0000 		.4byte	.LVL279
 6997 164b 55160000 		.4byte	0x1655
 6998 164f 32       		.uleb128 0x32
 6999 1650 01       		.byte	0x1
 7000 1651 50       		.byte	0x50
 7001 1652 01       		.byte	0x1
 7002 1653 31       		.byte	0x31
 7003 1654 00       		.byte	0
 7004 1655 31       		.uleb128 0x31
 7005 1656 CA0B0000 		.4byte	.LVL283
 7006 165a 5F240000 		.4byte	0x245f
 7007 165e 68160000 		.4byte	0x1668
ARM GAS  C:\Users\claym\AppData\Local\Temp\ccxpUFUu.s 			page 162


 7008 1662 32       		.uleb128 0x32
 7009 1663 01       		.byte	0x1
 7010 1664 50       		.byte	0x50
 7011 1665 01       		.byte	0x1
 7012 1666 36       		.byte	0x36
 7013 1667 00       		.byte	0
 7014 1668 34       		.uleb128 0x34
 7015 1669 D40B0000 		.4byte	.LVL284
 7016 166d 32       		.uleb128 0x32
 7017 166e 01       		.byte	0x1
 7018 166f 50       		.byte	0x50
 7019 1670 01       		.byte	0x1
 7020 1671 31       		.byte	0x31
 7021 1672 00       		.byte	0
 7022 1673 00       		.byte	0
 7023 1674 2F       		.uleb128 0x2f
 7024 1675 01       		.byte	0x1
 7025 1676 5B040000 		.4byte	.LASF294
 7026 167a 01       		.byte	0x1
 7027 167b 2B04     		.2byte	0x42b
 7028 167d 01       		.byte	0x1
 7029 167e 5C090000 		.4byte	.LFB64
 7030 1682 CE0A0000 		.4byte	.LFE64
 7031 1686 AE010000 		.4byte	.LLST85
 7032 168a 01       		.byte	0x1
 7033 168b 23170000 		.4byte	0x1723
 7034 168f 2E       		.uleb128 0x2e
 7035 1690 69326300 		.ascii	"i2c\000"
 7036 1694 01       		.byte	0x1
 7037 1695 2B04     		.2byte	0x42b
 7038 1697 9D150000 		.4byte	0x159d
 7039 169b CE010000 		.4byte	.LLST86
 7040 169f 30       		.uleb128 0x30
 7041 16a0 8C030000 		.4byte	.LASF291
 7042 16a4 01       		.byte	0x1
 7043 16a5 2C04     		.2byte	0x42c
 7044 16a7 D3090000 		.4byte	0x9d3
 7045 16ab 3C020000 		.4byte	.LLST87
 7046 16af 30       		.uleb128 0x30
 7047 16b0 400F0000 		.4byte	.LASF292
 7048 16b4 01       		.byte	0x1
 7049 16b5 2D04     		.2byte	0x42d
 7050 16b7 D3090000 		.4byte	0x9d3
 7051 16bb 97020000 		.4byte	.LLST88
 7052 16bf 30       		.uleb128 0x30
 7053 16c0 34060000 		.4byte	.LASF254
 7054 16c4 01       		.byte	0x1
 7055 16c5 2E04     		.2byte	0x42e
 7056 16c7 D3090000 		.4byte	0x9d3
 7057 16cb C0020000 		.4byte	.LLST89
 7058 16cf 31       		.uleb128 0x31
 7059 16d0 74090000 		.4byte	.LVL233
 7060 16d4 5F240000 		.4byte	0x245f
 7061 16d8 E2160000 		.4byte	0x16e2
 7062 16dc 32       		.uleb128 0x32
 7063 16dd 01       		.byte	0x1
 7064 16de 50       		.byte	0x50
ARM GAS  C:\Users\claym\AppData\Local\Temp\ccxpUFUu.s 			page 163


 7065 16df 01       		.byte	0x1
 7066 16e0 35       		.byte	0x35
 7067 16e1 00       		.byte	0
 7068 16e2 33       		.uleb128 0x33
 7069 16e3 C6090000 		.4byte	.LVL241
 7070 16e7 F1160000 		.4byte	0x16f1
 7071 16eb 32       		.uleb128 0x32
 7072 16ec 01       		.byte	0x1
 7073 16ed 50       		.byte	0x50
 7074 16ee 01       		.byte	0x1
 7075 16ef 31       		.byte	0x31
 7076 16f0 00       		.byte	0
 7077 16f1 31       		.uleb128 0x31
 7078 16f2 D6090000 		.4byte	.LVL242
 7079 16f6 5F240000 		.4byte	0x245f
 7080 16fa 04170000 		.4byte	0x1704
 7081 16fe 32       		.uleb128 0x32
 7082 16ff 01       		.byte	0x1
 7083 1700 50       		.byte	0x50
 7084 1701 01       		.byte	0x1
 7085 1702 35       		.byte	0x35
 7086 1703 00       		.byte	0
 7087 1704 31       		.uleb128 0x31
 7088 1705 360A0000 		.4byte	.LVL245
 7089 1709 5F240000 		.4byte	0x245f
 7090 170d 17170000 		.4byte	0x1717
 7091 1711 32       		.uleb128 0x32
 7092 1712 01       		.byte	0x1
 7093 1713 50       		.byte	0x50
 7094 1714 01       		.byte	0x1
 7095 1715 35       		.byte	0x35
 7096 1716 00       		.byte	0
 7097 1717 34       		.uleb128 0x34
 7098 1718 400A0000 		.4byte	.LVL246
 7099 171c 32       		.uleb128 0x32
 7100 171d 01       		.byte	0x1
 7101 171e 50       		.byte	0x50
 7102 171f 01       		.byte	0x1
 7103 1720 31       		.byte	0x31
 7104 1721 00       		.byte	0
 7105 1722 00       		.byte	0
 7106 1723 35       		.uleb128 0x35
 7107 1724 01       		.byte	0x1
 7108 1725 BA0D0000 		.4byte	.LASF296
 7109 1729 01       		.byte	0x1
 7110 172a CA03     		.2byte	0x3ca
 7111 172c 01       		.byte	0x1
 7112 172d C8090000 		.4byte	0x9c8
 7113 1731 58080000 		.4byte	.LFB63
 7114 1735 5C090000 		.4byte	.LFE63
 7115 1739 E9020000 		.4byte	.LLST76
 7116 173d 01       		.byte	0x1
 7117 173e 69180000 		.4byte	0x1869
 7118 1742 36       		.uleb128 0x36
 7119 1743 92080000 		.4byte	.LASF297
 7120 1747 01       		.byte	0x1
 7121 1748 CA03     		.2byte	0x3ca
ARM GAS  C:\Users\claym\AppData\Local\Temp\ccxpUFUu.s 			page 164


 7122 174a 2D0D0000 		.4byte	0xd2d
 7123 174e 09030000 		.4byte	.LLST77
 7124 1752 2E       		.uleb128 0x2e
 7125 1753 6E756D00 		.ascii	"num\000"
 7126 1757 01       		.byte	0x1
 7127 1758 CB03     		.2byte	0x3cb
 7128 175a D3090000 		.4byte	0x9d3
 7129 175e 67030000 		.4byte	.LLST78
 7130 1762 2E       		.uleb128 0x2e
 7131 1763 69326300 		.ascii	"i2c\000"
 7132 1767 01       		.byte	0x1
 7133 1768 CC03     		.2byte	0x3cc
 7134 176a 9D150000 		.4byte	0x159d
 7135 176e 9E030000 		.4byte	.LLST79
 7136 1772 37       		.uleb128 0x37
 7137 1773 6900     		.ascii	"i\000"
 7138 1775 01       		.byte	0x1
 7139 1776 CE03     		.2byte	0x3ce
 7140 1778 C8090000 		.4byte	0x9c8
 7141 177c D5030000 		.4byte	.LLST80
 7142 1780 30       		.uleb128 0x30
 7143 1781 7F0C0000 		.4byte	.LASF298
 7144 1785 01       		.byte	0x1
 7145 1786 CF03     		.2byte	0x3cf
 7146 1788 D3090000 		.4byte	0x9d3
 7147 178c F5030000 		.4byte	.LLST81
 7148 1790 30       		.uleb128 0x30
 7149 1791 F1070000 		.4byte	.LASF299
 7150 1795 01       		.byte	0x1
 7151 1796 CF03     		.2byte	0x3cf
 7152 1798 D3090000 		.4byte	0x9d3
 7153 179c 09040000 		.4byte	.LLST82
 7154 17a0 30       		.uleb128 0x30
 7155 17a1 34060000 		.4byte	.LASF254
 7156 17a5 01       		.byte	0x1
 7157 17a6 D003     		.2byte	0x3d0
 7158 17a8 D3090000 		.4byte	0x9d3
 7159 17ac 1C040000 		.4byte	.LLST83
 7160 17b0 30       		.uleb128 0x30
 7161 17b1 6C030000 		.4byte	.LASF300
 7162 17b5 01       		.byte	0x1
 7163 17b6 D003     		.2byte	0x3d0
 7164 17b8 D3090000 		.4byte	0x9d3
 7165 17bc 2F040000 		.4byte	.LLST84
 7166 17c0 38       		.uleb128 0x38
 7167 17c1 55240000 		.4byte	0x2455
 7168 17c5 C0080000 		.4byte	.LBB138
 7169 17c9 C2080000 		.4byte	.LBE138
 7170 17cd 01       		.byte	0x1
 7171 17ce EC03     		.2byte	0x3ec
 7172 17d0 38       		.uleb128 0x38
 7173 17d1 55240000 		.4byte	0x2455
 7174 17d5 C2080000 		.4byte	.LBB140
 7175 17d9 C4080000 		.4byte	.LBE140
 7176 17dd 01       		.byte	0x1
 7177 17de ED03     		.2byte	0x3ed
 7178 17e0 31       		.uleb128 0x31
ARM GAS  C:\Users\claym\AppData\Local\Temp\ccxpUFUu.s 			page 165


 7179 17e1 A4080000 		.4byte	.LVL209
 7180 17e5 621D0000 		.4byte	0x1d62
 7181 17e9 00180000 		.4byte	0x1800
 7182 17ed 32       		.uleb128 0x32
 7183 17ee 01       		.byte	0x1
 7184 17ef 50       		.byte	0x50
 7185 17f0 02       		.byte	0x2
 7186 17f1 76       		.byte	0x76
 7187 17f2 00       		.sleb128 0
 7188 17f3 32       		.uleb128 0x32
 7189 17f4 01       		.byte	0x1
 7190 17f5 51       		.byte	0x51
 7191 17f6 02       		.byte	0x2
 7192 17f7 77       		.byte	0x77
 7193 17f8 00       		.sleb128 0
 7194 17f9 32       		.uleb128 0x32
 7195 17fa 01       		.byte	0x1
 7196 17fb 52       		.byte	0x52
 7197 17fc 02       		.byte	0x2
 7198 17fd 74       		.byte	0x74
 7199 17fe 00       		.sleb128 0
 7200 17ff 00       		.byte	0
 7201 1800 39       		.uleb128 0x39
 7202 1801 A8080000 		.4byte	.LVL210
 7203 1805 6C240000 		.4byte	0x246c
 7204 1809 39       		.uleb128 0x39
 7205 180a BA080000 		.4byte	.LVL212
 7206 180e 6C240000 		.4byte	0x246c
 7207 1812 31       		.uleb128 0x31
 7208 1813 FA080000 		.4byte	.LVL220
 7209 1817 241D0000 		.4byte	0x1d24
 7210 181b 26180000 		.4byte	0x1826
 7211 181f 32       		.uleb128 0x32
 7212 1820 01       		.byte	0x1
 7213 1821 50       		.byte	0x50
 7214 1822 02       		.byte	0x2
 7215 1823 74       		.byte	0x74
 7216 1824 00       		.sleb128 0
 7217 1825 00       		.byte	0
 7218 1826 31       		.uleb128 0x31
 7219 1827 08090000 		.4byte	.LVL223
 7220 182b 5F240000 		.4byte	0x245f
 7221 182f 39180000 		.4byte	0x1839
 7222 1833 32       		.uleb128 0x32
 7223 1834 01       		.byte	0x1
 7224 1835 50       		.byte	0x50
 7225 1836 01       		.byte	0x1
 7226 1837 36       		.byte	0x36
 7227 1838 00       		.byte	0
 7228 1839 31       		.uleb128 0x31
 7229 183a 2E090000 		.4byte	.LVL225
 7230 183e 621D0000 		.4byte	0x1d62
 7231 1842 59180000 		.4byte	0x1859
 7232 1846 32       		.uleb128 0x32
 7233 1847 01       		.byte	0x1
 7234 1848 50       		.byte	0x50
 7235 1849 02       		.byte	0x2
ARM GAS  C:\Users\claym\AppData\Local\Temp\ccxpUFUu.s 			page 166


 7236 184a 75       		.byte	0x75
 7237 184b 00       		.sleb128 0
 7238 184c 32       		.uleb128 0x32
 7239 184d 01       		.byte	0x1
 7240 184e 51       		.byte	0x51
 7241 184f 02       		.byte	0x2
 7242 1850 77       		.byte	0x77
 7243 1851 00       		.sleb128 0
 7244 1852 32       		.uleb128 0x32
 7245 1853 01       		.byte	0x1
 7246 1854 52       		.byte	0x52
 7247 1855 02       		.byte	0x2
 7248 1856 74       		.byte	0x74
 7249 1857 00       		.sleb128 0
 7250 1858 00       		.byte	0
 7251 1859 3A       		.uleb128 0x3a
 7252 185a 4E090000 		.4byte	.LVL226
 7253 185e 79240000 		.4byte	0x2479
 7254 1862 32       		.uleb128 0x32
 7255 1863 01       		.byte	0x1
 7256 1864 50       		.byte	0x50
 7257 1865 01       		.byte	0x1
 7258 1866 36       		.byte	0x36
 7259 1867 00       		.byte	0
 7260 1868 00       		.byte	0
 7261 1869 35       		.uleb128 0x35
 7262 186a 01       		.byte	0x1
 7263 186b DB070000 		.4byte	.LASF301
 7264 186f 01       		.byte	0x1
 7265 1870 4B03     		.2byte	0x34b
 7266 1872 01       		.byte	0x1
 7267 1873 C8090000 		.4byte	0x9c8
 7268 1877 D8060000 		.4byte	.LFB62
 7269 187b 58080000 		.4byte	.LFE62
 7270 187f 42040000 		.4byte	.LLST67
 7271 1883 01       		.byte	0x1
 7272 1884 0C1A0000 		.4byte	0x1a0c
 7273 1888 36       		.uleb128 0x36
 7274 1889 92080000 		.4byte	.LASF297
 7275 188d 01       		.byte	0x1
 7276 188e 4B03     		.2byte	0x34b
 7277 1890 FB0C0000 		.4byte	0xcfb
 7278 1894 62040000 		.4byte	.LLST68
 7279 1898 2E       		.uleb128 0x2e
 7280 1899 6E756D00 		.ascii	"num\000"
 7281 189d 01       		.byte	0x1
 7282 189e 4C03     		.2byte	0x34c
 7283 18a0 D3090000 		.4byte	0x9d3
 7284 18a4 C8040000 		.4byte	.LLST69
 7285 18a8 2E       		.uleb128 0x2e
 7286 18a9 69326300 		.ascii	"i2c\000"
 7287 18ad 01       		.byte	0x1
 7288 18ae 4D03     		.2byte	0x34d
 7289 18b0 9D150000 		.4byte	0x159d
 7290 18b4 07050000 		.4byte	.LLST70
 7291 18b8 37       		.uleb128 0x37
 7292 18b9 6900     		.ascii	"i\000"
ARM GAS  C:\Users\claym\AppData\Local\Temp\ccxpUFUu.s 			page 167


 7293 18bb 01       		.byte	0x1
 7294 18bc 4F03     		.2byte	0x34f
 7295 18be C8090000 		.4byte	0x9c8
 7296 18c2 49050000 		.4byte	.LLST71
 7297 18c6 30       		.uleb128 0x30
 7298 18c7 7F0C0000 		.4byte	.LASF298
 7299 18cb 01       		.byte	0x1
 7300 18cc 5003     		.2byte	0x350
 7301 18ce D3090000 		.4byte	0x9d3
 7302 18d2 DC050000 		.4byte	.LLST72
 7303 18d6 30       		.uleb128 0x30
 7304 18d7 F1070000 		.4byte	.LASF299
 7305 18db 01       		.byte	0x1
 7306 18dc 5003     		.2byte	0x350
 7307 18de D3090000 		.4byte	0x9d3
 7308 18e2 FC050000 		.4byte	.LLST73
 7309 18e6 30       		.uleb128 0x30
 7310 18e7 34060000 		.4byte	.LASF254
 7311 18eb 01       		.byte	0x1
 7312 18ec 5103     		.2byte	0x351
 7313 18ee D3090000 		.4byte	0x9d3
 7314 18f2 0F060000 		.4byte	.LLST74
 7315 18f6 30       		.uleb128 0x30
 7316 18f7 6C030000 		.4byte	.LASF300
 7317 18fb 01       		.byte	0x1
 7318 18fc 5103     		.2byte	0x351
 7319 18fe D3090000 		.4byte	0x9d3
 7320 1902 22060000 		.4byte	.LLST75
 7321 1906 38       		.uleb128 0x38
 7322 1907 55240000 		.4byte	0x2455
 7323 190b 72070000 		.4byte	.LBB130
 7324 190f 74070000 		.4byte	.LBE130
 7325 1913 01       		.byte	0x1
 7326 1914 7403     		.2byte	0x374
 7327 1916 38       		.uleb128 0x38
 7328 1917 55240000 		.4byte	0x2455
 7329 191b 74070000 		.4byte	.LBB132
 7330 191f 76070000 		.4byte	.LBE132
 7331 1923 01       		.byte	0x1
 7332 1924 7503     		.2byte	0x375
 7333 1926 38       		.uleb128 0x38
 7334 1927 55240000 		.4byte	0x2455
 7335 192b CA070000 		.4byte	.LBB134
 7336 192f CC070000 		.4byte	.LBE134
 7337 1933 01       		.byte	0x1
 7338 1934 8F03     		.2byte	0x38f
 7339 1936 38       		.uleb128 0x38
 7340 1937 55240000 		.4byte	0x2455
 7341 193b CC070000 		.4byte	.LBB136
 7342 193f CE070000 		.4byte	.LBE136
 7343 1943 01       		.byte	0x1
 7344 1944 9003     		.2byte	0x390
 7345 1946 31       		.uleb128 0x31
 7346 1947 26070000 		.4byte	.LVL166
 7347 194b 621D0000 		.4byte	0x1d62
 7348 194f 65190000 		.4byte	0x1965
 7349 1953 32       		.uleb128 0x32
ARM GAS  C:\Users\claym\AppData\Local\Temp\ccxpUFUu.s 			page 168


 7350 1954 01       		.byte	0x1
 7351 1955 50       		.byte	0x50
 7352 1956 01       		.byte	0x1
 7353 1957 30       		.byte	0x30
 7354 1958 32       		.uleb128 0x32
 7355 1959 01       		.byte	0x1
 7356 195a 51       		.byte	0x51
 7357 195b 02       		.byte	0x2
 7358 195c 75       		.byte	0x75
 7359 195d 00       		.sleb128 0
 7360 195e 32       		.uleb128 0x32
 7361 195f 01       		.byte	0x1
 7362 1960 52       		.byte	0x52
 7363 1961 02       		.byte	0x2
 7364 1962 74       		.byte	0x74
 7365 1963 00       		.sleb128 0
 7366 1964 00       		.byte	0
 7367 1965 39       		.uleb128 0x39
 7368 1966 42070000 		.4byte	.LVL170
 7369 196a 6C240000 		.4byte	0x246c
 7370 196e 39       		.uleb128 0x39
 7371 196f 50070000 		.4byte	.LVL172
 7372 1973 6C240000 		.4byte	0x246c
 7373 1977 31       		.uleb128 0x31
 7374 1978 5C070000 		.4byte	.LVL174
 7375 197c 241D0000 		.4byte	0x1d24
 7376 1980 8B190000 		.4byte	0x198b
 7377 1984 32       		.uleb128 0x32
 7378 1985 01       		.byte	0x1
 7379 1986 50       		.byte	0x50
 7380 1987 02       		.byte	0x2
 7381 1988 74       		.byte	0x74
 7382 1989 00       		.sleb128 0
 7383 198a 00       		.byte	0
 7384 198b 39       		.uleb128 0x39
 7385 198c C4070000 		.4byte	.LVL190
 7386 1990 6C240000 		.4byte	0x246c
 7387 1994 31       		.uleb128 0x31
 7388 1995 DE070000 		.4byte	.LVL191
 7389 1999 241D0000 		.4byte	0x1d24
 7390 199d A8190000 		.4byte	0x19a8
 7391 19a1 32       		.uleb128 0x32
 7392 19a2 01       		.byte	0x1
 7393 19a3 50       		.byte	0x50
 7394 19a4 02       		.byte	0x2
 7395 19a5 74       		.byte	0x74
 7396 19a6 00       		.sleb128 0
 7397 19a7 00       		.byte	0
 7398 19a8 31       		.uleb128 0x31
 7399 19a9 EA070000 		.4byte	.LVL194
 7400 19ad 5F240000 		.4byte	0x245f
 7401 19b1 BB190000 		.4byte	0x19bb
 7402 19b5 32       		.uleb128 0x32
 7403 19b6 01       		.byte	0x1
 7404 19b7 50       		.byte	0x50
 7405 19b8 01       		.byte	0x1
 7406 19b9 36       		.byte	0x36
ARM GAS  C:\Users\claym\AppData\Local\Temp\ccxpUFUu.s 			page 169


 7407 19ba 00       		.byte	0
 7408 19bb 31       		.uleb128 0x31
 7409 19bc 10080000 		.4byte	.LVL195
 7410 19c0 621D0000 		.4byte	0x1d62
 7411 19c4 DB190000 		.4byte	0x19db
 7412 19c8 32       		.uleb128 0x32
 7413 19c9 01       		.byte	0x1
 7414 19ca 50       		.byte	0x50
 7415 19cb 02       		.byte	0x2
 7416 19cc 76       		.byte	0x76
 7417 19cd 00       		.sleb128 0
 7418 19ce 32       		.uleb128 0x32
 7419 19cf 01       		.byte	0x1
 7420 19d0 51       		.byte	0x51
 7421 19d1 02       		.byte	0x2
 7422 19d2 75       		.byte	0x75
 7423 19d3 00       		.sleb128 0
 7424 19d4 32       		.uleb128 0x32
 7425 19d5 01       		.byte	0x1
 7426 19d6 52       		.byte	0x52
 7427 19d7 02       		.byte	0x2
 7428 19d8 74       		.byte	0x74
 7429 19d9 00       		.sleb128 0
 7430 19da 00       		.byte	0
 7431 19db 31       		.uleb128 0x31
 7432 19dc 1C080000 		.4byte	.LVL196
 7433 19e0 86240000 		.4byte	0x2486
 7434 19e4 FC190000 		.4byte	0x19fc
 7435 19e8 32       		.uleb128 0x32
 7436 19e9 01       		.byte	0x1
 7437 19ea 50       		.byte	0x50
 7438 19eb 03       		.byte	0x3
 7439 19ec 74       		.byte	0x74
 7440 19ed E000     		.sleb128 96
 7441 19ef 32       		.uleb128 0x32
 7442 19f0 01       		.byte	0x1
 7443 19f1 51       		.byte	0x51
 7444 19f2 02       		.byte	0x2
 7445 19f3 77       		.byte	0x77
 7446 19f4 00       		.sleb128 0
 7447 19f5 32       		.uleb128 0x32
 7448 19f6 01       		.byte	0x1
 7449 19f7 52       		.byte	0x52
 7450 19f8 02       		.byte	0x2
 7451 19f9 75       		.byte	0x75
 7452 19fa 00       		.sleb128 0
 7453 19fb 00       		.byte	0
 7454 19fc 3A       		.uleb128 0x3a
 7455 19fd 44080000 		.4byte	.LVL199
 7456 1a01 79240000 		.4byte	0x2479
 7457 1a05 32       		.uleb128 0x32
 7458 1a06 01       		.byte	0x1
 7459 1a07 50       		.byte	0x50
 7460 1a08 01       		.byte	0x1
 7461 1a09 36       		.byte	0x36
 7462 1a0a 00       		.byte	0
 7463 1a0b 00       		.byte	0
ARM GAS  C:\Users\claym\AppData\Local\Temp\ccxpUFUu.s 			page 170


 7464 1a0c 35       		.uleb128 0x35
 7465 1a0d 01       		.byte	0x1
 7466 1a0e 32080000 		.4byte	.LASF302
 7467 1a12 01       		.byte	0x1
 7468 1a13 D602     		.2byte	0x2d6
 7469 1a15 01       		.byte	0x1
 7470 1a16 C8090000 		.4byte	0x9c8
 7471 1a1a A4050000 		.4byte	.LFB61
 7472 1a1e D8060000 		.4byte	.LFE61
 7473 1a22 35060000 		.4byte	.LLST59
 7474 1a26 01       		.byte	0x1
 7475 1a27 5C1B0000 		.4byte	0x1b5c
 7476 1a2b 36       		.uleb128 0x36
 7477 1a2c 310D0000 		.4byte	.LASF303
 7478 1a30 01       		.byte	0x1
 7479 1a31 D602     		.2byte	0x2d6
 7480 1a33 D3090000 		.4byte	0x9d3
 7481 1a37 61060000 		.4byte	.LLST60
 7482 1a3b 36       		.uleb128 0x36
 7483 1a3c 92080000 		.4byte	.LASF297
 7484 1a40 01       		.byte	0x1
 7485 1a41 D702     		.2byte	0x2d7
 7486 1a43 2D0D0000 		.4byte	0xd2d
 7487 1a47 D5060000 		.4byte	.LLST61
 7488 1a4b 2E       		.uleb128 0x2e
 7489 1a4c 6E756D00 		.ascii	"num\000"
 7490 1a50 01       		.byte	0x1
 7491 1a51 D802     		.2byte	0x2d8
 7492 1a53 D3090000 		.4byte	0x9d3
 7493 1a57 26070000 		.4byte	.LLST62
 7494 1a5b 36       		.uleb128 0x36
 7495 1a5c 48090000 		.4byte	.LASF304
 7496 1a60 01       		.byte	0x1
 7497 1a61 D902     		.2byte	0x2d9
 7498 1a63 010D0000 		.4byte	0xd01
 7499 1a67 83070000 		.4byte	.LLST63
 7500 1a6b 2E       		.uleb128 0x2e
 7501 1a6c 69326300 		.ascii	"i2c\000"
 7502 1a70 01       		.byte	0x1
 7503 1a71 DA02     		.2byte	0x2da
 7504 1a73 9D150000 		.4byte	0x159d
 7505 1a77 BD070000 		.4byte	.LLST64
 7506 1a7b 37       		.uleb128 0x37
 7507 1a7c 6900     		.ascii	"i\000"
 7508 1a7e 01       		.byte	0x1
 7509 1a7f DC02     		.2byte	0x2dc
 7510 1a81 C8090000 		.4byte	0x9c8
 7511 1a85 E9070000 		.4byte	.LLST65
 7512 1a89 30       		.uleb128 0x30
 7513 1a8a 34060000 		.4byte	.LASF254
 7514 1a8e 01       		.byte	0x1
 7515 1a8f DE02     		.2byte	0x2de
 7516 1a91 D3090000 		.4byte	0x9d3
 7517 1a95 60080000 		.4byte	.LLST66
 7518 1a99 38       		.uleb128 0x38
 7519 1a9a 55240000 		.4byte	0x2455
 7520 1a9e 0A060000 		.4byte	.LBB126
ARM GAS  C:\Users\claym\AppData\Local\Temp\ccxpUFUu.s 			page 171


 7521 1aa2 0C060000 		.4byte	.LBE126
 7522 1aa6 01       		.byte	0x1
 7523 1aa7 FC02     		.2byte	0x2fc
 7524 1aa9 38       		.uleb128 0x38
 7525 1aaa 55240000 		.4byte	0x2455
 7526 1aae 0C060000 		.4byte	.LBB128
 7527 1ab2 0E060000 		.4byte	.LBE128
 7528 1ab6 01       		.byte	0x1
 7529 1ab7 FD02     		.2byte	0x2fd
 7530 1ab9 31       		.uleb128 0x31
 7531 1aba F0050000 		.4byte	.LVL136
 7532 1abe 621D0000 		.4byte	0x1d62
 7533 1ac2 DB1A0000 		.4byte	0x1adb
 7534 1ac6 32       		.uleb128 0x32
 7535 1ac7 01       		.byte	0x1
 7536 1ac8 50       		.byte	0x50
 7537 1ac9 03       		.byte	0x3
 7538 1aca 91       		.byte	0x91
 7539 1acb 60       		.sleb128 -32
 7540 1acc 06       		.byte	0x6
 7541 1acd 32       		.uleb128 0x32
 7542 1ace 01       		.byte	0x1
 7543 1acf 51       		.byte	0x51
 7544 1ad0 03       		.byte	0x3
 7545 1ad1 7D       		.byte	0x7d
 7546 1ad2 00       		.sleb128 0
 7547 1ad3 06       		.byte	0x6
 7548 1ad4 32       		.uleb128 0x32
 7549 1ad5 01       		.byte	0x1
 7550 1ad6 52       		.byte	0x52
 7551 1ad7 02       		.byte	0x2
 7552 1ad8 77       		.byte	0x77
 7553 1ad9 00       		.sleb128 0
 7554 1ada 00       		.byte	0
 7555 1adb 31       		.uleb128 0x31
 7556 1adc 58060000 		.4byte	.LVL145
 7557 1ae0 241D0000 		.4byte	0x1d24
 7558 1ae4 EF1A0000 		.4byte	0x1aef
 7559 1ae8 32       		.uleb128 0x32
 7560 1ae9 01       		.byte	0x1
 7561 1aea 50       		.byte	0x50
 7562 1aeb 02       		.byte	0x2
 7563 1aec 77       		.byte	0x77
 7564 1aed 00       		.sleb128 0
 7565 1aee 00       		.byte	0
 7566 1aef 31       		.uleb128 0x31
 7567 1af0 68060000 		.4byte	.LVL148
 7568 1af4 241D0000 		.4byte	0x1d24
 7569 1af8 031B0000 		.4byte	0x1b03
 7570 1afc 32       		.uleb128 0x32
 7571 1afd 01       		.byte	0x1
 7572 1afe 50       		.byte	0x50
 7573 1aff 02       		.byte	0x2
 7574 1b00 77       		.byte	0x77
 7575 1b01 00       		.sleb128 0
 7576 1b02 00       		.byte	0
 7577 1b03 31       		.uleb128 0x31
ARM GAS  C:\Users\claym\AppData\Local\Temp\ccxpUFUu.s 			page 172


 7578 1b04 76060000 		.4byte	.LVL150
 7579 1b08 241D0000 		.4byte	0x1d24
 7580 1b0c 171B0000 		.4byte	0x1b17
 7581 1b10 32       		.uleb128 0x32
 7582 1b11 01       		.byte	0x1
 7583 1b12 50       		.byte	0x50
 7584 1b13 02       		.byte	0x2
 7585 1b14 77       		.byte	0x77
 7586 1b15 00       		.sleb128 0
 7587 1b16 00       		.byte	0
 7588 1b17 31       		.uleb128 0x31
 7589 1b18 82060000 		.4byte	.LVL154
 7590 1b1c 5F240000 		.4byte	0x245f
 7591 1b20 2A1B0000 		.4byte	0x1b2a
 7592 1b24 32       		.uleb128 0x32
 7593 1b25 01       		.byte	0x1
 7594 1b26 50       		.byte	0x50
 7595 1b27 01       		.byte	0x1
 7596 1b28 35       		.byte	0x35
 7597 1b29 00       		.byte	0
 7598 1b2a 31       		.uleb128 0x31
 7599 1b2b A6060000 		.4byte	.LVL156
 7600 1b2f 621D0000 		.4byte	0x1d62
 7601 1b33 4C1B0000 		.4byte	0x1b4c
 7602 1b37 32       		.uleb128 0x32
 7603 1b38 01       		.byte	0x1
 7604 1b39 50       		.byte	0x50
 7605 1b3a 03       		.byte	0x3
 7606 1b3b 91       		.byte	0x91
 7607 1b3c 60       		.sleb128 -32
 7608 1b3d 06       		.byte	0x6
 7609 1b3e 32       		.uleb128 0x32
 7610 1b3f 01       		.byte	0x1
 7611 1b40 51       		.byte	0x51
 7612 1b41 03       		.byte	0x3
 7613 1b42 7D       		.byte	0x7d
 7614 1b43 00       		.sleb128 0
 7615 1b44 06       		.byte	0x6
 7616 1b45 32       		.uleb128 0x32
 7617 1b46 01       		.byte	0x1
 7618 1b47 52       		.byte	0x52
 7619 1b48 02       		.byte	0x2
 7620 1b49 77       		.byte	0x77
 7621 1b4a 00       		.sleb128 0
 7622 1b4b 00       		.byte	0
 7623 1b4c 3A       		.uleb128 0x3a
 7624 1b4d C8060000 		.4byte	.LVL157
 7625 1b51 79240000 		.4byte	0x2479
 7626 1b55 32       		.uleb128 0x32
 7627 1b56 01       		.byte	0x1
 7628 1b57 50       		.byte	0x50
 7629 1b58 01       		.byte	0x1
 7630 1b59 35       		.byte	0x35
 7631 1b5a 00       		.byte	0
 7632 1b5b 00       		.byte	0
 7633 1b5c 35       		.uleb128 0x35
 7634 1b5d 01       		.byte	0x1
ARM GAS  C:\Users\claym\AppData\Local\Temp\ccxpUFUu.s 			page 173


 7635 1b5e 22000000 		.4byte	.LASF305
 7636 1b62 01       		.byte	0x1
 7637 1b63 4702     		.2byte	0x247
 7638 1b65 01       		.byte	0x1
 7639 1b66 C8090000 		.4byte	0x9c8
 7640 1b6a 34040000 		.4byte	.LFB60
 7641 1b6e A4050000 		.4byte	.LFE60
 7642 1b72 94080000 		.4byte	.LLST51
 7643 1b76 01       		.byte	0x1
 7644 1b77 241D0000 		.4byte	0x1d24
 7645 1b7b 36       		.uleb128 0x36
 7646 1b7c 310D0000 		.4byte	.LASF303
 7647 1b80 01       		.byte	0x1
 7648 1b81 4702     		.2byte	0x247
 7649 1b83 D3090000 		.4byte	0x9d3
 7650 1b87 C0080000 		.4byte	.LLST52
 7651 1b8b 36       		.uleb128 0x36
 7652 1b8c 92080000 		.4byte	.LASF297
 7653 1b90 01       		.byte	0x1
 7654 1b91 4802     		.2byte	0x248
 7655 1b93 FB0C0000 		.4byte	0xcfb
 7656 1b97 11090000 		.4byte	.LLST53
 7657 1b9b 2E       		.uleb128 0x2e
 7658 1b9c 6E756D00 		.ascii	"num\000"
 7659 1ba0 01       		.byte	0x1
 7660 1ba1 4902     		.2byte	0x249
 7661 1ba3 D3090000 		.4byte	0x9d3
 7662 1ba7 6E090000 		.4byte	.LLST54
 7663 1bab 36       		.uleb128 0x36
 7664 1bac 48090000 		.4byte	.LASF304
 7665 1bb0 01       		.byte	0x1
 7666 1bb1 4A02     		.2byte	0x24a
 7667 1bb3 010D0000 		.4byte	0xd01
 7668 1bb7 A2090000 		.4byte	.LLST55
 7669 1bbb 2E       		.uleb128 0x2e
 7670 1bbc 69326300 		.ascii	"i2c\000"
 7671 1bc0 01       		.byte	0x1
 7672 1bc1 4B02     		.2byte	0x24b
 7673 1bc3 9D150000 		.4byte	0x159d
 7674 1bc7 DC090000 		.4byte	.LLST56
 7675 1bcb 37       		.uleb128 0x37
 7676 1bcc 6900     		.ascii	"i\000"
 7677 1bce 01       		.byte	0x1
 7678 1bcf 4C02     		.2byte	0x24c
 7679 1bd1 C8090000 		.4byte	0x9c8
 7680 1bd5 080A0000 		.4byte	.LLST57
 7681 1bd9 30       		.uleb128 0x30
 7682 1bda 34060000 		.4byte	.LASF254
 7683 1bde 01       		.byte	0x1
 7684 1bdf 4E02     		.2byte	0x24e
 7685 1be1 D3090000 		.4byte	0x9d3
 7686 1be5 6C0A0000 		.4byte	.LLST58
 7687 1be9 38       		.uleb128 0x38
 7688 1bea 55240000 		.4byte	0x2455
 7689 1bee BC040000 		.4byte	.LBB116
 7690 1bf2 BE040000 		.4byte	.LBE116
 7691 1bf6 01       		.byte	0x1
ARM GAS  C:\Users\claym\AppData\Local\Temp\ccxpUFUu.s 			page 174


 7692 1bf7 6E02     		.2byte	0x26e
 7693 1bf9 38       		.uleb128 0x38
 7694 1bfa 55240000 		.4byte	0x2455
 7695 1bfe BE040000 		.4byte	.LBB118
 7696 1c02 C0040000 		.4byte	.LBE118
 7697 1c06 01       		.byte	0x1
 7698 1c07 6F02     		.2byte	0x26f
 7699 1c09 38       		.uleb128 0x38
 7700 1c0a 55240000 		.4byte	0x2455
 7701 1c0e C0040000 		.4byte	.LBB120
 7702 1c12 C2040000 		.4byte	.LBE120
 7703 1c16 01       		.byte	0x1
 7704 1c17 7002     		.2byte	0x270
 7705 1c19 38       		.uleb128 0x38
 7706 1c1a 55240000 		.4byte	0x2455
 7707 1c1e 22050000 		.4byte	.LBB122
 7708 1c22 24050000 		.4byte	.LBE122
 7709 1c26 01       		.byte	0x1
 7710 1c27 9502     		.2byte	0x295
 7711 1c29 38       		.uleb128 0x38
 7712 1c2a 55240000 		.4byte	0x2455
 7713 1c2e 24050000 		.4byte	.LBB124
 7714 1c32 26050000 		.4byte	.LBE124
 7715 1c36 01       		.byte	0x1
 7716 1c37 9602     		.2byte	0x296
 7717 1c39 31       		.uleb128 0x31
 7718 1c3a 8A040000 		.4byte	.LVL103
 7719 1c3e 621D0000 		.4byte	0x1d62
 7720 1c42 5A1C0000 		.4byte	0x1c5a
 7721 1c46 32       		.uleb128 0x32
 7722 1c47 01       		.byte	0x1
 7723 1c48 50       		.byte	0x50
 7724 1c49 03       		.byte	0x3
 7725 1c4a 91       		.byte	0x91
 7726 1c4b 60       		.sleb128 -32
 7727 1c4c 06       		.byte	0x6
 7728 1c4d 32       		.uleb128 0x32
 7729 1c4e 01       		.byte	0x1
 7730 1c4f 51       		.byte	0x51
 7731 1c50 02       		.byte	0x2
 7732 1c51 77       		.byte	0x77
 7733 1c52 00       		.sleb128 0
 7734 1c53 32       		.uleb128 0x32
 7735 1c54 01       		.byte	0x1
 7736 1c55 52       		.byte	0x52
 7737 1c56 02       		.byte	0x2
 7738 1c57 74       		.byte	0x74
 7739 1c58 00       		.sleb128 0
 7740 1c59 00       		.byte	0
 7741 1c5a 31       		.uleb128 0x31
 7742 1c5b B8040000 		.4byte	.LVL106
 7743 1c5f 241D0000 		.4byte	0x1d24
 7744 1c63 6E1C0000 		.4byte	0x1c6e
 7745 1c67 32       		.uleb128 0x32
 7746 1c68 01       		.byte	0x1
 7747 1c69 50       		.byte	0x50
 7748 1c6a 02       		.byte	0x2
ARM GAS  C:\Users\claym\AppData\Local\Temp\ccxpUFUu.s 			page 175


 7749 1c6b 74       		.byte	0x74
 7750 1c6c 00       		.sleb128 0
 7751 1c6d 00       		.byte	0
 7752 1c6e 31       		.uleb128 0x31
 7753 1c6f 00050000 		.4byte	.LVL112
 7754 1c73 241D0000 		.4byte	0x1d24
 7755 1c77 821C0000 		.4byte	0x1c82
 7756 1c7b 32       		.uleb128 0x32
 7757 1c7c 01       		.byte	0x1
 7758 1c7d 50       		.byte	0x50
 7759 1c7e 02       		.byte	0x2
 7760 1c7f 74       		.byte	0x74
 7761 1c80 00       		.sleb128 0
 7762 1c81 00       		.byte	0
 7763 1c82 31       		.uleb128 0x31
 7764 1c83 10050000 		.4byte	.LVL114
 7765 1c87 241D0000 		.4byte	0x1d24
 7766 1c8b 961C0000 		.4byte	0x1c96
 7767 1c8f 32       		.uleb128 0x32
 7768 1c90 01       		.byte	0x1
 7769 1c91 50       		.byte	0x50
 7770 1c92 02       		.byte	0x2
 7771 1c93 74       		.byte	0x74
 7772 1c94 00       		.sleb128 0
 7773 1c95 00       		.byte	0
 7774 1c96 31       		.uleb128 0x31
 7775 1c97 1E050000 		.4byte	.LVL117
 7776 1c9b 241D0000 		.4byte	0x1d24
 7777 1c9f AA1C0000 		.4byte	0x1caa
 7778 1ca3 32       		.uleb128 0x32
 7779 1ca4 01       		.byte	0x1
 7780 1ca5 50       		.byte	0x50
 7781 1ca6 02       		.byte	0x2
 7782 1ca7 74       		.byte	0x74
 7783 1ca8 00       		.sleb128 0
 7784 1ca9 00       		.byte	0
 7785 1caa 31       		.uleb128 0x31
 7786 1cab 3E050000 		.4byte	.LVL118
 7787 1caf 241D0000 		.4byte	0x1d24
 7788 1cb3 BE1C0000 		.4byte	0x1cbe
 7789 1cb7 32       		.uleb128 0x32
 7790 1cb8 01       		.byte	0x1
 7791 1cb9 50       		.byte	0x50
 7792 1cba 02       		.byte	0x2
 7793 1cbb 74       		.byte	0x74
 7794 1cbc 00       		.sleb128 0
 7795 1cbd 00       		.byte	0
 7796 1cbe 31       		.uleb128 0x31
 7797 1cbf 4C050000 		.4byte	.LVL123
 7798 1cc3 5F240000 		.4byte	0x245f
 7799 1cc7 D11C0000 		.4byte	0x1cd1
 7800 1ccb 32       		.uleb128 0x32
 7801 1ccc 01       		.byte	0x1
 7802 1ccd 50       		.byte	0x50
 7803 1cce 01       		.byte	0x1
 7804 1ccf 35       		.byte	0x35
 7805 1cd0 00       		.byte	0
ARM GAS  C:\Users\claym\AppData\Local\Temp\ccxpUFUu.s 			page 176


 7806 1cd1 31       		.uleb128 0x31
 7807 1cd2 70050000 		.4byte	.LVL125
 7808 1cd6 621D0000 		.4byte	0x1d62
 7809 1cda F21C0000 		.4byte	0x1cf2
 7810 1cde 32       		.uleb128 0x32
 7811 1cdf 01       		.byte	0x1
 7812 1ce0 50       		.byte	0x50
 7813 1ce1 03       		.byte	0x3
 7814 1ce2 91       		.byte	0x91
 7815 1ce3 60       		.sleb128 -32
 7816 1ce4 06       		.byte	0x6
 7817 1ce5 32       		.uleb128 0x32
 7818 1ce6 01       		.byte	0x1
 7819 1ce7 51       		.byte	0x51
 7820 1ce8 02       		.byte	0x2
 7821 1ce9 77       		.byte	0x77
 7822 1cea 00       		.sleb128 0
 7823 1ceb 32       		.uleb128 0x32
 7824 1cec 01       		.byte	0x1
 7825 1ced 52       		.byte	0x52
 7826 1cee 02       		.byte	0x2
 7827 1cef 74       		.byte	0x74
 7828 1cf0 00       		.sleb128 0
 7829 1cf1 00       		.byte	0
 7830 1cf2 31       		.uleb128 0x31
 7831 1cf3 7C050000 		.4byte	.LVL126
 7832 1cf7 86240000 		.4byte	0x2486
 7833 1cfb 141D0000 		.4byte	0x1d14
 7834 1cff 32       		.uleb128 0x32
 7835 1d00 01       		.byte	0x1
 7836 1d01 50       		.byte	0x50
 7837 1d02 03       		.byte	0x3
 7838 1d03 74       		.byte	0x74
 7839 1d04 E000     		.sleb128 96
 7840 1d06 32       		.uleb128 0x32
 7841 1d07 01       		.byte	0x1
 7842 1d08 51       		.byte	0x51
 7843 1d09 03       		.byte	0x3
 7844 1d0a 91       		.byte	0x91
 7845 1d0b 5C       		.sleb128 -36
 7846 1d0c 06       		.byte	0x6
 7847 1d0d 32       		.uleb128 0x32
 7848 1d0e 01       		.byte	0x1
 7849 1d0f 52       		.byte	0x52
 7850 1d10 02       		.byte	0x2
 7851 1d11 77       		.byte	0x77
 7852 1d12 00       		.sleb128 0
 7853 1d13 00       		.byte	0
 7854 1d14 3A       		.uleb128 0x3a
 7855 1d15 94050000 		.4byte	.LVL127
 7856 1d19 79240000 		.4byte	0x2479
 7857 1d1d 32       		.uleb128 0x32
 7858 1d1e 01       		.byte	0x1
 7859 1d1f 50       		.byte	0x50
 7860 1d20 01       		.byte	0x1
 7861 1d21 35       		.byte	0x35
 7862 1d22 00       		.byte	0
ARM GAS  C:\Users\claym\AppData\Local\Temp\ccxpUFUu.s 			page 177


 7863 1d23 00       		.byte	0
 7864 1d24 3B       		.uleb128 0x3b
 7865 1d25 BF070000 		.4byte	.LASF306
 7866 1d29 01       		.byte	0x1
 7867 1d2a 1D02     		.2byte	0x21d
 7868 1d2c 01       		.byte	0x1
 7869 1d2d C8090000 		.4byte	0x9c8
 7870 1d31 48010000 		.4byte	.LFB59
 7871 1d35 86010000 		.4byte	.LFE59
 7872 1d39 950A0000 		.4byte	.LLST4
 7873 1d3d 01       		.byte	0x1
 7874 1d3e 621D0000 		.4byte	0x1d62
 7875 1d42 2E       		.uleb128 0x2e
 7876 1d43 69326300 		.ascii	"i2c\000"
 7877 1d47 01       		.byte	0x1
 7878 1d48 1D02     		.2byte	0x21d
 7879 1d4a 9D150000 		.4byte	0x159d
 7880 1d4e B50A0000 		.4byte	.LLST5
 7881 1d52 3A       		.uleb128 0x3a
 7882 1d53 5C010000 		.4byte	.LVL23
 7883 1d57 97240000 		.4byte	0x2497
 7884 1d5b 32       		.uleb128 0x32
 7885 1d5c 01       		.byte	0x1
 7886 1d5d 50       		.byte	0x50
 7887 1d5e 01       		.byte	0x1
 7888 1d5f 31       		.byte	0x31
 7889 1d60 00       		.byte	0
 7890 1d61 00       		.byte	0
 7891 1d62 3B       		.uleb128 0x3b
 7892 1d63 23010000 		.4byte	.LASF307
 7893 1d67 01       		.byte	0x1
 7894 1d68 B601     		.2byte	0x1b6
 7895 1d6a 01       		.byte	0x1
 7896 1d6b C8090000 		.4byte	0x9c8
 7897 1d6f 00000000 		.4byte	.LFB58
 7898 1d73 48010000 		.4byte	.LFE58
 7899 1d77 E10A0000 		.4byte	.LLST0
 7900 1d7b 01       		.byte	0x1
 7901 1d7c BF1D0000 		.4byte	0x1dbf
 7902 1d80 36       		.uleb128 0x36
 7903 1d81 310D0000 		.4byte	.LASF303
 7904 1d85 01       		.byte	0x1
 7905 1d86 B601     		.2byte	0x1b6
 7906 1d88 D3090000 		.4byte	0x9d3
 7907 1d8c 010B0000 		.4byte	.LLST1
 7908 1d90 2E       		.uleb128 0x2e
 7909 1d91 6E756D00 		.ascii	"num\000"
 7910 1d95 01       		.byte	0x1
 7911 1d96 B701     		.2byte	0x1b7
 7912 1d98 D3090000 		.4byte	0x9d3
 7913 1d9c 200B0000 		.4byte	.LLST2
 7914 1da0 3C       		.uleb128 0x3c
 7915 1da1 69326300 		.ascii	"i2c\000"
 7916 1da5 01       		.byte	0x1
 7917 1da6 B801     		.2byte	0x1b8
 7918 1da8 9D150000 		.4byte	0x159d
 7919 1dac 01       		.byte	0x1
ARM GAS  C:\Users\claym\AppData\Local\Temp\ccxpUFUu.s 			page 178


 7920 1dad 52       		.byte	0x52
 7921 1dae 30       		.uleb128 0x30
 7922 1daf 1B010000 		.4byte	.LASF308
 7923 1db3 01       		.byte	0x1
 7924 1db4 BA01     		.2byte	0x1ba
 7925 1db6 D3090000 		.4byte	0x9d3
 7926 1dba 650B0000 		.4byte	.LLST3
 7927 1dbe 00       		.byte	0
 7928 1dbf 35       		.uleb128 0x35
 7929 1dc0 01       		.byte	0x1
 7930 1dc1 1B050000 		.4byte	.LASF309
 7931 1dc5 01       		.byte	0x1
 7932 1dc6 8401     		.2byte	0x184
 7933 1dc8 01       		.byte	0x1
 7934 1dc9 ED0B0000 		.4byte	0xbed
 7935 1dcd 20030000 		.4byte	.LFB57
 7936 1dd1 34040000 		.4byte	.LFE57
 7937 1dd5 E10B0000 		.4byte	.LLST49
 7938 1dd9 01       		.byte	0x1
 7939 1dda EF1D0000 		.4byte	0x1def
 7940 1dde 2E       		.uleb128 0x2e
 7941 1ddf 69326300 		.ascii	"i2c\000"
 7942 1de3 01       		.byte	0x1
 7943 1de4 8401     		.2byte	0x184
 7944 1de6 9D150000 		.4byte	0x159d
 7945 1dea 010C0000 		.4byte	.LLST50
 7946 1dee 00       		.byte	0
 7947 1def 3D       		.uleb128 0x3d
 7948 1df0 01       		.byte	0x1
 7949 1df1 4F010000 		.4byte	.LASF310
 7950 1df5 01       		.byte	0x1
 7951 1df6 6301     		.2byte	0x163
 7952 1df8 01       		.byte	0x1
 7953 1df9 C8090000 		.4byte	0x9c8
 7954 1dfd 3A020000 		.4byte	.LFB56
 7955 1e01 20030000 		.4byte	.LFE56
 7956 1e05 220C0000 		.4byte	.LLST14
 7957 1e09 01       		.byte	0x1
 7958 1e0a BF200000 		.4byte	0x20bf
 7959 1e0e 36       		.uleb128 0x36
 7960 1e0f 1B010000 		.4byte	.LASF308
 7961 1e13 01       		.byte	0x1
 7962 1e14 6301     		.2byte	0x163
 7963 1e16 D3090000 		.4byte	0x9d3
 7964 1e1a 420C0000 		.4byte	.LLST15
 7965 1e1e 2E       		.uleb128 0x2e
 7966 1e1f 61726700 		.ascii	"arg\000"
 7967 1e23 01       		.byte	0x1
 7968 1e24 6301     		.2byte	0x163
 7969 1e26 D3090000 		.4byte	0x9d3
 7970 1e2a 890C0000 		.4byte	.LLST16
 7971 1e2e 2E       		.uleb128 0x2e
 7972 1e2f 69326300 		.ascii	"i2c\000"
 7973 1e33 01       		.byte	0x1
 7974 1e34 6301     		.2byte	0x163
 7975 1e36 9D150000 		.4byte	0x159d
 7976 1e3a 390D0000 		.4byte	.LLST17
ARM GAS  C:\Users\claym\AppData\Local\Temp\ccxpUFUu.s 			page 179


 7977 1e3e 3E       		.uleb128 0x3e
 7978 1e3f 6B230000 		.4byte	0x236b
 7979 1e43 62020000 		.4byte	.LBB82
 7980 1e47 64020000 		.4byte	.LBE82
 7981 1e4b 01       		.byte	0x1
 7982 1e4c 6A01     		.2byte	0x16a
 7983 1e4e 651E0000 		.4byte	0x1e65
 7984 1e52 3F       		.uleb128 0x3f
 7985 1e53 87230000 		.4byte	0x2387
 7986 1e57 FF0D0000 		.4byte	.LLST18
 7987 1e5b 3F       		.uleb128 0x3f
 7988 1e5c 7C230000 		.4byte	0x237c
 7989 1e60 120E0000 		.4byte	.LLST19
 7990 1e64 00       		.byte	0
 7991 1e65 3E       		.uleb128 0x3e
 7992 1e66 43230000 		.4byte	0x2343
 7993 1e6a 68020000 		.4byte	.LBB84
 7994 1e6e 6C020000 		.4byte	.LBE84
 7995 1e72 01       		.byte	0x1
 7996 1e73 6B01     		.2byte	0x16b
 7997 1e75 8C1E0000 		.4byte	0x1e8c
 7998 1e79 3F       		.uleb128 0x3f
 7999 1e7a 5F230000 		.4byte	0x235f
 8000 1e7e 250E0000 		.4byte	.LLST20
 8001 1e82 3F       		.uleb128 0x3f
 8002 1e83 54230000 		.4byte	0x2354
 8003 1e87 380E0000 		.4byte	.LLST21
 8004 1e8b 00       		.byte	0
 8005 1e8c 40       		.uleb128 0x40
 8006 1e8d 10230000 		.4byte	0x2310
 8007 1e91 6C020000 		.4byte	.LBB86
 8008 1e95 00000000 		.4byte	.Ldebug_ranges0+0
 8009 1e99 01       		.byte	0x1
 8010 1e9a 6C01     		.2byte	0x16c
 8011 1e9c D41E0000 		.4byte	0x1ed4
 8012 1ea0 3F       		.uleb128 0x3f
 8013 1ea1 2C230000 		.4byte	0x232c
 8014 1ea5 4B0E0000 		.4byte	.LLST22
 8015 1ea9 3F       		.uleb128 0x3f
 8016 1eaa 21230000 		.4byte	0x2321
 8017 1eae 7F0E0000 		.4byte	.LLST23
 8018 1eb2 41       		.uleb128 0x41
 8019 1eb3 00000000 		.4byte	.Ldebug_ranges0+0
 8020 1eb7 42       		.uleb128 0x42
 8021 1eb8 37230000 		.4byte	0x2337
 8022 1ebc B30E0000 		.4byte	.LLST24
 8023 1ec0 39       		.uleb128 0x39
 8024 1ec1 7C020000 		.4byte	.LVL53
 8025 1ec5 A4240000 		.4byte	0x24a4
 8026 1ec9 39       		.uleb128 0x39
 8027 1eca 90020000 		.4byte	.LVL58
 8028 1ece A4240000 		.4byte	0x24a4
 8029 1ed2 00       		.byte	0
 8030 1ed3 00       		.byte	0
 8031 1ed4 3E       		.uleb128 0x3e
 8032 1ed5 E8220000 		.4byte	0x22e8
 8033 1ed9 A4020000 		.4byte	.LBB89
ARM GAS  C:\Users\claym\AppData\Local\Temp\ccxpUFUu.s 			page 180


 8034 1edd A8020000 		.4byte	.LBE89
 8035 1ee1 01       		.byte	0x1
 8036 1ee2 6D01     		.2byte	0x16d
 8037 1ee4 FB1E0000 		.4byte	0x1efb
 8038 1ee8 3F       		.uleb128 0x3f
 8039 1ee9 04230000 		.4byte	0x2304
 8040 1eed F90E0000 		.4byte	.LLST25
 8041 1ef1 3F       		.uleb128 0x3f
 8042 1ef2 F9220000 		.4byte	0x22f9
 8043 1ef6 0C0F0000 		.4byte	.LLST26
 8044 1efa 00       		.byte	0
 8045 1efb 3E       		.uleb128 0x3e
 8046 1efc C0220000 		.4byte	0x22c0
 8047 1f00 A8020000 		.4byte	.LBB91
 8048 1f04 AE020000 		.4byte	.LBE91
 8049 1f08 01       		.byte	0x1
 8050 1f09 6E01     		.2byte	0x16e
 8051 1f0b 221F0000 		.4byte	0x1f22
 8052 1f0f 3F       		.uleb128 0x3f
 8053 1f10 DC220000 		.4byte	0x22dc
 8054 1f14 1F0F0000 		.4byte	.LLST27
 8055 1f18 3F       		.uleb128 0x3f
 8056 1f19 D1220000 		.4byte	0x22d1
 8057 1f1d 320F0000 		.4byte	.LLST28
 8058 1f21 00       		.byte	0
 8059 1f22 40       		.uleb128 0x40
 8060 1f23 98220000 		.4byte	0x2298
 8061 1f27 AE020000 		.4byte	.LBB93
 8062 1f2b 18000000 		.4byte	.Ldebug_ranges0+0x18
 8063 1f2f 01       		.byte	0x1
 8064 1f30 6F01     		.2byte	0x16f
 8065 1f32 491F0000 		.4byte	0x1f49
 8066 1f36 3F       		.uleb128 0x3f
 8067 1f37 B4220000 		.4byte	0x22b4
 8068 1f3b 450F0000 		.4byte	.LLST29
 8069 1f3f 3F       		.uleb128 0x3f
 8070 1f40 A9220000 		.4byte	0x22a9
 8071 1f44 6E0F0000 		.4byte	.LLST30
 8072 1f48 00       		.byte	0
 8073 1f49 3E       		.uleb128 0x3e
 8074 1f4a 70220000 		.4byte	0x2270
 8075 1f4e C6020000 		.4byte	.LBB97
 8076 1f52 DE020000 		.4byte	.LBE97
 8077 1f56 01       		.byte	0x1
 8078 1f57 7001     		.2byte	0x170
 8079 1f59 701F0000 		.4byte	0x1f70
 8080 1f5d 3F       		.uleb128 0x3f
 8081 1f5e 8C220000 		.4byte	0x228c
 8082 1f62 8C0F0000 		.4byte	.LLST31
 8083 1f66 3F       		.uleb128 0x3f
 8084 1f67 81220000 		.4byte	0x2281
 8085 1f6b C00F0000 		.4byte	.LLST32
 8086 1f6f 00       		.byte	0
 8087 1f70 3E       		.uleb128 0x3e
 8088 1f71 48220000 		.4byte	0x2248
 8089 1f75 E8020000 		.4byte	.LBB99
 8090 1f79 EC020000 		.4byte	.LBE99
ARM GAS  C:\Users\claym\AppData\Local\Temp\ccxpUFUu.s 			page 181


 8091 1f7d 01       		.byte	0x1
 8092 1f7e 7201     		.2byte	0x172
 8093 1f80 971F0000 		.4byte	0x1f97
 8094 1f84 3F       		.uleb128 0x3f
 8095 1f85 64220000 		.4byte	0x2264
 8096 1f89 F40F0000 		.4byte	.LLST33
 8097 1f8d 3F       		.uleb128 0x3f
 8098 1f8e 59220000 		.4byte	0x2259
 8099 1f92 07100000 		.4byte	.LLST34
 8100 1f96 00       		.byte	0
 8101 1f97 3E       		.uleb128 0x3e
 8102 1f98 20220000 		.4byte	0x2220
 8103 1f9c EC020000 		.4byte	.LBB101
 8104 1fa0 F0020000 		.4byte	.LBE101
 8105 1fa4 01       		.byte	0x1
 8106 1fa5 7301     		.2byte	0x173
 8107 1fa7 BE1F0000 		.4byte	0x1fbe
 8108 1fab 3F       		.uleb128 0x3f
 8109 1fac 3C220000 		.4byte	0x223c
 8110 1fb0 1A100000 		.4byte	.LLST35
 8111 1fb4 3F       		.uleb128 0x3f
 8112 1fb5 31220000 		.4byte	0x2231
 8113 1fb9 2D100000 		.4byte	.LLST36
 8114 1fbd 00       		.byte	0
 8115 1fbe 3E       		.uleb128 0x3e
 8116 1fbf F8210000 		.4byte	0x21f8
 8117 1fc3 F0020000 		.4byte	.LBB103
 8118 1fc7 F4020000 		.4byte	.LBE103
 8119 1fcb 01       		.byte	0x1
 8120 1fcc 7401     		.2byte	0x174
 8121 1fce E51F0000 		.4byte	0x1fe5
 8122 1fd2 3F       		.uleb128 0x3f
 8123 1fd3 14220000 		.4byte	0x2214
 8124 1fd7 40100000 		.4byte	.LLST37
 8125 1fdb 3F       		.uleb128 0x3f
 8126 1fdc 09220000 		.4byte	0x2209
 8127 1fe0 53100000 		.4byte	.LLST38
 8128 1fe4 00       		.byte	0
 8129 1fe5 3E       		.uleb128 0x3e
 8130 1fe6 CD210000 		.4byte	0x21cd
 8131 1fea F4020000 		.4byte	.LBB105
 8132 1fee F8020000 		.4byte	.LBE105
 8133 1ff2 01       		.byte	0x1
 8134 1ff3 7501     		.2byte	0x175
 8135 1ff5 0C200000 		.4byte	0x200c
 8136 1ff9 3F       		.uleb128 0x3f
 8137 1ffa EB210000 		.4byte	0x21eb
 8138 1ffe 66100000 		.4byte	.LLST39
 8139 2002 3F       		.uleb128 0x3f
 8140 2003 DF210000 		.4byte	0x21df
 8141 2007 79100000 		.4byte	.LLST40
 8142 200b 00       		.byte	0
 8143 200c 3E       		.uleb128 0x3e
 8144 200d A2210000 		.4byte	0x21a2
 8145 2011 F8020000 		.4byte	.LBB107
 8146 2015 FC020000 		.4byte	.LBE107
 8147 2019 01       		.byte	0x1
ARM GAS  C:\Users\claym\AppData\Local\Temp\ccxpUFUu.s 			page 182


 8148 201a 7601     		.2byte	0x176
 8149 201c 33200000 		.4byte	0x2033
 8150 2020 3F       		.uleb128 0x3f
 8151 2021 C0210000 		.4byte	0x21c0
 8152 2025 8C100000 		.4byte	.LLST41
 8153 2029 3F       		.uleb128 0x3f
 8154 202a B4210000 		.4byte	0x21b4
 8155 202e 9F100000 		.4byte	.LLST42
 8156 2032 00       		.byte	0
 8157 2033 3E       		.uleb128 0x3e
 8158 2034 77210000 		.4byte	0x2177
 8159 2038 FC020000 		.4byte	.LBB109
 8160 203c 00030000 		.4byte	.LBE109
 8161 2040 01       		.byte	0x1
 8162 2041 7701     		.2byte	0x177
 8163 2043 5A200000 		.4byte	0x205a
 8164 2047 3F       		.uleb128 0x3f
 8165 2048 95210000 		.4byte	0x2195
 8166 204c B2100000 		.4byte	.LLST43
 8167 2050 3F       		.uleb128 0x3f
 8168 2051 89210000 		.4byte	0x2189
 8169 2055 C5100000 		.4byte	.LLST44
 8170 2059 00       		.byte	0
 8171 205a 3E       		.uleb128 0x3e
 8172 205b 4C210000 		.4byte	0x214c
 8173 205f 00030000 		.4byte	.LBB111
 8174 2063 04030000 		.4byte	.LBE111
 8175 2067 01       		.byte	0x1
 8176 2068 7801     		.2byte	0x178
 8177 206a 81200000 		.4byte	0x2081
 8178 206e 3F       		.uleb128 0x3f
 8179 206f 6A210000 		.4byte	0x216a
 8180 2073 D8100000 		.4byte	.LLST45
 8181 2077 3F       		.uleb128 0x3f
 8182 2078 5E210000 		.4byte	0x215e
 8183 207c EB100000 		.4byte	.LLST46
 8184 2080 00       		.byte	0
 8185 2081 3E       		.uleb128 0x3e
 8186 2082 21210000 		.4byte	0x2121
 8187 2086 04030000 		.4byte	.LBB113
 8188 208a 08030000 		.4byte	.LBE113
 8189 208e 01       		.byte	0x1
 8190 208f 7901     		.2byte	0x179
 8191 2091 A8200000 		.4byte	0x20a8
 8192 2095 3F       		.uleb128 0x3f
 8193 2096 3F210000 		.4byte	0x213f
 8194 209a FE100000 		.4byte	.LLST47
 8195 209e 3F       		.uleb128 0x3f
 8196 209f 33210000 		.4byte	0x2133
 8197 20a3 11110000 		.4byte	.LLST48
 8198 20a7 00       		.byte	0
 8199 20a8 3A       		.uleb128 0x3a
 8200 20a9 E6020000 		.4byte	.LVL77
 8201 20ad BF200000 		.4byte	0x20bf
 8202 20b1 32       		.uleb128 0x32
 8203 20b2 01       		.byte	0x1
 8204 20b3 50       		.byte	0x50
ARM GAS  C:\Users\claym\AppData\Local\Temp\ccxpUFUu.s 			page 183


 8205 20b4 02       		.byte	0x2
 8206 20b5 74       		.byte	0x74
 8207 20b6 00       		.sleb128 0
 8208 20b7 32       		.uleb128 0x32
 8209 20b8 01       		.byte	0x1
 8210 20b9 51       		.byte	0x51
 8211 20ba 02       		.byte	0x2
 8212 20bb 75       		.byte	0x75
 8213 20bc 00       		.sleb128 0
 8214 20bd 00       		.byte	0
 8215 20be 00       		.byte	0
 8216 20bf 35       		.uleb128 0x35
 8217 20c0 01       		.byte	0x1
 8218 20c1 D50B0000 		.4byte	.LASF311
 8219 20c5 01       		.byte	0x1
 8220 20c6 4C01     		.2byte	0x14c
 8221 20c8 01       		.byte	0x1
 8222 20c9 C8090000 		.4byte	0x9c8
 8223 20cd 02020000 		.4byte	.LFB55
 8224 20d1 3A020000 		.4byte	.LFE55
 8225 20d5 24110000 		.4byte	.LLST11
 8226 20d9 01       		.byte	0x1
 8227 20da 21210000 		.4byte	0x2121
 8228 20de 2E       		.uleb128 0x2e
 8229 20df 61726700 		.ascii	"arg\000"
 8230 20e3 01       		.byte	0x1
 8231 20e4 4C01     		.2byte	0x14c
 8232 20e6 D3090000 		.4byte	0x9d3
 8233 20ea 44110000 		.4byte	.LLST12
 8234 20ee 2E       		.uleb128 0x2e
 8235 20ef 69326300 		.ascii	"i2c\000"
 8236 20f3 01       		.byte	0x1
 8237 20f4 4C01     		.2byte	0x14c
 8238 20f6 9D150000 		.4byte	0x159d
 8239 20fa 65110000 		.4byte	.LLST13
 8240 20fe 31       		.uleb128 0x31
 8241 20ff 0E020000 		.4byte	.LVL43
 8242 2103 5F240000 		.4byte	0x245f
 8243 2107 11210000 		.4byte	0x2111
 8244 210b 32       		.uleb128 0x32
 8245 210c 01       		.byte	0x1
 8246 210d 50       		.byte	0x50
 8247 210e 01       		.byte	0x1
 8248 210f 35       		.byte	0x35
 8249 2110 00       		.byte	0
 8250 2111 3A       		.uleb128 0x3a
 8251 2112 16020000 		.4byte	.LVL44
 8252 2116 5F240000 		.4byte	0x245f
 8253 211a 32       		.uleb128 0x32
 8254 211b 01       		.byte	0x1
 8255 211c 50       		.byte	0x50
 8256 211d 01       		.byte	0x1
 8257 211e 36       		.byte	0x36
 8258 211f 00       		.byte	0
 8259 2120 00       		.byte	0
 8260 2121 43       		.uleb128 0x43
 8261 2122 7C060000 		.4byte	.LASF312
ARM GAS  C:\Users\claym\AppData\Local\Temp\ccxpUFUu.s 			page 184


 8262 2126 01       		.byte	0x1
 8263 2127 3F01     		.2byte	0x13f
 8264 2129 01       		.byte	0x1
 8265 212a C8090000 		.4byte	0x9c8
 8266 212e 01       		.byte	0x1
 8267 212f 4C210000 		.4byte	0x214c
 8268 2133 44       		.uleb128 0x44
 8269 2134 61726700 		.ascii	"arg\000"
 8270 2138 01       		.byte	0x1
 8271 2139 3F01     		.2byte	0x13f
 8272 213b D3090000 		.4byte	0x9d3
 8273 213f 44       		.uleb128 0x44
 8274 2140 69326300 		.ascii	"i2c\000"
 8275 2144 01       		.byte	0x1
 8276 2145 3F01     		.2byte	0x13f
 8277 2147 9D150000 		.4byte	0x159d
 8278 214b 00       		.byte	0
 8279 214c 43       		.uleb128 0x43
 8280 214d 18040000 		.4byte	.LASF313
 8281 2151 01       		.byte	0x1
 8282 2152 3201     		.2byte	0x132
 8283 2154 01       		.byte	0x1
 8284 2155 C8090000 		.4byte	0x9c8
 8285 2159 01       		.byte	0x1
 8286 215a 77210000 		.4byte	0x2177
 8287 215e 44       		.uleb128 0x44
 8288 215f 61726700 		.ascii	"arg\000"
 8289 2163 01       		.byte	0x1
 8290 2164 3201     		.2byte	0x132
 8291 2166 D3090000 		.4byte	0x9d3
 8292 216a 44       		.uleb128 0x44
 8293 216b 69326300 		.ascii	"i2c\000"
 8294 216f 01       		.byte	0x1
 8295 2170 3201     		.2byte	0x132
 8296 2172 9D150000 		.4byte	0x159d
 8297 2176 00       		.byte	0
 8298 2177 43       		.uleb128 0x43
 8299 2178 1C0A0000 		.4byte	.LASF314
 8300 217c 01       		.byte	0x1
 8301 217d 2501     		.2byte	0x125
 8302 217f 01       		.byte	0x1
 8303 2180 C8090000 		.4byte	0x9c8
 8304 2184 01       		.byte	0x1
 8305 2185 A2210000 		.4byte	0x21a2
 8306 2189 44       		.uleb128 0x44
 8307 218a 61726700 		.ascii	"arg\000"
 8308 218e 01       		.byte	0x1
 8309 218f 2501     		.2byte	0x125
 8310 2191 D3090000 		.4byte	0x9d3
 8311 2195 44       		.uleb128 0x44
 8312 2196 69326300 		.ascii	"i2c\000"
 8313 219a 01       		.byte	0x1
 8314 219b 2501     		.2byte	0x125
 8315 219d 9D150000 		.4byte	0x159d
 8316 21a1 00       		.byte	0
 8317 21a2 43       		.uleb128 0x43
 8318 21a3 A8000000 		.4byte	.LASF315
ARM GAS  C:\Users\claym\AppData\Local\Temp\ccxpUFUu.s 			page 185


 8319 21a7 01       		.byte	0x1
 8320 21a8 1801     		.2byte	0x118
 8321 21aa 01       		.byte	0x1
 8322 21ab C8090000 		.4byte	0x9c8
 8323 21af 01       		.byte	0x1
 8324 21b0 CD210000 		.4byte	0x21cd
 8325 21b4 44       		.uleb128 0x44
 8326 21b5 61726700 		.ascii	"arg\000"
 8327 21b9 01       		.byte	0x1
 8328 21ba 1801     		.2byte	0x118
 8329 21bc D3090000 		.4byte	0x9d3
 8330 21c0 44       		.uleb128 0x44
 8331 21c1 69326300 		.ascii	"i2c\000"
 8332 21c5 01       		.byte	0x1
 8333 21c6 1801     		.2byte	0x118
 8334 21c8 9D150000 		.4byte	0x159d
 8335 21cc 00       		.byte	0
 8336 21cd 43       		.uleb128 0x43
 8337 21ce A80D0000 		.4byte	.LASF316
 8338 21d2 01       		.byte	0x1
 8339 21d3 0B01     		.2byte	0x10b
 8340 21d5 01       		.byte	0x1
 8341 21d6 C8090000 		.4byte	0x9c8
 8342 21da 01       		.byte	0x1
 8343 21db F8210000 		.4byte	0x21f8
 8344 21df 44       		.uleb128 0x44
 8345 21e0 61726700 		.ascii	"arg\000"
 8346 21e4 01       		.byte	0x1
 8347 21e5 0B01     		.2byte	0x10b
 8348 21e7 D3090000 		.4byte	0x9d3
 8349 21eb 44       		.uleb128 0x44
 8350 21ec 69326300 		.ascii	"i2c\000"
 8351 21f0 01       		.byte	0x1
 8352 21f1 0B01     		.2byte	0x10b
 8353 21f3 9D150000 		.4byte	0x159d
 8354 21f7 00       		.byte	0
 8355 21f8 45       		.uleb128 0x45
 8356 21f9 17030000 		.4byte	.LASF317
 8357 21fd 01       		.byte	0x1
 8358 21fe FE       		.byte	0xfe
 8359 21ff 01       		.byte	0x1
 8360 2200 C8090000 		.4byte	0x9c8
 8361 2204 01       		.byte	0x1
 8362 2205 20220000 		.4byte	0x2220
 8363 2209 46       		.uleb128 0x46
 8364 220a 61726700 		.ascii	"arg\000"
 8365 220e 01       		.byte	0x1
 8366 220f FE       		.byte	0xfe
 8367 2210 D3090000 		.4byte	0x9d3
 8368 2214 46       		.uleb128 0x46
 8369 2215 69326300 		.ascii	"i2c\000"
 8370 2219 01       		.byte	0x1
 8371 221a FE       		.byte	0xfe
 8372 221b 9D150000 		.4byte	0x159d
 8373 221f 00       		.byte	0
 8374 2220 45       		.uleb128 0x45
 8375 2221 61070000 		.4byte	.LASF318
ARM GAS  C:\Users\claym\AppData\Local\Temp\ccxpUFUu.s 			page 186


 8376 2225 01       		.byte	0x1
 8377 2226 F1       		.byte	0xf1
 8378 2227 01       		.byte	0x1
 8379 2228 C8090000 		.4byte	0x9c8
 8380 222c 01       		.byte	0x1
 8381 222d 48220000 		.4byte	0x2248
 8382 2231 46       		.uleb128 0x46
 8383 2232 61726700 		.ascii	"arg\000"
 8384 2236 01       		.byte	0x1
 8385 2237 F1       		.byte	0xf1
 8386 2238 D3090000 		.4byte	0x9d3
 8387 223c 46       		.uleb128 0x46
 8388 223d 69326300 		.ascii	"i2c\000"
 8389 2241 01       		.byte	0x1
 8390 2242 F1       		.byte	0xf1
 8391 2243 9D150000 		.4byte	0x159d
 8392 2247 00       		.byte	0
 8393 2248 45       		.uleb128 0x45
 8394 2249 7A070000 		.4byte	.LASF319
 8395 224d 01       		.byte	0x1
 8396 224e E4       		.byte	0xe4
 8397 224f 01       		.byte	0x1
 8398 2250 C8090000 		.4byte	0x9c8
 8399 2254 01       		.byte	0x1
 8400 2255 70220000 		.4byte	0x2270
 8401 2259 46       		.uleb128 0x46
 8402 225a 61726700 		.ascii	"arg\000"
 8403 225e 01       		.byte	0x1
 8404 225f E4       		.byte	0xe4
 8405 2260 D3090000 		.4byte	0x9d3
 8406 2264 46       		.uleb128 0x46
 8407 2265 69326300 		.ascii	"i2c\000"
 8408 2269 01       		.byte	0x1
 8409 226a E4       		.byte	0xe4
 8410 226b 9D150000 		.4byte	0x159d
 8411 226f 00       		.byte	0
 8412 2270 45       		.uleb128 0x45
 8413 2271 9D090000 		.4byte	.LASF320
 8414 2275 01       		.byte	0x1
 8415 2276 D3       		.byte	0xd3
 8416 2277 01       		.byte	0x1
 8417 2278 C8090000 		.4byte	0x9c8
 8418 227c 01       		.byte	0x1
 8419 227d 98220000 		.4byte	0x2298
 8420 2281 46       		.uleb128 0x46
 8421 2282 61726700 		.ascii	"arg\000"
 8422 2286 01       		.byte	0x1
 8423 2287 D3       		.byte	0xd3
 8424 2288 D3090000 		.4byte	0x9d3
 8425 228c 46       		.uleb128 0x46
 8426 228d 69326300 		.ascii	"i2c\000"
 8427 2291 01       		.byte	0x1
 8428 2292 D3       		.byte	0xd3
 8429 2293 9D150000 		.4byte	0x159d
 8430 2297 00       		.byte	0
 8431 2298 45       		.uleb128 0x45
 8432 2299 DD010000 		.4byte	.LASF321
ARM GAS  C:\Users\claym\AppData\Local\Temp\ccxpUFUu.s 			page 187


 8433 229d 01       		.byte	0x1
 8434 229e BF       		.byte	0xbf
 8435 229f 01       		.byte	0x1
 8436 22a0 C8090000 		.4byte	0x9c8
 8437 22a4 01       		.byte	0x1
 8438 22a5 C0220000 		.4byte	0x22c0
 8439 22a9 46       		.uleb128 0x46
 8440 22aa 61726700 		.ascii	"arg\000"
 8441 22ae 01       		.byte	0x1
 8442 22af BF       		.byte	0xbf
 8443 22b0 D3090000 		.4byte	0x9d3
 8444 22b4 46       		.uleb128 0x46
 8445 22b5 69326300 		.ascii	"i2c\000"
 8446 22b9 01       		.byte	0x1
 8447 22ba BF       		.byte	0xbf
 8448 22bb 9D150000 		.4byte	0x159d
 8449 22bf 00       		.byte	0
 8450 22c0 45       		.uleb128 0x45
 8451 22c1 89070000 		.4byte	.LASF322
 8452 22c5 01       		.byte	0x1
 8453 22c6 B2       		.byte	0xb2
 8454 22c7 01       		.byte	0x1
 8455 22c8 C8090000 		.4byte	0x9c8
 8456 22cc 01       		.byte	0x1
 8457 22cd E8220000 		.4byte	0x22e8
 8458 22d1 46       		.uleb128 0x46
 8459 22d2 61726700 		.ascii	"arg\000"
 8460 22d6 01       		.byte	0x1
 8461 22d7 B2       		.byte	0xb2
 8462 22d8 D3090000 		.4byte	0x9d3
 8463 22dc 46       		.uleb128 0x46
 8464 22dd 69326300 		.ascii	"i2c\000"
 8465 22e1 01       		.byte	0x1
 8466 22e2 B2       		.byte	0xb2
 8467 22e3 9D150000 		.4byte	0x159d
 8468 22e7 00       		.byte	0
 8469 22e8 45       		.uleb128 0x45
 8470 22e9 74030000 		.4byte	.LASF323
 8471 22ed 01       		.byte	0x1
 8472 22ee A5       		.byte	0xa5
 8473 22ef 01       		.byte	0x1
 8474 22f0 C8090000 		.4byte	0x9c8
 8475 22f4 01       		.byte	0x1
 8476 22f5 10230000 		.4byte	0x2310
 8477 22f9 46       		.uleb128 0x46
 8478 22fa 61726700 		.ascii	"arg\000"
 8479 22fe 01       		.byte	0x1
 8480 22ff A5       		.byte	0xa5
 8481 2300 D3090000 		.4byte	0x9d3
 8482 2304 46       		.uleb128 0x46
 8483 2305 69326300 		.ascii	"i2c\000"
 8484 2309 01       		.byte	0x1
 8485 230a A5       		.byte	0xa5
 8486 230b 9D150000 		.4byte	0x159d
 8487 230f 00       		.byte	0
 8488 2310 45       		.uleb128 0x45
 8489 2311 AE030000 		.4byte	.LASF324
ARM GAS  C:\Users\claym\AppData\Local\Temp\ccxpUFUu.s 			page 188


 8490 2315 01       		.byte	0x1
 8491 2316 8A       		.byte	0x8a
 8492 2317 01       		.byte	0x1
 8493 2318 C8090000 		.4byte	0x9c8
 8494 231c 01       		.byte	0x1
 8495 231d 43230000 		.4byte	0x2343
 8496 2321 46       		.uleb128 0x46
 8497 2322 61726700 		.ascii	"arg\000"
 8498 2326 01       		.byte	0x1
 8499 2327 8A       		.byte	0x8a
 8500 2328 D3090000 		.4byte	0x9d3
 8501 232c 46       		.uleb128 0x46
 8502 232d 69326300 		.ascii	"i2c\000"
 8503 2331 01       		.byte	0x1
 8504 2332 8A       		.byte	0x8a
 8505 2333 9D150000 		.4byte	0x159d
 8506 2337 47       		.uleb128 0x47
 8507 2338 EA000000 		.4byte	.LASF343
 8508 233c 01       		.byte	0x1
 8509 233d 8B       		.byte	0x8b
 8510 233e D3090000 		.4byte	0x9d3
 8511 2342 00       		.byte	0
 8512 2343 45       		.uleb128 0x45
 8513 2344 39000000 		.4byte	.LASF325
 8514 2348 01       		.byte	0x1
 8515 2349 7C       		.byte	0x7c
 8516 234a 01       		.byte	0x1
 8517 234b C8090000 		.4byte	0x9c8
 8518 234f 01       		.byte	0x1
 8519 2350 6B230000 		.4byte	0x236b
 8520 2354 46       		.uleb128 0x46
 8521 2355 61726700 		.ascii	"arg\000"
 8522 2359 01       		.byte	0x1
 8523 235a 7C       		.byte	0x7c
 8524 235b D3090000 		.4byte	0x9d3
 8525 235f 46       		.uleb128 0x46
 8526 2360 69326300 		.ascii	"i2c\000"
 8527 2364 01       		.byte	0x1
 8528 2365 7C       		.byte	0x7c
 8529 2366 9D150000 		.4byte	0x159d
 8530 236a 00       		.byte	0
 8531 236b 45       		.uleb128 0x45
 8532 236c 97000000 		.4byte	.LASF326
 8533 2370 01       		.byte	0x1
 8534 2371 6F       		.byte	0x6f
 8535 2372 01       		.byte	0x1
 8536 2373 C8090000 		.4byte	0x9c8
 8537 2377 01       		.byte	0x1
 8538 2378 93230000 		.4byte	0x2393
 8539 237c 46       		.uleb128 0x46
 8540 237d 61726700 		.ascii	"arg\000"
 8541 2381 01       		.byte	0x1
 8542 2382 6F       		.byte	0x6f
 8543 2383 D3090000 		.4byte	0x9d3
 8544 2387 46       		.uleb128 0x46
 8545 2388 69326300 		.ascii	"i2c\000"
 8546 238c 01       		.byte	0x1
ARM GAS  C:\Users\claym\AppData\Local\Temp\ccxpUFUu.s 			page 189


 8547 238d 6F       		.byte	0x6f
 8548 238e 9D150000 		.4byte	0x159d
 8549 2392 00       		.byte	0
 8550 2393 48       		.uleb128 0x48
 8551 2394 01       		.byte	0x1
 8552 2395 A20A0000 		.4byte	.LASF327
 8553 2399 01       		.byte	0x1
 8554 239a 5A       		.byte	0x5a
 8555 239b 01       		.byte	0x1
 8556 239c C8090000 		.4byte	0x9c8
 8557 23a0 E4010000 		.4byte	.LFB39
 8558 23a4 02020000 		.4byte	.LFE39
 8559 23a8 02       		.byte	0x2
 8560 23a9 7D       		.byte	0x7d
 8561 23aa 00       		.sleb128 0
 8562 23ab 01       		.byte	0x1
 8563 23ac C0230000 		.4byte	0x23c0
 8564 23b0 49       		.uleb128 0x49
 8565 23b1 69326300 		.ascii	"i2c\000"
 8566 23b5 01       		.byte	0x1
 8567 23b6 5A       		.byte	0x5a
 8568 23b7 9D150000 		.4byte	0x159d
 8569 23bb 91110000 		.4byte	.LLST10
 8570 23bf 00       		.byte	0
 8571 23c0 4A       		.uleb128 0x4a
 8572 23c1 01       		.byte	0x1
 8573 23c2 4D0A0000 		.4byte	.LASF328
 8574 23c6 01       		.byte	0x1
 8575 23c7 3D       		.byte	0x3d
 8576 23c8 01       		.byte	0x1
 8577 23c9 C8090000 		.4byte	0x9c8
 8578 23cd A4010000 		.4byte	.LFB38
 8579 23d1 E4010000 		.4byte	.LFE38
 8580 23d5 C0110000 		.4byte	.LLST7
 8581 23d9 01       		.byte	0x1
 8582 23da 18240000 		.4byte	0x2418
 8583 23de 4B       		.uleb128 0x4b
 8584 23df 280D0000 		.4byte	.LASF253
 8585 23e3 01       		.byte	0x1
 8586 23e4 3D       		.byte	0x3d
 8587 23e5 F80B0000 		.4byte	0xbf8
 8588 23e9 E0110000 		.4byte	.LLST8
 8589 23ed 49       		.uleb128 0x49
 8590 23ee 69326300 		.ascii	"i2c\000"
 8591 23f2 01       		.byte	0x1
 8592 23f3 3D       		.byte	0x3d
 8593 23f4 9D150000 		.4byte	0x159d
 8594 23f8 57120000 		.4byte	.LLST9
 8595 23fc 3A       		.uleb128 0x3a
 8596 23fd C8010000 		.4byte	.LVL30
 8597 2401 B1240000 		.4byte	0x24b1
 8598 2405 32       		.uleb128 0x32
 8599 2406 01       		.byte	0x1
 8600 2407 50       		.byte	0x50
 8601 2408 02       		.byte	0x2
 8602 2409 74       		.byte	0x74
 8603 240a 10       		.sleb128 16
ARM GAS  C:\Users\claym\AppData\Local\Temp\ccxpUFUu.s 			page 190


 8604 240b 32       		.uleb128 0x32
 8605 240c 01       		.byte	0x1
 8606 240d 51       		.byte	0x51
 8607 240e 02       		.byte	0x2
 8608 240f 75       		.byte	0x75
 8609 2410 00       		.sleb128 0
 8610 2411 32       		.uleb128 0x32
 8611 2412 01       		.byte	0x1
 8612 2413 52       		.byte	0x52
 8613 2414 01       		.byte	0x1
 8614 2415 34       		.byte	0x34
 8615 2416 00       		.byte	0
 8616 2417 00       		.byte	0
 8617 2418 4A       		.uleb128 0x4a
 8618 2419 01       		.byte	0x1
 8619 241a 3A070000 		.4byte	.LASF329
 8620 241e 01       		.byte	0x1
 8621 241f 30       		.byte	0x30
 8622 2420 01       		.byte	0x1
 8623 2421 110A0000 		.4byte	0xa11
 8624 2425 86010000 		.4byte	.LFB37
 8625 2429 A4010000 		.4byte	.LFE37
 8626 242d A7120000 		.4byte	.LLST6
 8627 2431 01       		.byte	0x1
 8628 2432 55240000 		.4byte	0x2455
 8629 2436 3A       		.uleb128 0x3a
 8630 2437 94010000 		.4byte	.LVL25
 8631 243b 86240000 		.4byte	0x2486
 8632 243f 32       		.uleb128 0x32
 8633 2440 01       		.byte	0x1
 8634 2441 50       		.byte	0x50
 8635 2442 02       		.byte	0x2
 8636 2443 74       		.byte	0x74
 8637 2444 00       		.sleb128 0
 8638 2445 32       		.uleb128 0x32
 8639 2446 01       		.byte	0x1
 8640 2447 51       		.byte	0x51
 8641 2448 05       		.byte	0x5
 8642 2449 03       		.byte	0x3
 8643 244a 00000000 		.4byte	.LANCHOR0
 8644 244e 32       		.uleb128 0x32
 8645 244f 01       		.byte	0x1
 8646 2450 52       		.byte	0x52
 8647 2451 01       		.byte	0x1
 8648 2452 34       		.byte	0x34
 8649 2453 00       		.byte	0
 8650 2454 00       		.byte	0
 8651 2455 4C       		.uleb128 0x4c
 8652 2456 AB010000 		.4byte	.LASF344
 8653 245a 02       		.byte	0x2
 8654 245b 7501     		.2byte	0x175
 8655 245d 01       		.byte	0x1
 8656 245e 03       		.byte	0x3
 8657 245f 4D       		.uleb128 0x4d
 8658 2460 01       		.byte	0x1
 8659 2461 01       		.byte	0x1
 8660 2462 29030000 		.4byte	.LASF330
ARM GAS  C:\Users\claym\AppData\Local\Temp\ccxpUFUu.s 			page 191


 8661 2466 29030000 		.4byte	.LASF330
 8662 246a 0F       		.byte	0xf
 8663 246b 2E       		.byte	0x2e
 8664 246c 4D       		.uleb128 0x4d
 8665 246d 01       		.byte	0x1
 8666 246e 01       		.byte	0x1
 8667 246f 9E0E0000 		.4byte	.LASF331
 8668 2473 9E0E0000 		.4byte	.LASF331
 8669 2477 01       		.byte	0x1
 8670 2478 1F       		.byte	0x1f
 8671 2479 4D       		.uleb128 0x4d
 8672 247a 01       		.byte	0x1
 8673 247b 01       		.byte	0x1
 8674 247c A5070000 		.4byte	.LASF332
 8675 2480 A5070000 		.4byte	.LASF332
 8676 2484 0F       		.byte	0xf
 8677 2485 37       		.byte	0x37
 8678 2486 4E       		.uleb128 0x4e
 8679 2487 01       		.byte	0x1
 8680 2488 01       		.byte	0x1
 8681 2489 080E0000 		.4byte	.LASF335
 8682 248d 4F020000 		.4byte	.LASF337
 8683 2491 10       		.byte	0x10
 8684 2492 00       		.byte	0
 8685 2493 080E0000 		.4byte	.LASF335
 8686 2497 4D       		.uleb128 0x4d
 8687 2498 01       		.byte	0x1
 8688 2499 01       		.byte	0x1
 8689 249a 5D0C0000 		.4byte	.LASF333
 8690 249e 5D0C0000 		.4byte	.LASF333
 8691 24a2 0A       		.byte	0xa
 8692 24a3 3D       		.byte	0x3d
 8693 24a4 4D       		.uleb128 0x4d
 8694 24a5 01       		.byte	0x1
 8695 24a6 01       		.byte	0x1
 8696 24a7 3B0A0000 		.4byte	.LASF334
 8697 24ab 3B0A0000 		.4byte	.LASF334
 8698 24af 01       		.byte	0x1
 8699 24b0 1E       		.byte	0x1e
 8700 24b1 4E       		.uleb128 0x4e
 8701 24b2 01       		.byte	0x1
 8702 24b3 01       		.byte	0x1
 8703 24b4 2B040000 		.4byte	.LASF336
 8704 24b8 840B0000 		.4byte	.LASF338
 8705 24bc 10       		.byte	0x10
 8706 24bd 00       		.byte	0
 8707 24be 2B040000 		.4byte	.LASF336
 8708 24c2 00       		.byte	0
 8709              		.section	.debug_abbrev,"",%progbits
 8710              	.Ldebug_abbrev0:
 8711 0000 01       		.uleb128 0x1
 8712 0001 11       		.uleb128 0x11
 8713 0002 01       		.byte	0x1
 8714 0003 25       		.uleb128 0x25
 8715 0004 0E       		.uleb128 0xe
 8716 0005 13       		.uleb128 0x13
 8717 0006 0B       		.uleb128 0xb
ARM GAS  C:\Users\claym\AppData\Local\Temp\ccxpUFUu.s 			page 192


 8718 0007 03       		.uleb128 0x3
 8719 0008 0E       		.uleb128 0xe
 8720 0009 1B       		.uleb128 0x1b
 8721 000a 0E       		.uleb128 0xe
 8722 000b 11       		.uleb128 0x11
 8723 000c 01       		.uleb128 0x1
 8724 000d 12       		.uleb128 0x12
 8725 000e 01       		.uleb128 0x1
 8726 000f 10       		.uleb128 0x10
 8727 0010 06       		.uleb128 0x6
 8728 0011 00       		.byte	0
 8729 0012 00       		.byte	0
 8730 0013 02       		.uleb128 0x2
 8731 0014 24       		.uleb128 0x24
 8732 0015 00       		.byte	0
 8733 0016 0B       		.uleb128 0xb
 8734 0017 0B       		.uleb128 0xb
 8735 0018 3E       		.uleb128 0x3e
 8736 0019 0B       		.uleb128 0xb
 8737 001a 03       		.uleb128 0x3
 8738 001b 0E       		.uleb128 0xe
 8739 001c 00       		.byte	0
 8740 001d 00       		.byte	0
 8741 001e 03       		.uleb128 0x3
 8742 001f 24       		.uleb128 0x24
 8743 0020 00       		.byte	0
 8744 0021 0B       		.uleb128 0xb
 8745 0022 0B       		.uleb128 0xb
 8746 0023 3E       		.uleb128 0x3e
 8747 0024 0B       		.uleb128 0xb
 8748 0025 03       		.uleb128 0x3
 8749 0026 08       		.uleb128 0x8
 8750 0027 00       		.byte	0
 8751 0028 00       		.byte	0
 8752 0029 04       		.uleb128 0x4
 8753 002a 16       		.uleb128 0x16
 8754 002b 00       		.byte	0
 8755 002c 03       		.uleb128 0x3
 8756 002d 0E       		.uleb128 0xe
 8757 002e 3A       		.uleb128 0x3a
 8758 002f 0B       		.uleb128 0xb
 8759 0030 3B       		.uleb128 0x3b
 8760 0031 0B       		.uleb128 0xb
 8761 0032 49       		.uleb128 0x49
 8762 0033 13       		.uleb128 0x13
 8763 0034 00       		.byte	0
 8764 0035 00       		.byte	0
 8765 0036 05       		.uleb128 0x5
 8766 0037 0F       		.uleb128 0xf
 8767 0038 00       		.byte	0
 8768 0039 0B       		.uleb128 0xb
 8769 003a 0B       		.uleb128 0xb
 8770 003b 49       		.uleb128 0x49
 8771 003c 13       		.uleb128 0x13
 8772 003d 00       		.byte	0
 8773 003e 00       		.byte	0
 8774 003f 06       		.uleb128 0x6
ARM GAS  C:\Users\claym\AppData\Local\Temp\ccxpUFUu.s 			page 193


 8775 0040 13       		.uleb128 0x13
 8776 0041 00       		.byte	0
 8777 0042 03       		.uleb128 0x3
 8778 0043 0E       		.uleb128 0xe
 8779 0044 3C       		.uleb128 0x3c
 8780 0045 0C       		.uleb128 0xc
 8781 0046 00       		.byte	0
 8782 0047 00       		.byte	0
 8783 0048 07       		.uleb128 0x7
 8784 0049 16       		.uleb128 0x16
 8785 004a 00       		.byte	0
 8786 004b 03       		.uleb128 0x3
 8787 004c 0E       		.uleb128 0xe
 8788 004d 3A       		.uleb128 0x3a
 8789 004e 0B       		.uleb128 0xb
 8790 004f 3B       		.uleb128 0x3b
 8791 0050 05       		.uleb128 0x5
 8792 0051 49       		.uleb128 0x49
 8793 0052 13       		.uleb128 0x13
 8794 0053 00       		.byte	0
 8795 0054 00       		.byte	0
 8796 0055 08       		.uleb128 0x8
 8797 0056 17       		.uleb128 0x17
 8798 0057 01       		.byte	0x1
 8799 0058 0B       		.uleb128 0xb
 8800 0059 0B       		.uleb128 0xb
 8801 005a 3A       		.uleb128 0x3a
 8802 005b 0B       		.uleb128 0xb
 8803 005c 3B       		.uleb128 0x3b
 8804 005d 0B       		.uleb128 0xb
 8805 005e 01       		.uleb128 0x1
 8806 005f 13       		.uleb128 0x13
 8807 0060 00       		.byte	0
 8808 0061 00       		.byte	0
 8809 0062 09       		.uleb128 0x9
 8810 0063 0D       		.uleb128 0xd
 8811 0064 00       		.byte	0
 8812 0065 03       		.uleb128 0x3
 8813 0066 0E       		.uleb128 0xe
 8814 0067 3A       		.uleb128 0x3a
 8815 0068 0B       		.uleb128 0xb
 8816 0069 3B       		.uleb128 0x3b
 8817 006a 0B       		.uleb128 0xb
 8818 006b 49       		.uleb128 0x49
 8819 006c 13       		.uleb128 0x13
 8820 006d 00       		.byte	0
 8821 006e 00       		.byte	0
 8822 006f 0A       		.uleb128 0xa
 8823 0070 01       		.uleb128 0x1
 8824 0071 01       		.byte	0x1
 8825 0072 49       		.uleb128 0x49
 8826 0073 13       		.uleb128 0x13
 8827 0074 01       		.uleb128 0x1
 8828 0075 13       		.uleb128 0x13
 8829 0076 00       		.byte	0
 8830 0077 00       		.byte	0
 8831 0078 0B       		.uleb128 0xb
ARM GAS  C:\Users\claym\AppData\Local\Temp\ccxpUFUu.s 			page 194


 8832 0079 21       		.uleb128 0x21
 8833 007a 00       		.byte	0
 8834 007b 49       		.uleb128 0x49
 8835 007c 13       		.uleb128 0x13
 8836 007d 2F       		.uleb128 0x2f
 8837 007e 0B       		.uleb128 0xb
 8838 007f 00       		.byte	0
 8839 0080 00       		.byte	0
 8840 0081 0C       		.uleb128 0xc
 8841 0082 13       		.uleb128 0x13
 8842 0083 01       		.byte	0x1
 8843 0084 0B       		.uleb128 0xb
 8844 0085 0B       		.uleb128 0xb
 8845 0086 3A       		.uleb128 0x3a
 8846 0087 0B       		.uleb128 0xb
 8847 0088 3B       		.uleb128 0x3b
 8848 0089 0B       		.uleb128 0xb
 8849 008a 01       		.uleb128 0x1
 8850 008b 13       		.uleb128 0x13
 8851 008c 00       		.byte	0
 8852 008d 00       		.byte	0
 8853 008e 0D       		.uleb128 0xd
 8854 008f 0D       		.uleb128 0xd
 8855 0090 00       		.byte	0
 8856 0091 03       		.uleb128 0x3
 8857 0092 0E       		.uleb128 0xe
 8858 0093 3A       		.uleb128 0x3a
 8859 0094 0B       		.uleb128 0xb
 8860 0095 3B       		.uleb128 0x3b
 8861 0096 0B       		.uleb128 0xb
 8862 0097 49       		.uleb128 0x49
 8863 0098 13       		.uleb128 0x13
 8864 0099 38       		.uleb128 0x38
 8865 009a 0A       		.uleb128 0xa
 8866 009b 00       		.byte	0
 8867 009c 00       		.byte	0
 8868 009d 0E       		.uleb128 0xe
 8869 009e 0F       		.uleb128 0xf
 8870 009f 00       		.byte	0
 8871 00a0 0B       		.uleb128 0xb
 8872 00a1 0B       		.uleb128 0xb
 8873 00a2 00       		.byte	0
 8874 00a3 00       		.byte	0
 8875 00a4 0F       		.uleb128 0xf
 8876 00a5 26       		.uleb128 0x26
 8877 00a6 00       		.byte	0
 8878 00a7 49       		.uleb128 0x49
 8879 00a8 13       		.uleb128 0x13
 8880 00a9 00       		.byte	0
 8881 00aa 00       		.byte	0
 8882 00ab 10       		.uleb128 0x10
 8883 00ac 13       		.uleb128 0x13
 8884 00ad 01       		.byte	0x1
 8885 00ae 03       		.uleb128 0x3
 8886 00af 0E       		.uleb128 0xe
 8887 00b0 0B       		.uleb128 0xb
 8888 00b1 0B       		.uleb128 0xb
ARM GAS  C:\Users\claym\AppData\Local\Temp\ccxpUFUu.s 			page 195


 8889 00b2 3A       		.uleb128 0x3a
 8890 00b3 0B       		.uleb128 0xb
 8891 00b4 3B       		.uleb128 0x3b
 8892 00b5 0B       		.uleb128 0xb
 8893 00b6 01       		.uleb128 0x1
 8894 00b7 13       		.uleb128 0x13
 8895 00b8 00       		.byte	0
 8896 00b9 00       		.byte	0
 8897 00ba 11       		.uleb128 0x11
 8898 00bb 0D       		.uleb128 0xd
 8899 00bc 00       		.byte	0
 8900 00bd 03       		.uleb128 0x3
 8901 00be 08       		.uleb128 0x8
 8902 00bf 3A       		.uleb128 0x3a
 8903 00c0 0B       		.uleb128 0xb
 8904 00c1 3B       		.uleb128 0x3b
 8905 00c2 0B       		.uleb128 0xb
 8906 00c3 49       		.uleb128 0x49
 8907 00c4 13       		.uleb128 0x13
 8908 00c5 38       		.uleb128 0x38
 8909 00c6 0A       		.uleb128 0xa
 8910 00c7 00       		.byte	0
 8911 00c8 00       		.byte	0
 8912 00c9 12       		.uleb128 0x12
 8913 00ca 13       		.uleb128 0x13
 8914 00cb 01       		.byte	0x1
 8915 00cc 03       		.uleb128 0x3
 8916 00cd 0E       		.uleb128 0xe
 8917 00ce 0B       		.uleb128 0xb
 8918 00cf 05       		.uleb128 0x5
 8919 00d0 3A       		.uleb128 0x3a
 8920 00d1 0B       		.uleb128 0xb
 8921 00d2 3B       		.uleb128 0x3b
 8922 00d3 0B       		.uleb128 0xb
 8923 00d4 01       		.uleb128 0x1
 8924 00d5 13       		.uleb128 0x13
 8925 00d6 00       		.byte	0
 8926 00d7 00       		.byte	0
 8927 00d8 13       		.uleb128 0x13
 8928 00d9 15       		.uleb128 0x15
 8929 00da 00       		.byte	0
 8930 00db 27       		.uleb128 0x27
 8931 00dc 0C       		.uleb128 0xc
 8932 00dd 00       		.byte	0
 8933 00de 00       		.byte	0
 8934 00df 14       		.uleb128 0x14
 8935 00e0 15       		.uleb128 0x15
 8936 00e1 01       		.byte	0x1
 8937 00e2 27       		.uleb128 0x27
 8938 00e3 0C       		.uleb128 0xc
 8939 00e4 49       		.uleb128 0x49
 8940 00e5 13       		.uleb128 0x13
 8941 00e6 01       		.uleb128 0x1
 8942 00e7 13       		.uleb128 0x13
 8943 00e8 00       		.byte	0
 8944 00e9 00       		.byte	0
 8945 00ea 15       		.uleb128 0x15
ARM GAS  C:\Users\claym\AppData\Local\Temp\ccxpUFUu.s 			page 196


 8946 00eb 05       		.uleb128 0x5
 8947 00ec 00       		.byte	0
 8948 00ed 49       		.uleb128 0x49
 8949 00ee 13       		.uleb128 0x13
 8950 00ef 00       		.byte	0
 8951 00f0 00       		.byte	0
 8952 00f1 16       		.uleb128 0x16
 8953 00f2 13       		.uleb128 0x13
 8954 00f3 01       		.byte	0x1
 8955 00f4 03       		.uleb128 0x3
 8956 00f5 0E       		.uleb128 0xe
 8957 00f6 0B       		.uleb128 0xb
 8958 00f7 05       		.uleb128 0x5
 8959 00f8 3A       		.uleb128 0x3a
 8960 00f9 0B       		.uleb128 0xb
 8961 00fa 3B       		.uleb128 0x3b
 8962 00fb 05       		.uleb128 0x5
 8963 00fc 01       		.uleb128 0x1
 8964 00fd 13       		.uleb128 0x13
 8965 00fe 00       		.byte	0
 8966 00ff 00       		.byte	0
 8967 0100 17       		.uleb128 0x17
 8968 0101 0D       		.uleb128 0xd
 8969 0102 00       		.byte	0
 8970 0103 03       		.uleb128 0x3
 8971 0104 0E       		.uleb128 0xe
 8972 0105 3A       		.uleb128 0x3a
 8973 0106 0B       		.uleb128 0xb
 8974 0107 3B       		.uleb128 0x3b
 8975 0108 05       		.uleb128 0x5
 8976 0109 49       		.uleb128 0x49
 8977 010a 13       		.uleb128 0x13
 8978 010b 38       		.uleb128 0x38
 8979 010c 0A       		.uleb128 0xa
 8980 010d 00       		.byte	0
 8981 010e 00       		.byte	0
 8982 010f 18       		.uleb128 0x18
 8983 0110 13       		.uleb128 0x13
 8984 0111 01       		.byte	0x1
 8985 0112 03       		.uleb128 0x3
 8986 0113 0E       		.uleb128 0xe
 8987 0114 0B       		.uleb128 0xb
 8988 0115 0B       		.uleb128 0xb
 8989 0116 3A       		.uleb128 0x3a
 8990 0117 0B       		.uleb128 0xb
 8991 0118 3B       		.uleb128 0x3b
 8992 0119 05       		.uleb128 0x5
 8993 011a 01       		.uleb128 0x1
 8994 011b 13       		.uleb128 0x13
 8995 011c 00       		.byte	0
 8996 011d 00       		.byte	0
 8997 011e 19       		.uleb128 0x19
 8998 011f 13       		.uleb128 0x13
 8999 0120 01       		.byte	0x1
 9000 0121 0B       		.uleb128 0xb
 9001 0122 0B       		.uleb128 0xb
 9002 0123 3A       		.uleb128 0x3a
ARM GAS  C:\Users\claym\AppData\Local\Temp\ccxpUFUu.s 			page 197


 9003 0124 0B       		.uleb128 0xb
 9004 0125 3B       		.uleb128 0x3b
 9005 0126 05       		.uleb128 0x5
 9006 0127 01       		.uleb128 0x1
 9007 0128 13       		.uleb128 0x13
 9008 0129 00       		.byte	0
 9009 012a 00       		.byte	0
 9010 012b 1A       		.uleb128 0x1a
 9011 012c 17       		.uleb128 0x17
 9012 012d 01       		.byte	0x1
 9013 012e 0B       		.uleb128 0xb
 9014 012f 0B       		.uleb128 0xb
 9015 0130 3A       		.uleb128 0x3a
 9016 0131 0B       		.uleb128 0xb
 9017 0132 3B       		.uleb128 0x3b
 9018 0133 05       		.uleb128 0x5
 9019 0134 01       		.uleb128 0x1
 9020 0135 13       		.uleb128 0x13
 9021 0136 00       		.byte	0
 9022 0137 00       		.byte	0
 9023 0138 1B       		.uleb128 0x1b
 9024 0139 0D       		.uleb128 0xd
 9025 013a 00       		.byte	0
 9026 013b 03       		.uleb128 0x3
 9027 013c 0E       		.uleb128 0xe
 9028 013d 3A       		.uleb128 0x3a
 9029 013e 0B       		.uleb128 0xb
 9030 013f 3B       		.uleb128 0x3b
 9031 0140 05       		.uleb128 0x5
 9032 0141 49       		.uleb128 0x49
 9033 0142 13       		.uleb128 0x13
 9034 0143 00       		.byte	0
 9035 0144 00       		.byte	0
 9036 0145 1C       		.uleb128 0x1c
 9037 0146 15       		.uleb128 0x15
 9038 0147 01       		.byte	0x1
 9039 0148 27       		.uleb128 0x27
 9040 0149 0C       		.uleb128 0xc
 9041 014a 01       		.uleb128 0x1
 9042 014b 13       		.uleb128 0x13
 9043 014c 00       		.byte	0
 9044 014d 00       		.byte	0
 9045 014e 1D       		.uleb128 0x1d
 9046 014f 34       		.uleb128 0x34
 9047 0150 00       		.byte	0
 9048 0151 03       		.uleb128 0x3
 9049 0152 0E       		.uleb128 0xe
 9050 0153 3A       		.uleb128 0x3a
 9051 0154 0B       		.uleb128 0xb
 9052 0155 3B       		.uleb128 0x3b
 9053 0156 05       		.uleb128 0x5
 9054 0157 49       		.uleb128 0x49
 9055 0158 13       		.uleb128 0x13
 9056 0159 3F       		.uleb128 0x3f
 9057 015a 0C       		.uleb128 0xc
 9058 015b 3C       		.uleb128 0x3c
 9059 015c 0C       		.uleb128 0xc
ARM GAS  C:\Users\claym\AppData\Local\Temp\ccxpUFUu.s 			page 198


 9060 015d 00       		.byte	0
 9061 015e 00       		.byte	0
 9062 015f 1E       		.uleb128 0x1e
 9063 0160 34       		.uleb128 0x34
 9064 0161 00       		.byte	0
 9065 0162 03       		.uleb128 0x3
 9066 0163 0E       		.uleb128 0xe
 9067 0164 3A       		.uleb128 0x3a
 9068 0165 0B       		.uleb128 0xb
 9069 0166 3B       		.uleb128 0x3b
 9070 0167 0B       		.uleb128 0xb
 9071 0168 49       		.uleb128 0x49
 9072 0169 13       		.uleb128 0x13
 9073 016a 3F       		.uleb128 0x3f
 9074 016b 0C       		.uleb128 0xc
 9075 016c 3C       		.uleb128 0x3c
 9076 016d 0C       		.uleb128 0xc
 9077 016e 00       		.byte	0
 9078 016f 00       		.byte	0
 9079 0170 1F       		.uleb128 0x1f
 9080 0171 35       		.uleb128 0x35
 9081 0172 00       		.byte	0
 9082 0173 49       		.uleb128 0x49
 9083 0174 13       		.uleb128 0x13
 9084 0175 00       		.byte	0
 9085 0176 00       		.byte	0
 9086 0177 20       		.uleb128 0x20
 9087 0178 0D       		.uleb128 0xd
 9088 0179 00       		.byte	0
 9089 017a 03       		.uleb128 0x3
 9090 017b 08       		.uleb128 0x8
 9091 017c 3A       		.uleb128 0x3a
 9092 017d 0B       		.uleb128 0xb
 9093 017e 3B       		.uleb128 0x3b
 9094 017f 0B       		.uleb128 0xb
 9095 0180 49       		.uleb128 0x49
 9096 0181 13       		.uleb128 0x13
 9097 0182 0B       		.uleb128 0xb
 9098 0183 0B       		.uleb128 0xb
 9099 0184 0D       		.uleb128 0xd
 9100 0185 0B       		.uleb128 0xb
 9101 0186 0C       		.uleb128 0xc
 9102 0187 0B       		.uleb128 0xb
 9103 0188 38       		.uleb128 0x38
 9104 0189 0A       		.uleb128 0xa
 9105 018a 00       		.byte	0
 9106 018b 00       		.byte	0
 9107 018c 21       		.uleb128 0x21
 9108 018d 0D       		.uleb128 0xd
 9109 018e 00       		.byte	0
 9110 018f 03       		.uleb128 0x3
 9111 0190 0E       		.uleb128 0xe
 9112 0191 3A       		.uleb128 0x3a
 9113 0192 0B       		.uleb128 0xb
 9114 0193 3B       		.uleb128 0x3b
 9115 0194 0B       		.uleb128 0xb
 9116 0195 49       		.uleb128 0x49
ARM GAS  C:\Users\claym\AppData\Local\Temp\ccxpUFUu.s 			page 199


 9117 0196 13       		.uleb128 0x13
 9118 0197 0B       		.uleb128 0xb
 9119 0198 0B       		.uleb128 0xb
 9120 0199 0D       		.uleb128 0xd
 9121 019a 0B       		.uleb128 0xb
 9122 019b 0C       		.uleb128 0xc
 9123 019c 0B       		.uleb128 0xb
 9124 019d 38       		.uleb128 0x38
 9125 019e 0A       		.uleb128 0xa
 9126 019f 00       		.byte	0
 9127 01a0 00       		.byte	0
 9128 01a1 22       		.uleb128 0x22
 9129 01a2 15       		.uleb128 0x15
 9130 01a3 00       		.byte	0
 9131 01a4 27       		.uleb128 0x27
 9132 01a5 0C       		.uleb128 0xc
 9133 01a6 49       		.uleb128 0x49
 9134 01a7 13       		.uleb128 0x13
 9135 01a8 00       		.byte	0
 9136 01a9 00       		.byte	0
 9137 01aa 23       		.uleb128 0x23
 9138 01ab 13       		.uleb128 0x13
 9139 01ac 01       		.byte	0x1
 9140 01ad 0B       		.uleb128 0xb
 9141 01ae 05       		.uleb128 0x5
 9142 01af 3A       		.uleb128 0x3a
 9143 01b0 0B       		.uleb128 0xb
 9144 01b1 3B       		.uleb128 0x3b
 9145 01b2 0B       		.uleb128 0xb
 9146 01b3 01       		.uleb128 0x1
 9147 01b4 13       		.uleb128 0x13
 9148 01b5 00       		.byte	0
 9149 01b6 00       		.byte	0
 9150 01b7 24       		.uleb128 0x24
 9151 01b8 21       		.uleb128 0x21
 9152 01b9 00       		.byte	0
 9153 01ba 49       		.uleb128 0x49
 9154 01bb 13       		.uleb128 0x13
 9155 01bc 2F       		.uleb128 0x2f
 9156 01bd 05       		.uleb128 0x5
 9157 01be 00       		.byte	0
 9158 01bf 00       		.byte	0
 9159 01c0 25       		.uleb128 0x25
 9160 01c1 13       		.uleb128 0x13
 9161 01c2 01       		.byte	0x1
 9162 01c3 0B       		.uleb128 0xb
 9163 01c4 05       		.uleb128 0x5
 9164 01c5 3A       		.uleb128 0x3a
 9165 01c6 0B       		.uleb128 0xb
 9166 01c7 3B       		.uleb128 0x3b
 9167 01c8 05       		.uleb128 0x5
 9168 01c9 01       		.uleb128 0x1
 9169 01ca 13       		.uleb128 0x13
 9170 01cb 00       		.byte	0
 9171 01cc 00       		.byte	0
 9172 01cd 26       		.uleb128 0x26
 9173 01ce 0D       		.uleb128 0xd
ARM GAS  C:\Users\claym\AppData\Local\Temp\ccxpUFUu.s 			page 200


 9174 01cf 00       		.byte	0
 9175 01d0 03       		.uleb128 0x3
 9176 01d1 08       		.uleb128 0x8
 9177 01d2 3A       		.uleb128 0x3a
 9178 01d3 0B       		.uleb128 0xb
 9179 01d4 3B       		.uleb128 0x3b
 9180 01d5 05       		.uleb128 0x5
 9181 01d6 49       		.uleb128 0x49
 9182 01d7 13       		.uleb128 0x13
 9183 01d8 38       		.uleb128 0x38
 9184 01d9 0A       		.uleb128 0xa
 9185 01da 00       		.byte	0
 9186 01db 00       		.byte	0
 9187 01dc 27       		.uleb128 0x27
 9188 01dd 34       		.uleb128 0x34
 9189 01de 00       		.byte	0
 9190 01df 03       		.uleb128 0x3
 9191 01e0 0E       		.uleb128 0xe
 9192 01e1 3A       		.uleb128 0x3a
 9193 01e2 0B       		.uleb128 0xb
 9194 01e3 3B       		.uleb128 0x3b
 9195 01e4 0B       		.uleb128 0xb
 9196 01e5 49       		.uleb128 0x49
 9197 01e6 13       		.uleb128 0x13
 9198 01e7 02       		.uleb128 0x2
 9199 01e8 0A       		.uleb128 0xa
 9200 01e9 00       		.byte	0
 9201 01ea 00       		.byte	0
 9202 01eb 28       		.uleb128 0x28
 9203 01ec 17       		.uleb128 0x17
 9204 01ed 01       		.byte	0x1
 9205 01ee 03       		.uleb128 0x3
 9206 01ef 0E       		.uleb128 0xe
 9207 01f0 0B       		.uleb128 0xb
 9208 01f1 0B       		.uleb128 0xb
 9209 01f2 3A       		.uleb128 0x3a
 9210 01f3 0B       		.uleb128 0xb
 9211 01f4 3B       		.uleb128 0x3b
 9212 01f5 0B       		.uleb128 0xb
 9213 01f6 01       		.uleb128 0x1
 9214 01f7 13       		.uleb128 0x13
 9215 01f8 00       		.byte	0
 9216 01f9 00       		.byte	0
 9217 01fa 29       		.uleb128 0x29
 9218 01fb 0D       		.uleb128 0xd
 9219 01fc 00       		.byte	0
 9220 01fd 03       		.uleb128 0x3
 9221 01fe 08       		.uleb128 0x8
 9222 01ff 3A       		.uleb128 0x3a
 9223 0200 0B       		.uleb128 0xb
 9224 0201 3B       		.uleb128 0x3b
 9225 0202 0B       		.uleb128 0xb
 9226 0203 49       		.uleb128 0x49
 9227 0204 13       		.uleb128 0x13
 9228 0205 00       		.byte	0
 9229 0206 00       		.byte	0
 9230 0207 2A       		.uleb128 0x2a
ARM GAS  C:\Users\claym\AppData\Local\Temp\ccxpUFUu.s 			page 201


 9231 0208 04       		.uleb128 0x4
 9232 0209 01       		.byte	0x1
 9233 020a 3E       		.uleb128 0x3e
 9234 020b 0B       		.uleb128 0xb
 9235 020c 0B       		.uleb128 0xb
 9236 020d 0B       		.uleb128 0xb
 9237 020e 49       		.uleb128 0x49
 9238 020f 13       		.uleb128 0x13
 9239 0210 3A       		.uleb128 0x3a
 9240 0211 0B       		.uleb128 0xb
 9241 0212 3B       		.uleb128 0x3b
 9242 0213 0B       		.uleb128 0xb
 9243 0214 01       		.uleb128 0x1
 9244 0215 13       		.uleb128 0x13
 9245 0216 00       		.byte	0
 9246 0217 00       		.byte	0
 9247 0218 2B       		.uleb128 0x2b
 9248 0219 28       		.uleb128 0x28
 9249 021a 00       		.byte	0
 9250 021b 03       		.uleb128 0x3
 9251 021c 0E       		.uleb128 0xe
 9252 021d 1C       		.uleb128 0x1c
 9253 021e 0B       		.uleb128 0xb
 9254 021f 00       		.byte	0
 9255 0220 00       		.byte	0
 9256 0221 2C       		.uleb128 0x2c
 9257 0222 34       		.uleb128 0x34
 9258 0223 00       		.byte	0
 9259 0224 03       		.uleb128 0x3
 9260 0225 0E       		.uleb128 0xe
 9261 0226 3A       		.uleb128 0x3a
 9262 0227 0B       		.uleb128 0xb
 9263 0228 3B       		.uleb128 0x3b
 9264 0229 0B       		.uleb128 0xb
 9265 022a 49       		.uleb128 0x49
 9266 022b 13       		.uleb128 0x13
 9267 022c 3F       		.uleb128 0x3f
 9268 022d 0C       		.uleb128 0xc
 9269 022e 02       		.uleb128 0x2
 9270 022f 0A       		.uleb128 0xa
 9271 0230 00       		.byte	0
 9272 0231 00       		.byte	0
 9273 0232 2D       		.uleb128 0x2d
 9274 0233 2E       		.uleb128 0x2e
 9275 0234 01       		.byte	0x1
 9276 0235 3F       		.uleb128 0x3f
 9277 0236 0C       		.uleb128 0xc
 9278 0237 03       		.uleb128 0x3
 9279 0238 0E       		.uleb128 0xe
 9280 0239 3A       		.uleb128 0x3a
 9281 023a 0B       		.uleb128 0xb
 9282 023b 3B       		.uleb128 0x3b
 9283 023c 05       		.uleb128 0x5
 9284 023d 27       		.uleb128 0x27
 9285 023e 0C       		.uleb128 0xc
 9286 023f 49       		.uleb128 0x49
 9287 0240 13       		.uleb128 0x13
ARM GAS  C:\Users\claym\AppData\Local\Temp\ccxpUFUu.s 			page 202


 9288 0241 11       		.uleb128 0x11
 9289 0242 01       		.uleb128 0x1
 9290 0243 12       		.uleb128 0x12
 9291 0244 01       		.uleb128 0x1
 9292 0245 40       		.uleb128 0x40
 9293 0246 0A       		.uleb128 0xa
 9294 0247 9742     		.uleb128 0x2117
 9295 0249 0C       		.uleb128 0xc
 9296 024a 01       		.uleb128 0x1
 9297 024b 13       		.uleb128 0x13
 9298 024c 00       		.byte	0
 9299 024d 00       		.byte	0
 9300 024e 2E       		.uleb128 0x2e
 9301 024f 05       		.uleb128 0x5
 9302 0250 00       		.byte	0
 9303 0251 03       		.uleb128 0x3
 9304 0252 08       		.uleb128 0x8
 9305 0253 3A       		.uleb128 0x3a
 9306 0254 0B       		.uleb128 0xb
 9307 0255 3B       		.uleb128 0x3b
 9308 0256 05       		.uleb128 0x5
 9309 0257 49       		.uleb128 0x49
 9310 0258 13       		.uleb128 0x13
 9311 0259 02       		.uleb128 0x2
 9312 025a 06       		.uleb128 0x6
 9313 025b 00       		.byte	0
 9314 025c 00       		.byte	0
 9315 025d 2F       		.uleb128 0x2f
 9316 025e 2E       		.uleb128 0x2e
 9317 025f 01       		.byte	0x1
 9318 0260 3F       		.uleb128 0x3f
 9319 0261 0C       		.uleb128 0xc
 9320 0262 03       		.uleb128 0x3
 9321 0263 0E       		.uleb128 0xe
 9322 0264 3A       		.uleb128 0x3a
 9323 0265 0B       		.uleb128 0xb
 9324 0266 3B       		.uleb128 0x3b
 9325 0267 05       		.uleb128 0x5
 9326 0268 27       		.uleb128 0x27
 9327 0269 0C       		.uleb128 0xc
 9328 026a 11       		.uleb128 0x11
 9329 026b 01       		.uleb128 0x1
 9330 026c 12       		.uleb128 0x12
 9331 026d 01       		.uleb128 0x1
 9332 026e 40       		.uleb128 0x40
 9333 026f 06       		.uleb128 0x6
 9334 0270 9642     		.uleb128 0x2116
 9335 0272 0C       		.uleb128 0xc
 9336 0273 01       		.uleb128 0x1
 9337 0274 13       		.uleb128 0x13
 9338 0275 00       		.byte	0
 9339 0276 00       		.byte	0
 9340 0277 30       		.uleb128 0x30
 9341 0278 34       		.uleb128 0x34
 9342 0279 00       		.byte	0
 9343 027a 03       		.uleb128 0x3
 9344 027b 0E       		.uleb128 0xe
ARM GAS  C:\Users\claym\AppData\Local\Temp\ccxpUFUu.s 			page 203


 9345 027c 3A       		.uleb128 0x3a
 9346 027d 0B       		.uleb128 0xb
 9347 027e 3B       		.uleb128 0x3b
 9348 027f 05       		.uleb128 0x5
 9349 0280 49       		.uleb128 0x49
 9350 0281 13       		.uleb128 0x13
 9351 0282 02       		.uleb128 0x2
 9352 0283 06       		.uleb128 0x6
 9353 0284 00       		.byte	0
 9354 0285 00       		.byte	0
 9355 0286 31       		.uleb128 0x31
 9356 0287 898201   		.uleb128 0x4109
 9357 028a 01       		.byte	0x1
 9358 028b 11       		.uleb128 0x11
 9359 028c 01       		.uleb128 0x1
 9360 028d 31       		.uleb128 0x31
 9361 028e 13       		.uleb128 0x13
 9362 028f 01       		.uleb128 0x1
 9363 0290 13       		.uleb128 0x13
 9364 0291 00       		.byte	0
 9365 0292 00       		.byte	0
 9366 0293 32       		.uleb128 0x32
 9367 0294 8A8201   		.uleb128 0x410a
 9368 0297 00       		.byte	0
 9369 0298 02       		.uleb128 0x2
 9370 0299 0A       		.uleb128 0xa
 9371 029a 9142     		.uleb128 0x2111
 9372 029c 0A       		.uleb128 0xa
 9373 029d 00       		.byte	0
 9374 029e 00       		.byte	0
 9375 029f 33       		.uleb128 0x33
 9376 02a0 898201   		.uleb128 0x4109
 9377 02a3 01       		.byte	0x1
 9378 02a4 11       		.uleb128 0x11
 9379 02a5 01       		.uleb128 0x1
 9380 02a6 01       		.uleb128 0x1
 9381 02a7 13       		.uleb128 0x13
 9382 02a8 00       		.byte	0
 9383 02a9 00       		.byte	0
 9384 02aa 34       		.uleb128 0x34
 9385 02ab 898201   		.uleb128 0x4109
 9386 02ae 01       		.byte	0x1
 9387 02af 11       		.uleb128 0x11
 9388 02b0 01       		.uleb128 0x1
 9389 02b1 00       		.byte	0
 9390 02b2 00       		.byte	0
 9391 02b3 35       		.uleb128 0x35
 9392 02b4 2E       		.uleb128 0x2e
 9393 02b5 01       		.byte	0x1
 9394 02b6 3F       		.uleb128 0x3f
 9395 02b7 0C       		.uleb128 0xc
 9396 02b8 03       		.uleb128 0x3
 9397 02b9 0E       		.uleb128 0xe
 9398 02ba 3A       		.uleb128 0x3a
 9399 02bb 0B       		.uleb128 0xb
 9400 02bc 3B       		.uleb128 0x3b
 9401 02bd 05       		.uleb128 0x5
ARM GAS  C:\Users\claym\AppData\Local\Temp\ccxpUFUu.s 			page 204


 9402 02be 27       		.uleb128 0x27
 9403 02bf 0C       		.uleb128 0xc
 9404 02c0 49       		.uleb128 0x49
 9405 02c1 13       		.uleb128 0x13
 9406 02c2 11       		.uleb128 0x11
 9407 02c3 01       		.uleb128 0x1
 9408 02c4 12       		.uleb128 0x12
 9409 02c5 01       		.uleb128 0x1
 9410 02c6 40       		.uleb128 0x40
 9411 02c7 06       		.uleb128 0x6
 9412 02c8 9742     		.uleb128 0x2117
 9413 02ca 0C       		.uleb128 0xc
 9414 02cb 01       		.uleb128 0x1
 9415 02cc 13       		.uleb128 0x13
 9416 02cd 00       		.byte	0
 9417 02ce 00       		.byte	0
 9418 02cf 36       		.uleb128 0x36
 9419 02d0 05       		.uleb128 0x5
 9420 02d1 00       		.byte	0
 9421 02d2 03       		.uleb128 0x3
 9422 02d3 0E       		.uleb128 0xe
 9423 02d4 3A       		.uleb128 0x3a
 9424 02d5 0B       		.uleb128 0xb
 9425 02d6 3B       		.uleb128 0x3b
 9426 02d7 05       		.uleb128 0x5
 9427 02d8 49       		.uleb128 0x49
 9428 02d9 13       		.uleb128 0x13
 9429 02da 02       		.uleb128 0x2
 9430 02db 06       		.uleb128 0x6
 9431 02dc 00       		.byte	0
 9432 02dd 00       		.byte	0
 9433 02de 37       		.uleb128 0x37
 9434 02df 34       		.uleb128 0x34
 9435 02e0 00       		.byte	0
 9436 02e1 03       		.uleb128 0x3
 9437 02e2 08       		.uleb128 0x8
 9438 02e3 3A       		.uleb128 0x3a
 9439 02e4 0B       		.uleb128 0xb
 9440 02e5 3B       		.uleb128 0x3b
 9441 02e6 05       		.uleb128 0x5
 9442 02e7 49       		.uleb128 0x49
 9443 02e8 13       		.uleb128 0x13
 9444 02e9 02       		.uleb128 0x2
 9445 02ea 06       		.uleb128 0x6
 9446 02eb 00       		.byte	0
 9447 02ec 00       		.byte	0
 9448 02ed 38       		.uleb128 0x38
 9449 02ee 1D       		.uleb128 0x1d
 9450 02ef 00       		.byte	0
 9451 02f0 31       		.uleb128 0x31
 9452 02f1 13       		.uleb128 0x13
 9453 02f2 11       		.uleb128 0x11
 9454 02f3 01       		.uleb128 0x1
 9455 02f4 12       		.uleb128 0x12
 9456 02f5 01       		.uleb128 0x1
 9457 02f6 58       		.uleb128 0x58
 9458 02f7 0B       		.uleb128 0xb
ARM GAS  C:\Users\claym\AppData\Local\Temp\ccxpUFUu.s 			page 205


 9459 02f8 59       		.uleb128 0x59
 9460 02f9 05       		.uleb128 0x5
 9461 02fa 00       		.byte	0
 9462 02fb 00       		.byte	0
 9463 02fc 39       		.uleb128 0x39
 9464 02fd 898201   		.uleb128 0x4109
 9465 0300 00       		.byte	0
 9466 0301 11       		.uleb128 0x11
 9467 0302 01       		.uleb128 0x1
 9468 0303 31       		.uleb128 0x31
 9469 0304 13       		.uleb128 0x13
 9470 0305 00       		.byte	0
 9471 0306 00       		.byte	0
 9472 0307 3A       		.uleb128 0x3a
 9473 0308 898201   		.uleb128 0x4109
 9474 030b 01       		.byte	0x1
 9475 030c 11       		.uleb128 0x11
 9476 030d 01       		.uleb128 0x1
 9477 030e 31       		.uleb128 0x31
 9478 030f 13       		.uleb128 0x13
 9479 0310 00       		.byte	0
 9480 0311 00       		.byte	0
 9481 0312 3B       		.uleb128 0x3b
 9482 0313 2E       		.uleb128 0x2e
 9483 0314 01       		.byte	0x1
 9484 0315 03       		.uleb128 0x3
 9485 0316 0E       		.uleb128 0xe
 9486 0317 3A       		.uleb128 0x3a
 9487 0318 0B       		.uleb128 0xb
 9488 0319 3B       		.uleb128 0x3b
 9489 031a 05       		.uleb128 0x5
 9490 031b 27       		.uleb128 0x27
 9491 031c 0C       		.uleb128 0xc
 9492 031d 49       		.uleb128 0x49
 9493 031e 13       		.uleb128 0x13
 9494 031f 11       		.uleb128 0x11
 9495 0320 01       		.uleb128 0x1
 9496 0321 12       		.uleb128 0x12
 9497 0322 01       		.uleb128 0x1
 9498 0323 40       		.uleb128 0x40
 9499 0324 06       		.uleb128 0x6
 9500 0325 9742     		.uleb128 0x2117
 9501 0327 0C       		.uleb128 0xc
 9502 0328 01       		.uleb128 0x1
 9503 0329 13       		.uleb128 0x13
 9504 032a 00       		.byte	0
 9505 032b 00       		.byte	0
 9506 032c 3C       		.uleb128 0x3c
 9507 032d 05       		.uleb128 0x5
 9508 032e 00       		.byte	0
 9509 032f 03       		.uleb128 0x3
 9510 0330 08       		.uleb128 0x8
 9511 0331 3A       		.uleb128 0x3a
 9512 0332 0B       		.uleb128 0xb
 9513 0333 3B       		.uleb128 0x3b
 9514 0334 05       		.uleb128 0x5
 9515 0335 49       		.uleb128 0x49
ARM GAS  C:\Users\claym\AppData\Local\Temp\ccxpUFUu.s 			page 206


 9516 0336 13       		.uleb128 0x13
 9517 0337 02       		.uleb128 0x2
 9518 0338 0A       		.uleb128 0xa
 9519 0339 00       		.byte	0
 9520 033a 00       		.byte	0
 9521 033b 3D       		.uleb128 0x3d
 9522 033c 2E       		.uleb128 0x2e
 9523 033d 01       		.byte	0x1
 9524 033e 3F       		.uleb128 0x3f
 9525 033f 0C       		.uleb128 0xc
 9526 0340 03       		.uleb128 0x3
 9527 0341 0E       		.uleb128 0xe
 9528 0342 3A       		.uleb128 0x3a
 9529 0343 0B       		.uleb128 0xb
 9530 0344 3B       		.uleb128 0x3b
 9531 0345 05       		.uleb128 0x5
 9532 0346 27       		.uleb128 0x27
 9533 0347 0C       		.uleb128 0xc
 9534 0348 49       		.uleb128 0x49
 9535 0349 13       		.uleb128 0x13
 9536 034a 11       		.uleb128 0x11
 9537 034b 01       		.uleb128 0x1
 9538 034c 12       		.uleb128 0x12
 9539 034d 01       		.uleb128 0x1
 9540 034e 40       		.uleb128 0x40
 9541 034f 06       		.uleb128 0x6
 9542 0350 9642     		.uleb128 0x2116
 9543 0352 0C       		.uleb128 0xc
 9544 0353 01       		.uleb128 0x1
 9545 0354 13       		.uleb128 0x13
 9546 0355 00       		.byte	0
 9547 0356 00       		.byte	0
 9548 0357 3E       		.uleb128 0x3e
 9549 0358 1D       		.uleb128 0x1d
 9550 0359 01       		.byte	0x1
 9551 035a 31       		.uleb128 0x31
 9552 035b 13       		.uleb128 0x13
 9553 035c 11       		.uleb128 0x11
 9554 035d 01       		.uleb128 0x1
 9555 035e 12       		.uleb128 0x12
 9556 035f 01       		.uleb128 0x1
 9557 0360 58       		.uleb128 0x58
 9558 0361 0B       		.uleb128 0xb
 9559 0362 59       		.uleb128 0x59
 9560 0363 05       		.uleb128 0x5
 9561 0364 01       		.uleb128 0x1
 9562 0365 13       		.uleb128 0x13
 9563 0366 00       		.byte	0
 9564 0367 00       		.byte	0
 9565 0368 3F       		.uleb128 0x3f
 9566 0369 05       		.uleb128 0x5
 9567 036a 00       		.byte	0
 9568 036b 31       		.uleb128 0x31
 9569 036c 13       		.uleb128 0x13
 9570 036d 02       		.uleb128 0x2
 9571 036e 06       		.uleb128 0x6
 9572 036f 00       		.byte	0
ARM GAS  C:\Users\claym\AppData\Local\Temp\ccxpUFUu.s 			page 207


 9573 0370 00       		.byte	0
 9574 0371 40       		.uleb128 0x40
 9575 0372 1D       		.uleb128 0x1d
 9576 0373 01       		.byte	0x1
 9577 0374 31       		.uleb128 0x31
 9578 0375 13       		.uleb128 0x13
 9579 0376 52       		.uleb128 0x52
 9580 0377 01       		.uleb128 0x1
 9581 0378 55       		.uleb128 0x55
 9582 0379 06       		.uleb128 0x6
 9583 037a 58       		.uleb128 0x58
 9584 037b 0B       		.uleb128 0xb
 9585 037c 59       		.uleb128 0x59
 9586 037d 05       		.uleb128 0x5
 9587 037e 01       		.uleb128 0x1
 9588 037f 13       		.uleb128 0x13
 9589 0380 00       		.byte	0
 9590 0381 00       		.byte	0
 9591 0382 41       		.uleb128 0x41
 9592 0383 0B       		.uleb128 0xb
 9593 0384 01       		.byte	0x1
 9594 0385 55       		.uleb128 0x55
 9595 0386 06       		.uleb128 0x6
 9596 0387 00       		.byte	0
 9597 0388 00       		.byte	0
 9598 0389 42       		.uleb128 0x42
 9599 038a 34       		.uleb128 0x34
 9600 038b 00       		.byte	0
 9601 038c 31       		.uleb128 0x31
 9602 038d 13       		.uleb128 0x13
 9603 038e 02       		.uleb128 0x2
 9604 038f 06       		.uleb128 0x6
 9605 0390 00       		.byte	0
 9606 0391 00       		.byte	0
 9607 0392 43       		.uleb128 0x43
 9608 0393 2E       		.uleb128 0x2e
 9609 0394 01       		.byte	0x1
 9610 0395 03       		.uleb128 0x3
 9611 0396 0E       		.uleb128 0xe
 9612 0397 3A       		.uleb128 0x3a
 9613 0398 0B       		.uleb128 0xb
 9614 0399 3B       		.uleb128 0x3b
 9615 039a 05       		.uleb128 0x5
 9616 039b 27       		.uleb128 0x27
 9617 039c 0C       		.uleb128 0xc
 9618 039d 49       		.uleb128 0x49
 9619 039e 13       		.uleb128 0x13
 9620 039f 20       		.uleb128 0x20
 9621 03a0 0B       		.uleb128 0xb
 9622 03a1 01       		.uleb128 0x1
 9623 03a2 13       		.uleb128 0x13
 9624 03a3 00       		.byte	0
 9625 03a4 00       		.byte	0
 9626 03a5 44       		.uleb128 0x44
 9627 03a6 05       		.uleb128 0x5
 9628 03a7 00       		.byte	0
 9629 03a8 03       		.uleb128 0x3
ARM GAS  C:\Users\claym\AppData\Local\Temp\ccxpUFUu.s 			page 208


 9630 03a9 08       		.uleb128 0x8
 9631 03aa 3A       		.uleb128 0x3a
 9632 03ab 0B       		.uleb128 0xb
 9633 03ac 3B       		.uleb128 0x3b
 9634 03ad 05       		.uleb128 0x5
 9635 03ae 49       		.uleb128 0x49
 9636 03af 13       		.uleb128 0x13
 9637 03b0 00       		.byte	0
 9638 03b1 00       		.byte	0
 9639 03b2 45       		.uleb128 0x45
 9640 03b3 2E       		.uleb128 0x2e
 9641 03b4 01       		.byte	0x1
 9642 03b5 03       		.uleb128 0x3
 9643 03b6 0E       		.uleb128 0xe
 9644 03b7 3A       		.uleb128 0x3a
 9645 03b8 0B       		.uleb128 0xb
 9646 03b9 3B       		.uleb128 0x3b
 9647 03ba 0B       		.uleb128 0xb
 9648 03bb 27       		.uleb128 0x27
 9649 03bc 0C       		.uleb128 0xc
 9650 03bd 49       		.uleb128 0x49
 9651 03be 13       		.uleb128 0x13
 9652 03bf 20       		.uleb128 0x20
 9653 03c0 0B       		.uleb128 0xb
 9654 03c1 01       		.uleb128 0x1
 9655 03c2 13       		.uleb128 0x13
 9656 03c3 00       		.byte	0
 9657 03c4 00       		.byte	0
 9658 03c5 46       		.uleb128 0x46
 9659 03c6 05       		.uleb128 0x5
 9660 03c7 00       		.byte	0
 9661 03c8 03       		.uleb128 0x3
 9662 03c9 08       		.uleb128 0x8
 9663 03ca 3A       		.uleb128 0x3a
 9664 03cb 0B       		.uleb128 0xb
 9665 03cc 3B       		.uleb128 0x3b
 9666 03cd 0B       		.uleb128 0xb
 9667 03ce 49       		.uleb128 0x49
 9668 03cf 13       		.uleb128 0x13
 9669 03d0 00       		.byte	0
 9670 03d1 00       		.byte	0
 9671 03d2 47       		.uleb128 0x47
 9672 03d3 34       		.uleb128 0x34
 9673 03d4 00       		.byte	0
 9674 03d5 03       		.uleb128 0x3
 9675 03d6 0E       		.uleb128 0xe
 9676 03d7 3A       		.uleb128 0x3a
 9677 03d8 0B       		.uleb128 0xb
 9678 03d9 3B       		.uleb128 0x3b
 9679 03da 0B       		.uleb128 0xb
 9680 03db 49       		.uleb128 0x49
 9681 03dc 13       		.uleb128 0x13
 9682 03dd 00       		.byte	0
 9683 03de 00       		.byte	0
 9684 03df 48       		.uleb128 0x48
 9685 03e0 2E       		.uleb128 0x2e
 9686 03e1 01       		.byte	0x1
ARM GAS  C:\Users\claym\AppData\Local\Temp\ccxpUFUu.s 			page 209


 9687 03e2 3F       		.uleb128 0x3f
 9688 03e3 0C       		.uleb128 0xc
 9689 03e4 03       		.uleb128 0x3
 9690 03e5 0E       		.uleb128 0xe
 9691 03e6 3A       		.uleb128 0x3a
 9692 03e7 0B       		.uleb128 0xb
 9693 03e8 3B       		.uleb128 0x3b
 9694 03e9 0B       		.uleb128 0xb
 9695 03ea 27       		.uleb128 0x27
 9696 03eb 0C       		.uleb128 0xc
 9697 03ec 49       		.uleb128 0x49
 9698 03ed 13       		.uleb128 0x13
 9699 03ee 11       		.uleb128 0x11
 9700 03ef 01       		.uleb128 0x1
 9701 03f0 12       		.uleb128 0x12
 9702 03f1 01       		.uleb128 0x1
 9703 03f2 40       		.uleb128 0x40
 9704 03f3 0A       		.uleb128 0xa
 9705 03f4 9742     		.uleb128 0x2117
 9706 03f6 0C       		.uleb128 0xc
 9707 03f7 01       		.uleb128 0x1
 9708 03f8 13       		.uleb128 0x13
 9709 03f9 00       		.byte	0
 9710 03fa 00       		.byte	0
 9711 03fb 49       		.uleb128 0x49
 9712 03fc 05       		.uleb128 0x5
 9713 03fd 00       		.byte	0
 9714 03fe 03       		.uleb128 0x3
 9715 03ff 08       		.uleb128 0x8
 9716 0400 3A       		.uleb128 0x3a
 9717 0401 0B       		.uleb128 0xb
 9718 0402 3B       		.uleb128 0x3b
 9719 0403 0B       		.uleb128 0xb
 9720 0404 49       		.uleb128 0x49
 9721 0405 13       		.uleb128 0x13
 9722 0406 02       		.uleb128 0x2
 9723 0407 06       		.uleb128 0x6
 9724 0408 00       		.byte	0
 9725 0409 00       		.byte	0
 9726 040a 4A       		.uleb128 0x4a
 9727 040b 2E       		.uleb128 0x2e
 9728 040c 01       		.byte	0x1
 9729 040d 3F       		.uleb128 0x3f
 9730 040e 0C       		.uleb128 0xc
 9731 040f 03       		.uleb128 0x3
 9732 0410 0E       		.uleb128 0xe
 9733 0411 3A       		.uleb128 0x3a
 9734 0412 0B       		.uleb128 0xb
 9735 0413 3B       		.uleb128 0x3b
 9736 0414 0B       		.uleb128 0xb
 9737 0415 27       		.uleb128 0x27
 9738 0416 0C       		.uleb128 0xc
 9739 0417 49       		.uleb128 0x49
 9740 0418 13       		.uleb128 0x13
 9741 0419 11       		.uleb128 0x11
 9742 041a 01       		.uleb128 0x1
 9743 041b 12       		.uleb128 0x12
ARM GAS  C:\Users\claym\AppData\Local\Temp\ccxpUFUu.s 			page 210


 9744 041c 01       		.uleb128 0x1
 9745 041d 40       		.uleb128 0x40
 9746 041e 06       		.uleb128 0x6
 9747 041f 9742     		.uleb128 0x2117
 9748 0421 0C       		.uleb128 0xc
 9749 0422 01       		.uleb128 0x1
 9750 0423 13       		.uleb128 0x13
 9751 0424 00       		.byte	0
 9752 0425 00       		.byte	0
 9753 0426 4B       		.uleb128 0x4b
 9754 0427 05       		.uleb128 0x5
 9755 0428 00       		.byte	0
 9756 0429 03       		.uleb128 0x3
 9757 042a 0E       		.uleb128 0xe
 9758 042b 3A       		.uleb128 0x3a
 9759 042c 0B       		.uleb128 0xb
 9760 042d 3B       		.uleb128 0x3b
 9761 042e 0B       		.uleb128 0xb
 9762 042f 49       		.uleb128 0x49
 9763 0430 13       		.uleb128 0x13
 9764 0431 02       		.uleb128 0x2
 9765 0432 06       		.uleb128 0x6
 9766 0433 00       		.byte	0
 9767 0434 00       		.byte	0
 9768 0435 4C       		.uleb128 0x4c
 9769 0436 2E       		.uleb128 0x2e
 9770 0437 00       		.byte	0
 9771 0438 03       		.uleb128 0x3
 9772 0439 0E       		.uleb128 0xe
 9773 043a 3A       		.uleb128 0x3a
 9774 043b 0B       		.uleb128 0xb
 9775 043c 3B       		.uleb128 0x3b
 9776 043d 05       		.uleb128 0x5
 9777 043e 27       		.uleb128 0x27
 9778 043f 0C       		.uleb128 0xc
 9779 0440 20       		.uleb128 0x20
 9780 0441 0B       		.uleb128 0xb
 9781 0442 00       		.byte	0
 9782 0443 00       		.byte	0
 9783 0444 4D       		.uleb128 0x4d
 9784 0445 2E       		.uleb128 0x2e
 9785 0446 00       		.byte	0
 9786 0447 3F       		.uleb128 0x3f
 9787 0448 0C       		.uleb128 0xc
 9788 0449 3C       		.uleb128 0x3c
 9789 044a 0C       		.uleb128 0xc
 9790 044b 8740     		.uleb128 0x2007
 9791 044d 0E       		.uleb128 0xe
 9792 044e 03       		.uleb128 0x3
 9793 044f 0E       		.uleb128 0xe
 9794 0450 3A       		.uleb128 0x3a
 9795 0451 0B       		.uleb128 0xb
 9796 0452 3B       		.uleb128 0x3b
 9797 0453 0B       		.uleb128 0xb
 9798 0454 00       		.byte	0
 9799 0455 00       		.byte	0
 9800 0456 4E       		.uleb128 0x4e
ARM GAS  C:\Users\claym\AppData\Local\Temp\ccxpUFUu.s 			page 211


 9801 0457 2E       		.uleb128 0x2e
 9802 0458 00       		.byte	0
 9803 0459 3F       		.uleb128 0x3f
 9804 045a 0C       		.uleb128 0xc
 9805 045b 3C       		.uleb128 0x3c
 9806 045c 0C       		.uleb128 0xc
 9807 045d 8740     		.uleb128 0x2007
 9808 045f 0E       		.uleb128 0xe
 9809 0460 03       		.uleb128 0x3
 9810 0461 0E       		.uleb128 0xe
 9811 0462 3A       		.uleb128 0x3a
 9812 0463 0B       		.uleb128 0xb
 9813 0464 3B       		.uleb128 0x3b
 9814 0465 0B       		.uleb128 0xb
 9815 0466 8740     		.uleb128 0x2007
 9816 0468 0E       		.uleb128 0xe
 9817 0469 00       		.byte	0
 9818 046a 00       		.byte	0
 9819 046b 00       		.byte	0
 9820              		.section	.debug_loc,"",%progbits
 9821              	.Ldebug_loc0:
 9822              	.LLST95:
 9823 0000 4C0C0000 		.4byte	.LVL298-.Ltext0
 9824 0004 540C0000 		.4byte	.LVL299-.Ltext0
 9825 0008 0100     		.2byte	0x1
 9826 000a 50       		.byte	0x50
 9827 000b 540C0000 		.4byte	.LVL299-.Ltext0
 9828 000f 560C0000 		.4byte	.LVL300-.Ltext0
 9829 0013 0400     		.2byte	0x4
 9830 0015 F3       		.byte	0xf3
 9831 0016 01       		.uleb128 0x1
 9832 0017 50       		.byte	0x50
 9833 0018 9F       		.byte	0x9f
 9834 0019 560C0000 		.4byte	.LVL300-.Ltext0
 9835 001d 580C0000 		.4byte	.LVL301-.Ltext0
 9836 0021 0100     		.2byte	0x1
 9837 0023 50       		.byte	0x50
 9838 0024 580C0000 		.4byte	.LVL301-.Ltext0
 9839 0028 5A0C0000 		.4byte	.LFE66-.Ltext0
 9840 002c 0400     		.2byte	0x4
 9841 002e F3       		.byte	0xf3
 9842 002f 01       		.uleb128 0x1
 9843 0030 50       		.byte	0x50
 9844 0031 9F       		.byte	0x9f
 9845 0032 00000000 		.4byte	0
 9846 0036 00000000 		.4byte	0
 9847              	.LLST90:
 9848 003a CE0A0000 		.4byte	.LFB65-.Ltext0
 9849 003e D00A0000 		.4byte	.LCFI14-.Ltext0
 9850 0042 0200     		.2byte	0x2
 9851 0044 7D       		.byte	0x7d
 9852 0045 00       		.sleb128 0
 9853 0046 D00A0000 		.4byte	.LCFI14-.Ltext0
 9854 004a 4C0C0000 		.4byte	.LFE65-.Ltext0
 9855 004e 0200     		.2byte	0x2
 9856 0050 7D       		.byte	0x7d
 9857 0051 18       		.sleb128 24
ARM GAS  C:\Users\claym\AppData\Local\Temp\ccxpUFUu.s 			page 212


 9858 0052 00000000 		.4byte	0
 9859 0056 00000000 		.4byte	0
 9860              	.LLST91:
 9861 005a CE0A0000 		.4byte	.LVL264-.Ltext0
 9862 005e E20A0000 		.4byte	.LVL265-.Ltext0
 9863 0062 0100     		.2byte	0x1
 9864 0064 50       		.byte	0x50
 9865 0065 E20A0000 		.4byte	.LVL265-.Ltext0
 9866 0069 E60A0000 		.4byte	.LVL267-.Ltext0
 9867 006d 0100     		.2byte	0x1
 9868 006f 54       		.byte	0x54
 9869 0070 E60A0000 		.4byte	.LVL267-.Ltext0
 9870 0074 E80A0000 		.4byte	.LVL268-.Ltext0
 9871 0078 0400     		.2byte	0x4
 9872 007a F3       		.byte	0xf3
 9873 007b 01       		.uleb128 0x1
 9874 007c 50       		.byte	0x50
 9875 007d 9F       		.byte	0x9f
 9876 007e E80A0000 		.4byte	.LVL268-.Ltext0
 9877 0082 040B0000 		.4byte	.LVL272-.Ltext0
 9878 0086 0100     		.2byte	0x1
 9879 0088 50       		.byte	0x50
 9880 0089 040B0000 		.4byte	.LVL272-.Ltext0
 9881 008d 140B0000 		.4byte	.LVL275-.Ltext0
 9882 0091 0100     		.2byte	0x1
 9883 0093 54       		.byte	0x54
 9884 0094 140B0000 		.4byte	.LVL275-.Ltext0
 9885 0098 2E0B0000 		.4byte	.LVL277-.Ltext0
 9886 009c 0100     		.2byte	0x1
 9887 009e 50       		.byte	0x50
 9888 009f 2E0B0000 		.4byte	.LVL277-.Ltext0
 9889 00a3 6E0B0000 		.4byte	.LVL280-.Ltext0
 9890 00a7 0100     		.2byte	0x1
 9891 00a9 54       		.byte	0x54
 9892 00aa 6E0B0000 		.4byte	.LVL280-.Ltext0
 9893 00ae 940B0000 		.4byte	.LVL282-.Ltext0
 9894 00b2 0100     		.2byte	0x1
 9895 00b4 50       		.byte	0x50
 9896 00b5 940B0000 		.4byte	.LVL282-.Ltext0
 9897 00b9 D60B0000 		.4byte	.LVL285-.Ltext0
 9898 00bd 0100     		.2byte	0x1
 9899 00bf 54       		.byte	0x54
 9900 00c0 D60B0000 		.4byte	.LVL285-.Ltext0
 9901 00c4 DA0B0000 		.4byte	.LVL286-.Ltext0
 9902 00c8 0100     		.2byte	0x1
 9903 00ca 50       		.byte	0x50
 9904 00cb DA0B0000 		.4byte	.LVL286-.Ltext0
 9905 00cf 4C0C0000 		.4byte	.LFE65-.Ltext0
 9906 00d3 0100     		.2byte	0x1
 9907 00d5 54       		.byte	0x54
 9908 00d6 00000000 		.4byte	0
 9909 00da 00000000 		.4byte	0
 9910              	.LLST92:
 9911 00de CE0A0000 		.4byte	.LVL264-.Ltext0
 9912 00e2 E60A0000 		.4byte	.LVL266-.Ltext0
 9913 00e6 0200     		.2byte	0x2
 9914 00e8 30       		.byte	0x30
ARM GAS  C:\Users\claym\AppData\Local\Temp\ccxpUFUu.s 			page 213


 9915 00e9 9F       		.byte	0x9f
 9916 00ea E80A0000 		.4byte	.LVL268-.Ltext0
 9917 00ee 080B0000 		.4byte	.LVL273-.Ltext0
 9918 00f2 0200     		.2byte	0x2
 9919 00f4 30       		.byte	0x30
 9920 00f5 9F       		.byte	0x9f
 9921 00f6 080B0000 		.4byte	.LVL273-.Ltext0
 9922 00fa 140B0000 		.4byte	.LVL275-.Ltext0
 9923 00fe 0200     		.2byte	0x2
 9924 0100 32       		.byte	0x32
 9925 0101 9F       		.byte	0x9f
 9926 0102 140B0000 		.4byte	.LVL275-.Ltext0
 9927 0106 2E0B0000 		.4byte	.LVL277-.Ltext0
 9928 010a 0200     		.2byte	0x2
 9929 010c 30       		.byte	0x30
 9930 010d 9F       		.byte	0x9f
 9931 010e 620B0000 		.4byte	.LVL278-.Ltext0
 9932 0112 6E0B0000 		.4byte	.LVL280-.Ltext0
 9933 0116 0200     		.2byte	0x2
 9934 0118 31       		.byte	0x31
 9935 0119 9F       		.byte	0x9f
 9936 011a 6E0B0000 		.4byte	.LVL280-.Ltext0
 9937 011e 940B0000 		.4byte	.LVL282-.Ltext0
 9938 0122 0200     		.2byte	0x2
 9939 0124 30       		.byte	0x30
 9940 0125 9F       		.byte	0x9f
 9941 0126 CA0B0000 		.4byte	.LVL283-.Ltext0
 9942 012a D60B0000 		.4byte	.LVL285-.Ltext0
 9943 012e 0200     		.2byte	0x2
 9944 0130 31       		.byte	0x31
 9945 0131 9F       		.byte	0x9f
 9946 0132 D60B0000 		.4byte	.LVL285-.Ltext0
 9947 0136 DE0B0000 		.4byte	.LVL287-.Ltext0
 9948 013a 0200     		.2byte	0x2
 9949 013c 30       		.byte	0x30
 9950 013d 9F       		.byte	0x9f
 9951 013e DE0B0000 		.4byte	.LVL287-.Ltext0
 9952 0142 390C0000 		.4byte	.LVL297-1-.Ltext0
 9953 0146 0100     		.2byte	0x1
 9954 0148 50       		.byte	0x50
 9955 0149 00000000 		.4byte	0
 9956 014d 00000000 		.4byte	0
 9957              	.LLST93:
 9958 0151 F00A0000 		.4byte	.LVL270-.Ltext0
 9959 0155 2C0B0000 		.4byte	.LVL276-.Ltext0
 9960 0159 0100     		.2byte	0x1
 9961 015b 55       		.byte	0x55
 9962 015c 6E0B0000 		.4byte	.LVL280-.Ltext0
 9963 0160 920B0000 		.4byte	.LVL281-.Ltext0
 9964 0164 0100     		.2byte	0x1
 9965 0166 55       		.byte	0x55
 9966 0167 D60B0000 		.4byte	.LVL285-.Ltext0
 9967 016b 4C0C0000 		.4byte	.LFE65-.Ltext0
 9968 016f 0100     		.2byte	0x1
 9969 0171 55       		.byte	0x55
 9970 0172 00000000 		.4byte	0
 9971 0176 00000000 		.4byte	0
ARM GAS  C:\Users\claym\AppData\Local\Temp\ccxpUFUu.s 			page 214


 9972              	.LLST94:
 9973 017a EE0A0000 		.4byte	.LVL269-.Ltext0
 9974 017e F60A0000 		.4byte	.LVL271-.Ltext0
 9975 0182 0100     		.2byte	0x1
 9976 0184 53       		.byte	0x53
 9977 0185 140B0000 		.4byte	.LVL275-.Ltext0
 9978 0189 2E0B0000 		.4byte	.LVL277-.Ltext0
 9979 018d 0100     		.2byte	0x1
 9980 018f 53       		.byte	0x53
 9981 0190 6E0B0000 		.4byte	.LVL280-.Ltext0
 9982 0194 940B0000 		.4byte	.LVL282-.Ltext0
 9983 0198 0100     		.2byte	0x1
 9984 019a 53       		.byte	0x53
 9985 019b D60B0000 		.4byte	.LVL285-.Ltext0
 9986 019f FC0B0000 		.4byte	.LVL290-.Ltext0
 9987 01a3 0100     		.2byte	0x1
 9988 01a5 53       		.byte	0x53
 9989 01a6 00000000 		.4byte	0
 9990 01aa 00000000 		.4byte	0
 9991              	.LLST85:
 9992 01ae 5C090000 		.4byte	.LFB64-.Ltext0
 9993 01b2 5E090000 		.4byte	.LCFI13-.Ltext0
 9994 01b6 0200     		.2byte	0x2
 9995 01b8 7D       		.byte	0x7d
 9996 01b9 00       		.sleb128 0
 9997 01ba 5E090000 		.4byte	.LCFI13-.Ltext0
 9998 01be CE0A0000 		.4byte	.LFE64-.Ltext0
 9999 01c2 0200     		.2byte	0x2
 10000 01c4 7D       		.byte	0x7d
 10001 01c5 18       		.sleb128 24
 10002 01c6 00000000 		.4byte	0
 10003 01ca 00000000 		.4byte	0
 10004              	.LLST86:
 10005 01ce 5C090000 		.4byte	.LVL231-.Ltext0
 10006 01d2 70090000 		.4byte	.LVL232-.Ltext0
 10007 01d6 0100     		.2byte	0x1
 10008 01d8 50       		.byte	0x50
 10009 01d9 70090000 		.4byte	.LVL232-.Ltext0
 10010 01dd 74090000 		.4byte	.LVL234-.Ltext0
 10011 01e1 0100     		.2byte	0x1
 10012 01e3 54       		.byte	0x54
 10013 01e4 74090000 		.4byte	.LVL234-.Ltext0
 10014 01e8 76090000 		.4byte	.LVL235-.Ltext0
 10015 01ec 0400     		.2byte	0x4
 10016 01ee F3       		.byte	0xf3
 10017 01ef 01       		.uleb128 0x1
 10018 01f0 50       		.byte	0x50
 10019 01f1 9F       		.byte	0x9f
 10020 01f2 76090000 		.4byte	.LVL235-.Ltext0
 10021 01f6 98090000 		.4byte	.LVL239-.Ltext0
 10022 01fa 0100     		.2byte	0x1
 10023 01fc 50       		.byte	0x50
 10024 01fd 98090000 		.4byte	.LVL239-.Ltext0
 10025 0201 D8090000 		.4byte	.LVL243-.Ltext0
 10026 0205 0100     		.2byte	0x1
 10027 0207 54       		.byte	0x54
 10028 0208 D8090000 		.4byte	.LVL243-.Ltext0
ARM GAS  C:\Users\claym\AppData\Local\Temp\ccxpUFUu.s 			page 215


 10029 020c FC090000 		.4byte	.LVL244-.Ltext0
 10030 0210 0100     		.2byte	0x1
 10031 0212 50       		.byte	0x50
 10032 0213 FC090000 		.4byte	.LVL244-.Ltext0
 10033 0217 420A0000 		.4byte	.LVL247-.Ltext0
 10034 021b 0100     		.2byte	0x1
 10035 021d 54       		.byte	0x54
 10036 021e 420A0000 		.4byte	.LVL247-.Ltext0
 10037 0222 460A0000 		.4byte	.LVL248-.Ltext0
 10038 0226 0100     		.2byte	0x1
 10039 0228 50       		.byte	0x50
 10040 0229 460A0000 		.4byte	.LVL248-.Ltext0
 10041 022d CE0A0000 		.4byte	.LFE64-.Ltext0
 10042 0231 0100     		.2byte	0x1
 10043 0233 54       		.byte	0x54
 10044 0234 00000000 		.4byte	0
 10045 0238 00000000 		.4byte	0
 10046              	.LLST87:
 10047 023c 5C090000 		.4byte	.LVL231-.Ltext0
 10048 0240 74090000 		.4byte	.LVL233-.Ltext0
 10049 0244 0200     		.2byte	0x2
 10050 0246 30       		.byte	0x30
 10051 0247 9F       		.byte	0x9f
 10052 0248 76090000 		.4byte	.LVL235-.Ltext0
 10053 024c 98090000 		.4byte	.LVL239-.Ltext0
 10054 0250 0200     		.2byte	0x2
 10055 0252 30       		.byte	0x30
 10056 0253 9F       		.byte	0x9f
 10057 0254 BC090000 		.4byte	.LVL240-.Ltext0
 10058 0258 D8090000 		.4byte	.LVL243-.Ltext0
 10059 025c 0200     		.2byte	0x2
 10060 025e 31       		.byte	0x31
 10061 025f 9F       		.byte	0x9f
 10062 0260 D8090000 		.4byte	.LVL243-.Ltext0
 10063 0264 FC090000 		.4byte	.LVL244-.Ltext0
 10064 0268 0200     		.2byte	0x2
 10065 026a 30       		.byte	0x30
 10066 026b 9F       		.byte	0x9f
 10067 026c 360A0000 		.4byte	.LVL245-.Ltext0
 10068 0270 420A0000 		.4byte	.LVL247-.Ltext0
 10069 0274 0200     		.2byte	0x2
 10070 0276 31       		.byte	0x31
 10071 0277 9F       		.byte	0x9f
 10072 0278 420A0000 		.4byte	.LVL247-.Ltext0
 10073 027c 4E0A0000 		.4byte	.LVL249-.Ltext0
 10074 0280 0200     		.2byte	0x2
 10075 0282 30       		.byte	0x30
 10076 0283 9F       		.byte	0x9f
 10077 0284 4E0A0000 		.4byte	.LVL249-.Ltext0
 10078 0288 C70A0000 		.4byte	.LVL263-1-.Ltext0
 10079 028c 0100     		.2byte	0x1
 10080 028e 50       		.byte	0x50
 10081 028f 00000000 		.4byte	0
 10082 0293 00000000 		.4byte	0
 10083              	.LLST88:
 10084 0297 7C090000 		.4byte	.LVL237-.Ltext0
 10085 029b 96090000 		.4byte	.LVL238-.Ltext0
ARM GAS  C:\Users\claym\AppData\Local\Temp\ccxpUFUu.s 			page 216


 10086 029f 0100     		.2byte	0x1
 10087 02a1 57       		.byte	0x57
 10088 02a2 D8090000 		.4byte	.LVL243-.Ltext0
 10089 02a6 FC090000 		.4byte	.LVL244-.Ltext0
 10090 02aa 0100     		.2byte	0x1
 10091 02ac 57       		.byte	0x57
 10092 02ad 420A0000 		.4byte	.LVL247-.Ltext0
 10093 02b1 CE0A0000 		.4byte	.LFE64-.Ltext0
 10094 02b5 0100     		.2byte	0x1
 10095 02b7 57       		.byte	0x57
 10096 02b8 00000000 		.4byte	0
 10097 02bc 00000000 		.4byte	0
 10098              	.LLST89:
 10099 02c0 7A090000 		.4byte	.LVL236-.Ltext0
 10100 02c4 98090000 		.4byte	.LVL239-.Ltext0
 10101 02c8 0100     		.2byte	0x1
 10102 02ca 53       		.byte	0x53
 10103 02cb D8090000 		.4byte	.LVL243-.Ltext0
 10104 02cf FC090000 		.4byte	.LVL244-.Ltext0
 10105 02d3 0100     		.2byte	0x1
 10106 02d5 53       		.byte	0x53
 10107 02d6 420A0000 		.4byte	.LVL247-.Ltext0
 10108 02da 7A0A0000 		.4byte	.LVL254-.Ltext0
 10109 02de 0100     		.2byte	0x1
 10110 02e0 53       		.byte	0x53
 10111 02e1 00000000 		.4byte	0
 10112 02e5 00000000 		.4byte	0
 10113              	.LLST76:
 10114 02e9 58080000 		.4byte	.LFB63-.Ltext0
 10115 02ed 5A080000 		.4byte	.LCFI12-.Ltext0
 10116 02f1 0200     		.2byte	0x2
 10117 02f3 7D       		.byte	0x7d
 10118 02f4 00       		.sleb128 0
 10119 02f5 5A080000 		.4byte	.LCFI12-.Ltext0
 10120 02f9 5C090000 		.4byte	.LFE63-.Ltext0
 10121 02fd 0200     		.2byte	0x2
 10122 02ff 7D       		.byte	0x7d
 10123 0300 20       		.sleb128 32
 10124 0301 00000000 		.4byte	0
 10125 0305 00000000 		.4byte	0
 10126              	.LLST77:
 10127 0309 58080000 		.4byte	.LVL204-.Ltext0
 10128 030d 6E080000 		.4byte	.LVL205-.Ltext0
 10129 0311 0100     		.2byte	0x1
 10130 0313 50       		.byte	0x50
 10131 0314 6E080000 		.4byte	.LVL205-.Ltext0
 10132 0318 94080000 		.4byte	.LVL208-.Ltext0
 10133 031c 0200     		.2byte	0x2
 10134 031e 7D       		.byte	0x7d
 10135 031f 00       		.sleb128 0
 10136 0320 94080000 		.4byte	.LVL208-.Ltext0
 10137 0324 00090000 		.4byte	.LVL222-.Ltext0
 10138 0328 0400     		.2byte	0x4
 10139 032a F3       		.byte	0xf3
 10140 032b 01       		.uleb128 0x1
 10141 032c 50       		.byte	0x50
 10142 032d 9F       		.byte	0x9f
ARM GAS  C:\Users\claym\AppData\Local\Temp\ccxpUFUu.s 			page 217


 10143 032e 00090000 		.4byte	.LVL222-.Ltext0
 10144 0332 1C090000 		.4byte	.LVL224-.Ltext0
 10145 0336 0200     		.2byte	0x2
 10146 0338 7D       		.byte	0x7d
 10147 0339 00       		.sleb128 0
 10148 033a 1C090000 		.4byte	.LVL224-.Ltext0
 10149 033e 52090000 		.4byte	.LVL229-.Ltext0
 10150 0342 0400     		.2byte	0x4
 10151 0344 F3       		.byte	0xf3
 10152 0345 01       		.uleb128 0x1
 10153 0346 50       		.byte	0x50
 10154 0347 9F       		.byte	0x9f
 10155 0348 52090000 		.4byte	.LVL229-.Ltext0
 10156 034c 54090000 		.4byte	.LVL230-.Ltext0
 10157 0350 0100     		.2byte	0x1
 10158 0352 50       		.byte	0x50
 10159 0353 54090000 		.4byte	.LVL230-.Ltext0
 10160 0357 5C090000 		.4byte	.LFE63-.Ltext0
 10161 035b 0200     		.2byte	0x2
 10162 035d 7D       		.byte	0x7d
 10163 035e 00       		.sleb128 0
 10164 035f 00000000 		.4byte	0
 10165 0363 00000000 		.4byte	0
 10166              	.LLST78:
 10167 0367 58080000 		.4byte	.LVL204-.Ltext0
 10168 036b 70080000 		.4byte	.LVL206-.Ltext0
 10169 036f 0100     		.2byte	0x1
 10170 0371 51       		.byte	0x51
 10171 0372 70080000 		.4byte	.LVL206-.Ltext0
 10172 0376 50090000 		.4byte	.LVL228-.Ltext0
 10173 037a 0100     		.2byte	0x1
 10174 037c 57       		.byte	0x57
 10175 037d 50090000 		.4byte	.LVL228-.Ltext0
 10176 0381 52090000 		.4byte	.LVL229-.Ltext0
 10177 0385 0400     		.2byte	0x4
 10178 0387 F3       		.byte	0xf3
 10179 0388 01       		.uleb128 0x1
 10180 0389 51       		.byte	0x51
 10181 038a 9F       		.byte	0x9f
 10182 038b 52090000 		.4byte	.LVL229-.Ltext0
 10183 038f 5C090000 		.4byte	.LFE63-.Ltext0
 10184 0393 0100     		.2byte	0x1
 10185 0395 51       		.byte	0x51
 10186 0396 00000000 		.4byte	0
 10187 039a 00000000 		.4byte	0
 10188              	.LLST79:
 10189 039e 58080000 		.4byte	.LVL204-.Ltext0
 10190 03a2 84080000 		.4byte	.LVL207-.Ltext0
 10191 03a6 0100     		.2byte	0x1
 10192 03a8 52       		.byte	0x52
 10193 03a9 84080000 		.4byte	.LVL207-.Ltext0
 10194 03ad 50090000 		.4byte	.LVL227-.Ltext0
 10195 03b1 0100     		.2byte	0x1
 10196 03b3 54       		.byte	0x54
 10197 03b4 50090000 		.4byte	.LVL227-.Ltext0
 10198 03b8 52090000 		.4byte	.LVL229-.Ltext0
 10199 03bc 0400     		.2byte	0x4
ARM GAS  C:\Users\claym\AppData\Local\Temp\ccxpUFUu.s 			page 218


 10200 03be F3       		.byte	0xf3
 10201 03bf 01       		.uleb128 0x1
 10202 03c0 52       		.byte	0x52
 10203 03c1 9F       		.byte	0x9f
 10204 03c2 52090000 		.4byte	.LVL229-.Ltext0
 10205 03c6 5C090000 		.4byte	.LFE63-.Ltext0
 10206 03ca 0100     		.2byte	0x1
 10207 03cc 52       		.byte	0x52
 10208 03cd 00000000 		.4byte	0
 10209 03d1 00000000 		.4byte	0
 10210              	.LLST80:
 10211 03d5 DC080000 		.4byte	.LVL215-.Ltext0
 10212 03d9 E0080000 		.4byte	.LVL216-.Ltext0
 10213 03dd 0300     		.2byte	0x3
 10214 03df 76       		.byte	0x76
 10215 03e0 01       		.sleb128 1
 10216 03e1 9F       		.byte	0x9f
 10217 03e2 E0080000 		.4byte	.LVL216-.Ltext0
 10218 03e6 E4080000 		.4byte	.LVL217-.Ltext0
 10219 03ea 0100     		.2byte	0x1
 10220 03ec 56       		.byte	0x56
 10221 03ed 00000000 		.4byte	0
 10222 03f1 00000000 		.4byte	0
 10223              	.LLST81:
 10224 03f5 B2080000 		.4byte	.LVL211-.Ltext0
 10225 03f9 FC080000 		.4byte	.LVL221-.Ltext0
 10226 03fd 0200     		.2byte	0x2
 10227 03ff 91       		.byte	0x91
 10228 0400 64       		.sleb128 -28
 10229 0401 00000000 		.4byte	0
 10230 0405 00000000 		.4byte	0
 10231              	.LLST82:
 10232 0409 A8080000 		.4byte	.LVL210-.Ltext0
 10233 040d B2080000 		.4byte	.LVL211-.Ltext0
 10234 0411 0100     		.2byte	0x1
 10235 0413 50       		.byte	0x50
 10236 0414 00000000 		.4byte	0
 10237 0418 00000000 		.4byte	0
 10238              	.LLST83:
 10239 041c CC080000 		.4byte	.LVL213-.Ltext0
 10240 0420 DA080000 		.4byte	.LVL214-.Ltext0
 10241 0424 0100     		.2byte	0x1
 10242 0426 52       		.byte	0x52
 10243 0427 00000000 		.4byte	0
 10244 042b 00000000 		.4byte	0
 10245              	.LLST84:
 10246 042f EA080000 		.4byte	.LVL218-.Ltext0
 10247 0433 EE080000 		.4byte	.LVL219-.Ltext0
 10248 0437 0100     		.2byte	0x1
 10249 0439 53       		.byte	0x53
 10250 043a 00000000 		.4byte	0
 10251 043e 00000000 		.4byte	0
 10252              	.LLST67:
 10253 0442 D8060000 		.4byte	.LFB62-.Ltext0
 10254 0446 DA060000 		.4byte	.LCFI11-.Ltext0
 10255 044a 0200     		.2byte	0x2
 10256 044c 7D       		.byte	0x7d
ARM GAS  C:\Users\claym\AppData\Local\Temp\ccxpUFUu.s 			page 219


 10257 044d 00       		.sleb128 0
 10258 044e DA060000 		.4byte	.LCFI11-.Ltext0
 10259 0452 58080000 		.4byte	.LFE62-.Ltext0
 10260 0456 0200     		.2byte	0x2
 10261 0458 7D       		.byte	0x7d
 10262 0459 20       		.sleb128 32
 10263 045a 00000000 		.4byte	0
 10264 045e 00000000 		.4byte	0
 10265              	.LLST68:
 10266 0462 D8060000 		.4byte	.LVL162-.Ltext0
 10267 0466 EE060000 		.4byte	.LVL163-.Ltext0
 10268 046a 0100     		.2byte	0x1
 10269 046c 50       		.byte	0x50
 10270 046d EE060000 		.4byte	.LVL163-.Ltext0
 10271 0471 56070000 		.4byte	.LVL173-.Ltext0
 10272 0475 0100     		.2byte	0x1
 10273 0477 57       		.byte	0x57
 10274 0478 56070000 		.4byte	.LVL173-.Ltext0
 10275 047c 62070000 		.4byte	.LVL176-.Ltext0
 10276 0480 0400     		.2byte	0x4
 10277 0482 F3       		.byte	0xf3
 10278 0483 01       		.uleb128 0x1
 10279 0484 50       		.byte	0x50
 10280 0485 9F       		.byte	0x9f
 10281 0486 62070000 		.4byte	.LVL176-.Ltext0
 10282 048a A6070000 		.4byte	.LVL188-.Ltext0
 10283 048e 0100     		.2byte	0x1
 10284 0490 57       		.byte	0x57
 10285 0491 A6070000 		.4byte	.LVL188-.Ltext0
 10286 0495 E2070000 		.4byte	.LVL193-.Ltext0
 10287 0499 0400     		.2byte	0x4
 10288 049b F3       		.byte	0xf3
 10289 049c 01       		.uleb128 0x1
 10290 049d 50       		.byte	0x50
 10291 049e 9F       		.byte	0x9f
 10292 049f E2070000 		.4byte	.LVL193-.Ltext0
 10293 04a3 4E080000 		.4byte	.LVL202-.Ltext0
 10294 04a7 0100     		.2byte	0x1
 10295 04a9 57       		.byte	0x57
 10296 04aa 4E080000 		.4byte	.LVL202-.Ltext0
 10297 04ae 50080000 		.4byte	.LVL203-.Ltext0
 10298 04b2 0100     		.2byte	0x1
 10299 04b4 50       		.byte	0x50
 10300 04b5 50080000 		.4byte	.LVL203-.Ltext0
 10301 04b9 58080000 		.4byte	.LFE62-.Ltext0
 10302 04bd 0100     		.2byte	0x1
 10303 04bf 57       		.byte	0x57
 10304 04c0 00000000 		.4byte	0
 10305 04c4 00000000 		.4byte	0
 10306              	.LLST69:
 10307 04c8 D8060000 		.4byte	.LVL162-.Ltext0
 10308 04cc F0060000 		.4byte	.LVL164-.Ltext0
 10309 04d0 0100     		.2byte	0x1
 10310 04d2 51       		.byte	0x51
 10311 04d3 F0060000 		.4byte	.LVL164-.Ltext0
 10312 04d7 56070000 		.4byte	.LVL173-.Ltext0
 10313 04db 0100     		.2byte	0x1
ARM GAS  C:\Users\claym\AppData\Local\Temp\ccxpUFUu.s 			page 220


 10314 04dd 55       		.byte	0x55
 10315 04de 62070000 		.4byte	.LVL176-.Ltext0
 10316 04e2 AA070000 		.4byte	.LVL189-.Ltext0
 10317 04e6 0100     		.2byte	0x1
 10318 04e8 55       		.byte	0x55
 10319 04e9 E2070000 		.4byte	.LVL193-.Ltext0
 10320 04ed 4E080000 		.4byte	.LVL202-.Ltext0
 10321 04f1 0100     		.2byte	0x1
 10322 04f3 55       		.byte	0x55
 10323 04f4 4E080000 		.4byte	.LVL202-.Ltext0
 10324 04f8 58080000 		.4byte	.LFE62-.Ltext0
 10325 04fc 0100     		.2byte	0x1
 10326 04fe 51       		.byte	0x51
 10327 04ff 00000000 		.4byte	0
 10328 0503 00000000 		.4byte	0
 10329              	.LLST70:
 10330 0507 D8060000 		.4byte	.LVL162-.Ltext0
 10331 050b FC060000 		.4byte	.LVL165-.Ltext0
 10332 050f 0100     		.2byte	0x1
 10333 0511 52       		.byte	0x52
 10334 0512 FC060000 		.4byte	.LVL165-.Ltext0
 10335 0516 E0070000 		.4byte	.LVL192-.Ltext0
 10336 051a 0100     		.2byte	0x1
 10337 051c 54       		.byte	0x54
 10338 051d E0070000 		.4byte	.LVL192-.Ltext0
 10339 0521 E2070000 		.4byte	.LVL193-.Ltext0
 10340 0525 0400     		.2byte	0x4
 10341 0527 F3       		.byte	0xf3
 10342 0528 01       		.uleb128 0x1
 10343 0529 52       		.byte	0x52
 10344 052a 9F       		.byte	0x9f
 10345 052b E2070000 		.4byte	.LVL193-.Ltext0
 10346 052f 4E080000 		.4byte	.LVL202-.Ltext0
 10347 0533 0100     		.2byte	0x1
 10348 0535 54       		.byte	0x54
 10349 0536 4E080000 		.4byte	.LVL202-.Ltext0
 10350 053a 58080000 		.4byte	.LFE62-.Ltext0
 10351 053e 0100     		.2byte	0x1
 10352 0540 52       		.byte	0x52
 10353 0541 00000000 		.4byte	0
 10354 0545 00000000 		.4byte	0
 10355              	.LLST71:
 10356 0549 26070000 		.4byte	.LVL166-.Ltext0
 10357 054d 2E070000 		.4byte	.LVL168-.Ltext0
 10358 0551 0200     		.2byte	0x2
 10359 0553 30       		.byte	0x30
 10360 0554 9F       		.byte	0x9f
 10361 0555 30070000 		.4byte	.LVL169-.Ltext0
 10362 0559 56070000 		.4byte	.LVL173-.Ltext0
 10363 055d 0100     		.2byte	0x1
 10364 055f 56       		.byte	0x56
 10365 0560 62070000 		.4byte	.LVL176-.Ltext0
 10366 0564 6C070000 		.4byte	.LVL178-.Ltext0
 10367 0568 0800     		.2byte	0x8
 10368 056a 72       		.byte	0x72
 10369 056b 00       		.sleb128 0
 10370 056c 77       		.byte	0x77
ARM GAS  C:\Users\claym\AppData\Local\Temp\ccxpUFUu.s 			page 221


 10371 056d 00       		.sleb128 0
 10372 056e 1C       		.byte	0x1c
 10373 056f 23       		.byte	0x23
 10374 0570 01       		.uleb128 0x1
 10375 0571 9F       		.byte	0x9f
 10376 0572 6C070000 		.4byte	.LVL178-.Ltext0
 10377 0576 72070000 		.4byte	.LVL179-.Ltext0
 10378 057a 0600     		.2byte	0x6
 10379 057c 72       		.byte	0x72
 10380 057d 00       		.sleb128 0
 10381 057e 77       		.byte	0x77
 10382 057f 00       		.sleb128 0
 10383 0580 1C       		.byte	0x1c
 10384 0581 9F       		.byte	0x9f
 10385 0582 72070000 		.4byte	.LVL179-.Ltext0
 10386 0586 8A070000 		.4byte	.LVL181-.Ltext0
 10387 058a 0100     		.2byte	0x1
 10388 058c 56       		.byte	0x56
 10389 058d 8A070000 		.4byte	.LVL181-.Ltext0
 10390 0591 94070000 		.4byte	.LVL184-.Ltext0
 10391 0595 0300     		.2byte	0x3
 10392 0597 76       		.byte	0x76
 10393 0598 01       		.sleb128 1
 10394 0599 9F       		.byte	0x9f
 10395 059a 94070000 		.4byte	.LVL184-.Ltext0
 10396 059e A4070000 		.4byte	.LVL187-.Ltext0
 10397 05a2 0100     		.2byte	0x1
 10398 05a4 56       		.byte	0x56
 10399 05a5 28080000 		.4byte	.LVL197-.Ltext0
 10400 05a9 2C080000 		.4byte	.LVL198-.Ltext0
 10401 05ad 0200     		.2byte	0x2
 10402 05af 30       		.byte	0x30
 10403 05b0 9F       		.byte	0x9f
 10404 05b1 2C080000 		.4byte	.LVL198-.Ltext0
 10405 05b5 46080000 		.4byte	.LVL200-.Ltext0
 10406 05b9 0100     		.2byte	0x1
 10407 05bb 56       		.byte	0x56
 10408 05bc 46080000 		.4byte	.LVL200-.Ltext0
 10409 05c0 4A080000 		.4byte	.LVL201-.Ltext0
 10410 05c4 0300     		.2byte	0x3
 10411 05c6 76       		.byte	0x76
 10412 05c7 01       		.sleb128 1
 10413 05c8 9F       		.byte	0x9f
 10414 05c9 4A080000 		.4byte	.LVL201-.Ltext0
 10415 05cd 4E080000 		.4byte	.LVL202-.Ltext0
 10416 05d1 0100     		.2byte	0x1
 10417 05d3 56       		.byte	0x56
 10418 05d4 00000000 		.4byte	0
 10419 05d8 00000000 		.4byte	0
 10420              	.LLST72:
 10421 05dc 48070000 		.4byte	.LVL171-.Ltext0
 10422 05e0 5E070000 		.4byte	.LVL175-.Ltext0
 10423 05e4 0200     		.2byte	0x2
 10424 05e6 91       		.byte	0x91
 10425 05e7 64       		.sleb128 -28
 10426 05e8 72070000 		.4byte	.LVL179-.Ltext0
 10427 05ec DE070000 		.4byte	.LVL191-.Ltext0
ARM GAS  C:\Users\claym\AppData\Local\Temp\ccxpUFUu.s 			page 222


 10428 05f0 0200     		.2byte	0x2
 10429 05f2 91       		.byte	0x91
 10430 05f3 64       		.sleb128 -28
 10431 05f4 00000000 		.4byte	0
 10432 05f8 00000000 		.4byte	0
 10433              	.LLST73:
 10434 05fc 42070000 		.4byte	.LVL170-.Ltext0
 10435 0600 48070000 		.4byte	.LVL171-.Ltext0
 10436 0604 0100     		.2byte	0x1
 10437 0606 50       		.byte	0x50
 10438 0607 00000000 		.4byte	0
 10439 060b 00000000 		.4byte	0
 10440              	.LLST74:
 10441 060f 7E070000 		.4byte	.LVL180-.Ltext0
 10442 0613 8C070000 		.4byte	.LVL182-.Ltext0
 10443 0617 0100     		.2byte	0x1
 10444 0619 52       		.byte	0x52
 10445 061a 00000000 		.4byte	0
 10446 061e 00000000 		.4byte	0
 10447              	.LLST75:
 10448 0622 9A070000 		.4byte	.LVL185-.Ltext0
 10449 0626 9E070000 		.4byte	.LVL186-.Ltext0
 10450 062a 0100     		.2byte	0x1
 10451 062c 53       		.byte	0x53
 10452 062d 00000000 		.4byte	0
 10453 0631 00000000 		.4byte	0
 10454              	.LLST59:
 10455 0635 A4050000 		.4byte	.LFB61-.Ltext0
 10456 0639 A6050000 		.4byte	.LCFI9-.Ltext0
 10457 063d 0200     		.2byte	0x2
 10458 063f 7D       		.byte	0x7d
 10459 0640 00       		.sleb128 0
 10460 0641 A6050000 		.4byte	.LCFI9-.Ltext0
 10461 0645 A8050000 		.4byte	.LCFI10-.Ltext0
 10462 0649 0200     		.2byte	0x2
 10463 064b 7D       		.byte	0x7d
 10464 064c 14       		.sleb128 20
 10465 064d A8050000 		.4byte	.LCFI10-.Ltext0
 10466 0651 D8060000 		.4byte	.LFE61-.Ltext0
 10467 0655 0200     		.2byte	0x2
 10468 0657 7D       		.byte	0x7d
 10469 0658 28       		.sleb128 40
 10470 0659 00000000 		.4byte	0
 10471 065d 00000000 		.4byte	0
 10472              	.LLST60:
 10473 0661 A4050000 		.4byte	.LVL130-.Ltext0
 10474 0665 EC050000 		.4byte	.LVL135-.Ltext0
 10475 0669 0100     		.2byte	0x1
 10476 066b 50       		.byte	0x50
 10477 066c EC050000 		.4byte	.LVL135-.Ltext0
 10478 0670 7A060000 		.4byte	.LVL151-.Ltext0
 10479 0674 0400     		.2byte	0x4
 10480 0676 F3       		.byte	0xf3
 10481 0677 01       		.uleb128 0x1
 10482 0678 50       		.byte	0x50
 10483 0679 9F       		.byte	0x9f
 10484 067a 7A060000 		.4byte	.LVL151-.Ltext0
ARM GAS  C:\Users\claym\AppData\Local\Temp\ccxpUFUu.s 			page 223


 10485 067e 7E060000 		.4byte	.LVL153-.Ltext0
 10486 0682 0100     		.2byte	0x1
 10487 0684 50       		.byte	0x50
 10488 0685 7E060000 		.4byte	.LVL153-.Ltext0
 10489 0689 96060000 		.4byte	.LVL155-.Ltext0
 10490 068d 0200     		.2byte	0x2
 10491 068f 91       		.byte	0x91
 10492 0690 60       		.sleb128 -32
 10493 0691 96060000 		.4byte	.LVL155-.Ltext0
 10494 0695 CA060000 		.4byte	.LVL158-.Ltext0
 10495 0699 0400     		.2byte	0x4
 10496 069b F3       		.byte	0xf3
 10497 069c 01       		.uleb128 0x1
 10498 069d 50       		.byte	0x50
 10499 069e 9F       		.byte	0x9f
 10500 069f CA060000 		.4byte	.LVL158-.Ltext0
 10501 06a3 CC060000 		.4byte	.LVL159-.Ltext0
 10502 06a7 0100     		.2byte	0x1
 10503 06a9 50       		.byte	0x50
 10504 06aa CC060000 		.4byte	.LVL159-.Ltext0
 10505 06ae CE060000 		.4byte	.LVL160-.Ltext0
 10506 06b2 0200     		.2byte	0x2
 10507 06b4 91       		.byte	0x91
 10508 06b5 60       		.sleb128 -32
 10509 06b6 CE060000 		.4byte	.LVL160-.Ltext0
 10510 06ba D0060000 		.4byte	.LVL161-.Ltext0
 10511 06be 0100     		.2byte	0x1
 10512 06c0 50       		.byte	0x50
 10513 06c1 D0060000 		.4byte	.LVL161-.Ltext0
 10514 06c5 D8060000 		.4byte	.LFE61-.Ltext0
 10515 06c9 0200     		.2byte	0x2
 10516 06cb 91       		.byte	0x91
 10517 06cc 60       		.sleb128 -32
 10518 06cd 00000000 		.4byte	0
 10519 06d1 00000000 		.4byte	0
 10520              	.LLST61:
 10521 06d5 A4050000 		.4byte	.LVL130-.Ltext0
 10522 06d9 EA050000 		.4byte	.LVL134-.Ltext0
 10523 06dd 0100     		.2byte	0x1
 10524 06df 51       		.byte	0x51
 10525 06e0 EA050000 		.4byte	.LVL134-.Ltext0
 10526 06e4 7A060000 		.4byte	.LVL151-.Ltext0
 10527 06e8 0400     		.2byte	0x4
 10528 06ea F3       		.byte	0xf3
 10529 06eb 01       		.uleb128 0x1
 10530 06ec 51       		.byte	0x51
 10531 06ed 9F       		.byte	0x9f
 10532 06ee 7A060000 		.4byte	.LVL151-.Ltext0
 10533 06f2 7C060000 		.4byte	.LVL152-.Ltext0
 10534 06f6 0100     		.2byte	0x1
 10535 06f8 51       		.byte	0x51
 10536 06f9 7C060000 		.4byte	.LVL152-.Ltext0
 10537 06fd 96060000 		.4byte	.LVL155-.Ltext0
 10538 0701 0200     		.2byte	0x2
 10539 0703 91       		.byte	0x91
 10540 0704 5C       		.sleb128 -36
 10541 0705 96060000 		.4byte	.LVL155-.Ltext0
ARM GAS  C:\Users\claym\AppData\Local\Temp\ccxpUFUu.s 			page 224


 10542 0709 CA060000 		.4byte	.LVL158-.Ltext0
 10543 070d 0400     		.2byte	0x4
 10544 070f F3       		.byte	0xf3
 10545 0710 01       		.uleb128 0x1
 10546 0711 51       		.byte	0x51
 10547 0712 9F       		.byte	0x9f
 10548 0713 CA060000 		.4byte	.LVL158-.Ltext0
 10549 0717 D8060000 		.4byte	.LFE61-.Ltext0
 10550 071b 0100     		.2byte	0x1
 10551 071d 51       		.byte	0x51
 10552 071e 00000000 		.4byte	0
 10553 0722 00000000 		.4byte	0
 10554              	.LLST62:
 10555 0726 A4050000 		.4byte	.LVL130-.Ltext0
 10556 072a DA050000 		.4byte	.LVL132-.Ltext0
 10557 072e 0100     		.2byte	0x1
 10558 0730 52       		.byte	0x52
 10559 0731 DA050000 		.4byte	.LVL132-.Ltext0
 10560 0735 E0050000 		.4byte	.LVL133-.Ltext0
 10561 0739 0200     		.2byte	0x2
 10562 073b 7D       		.byte	0x7d
 10563 073c 00       		.sleb128 0
 10564 073d E0050000 		.4byte	.LVL133-.Ltext0
 10565 0741 7A060000 		.4byte	.LVL151-.Ltext0
 10566 0745 0400     		.2byte	0x4
 10567 0747 F3       		.byte	0xf3
 10568 0748 01       		.uleb128 0x1
 10569 0749 52       		.byte	0x52
 10570 074a 9F       		.byte	0x9f
 10571 074b 7A060000 		.4byte	.LVL151-.Ltext0
 10572 074f 81060000 		.4byte	.LVL154-1-.Ltext0
 10573 0753 0100     		.2byte	0x1
 10574 0755 52       		.byte	0x52
 10575 0756 81060000 		.4byte	.LVL154-1-.Ltext0
 10576 075a 96060000 		.4byte	.LVL155-.Ltext0
 10577 075e 0200     		.2byte	0x2
 10578 0760 7D       		.byte	0x7d
 10579 0761 00       		.sleb128 0
 10580 0762 96060000 		.4byte	.LVL155-.Ltext0
 10581 0766 CA060000 		.4byte	.LVL158-.Ltext0
 10582 076a 0400     		.2byte	0x4
 10583 076c F3       		.byte	0xf3
 10584 076d 01       		.uleb128 0x1
 10585 076e 52       		.byte	0x52
 10586 076f 9F       		.byte	0x9f
 10587 0770 CA060000 		.4byte	.LVL158-.Ltext0
 10588 0774 D8060000 		.4byte	.LFE61-.Ltext0
 10589 0778 0100     		.2byte	0x1
 10590 077a 52       		.byte	0x52
 10591 077b 00000000 		.4byte	0
 10592 077f 00000000 		.4byte	0
 10593              	.LLST63:
 10594 0783 A4050000 		.4byte	.LVL130-.Ltext0
 10595 0787 C2050000 		.4byte	.LVL131-.Ltext0
 10596 078b 0100     		.2byte	0x1
 10597 078d 53       		.byte	0x53
 10598 078e C2050000 		.4byte	.LVL131-.Ltext0
ARM GAS  C:\Users\claym\AppData\Local\Temp\ccxpUFUu.s 			page 225


 10599 0792 CA060000 		.4byte	.LVL158-.Ltext0
 10600 0796 0400     		.2byte	0x4
 10601 0798 F3       		.byte	0xf3
 10602 0799 01       		.uleb128 0x1
 10603 079a 53       		.byte	0x53
 10604 079b 9F       		.byte	0x9f
 10605 079c CA060000 		.4byte	.LVL158-.Ltext0
 10606 07a0 CE060000 		.4byte	.LVL160-.Ltext0
 10607 07a4 0100     		.2byte	0x1
 10608 07a6 53       		.byte	0x53
 10609 07a7 CE060000 		.4byte	.LVL160-.Ltext0
 10610 07ab D8060000 		.4byte	.LFE61-.Ltext0
 10611 07af 0400     		.2byte	0x4
 10612 07b1 F3       		.byte	0xf3
 10613 07b2 01       		.uleb128 0x1
 10614 07b3 53       		.byte	0x53
 10615 07b4 9F       		.byte	0x9f
 10616 07b5 00000000 		.4byte	0
 10617 07b9 00000000 		.4byte	0
 10618              	.LLST64:
 10619 07bd A4050000 		.4byte	.LVL130-.Ltext0
 10620 07c1 E0050000 		.4byte	.LVL133-.Ltext0
 10621 07c5 0200     		.2byte	0x2
 10622 07c7 91       		.byte	0x91
 10623 07c8 00       		.sleb128 0
 10624 07c9 7A060000 		.4byte	.LVL151-.Ltext0
 10625 07cd 96060000 		.4byte	.LVL155-.Ltext0
 10626 07d1 0200     		.2byte	0x2
 10627 07d3 91       		.byte	0x91
 10628 07d4 00       		.sleb128 0
 10629 07d5 CA060000 		.4byte	.LVL158-.Ltext0
 10630 07d9 D8060000 		.4byte	.LFE61-.Ltext0
 10631 07dd 0200     		.2byte	0x2
 10632 07df 91       		.byte	0x91
 10633 07e0 00       		.sleb128 0
 10634 07e1 00000000 		.4byte	0
 10635 07e5 00000000 		.4byte	0
 10636              	.LLST65:
 10637 07e9 F6050000 		.4byte	.LVL137-.Ltext0
 10638 07ed FC050000 		.4byte	.LVL138-.Ltext0
 10639 07f1 0200     		.2byte	0x2
 10640 07f3 30       		.byte	0x30
 10641 07f4 9F       		.byte	0x9f
 10642 07f5 FC050000 		.4byte	.LVL138-.Ltext0
 10643 07f9 04060000 		.4byte	.LVL139-.Ltext0
 10644 07fd 0100     		.2byte	0x1
 10645 07ff 55       		.byte	0x55
 10646 0800 0A060000 		.4byte	.LVL140-.Ltext0
 10647 0804 26060000 		.4byte	.LVL143-.Ltext0
 10648 0808 0100     		.2byte	0x1
 10649 080a 51       		.byte	0x51
 10650 080b 26060000 		.4byte	.LVL143-.Ltext0
 10651 080f 4C060000 		.4byte	.LVL144-.Ltext0
 10652 0813 0100     		.2byte	0x1
 10653 0815 55       		.byte	0x55
 10654 0816 4C060000 		.4byte	.LVL144-.Ltext0
 10655 081a 57060000 		.4byte	.LVL145-1-.Ltext0
ARM GAS  C:\Users\claym\AppData\Local\Temp\ccxpUFUu.s 			page 226


 10656 081e 0100     		.2byte	0x1
 10657 0820 51       		.byte	0x51
 10658 0821 57060000 		.4byte	.LVL145-1-.Ltext0
 10659 0825 5A060000 		.4byte	.LVL146-.Ltext0
 10660 0829 0100     		.2byte	0x1
 10661 082b 55       		.byte	0x55
 10662 082c 5E060000 		.4byte	.LVL147-.Ltext0
 10663 0830 67060000 		.4byte	.LVL148-1-.Ltext0
 10664 0834 0100     		.2byte	0x1
 10665 0836 51       		.byte	0x51
 10666 0837 67060000 		.4byte	.LVL148-1-.Ltext0
 10667 083b 6C060000 		.4byte	.LVL149-.Ltext0
 10668 083f 0100     		.2byte	0x1
 10669 0841 55       		.byte	0x55
 10670 0842 6C060000 		.4byte	.LVL149-.Ltext0
 10671 0846 75060000 		.4byte	.LVL150-1-.Ltext0
 10672 084a 0100     		.2byte	0x1
 10673 084c 51       		.byte	0x51
 10674 084d 75060000 		.4byte	.LVL150-1-.Ltext0
 10675 0851 7A060000 		.4byte	.LVL151-.Ltext0
 10676 0855 0100     		.2byte	0x1
 10677 0857 55       		.byte	0x55
 10678 0858 00000000 		.4byte	0
 10679 085c 00000000 		.4byte	0
 10680              	.LLST66:
 10681 0860 14060000 		.4byte	.LVL141-.Ltext0
 10682 0864 22060000 		.4byte	.LVL142-.Ltext0
 10683 0868 0100     		.2byte	0x1
 10684 086a 53       		.byte	0x53
 10685 086b 4C060000 		.4byte	.LVL144-.Ltext0
 10686 086f 57060000 		.4byte	.LVL145-1-.Ltext0
 10687 0873 0100     		.2byte	0x1
 10688 0875 53       		.byte	0x53
 10689 0876 5E060000 		.4byte	.LVL147-.Ltext0
 10690 087a 67060000 		.4byte	.LVL148-1-.Ltext0
 10691 087e 0100     		.2byte	0x1
 10692 0880 53       		.byte	0x53
 10693 0881 6C060000 		.4byte	.LVL149-.Ltext0
 10694 0885 75060000 		.4byte	.LVL150-1-.Ltext0
 10695 0889 0100     		.2byte	0x1
 10696 088b 53       		.byte	0x53
 10697 088c 00000000 		.4byte	0
 10698 0890 00000000 		.4byte	0
 10699              	.LLST51:
 10700 0894 34040000 		.4byte	.LFB60-.Ltext0
 10701 0898 36040000 		.4byte	.LCFI7-.Ltext0
 10702 089c 0200     		.2byte	0x2
 10703 089e 7D       		.byte	0x7d
 10704 089f 00       		.sleb128 0
 10705 08a0 36040000 		.4byte	.LCFI7-.Ltext0
 10706 08a4 38040000 		.4byte	.LCFI8-.Ltext0
 10707 08a8 0200     		.2byte	0x2
 10708 08aa 7D       		.byte	0x7d
 10709 08ab 14       		.sleb128 20
 10710 08ac 38040000 		.4byte	.LCFI8-.Ltext0
 10711 08b0 A4050000 		.4byte	.LFE60-.Ltext0
 10712 08b4 0200     		.2byte	0x2
ARM GAS  C:\Users\claym\AppData\Local\Temp\ccxpUFUu.s 			page 227


 10713 08b6 7D       		.byte	0x7d
 10714 08b7 28       		.sleb128 40
 10715 08b8 00000000 		.4byte	0
 10716 08bc 00000000 		.4byte	0
 10717              	.LLST52:
 10718 08c0 34040000 		.4byte	.LVL97-.Ltext0
 10719 08c4 7E040000 		.4byte	.LVL102-.Ltext0
 10720 08c8 0100     		.2byte	0x1
 10721 08ca 50       		.byte	0x50
 10722 08cb 7E040000 		.4byte	.LVL102-.Ltext0
 10723 08cf 44050000 		.4byte	.LVL120-.Ltext0
 10724 08d3 0400     		.2byte	0x4
 10725 08d5 F3       		.byte	0xf3
 10726 08d6 01       		.uleb128 0x1
 10727 08d7 50       		.byte	0x50
 10728 08d8 9F       		.byte	0x9f
 10729 08d9 44050000 		.4byte	.LVL120-.Ltext0
 10730 08dd 48050000 		.4byte	.LVL122-.Ltext0
 10731 08e1 0100     		.2byte	0x1
 10732 08e3 50       		.byte	0x50
 10733 08e4 48050000 		.4byte	.LVL122-.Ltext0
 10734 08e8 60050000 		.4byte	.LVL124-.Ltext0
 10735 08ec 0200     		.2byte	0x2
 10736 08ee 91       		.byte	0x91
 10737 08ef 60       		.sleb128 -32
 10738 08f0 60050000 		.4byte	.LVL124-.Ltext0
 10739 08f4 96050000 		.4byte	.LVL128-.Ltext0
 10740 08f8 0400     		.2byte	0x4
 10741 08fa F3       		.byte	0xf3
 10742 08fb 01       		.uleb128 0x1
 10743 08fc 50       		.byte	0x50
 10744 08fd 9F       		.byte	0x9f
 10745 08fe 96050000 		.4byte	.LVL128-.Ltext0
 10746 0902 A4050000 		.4byte	.LFE60-.Ltext0
 10747 0906 0100     		.2byte	0x1
 10748 0908 50       		.byte	0x50
 10749 0909 00000000 		.4byte	0
 10750 090d 00000000 		.4byte	0
 10751              	.LLST53:
 10752 0911 34040000 		.4byte	.LVL97-.Ltext0
 10753 0915 6A040000 		.4byte	.LVL100-.Ltext0
 10754 0919 0100     		.2byte	0x1
 10755 091b 51       		.byte	0x51
 10756 091c 6A040000 		.4byte	.LVL100-.Ltext0
 10757 0920 70040000 		.4byte	.LVL101-.Ltext0
 10758 0924 0200     		.2byte	0x2
 10759 0926 91       		.byte	0x91
 10760 0927 5C       		.sleb128 -36
 10761 0928 70040000 		.4byte	.LVL101-.Ltext0
 10762 092c 44050000 		.4byte	.LVL120-.Ltext0
 10763 0930 0400     		.2byte	0x4
 10764 0932 F3       		.byte	0xf3
 10765 0933 01       		.uleb128 0x1
 10766 0934 51       		.byte	0x51
 10767 0935 9F       		.byte	0x9f
 10768 0936 44050000 		.4byte	.LVL120-.Ltext0
 10769 093a 46050000 		.4byte	.LVL121-.Ltext0
ARM GAS  C:\Users\claym\AppData\Local\Temp\ccxpUFUu.s 			page 228


 10770 093e 0100     		.2byte	0x1
 10771 0940 51       		.byte	0x51
 10772 0941 46050000 		.4byte	.LVL121-.Ltext0
 10773 0945 60050000 		.4byte	.LVL124-.Ltext0
 10774 0949 0200     		.2byte	0x2
 10775 094b 91       		.byte	0x91
 10776 094c 5C       		.sleb128 -36
 10777 094d 60050000 		.4byte	.LVL124-.Ltext0
 10778 0951 96050000 		.4byte	.LVL128-.Ltext0
 10779 0955 0400     		.2byte	0x4
 10780 0957 F3       		.byte	0xf3
 10781 0958 01       		.uleb128 0x1
 10782 0959 51       		.byte	0x51
 10783 095a 9F       		.byte	0x9f
 10784 095b 96050000 		.4byte	.LVL128-.Ltext0
 10785 095f A4050000 		.4byte	.LFE60-.Ltext0
 10786 0963 0100     		.2byte	0x1
 10787 0965 51       		.byte	0x51
 10788 0966 00000000 		.4byte	0
 10789 096a 00000000 		.4byte	0
 10790              	.LLST54:
 10791 096e 34040000 		.4byte	.LVL97-.Ltext0
 10792 0972 5A040000 		.4byte	.LVL99-.Ltext0
 10793 0976 0100     		.2byte	0x1
 10794 0978 52       		.byte	0x52
 10795 0979 5A040000 		.4byte	.LVL99-.Ltext0
 10796 097d 42050000 		.4byte	.LVL119-.Ltext0
 10797 0981 0100     		.2byte	0x1
 10798 0983 57       		.byte	0x57
 10799 0984 44050000 		.4byte	.LVL120-.Ltext0
 10800 0988 96050000 		.4byte	.LVL128-.Ltext0
 10801 098c 0100     		.2byte	0x1
 10802 098e 57       		.byte	0x57
 10803 098f 96050000 		.4byte	.LVL128-.Ltext0
 10804 0993 A4050000 		.4byte	.LFE60-.Ltext0
 10805 0997 0100     		.2byte	0x1
 10806 0999 52       		.byte	0x52
 10807 099a 00000000 		.4byte	0
 10808 099e 00000000 		.4byte	0
 10809              	.LLST55:
 10810 09a2 34040000 		.4byte	.LVL97-.Ltext0
 10811 09a6 52040000 		.4byte	.LVL98-.Ltext0
 10812 09aa 0100     		.2byte	0x1
 10813 09ac 53       		.byte	0x53
 10814 09ad 52040000 		.4byte	.LVL98-.Ltext0
 10815 09b1 96050000 		.4byte	.LVL128-.Ltext0
 10816 09b5 0400     		.2byte	0x4
 10817 09b7 F3       		.byte	0xf3
 10818 09b8 01       		.uleb128 0x1
 10819 09b9 53       		.byte	0x53
 10820 09ba 9F       		.byte	0x9f
 10821 09bb 96050000 		.4byte	.LVL128-.Ltext0
 10822 09bf 9A050000 		.4byte	.LVL129-.Ltext0
 10823 09c3 0100     		.2byte	0x1
 10824 09c5 53       		.byte	0x53
 10825 09c6 9A050000 		.4byte	.LVL129-.Ltext0
 10826 09ca A4050000 		.4byte	.LFE60-.Ltext0
ARM GAS  C:\Users\claym\AppData\Local\Temp\ccxpUFUu.s 			page 229


 10827 09ce 0400     		.2byte	0x4
 10828 09d0 F3       		.byte	0xf3
 10829 09d1 01       		.uleb128 0x1
 10830 09d2 53       		.byte	0x53
 10831 09d3 9F       		.byte	0x9f
 10832 09d4 00000000 		.4byte	0
 10833 09d8 00000000 		.4byte	0
 10834              	.LLST56:
 10835 09dc 34040000 		.4byte	.LVL97-.Ltext0
 10836 09e0 70040000 		.4byte	.LVL101-.Ltext0
 10837 09e4 0200     		.2byte	0x2
 10838 09e6 91       		.byte	0x91
 10839 09e7 00       		.sleb128 0
 10840 09e8 44050000 		.4byte	.LVL120-.Ltext0
 10841 09ec 60050000 		.4byte	.LVL124-.Ltext0
 10842 09f0 0200     		.2byte	0x2
 10843 09f2 91       		.byte	0x91
 10844 09f3 00       		.sleb128 0
 10845 09f4 96050000 		.4byte	.LVL128-.Ltext0
 10846 09f8 A4050000 		.4byte	.LFE60-.Ltext0
 10847 09fc 0200     		.2byte	0x2
 10848 09fe 91       		.byte	0x91
 10849 09ff 00       		.sleb128 0
 10850 0a00 00000000 		.4byte	0
 10851 0a04 00000000 		.4byte	0
 10852              	.LLST57:
 10853 0a08 34040000 		.4byte	.LVL97-.Ltext0
 10854 0a0c 9A040000 		.4byte	.LVL104-.Ltext0
 10855 0a10 0200     		.2byte	0x2
 10856 0a12 30       		.byte	0x30
 10857 0a13 9F       		.byte	0x9f
 10858 0a14 9A040000 		.4byte	.LVL104-.Ltext0
 10859 0a18 A4040000 		.4byte	.LVL105-.Ltext0
 10860 0a1c 0100     		.2byte	0x1
 10861 0a1e 51       		.byte	0x51
 10862 0a1f BC040000 		.4byte	.LVL107-.Ltext0
 10863 0a23 D6040000 		.4byte	.LVL109-.Ltext0
 10864 0a27 0100     		.2byte	0x1
 10865 0a29 51       		.byte	0x51
 10866 0a2a D6040000 		.4byte	.LVL109-.Ltext0
 10867 0a2e DE040000 		.4byte	.LVL111-.Ltext0
 10868 0a32 0300     		.2byte	0x3
 10869 0a34 71       		.byte	0x71
 10870 0a35 01       		.sleb128 1
 10871 0a36 9F       		.byte	0x9f
 10872 0a37 DE040000 		.4byte	.LVL111-.Ltext0
 10873 0a3b FF040000 		.4byte	.LVL112-1-.Ltext0
 10874 0a3f 0100     		.2byte	0x1
 10875 0a41 51       		.byte	0x51
 10876 0a42 06050000 		.4byte	.LVL113-.Ltext0
 10877 0a46 0F050000 		.4byte	.LVL114-1-.Ltext0
 10878 0a4a 0100     		.2byte	0x1
 10879 0a4c 51       		.byte	0x51
 10880 0a4d 14050000 		.4byte	.LVL115-.Ltext0
 10881 0a51 18050000 		.4byte	.LVL116-.Ltext0
 10882 0a55 0100     		.2byte	0x1
 10883 0a57 51       		.byte	0x51
ARM GAS  C:\Users\claym\AppData\Local\Temp\ccxpUFUu.s 			page 230


 10884 0a58 44050000 		.4byte	.LVL120-.Ltext0
 10885 0a5c A4050000 		.4byte	.LFE60-.Ltext0
 10886 0a60 0200     		.2byte	0x2
 10887 0a62 30       		.byte	0x30
 10888 0a63 9F       		.byte	0x9f
 10889 0a64 00000000 		.4byte	0
 10890 0a68 00000000 		.4byte	0
 10891              	.LLST58:
 10892 0a6c C8040000 		.4byte	.LVL108-.Ltext0
 10893 0a70 FF040000 		.4byte	.LVL112-1-.Ltext0
 10894 0a74 0100     		.2byte	0x1
 10895 0a76 53       		.byte	0x53
 10896 0a77 06050000 		.4byte	.LVL113-.Ltext0
 10897 0a7b 0F050000 		.4byte	.LVL114-1-.Ltext0
 10898 0a7f 0100     		.2byte	0x1
 10899 0a81 53       		.byte	0x53
 10900 0a82 14050000 		.4byte	.LVL115-.Ltext0
 10901 0a86 18050000 		.4byte	.LVL116-.Ltext0
 10902 0a8a 0100     		.2byte	0x1
 10903 0a8c 53       		.byte	0x53
 10904 0a8d 00000000 		.4byte	0
 10905 0a91 00000000 		.4byte	0
 10906              	.LLST4:
 10907 0a95 48010000 		.4byte	.LFB59-.Ltext0
 10908 0a99 4C010000 		.4byte	.LCFI1-.Ltext0
 10909 0a9d 0200     		.2byte	0x2
 10910 0a9f 7D       		.byte	0x7d
 10911 0aa0 00       		.sleb128 0
 10912 0aa1 4C010000 		.4byte	.LCFI1-.Ltext0
 10913 0aa5 86010000 		.4byte	.LFE59-.Ltext0
 10914 0aa9 0200     		.2byte	0x2
 10915 0aab 7D       		.byte	0x7d
 10916 0aac 08       		.sleb128 8
 10917 0aad 00000000 		.4byte	0
 10918 0ab1 00000000 		.4byte	0
 10919              	.LLST5:
 10920 0ab5 48010000 		.4byte	.LVL21-.Ltext0
 10921 0ab9 52010000 		.4byte	.LVL22-.Ltext0
 10922 0abd 0100     		.2byte	0x1
 10923 0abf 50       		.byte	0x50
 10924 0ac0 52010000 		.4byte	.LVL22-.Ltext0
 10925 0ac4 64010000 		.4byte	.LVL24-.Ltext0
 10926 0ac8 0100     		.2byte	0x1
 10927 0aca 54       		.byte	0x54
 10928 0acb 64010000 		.4byte	.LVL24-.Ltext0
 10929 0acf 86010000 		.4byte	.LFE59-.Ltext0
 10930 0ad3 0400     		.2byte	0x4
 10931 0ad5 F3       		.byte	0xf3
 10932 0ad6 01       		.uleb128 0x1
 10933 0ad7 50       		.byte	0x50
 10934 0ad8 9F       		.byte	0x9f
 10935 0ad9 00000000 		.4byte	0
 10936 0add 00000000 		.4byte	0
 10937              	.LLST0:
 10938 0ae1 00000000 		.4byte	.LFB58-.Ltext0
 10939 0ae5 04000000 		.4byte	.LCFI0-.Ltext0
 10940 0ae9 0200     		.2byte	0x2
ARM GAS  C:\Users\claym\AppData\Local\Temp\ccxpUFUu.s 			page 231


 10941 0aeb 7D       		.byte	0x7d
 10942 0aec 00       		.sleb128 0
 10943 0aed 04000000 		.4byte	.LCFI0-.Ltext0
 10944 0af1 48010000 		.4byte	.LFE58-.Ltext0
 10945 0af5 0200     		.2byte	0x2
 10946 0af7 7D       		.byte	0x7d
 10947 0af8 20       		.sleb128 32
 10948 0af9 00000000 		.4byte	0
 10949 0afd 00000000 		.4byte	0
 10950              	.LLST1:
 10951 0b01 00000000 		.4byte	.LVL0-.Ltext0
 10952 0b05 0E000000 		.4byte	.LVL1-.Ltext0
 10953 0b09 0100     		.2byte	0x1
 10954 0b0b 50       		.byte	0x50
 10955 0b0c 0E000000 		.4byte	.LVL1-.Ltext0
 10956 0b10 48010000 		.4byte	.LFE58-.Ltext0
 10957 0b14 0200     		.2byte	0x2
 10958 0b16 91       		.byte	0x91
 10959 0b17 64       		.sleb128 -28
 10960 0b18 00000000 		.4byte	0
 10961 0b1c 00000000 		.4byte	0
 10962              	.LLST2:
 10963 0b20 00000000 		.4byte	.LVL0-.Ltext0
 10964 0b24 84000000 		.4byte	.LVL10-.Ltext0
 10965 0b28 0100     		.2byte	0x1
 10966 0b2a 51       		.byte	0x51
 10967 0b2b 84000000 		.4byte	.LVL10-.Ltext0
 10968 0b2f CE000000 		.4byte	.LVL11-.Ltext0
 10969 0b33 0400     		.2byte	0x4
 10970 0b35 F3       		.byte	0xf3
 10971 0b36 01       		.uleb128 0x1
 10972 0b37 51       		.byte	0x51
 10973 0b38 9F       		.byte	0x9f
 10974 0b39 CE000000 		.4byte	.LVL11-.Ltext0
 10975 0b3d F2000000 		.4byte	.LVL16-.Ltext0
 10976 0b41 0100     		.2byte	0x1
 10977 0b43 51       		.byte	0x51
 10978 0b44 F2000000 		.4byte	.LVL16-.Ltext0
 10979 0b48 30010000 		.4byte	.LVL17-.Ltext0
 10980 0b4c 0400     		.2byte	0x4
 10981 0b4e F3       		.byte	0xf3
 10982 0b4f 01       		.uleb128 0x1
 10983 0b50 51       		.byte	0x51
 10984 0b51 9F       		.byte	0x9f
 10985 0b52 30010000 		.4byte	.LVL17-.Ltext0
 10986 0b56 48010000 		.4byte	.LFE58-.Ltext0
 10987 0b5a 0100     		.2byte	0x1
 10988 0b5c 51       		.byte	0x51
 10989 0b5d 00000000 		.4byte	0
 10990 0b61 00000000 		.4byte	0
 10991              	.LLST3:
 10992 0b65 1A000000 		.4byte	.LVL2-.Ltext0
 10993 0b69 26000000 		.4byte	.LVL3-.Ltext0
 10994 0b6d 0200     		.2byte	0x2
 10995 0b6f 34       		.byte	0x34
 10996 0b70 9F       		.byte	0x9f
 10997 0b71 26000000 		.4byte	.LVL3-.Ltext0
ARM GAS  C:\Users\claym\AppData\Local\Temp\ccxpUFUu.s 			page 232


 10998 0b75 6A000000 		.4byte	.LVL8-.Ltext0
 10999 0b79 0100     		.2byte	0x1
 11000 0b7b 53       		.byte	0x53
 11001 0b7c 6A000000 		.4byte	.LVL8-.Ltext0
 11002 0b80 72000000 		.4byte	.LVL9-.Ltext0
 11003 0b84 0200     		.2byte	0x2
 11004 0b86 77       		.byte	0x77
 11005 0b87 00       		.sleb128 0
 11006 0b88 CE000000 		.4byte	.LVL11-.Ltext0
 11007 0b8c D8000000 		.4byte	.LVL12-.Ltext0
 11008 0b90 0200     		.2byte	0x2
 11009 0b92 34       		.byte	0x34
 11010 0b93 9F       		.byte	0x9f
 11011 0b94 D8000000 		.4byte	.LVL12-.Ltext0
 11012 0b98 EA000000 		.4byte	.LVL14-.Ltext0
 11013 0b9c 0100     		.2byte	0x1
 11014 0b9e 53       		.byte	0x53
 11015 0b9f EA000000 		.4byte	.LVL14-.Ltext0
 11016 0ba3 EC000000 		.4byte	.LVL15-.Ltext0
 11017 0ba7 0200     		.2byte	0x2
 11018 0ba9 75       		.byte	0x75
 11019 0baa 04       		.sleb128 4
 11020 0bab 30010000 		.4byte	.LVL17-.Ltext0
 11021 0baf 38010000 		.4byte	.LVL18-.Ltext0
 11022 0bb3 0200     		.2byte	0x2
 11023 0bb5 34       		.byte	0x34
 11024 0bb6 9F       		.byte	0x9f
 11025 0bb7 38010000 		.4byte	.LVL18-.Ltext0
 11026 0bbb 3A010000 		.4byte	.LVL19-.Ltext0
 11027 0bbf 0100     		.2byte	0x1
 11028 0bc1 53       		.byte	0x53
 11029 0bc2 3A010000 		.4byte	.LVL19-.Ltext0
 11030 0bc6 42010000 		.4byte	.LVL20-.Ltext0
 11031 0bca 0200     		.2byte	0x2
 11032 0bcc 34       		.byte	0x34
 11033 0bcd 9F       		.byte	0x9f
 11034 0bce 42010000 		.4byte	.LVL20-.Ltext0
 11035 0bd2 48010000 		.4byte	.LFE58-.Ltext0
 11036 0bd6 0100     		.2byte	0x1
 11037 0bd8 53       		.byte	0x53
 11038 0bd9 00000000 		.4byte	0
 11039 0bdd 00000000 		.4byte	0
 11040              	.LLST49:
 11041 0be1 20030000 		.4byte	.LFB57-.Ltext0
 11042 0be5 22030000 		.4byte	.LCFI6-.Ltext0
 11043 0be9 0200     		.2byte	0x2
 11044 0beb 7D       		.byte	0x7d
 11045 0bec 00       		.sleb128 0
 11046 0bed 22030000 		.4byte	.LCFI6-.Ltext0
 11047 0bf1 34040000 		.4byte	.LFE57-.Ltext0
 11048 0bf5 0200     		.2byte	0x2
 11049 0bf7 7D       		.byte	0x7d
 11050 0bf8 20       		.sleb128 32
 11051 0bf9 00000000 		.4byte	0
 11052 0bfd 00000000 		.4byte	0
 11053              	.LLST50:
 11054 0c01 20030000 		.4byte	.LVL95-.Ltext0
ARM GAS  C:\Users\claym\AppData\Local\Temp\ccxpUFUu.s 			page 233


 11055 0c05 32040000 		.4byte	.LVL96-.Ltext0
 11056 0c09 0100     		.2byte	0x1
 11057 0c0b 50       		.byte	0x50
 11058 0c0c 32040000 		.4byte	.LVL96-.Ltext0
 11059 0c10 34040000 		.4byte	.LFE57-.Ltext0
 11060 0c14 0400     		.2byte	0x4
 11061 0c16 F3       		.byte	0xf3
 11062 0c17 01       		.uleb128 0x1
 11063 0c18 50       		.byte	0x50
 11064 0c19 9F       		.byte	0x9f
 11065 0c1a 00000000 		.4byte	0
 11066 0c1e 00000000 		.4byte	0
 11067              	.LLST14:
 11068 0c22 3A020000 		.4byte	.LFB56-.Ltext0
 11069 0c26 3C020000 		.4byte	.LCFI5-.Ltext0
 11070 0c2a 0200     		.2byte	0x2
 11071 0c2c 7D       		.byte	0x7d
 11072 0c2d 00       		.sleb128 0
 11073 0c2e 3C020000 		.4byte	.LCFI5-.Ltext0
 11074 0c32 20030000 		.4byte	.LFE56-.Ltext0
 11075 0c36 0200     		.2byte	0x2
 11076 0c38 7D       		.byte	0x7d
 11077 0c39 10       		.sleb128 16
 11078 0c3a 00000000 		.4byte	0
 11079 0c3e 00000000 		.4byte	0
 11080              	.LLST15:
 11081 0c42 3A020000 		.4byte	.LVL46-.Ltext0
 11082 0c46 4A020000 		.4byte	.LVL47-.Ltext0
 11083 0c4a 0100     		.2byte	0x1
 11084 0c4c 50       		.byte	0x50
 11085 0c4d 4A020000 		.4byte	.LVL47-.Ltext0
 11086 0c51 64020000 		.4byte	.LVL49-.Ltext0
 11087 0c55 0300     		.2byte	0x3
 11088 0c57 70       		.byte	0x70
 11089 0c58 01       		.sleb128 1
 11090 0c59 9F       		.byte	0x9f
 11091 0c5a 64020000 		.4byte	.LVL49-.Ltext0
 11092 0c5e 08030000 		.4byte	.LVL93-.Ltext0
 11093 0c62 0400     		.2byte	0x4
 11094 0c64 F3       		.byte	0xf3
 11095 0c65 01       		.uleb128 0x1
 11096 0c66 50       		.byte	0x50
 11097 0c67 9F       		.byte	0x9f
 11098 0c68 08030000 		.4byte	.LVL93-.Ltext0
 11099 0c6c 0A030000 		.4byte	.LVL94-.Ltext0
 11100 0c70 0100     		.2byte	0x1
 11101 0c72 50       		.byte	0x50
 11102 0c73 0A030000 		.4byte	.LVL94-.Ltext0
 11103 0c77 20030000 		.4byte	.LFE56-.Ltext0
 11104 0c7b 0400     		.2byte	0x4
 11105 0c7d F3       		.byte	0xf3
 11106 0c7e 01       		.uleb128 0x1
 11107 0c7f 50       		.byte	0x50
 11108 0c80 9F       		.byte	0x9f
 11109 0c81 00000000 		.4byte	0
 11110 0c85 00000000 		.4byte	0
 11111              	.LLST16:
ARM GAS  C:\Users\claym\AppData\Local\Temp\ccxpUFUu.s 			page 234


 11112 0c89 3A020000 		.4byte	.LVL46-.Ltext0
 11113 0c8d 64020000 		.4byte	.LVL49-.Ltext0
 11114 0c91 0100     		.2byte	0x1
 11115 0c93 51       		.byte	0x51
 11116 0c94 64020000 		.4byte	.LVL49-.Ltext0
 11117 0c98 68020000 		.4byte	.LVL50-.Ltext0
 11118 0c9c 0100     		.2byte	0x1
 11119 0c9e 54       		.byte	0x54
 11120 0c9f 68020000 		.4byte	.LVL50-.Ltext0
 11121 0ca3 7B020000 		.4byte	.LVL53-1-.Ltext0
 11122 0ca7 0100     		.2byte	0x1
 11123 0ca9 51       		.byte	0x51
 11124 0caa 7B020000 		.4byte	.LVL53-1-.Ltext0
 11125 0cae 8C020000 		.4byte	.LVL57-.Ltext0
 11126 0cb2 0100     		.2byte	0x1
 11127 0cb4 54       		.byte	0x54
 11128 0cb5 8C020000 		.4byte	.LVL57-.Ltext0
 11129 0cb9 8F020000 		.4byte	.LVL58-1-.Ltext0
 11130 0cbd 0100     		.2byte	0x1
 11131 0cbf 51       		.byte	0x51
 11132 0cc0 8F020000 		.4byte	.LVL58-1-.Ltext0
 11133 0cc4 A4020000 		.4byte	.LVL60-.Ltext0
 11134 0cc8 0100     		.2byte	0x1
 11135 0cca 54       		.byte	0x54
 11136 0ccb A4020000 		.4byte	.LVL60-.Ltext0
 11137 0ccf BC020000 		.4byte	.LVL66-.Ltext0
 11138 0cd3 0100     		.2byte	0x1
 11139 0cd5 51       		.byte	0x51
 11140 0cd6 BC020000 		.4byte	.LVL66-.Ltext0
 11141 0cda BE020000 		.4byte	.LVL68-.Ltext0
 11142 0cde 0400     		.2byte	0x4
 11143 0ce0 F3       		.byte	0xf3
 11144 0ce1 01       		.uleb128 0x1
 11145 0ce2 51       		.byte	0x51
 11146 0ce3 9F       		.byte	0x9f
 11147 0ce4 BE020000 		.4byte	.LVL68-.Ltext0
 11148 0ce8 CE020000 		.4byte	.LVL71-.Ltext0
 11149 0cec 0100     		.2byte	0x1
 11150 0cee 51       		.byte	0x51
 11151 0cef CE020000 		.4byte	.LVL71-.Ltext0
 11152 0cf3 D6020000 		.4byte	.LVL72-.Ltext0
 11153 0cf7 0100     		.2byte	0x1
 11154 0cf9 54       		.byte	0x54
 11155 0cfa D6020000 		.4byte	.LVL72-.Ltext0
 11156 0cfe DA020000 		.4byte	.LVL74-.Ltext0
 11157 0d02 0100     		.2byte	0x1
 11158 0d04 51       		.byte	0x51
 11159 0d05 DA020000 		.4byte	.LVL74-.Ltext0
 11160 0d09 DE020000 		.4byte	.LVL75-.Ltext0
 11161 0d0d 0100     		.2byte	0x1
 11162 0d0f 54       		.byte	0x54
 11163 0d10 DE020000 		.4byte	.LVL75-.Ltext0
 11164 0d14 E0020000 		.4byte	.LVL76-.Ltext0
 11165 0d18 0100     		.2byte	0x1
 11166 0d1a 51       		.byte	0x51
 11167 0d1b E0020000 		.4byte	.LVL76-.Ltext0
 11168 0d1f E8020000 		.4byte	.LVL78-.Ltext0
ARM GAS  C:\Users\claym\AppData\Local\Temp\ccxpUFUu.s 			page 235


 11169 0d23 0100     		.2byte	0x1
 11170 0d25 54       		.byte	0x54
 11171 0d26 E8020000 		.4byte	.LVL78-.Ltext0
 11172 0d2a 20030000 		.4byte	.LFE56-.Ltext0
 11173 0d2e 0100     		.2byte	0x1
 11174 0d30 51       		.byte	0x51
 11175 0d31 00000000 		.4byte	0
 11176 0d35 00000000 		.4byte	0
 11177              	.LLST17:
 11178 0d39 3A020000 		.4byte	.LVL46-.Ltext0
 11179 0d3d 64020000 		.4byte	.LVL49-.Ltext0
 11180 0d41 0100     		.2byte	0x1
 11181 0d43 52       		.byte	0x52
 11182 0d44 64020000 		.4byte	.LVL49-.Ltext0
 11183 0d48 68020000 		.4byte	.LVL50-.Ltext0
 11184 0d4c 0100     		.2byte	0x1
 11185 0d4e 55       		.byte	0x55
 11186 0d4f 68020000 		.4byte	.LVL50-.Ltext0
 11187 0d53 7B020000 		.4byte	.LVL53-1-.Ltext0
 11188 0d57 0100     		.2byte	0x1
 11189 0d59 52       		.byte	0x52
 11190 0d5a 7B020000 		.4byte	.LVL53-1-.Ltext0
 11191 0d5e 8C020000 		.4byte	.LVL57-.Ltext0
 11192 0d62 0100     		.2byte	0x1
 11193 0d64 55       		.byte	0x55
 11194 0d65 8C020000 		.4byte	.LVL57-.Ltext0
 11195 0d69 8F020000 		.4byte	.LVL58-1-.Ltext0
 11196 0d6d 0100     		.2byte	0x1
 11197 0d6f 52       		.byte	0x52
 11198 0d70 8F020000 		.4byte	.LVL58-1-.Ltext0
 11199 0d74 A4020000 		.4byte	.LVL60-.Ltext0
 11200 0d78 0100     		.2byte	0x1
 11201 0d7a 55       		.byte	0x55
 11202 0d7b A4020000 		.4byte	.LVL60-.Ltext0
 11203 0d7f B0020000 		.4byte	.LVL65-.Ltext0
 11204 0d83 0100     		.2byte	0x1
 11205 0d85 52       		.byte	0x52
 11206 0d86 B0020000 		.4byte	.LVL65-.Ltext0
 11207 0d8a BC020000 		.4byte	.LVL67-.Ltext0
 11208 0d8e 0100     		.2byte	0x1
 11209 0d90 55       		.byte	0x55
 11210 0d91 BC020000 		.4byte	.LVL67-.Ltext0
 11211 0d95 BE020000 		.4byte	.LVL68-.Ltext0
 11212 0d99 0400     		.2byte	0x4
 11213 0d9b F3       		.byte	0xf3
 11214 0d9c 01       		.uleb128 0x1
 11215 0d9d 52       		.byte	0x52
 11216 0d9e 9F       		.byte	0x9f
 11217 0d9f BE020000 		.4byte	.LVL68-.Ltext0
 11218 0da3 C6020000 		.4byte	.LVL69-.Ltext0
 11219 0da7 0100     		.2byte	0x1
 11220 0da9 55       		.byte	0x55
 11221 0daa C6020000 		.4byte	.LVL69-.Ltext0
 11222 0dae CC020000 		.4byte	.LVL70-.Ltext0
 11223 0db2 0100     		.2byte	0x1
 11224 0db4 52       		.byte	0x52
 11225 0db5 CC020000 		.4byte	.LVL70-.Ltext0
ARM GAS  C:\Users\claym\AppData\Local\Temp\ccxpUFUu.s 			page 236


 11226 0db9 D6020000 		.4byte	.LVL72-.Ltext0
 11227 0dbd 0100     		.2byte	0x1
 11228 0dbf 55       		.byte	0x55
 11229 0dc0 D6020000 		.4byte	.LVL72-.Ltext0
 11230 0dc4 D8020000 		.4byte	.LVL73-.Ltext0
 11231 0dc8 0100     		.2byte	0x1
 11232 0dca 52       		.byte	0x52
 11233 0dcb D8020000 		.4byte	.LVL73-.Ltext0
 11234 0dcf DE020000 		.4byte	.LVL75-.Ltext0
 11235 0dd3 0100     		.2byte	0x1
 11236 0dd5 55       		.byte	0x55
 11237 0dd6 DE020000 		.4byte	.LVL75-.Ltext0
 11238 0dda E5020000 		.4byte	.LVL77-1-.Ltext0
 11239 0dde 0100     		.2byte	0x1
 11240 0de0 52       		.byte	0x52
 11241 0de1 E5020000 		.4byte	.LVL77-1-.Ltext0
 11242 0de5 E8020000 		.4byte	.LVL78-.Ltext0
 11243 0de9 0100     		.2byte	0x1
 11244 0deb 55       		.byte	0x55
 11245 0dec E8020000 		.4byte	.LVL78-.Ltext0
 11246 0df0 20030000 		.4byte	.LFE56-.Ltext0
 11247 0df4 0100     		.2byte	0x1
 11248 0df6 52       		.byte	0x52
 11249 0df7 00000000 		.4byte	0
 11250 0dfb 00000000 		.4byte	0
 11251              	.LLST18:
 11252 0dff 62020000 		.4byte	.LVL48-.Ltext0
 11253 0e03 64020000 		.4byte	.LVL49-.Ltext0
 11254 0e07 0100     		.2byte	0x1
 11255 0e09 52       		.byte	0x52
 11256 0e0a 00000000 		.4byte	0
 11257 0e0e 00000000 		.4byte	0
 11258              	.LLST19:
 11259 0e12 62020000 		.4byte	.LVL48-.Ltext0
 11260 0e16 64020000 		.4byte	.LVL49-.Ltext0
 11261 0e1a 0100     		.2byte	0x1
 11262 0e1c 51       		.byte	0x51
 11263 0e1d 00000000 		.4byte	0
 11264 0e21 00000000 		.4byte	0
 11265              	.LLST20:
 11266 0e25 68020000 		.4byte	.LVL50-.Ltext0
 11267 0e29 6C020000 		.4byte	.LVL52-.Ltext0
 11268 0e2d 0100     		.2byte	0x1
 11269 0e2f 52       		.byte	0x52
 11270 0e30 00000000 		.4byte	0
 11271 0e34 00000000 		.4byte	0
 11272              	.LLST21:
 11273 0e38 68020000 		.4byte	.LVL50-.Ltext0
 11274 0e3c 6A020000 		.4byte	.LVL51-.Ltext0
 11275 0e40 0100     		.2byte	0x1
 11276 0e42 51       		.byte	0x51
 11277 0e43 00000000 		.4byte	0
 11278 0e47 00000000 		.4byte	0
 11279              	.LLST22:
 11280 0e4b 6C020000 		.4byte	.LVL52-.Ltext0
 11281 0e4f 7B020000 		.4byte	.LVL53-1-.Ltext0
 11282 0e53 0100     		.2byte	0x1
ARM GAS  C:\Users\claym\AppData\Local\Temp\ccxpUFUu.s 			page 237


 11283 0e55 52       		.byte	0x52
 11284 0e56 7B020000 		.4byte	.LVL53-1-.Ltext0
 11285 0e5a 8C020000 		.4byte	.LVL57-.Ltext0
 11286 0e5e 0100     		.2byte	0x1
 11287 0e60 55       		.byte	0x55
 11288 0e61 8C020000 		.4byte	.LVL57-.Ltext0
 11289 0e65 8F020000 		.4byte	.LVL58-1-.Ltext0
 11290 0e69 0100     		.2byte	0x1
 11291 0e6b 52       		.byte	0x52
 11292 0e6c 8F020000 		.4byte	.LVL58-1-.Ltext0
 11293 0e70 A4020000 		.4byte	.LVL60-.Ltext0
 11294 0e74 0100     		.2byte	0x1
 11295 0e76 55       		.byte	0x55
 11296 0e77 00000000 		.4byte	0
 11297 0e7b 00000000 		.4byte	0
 11298              	.LLST23:
 11299 0e7f 6C020000 		.4byte	.LVL52-.Ltext0
 11300 0e83 7B020000 		.4byte	.LVL53-1-.Ltext0
 11301 0e87 0100     		.2byte	0x1
 11302 0e89 51       		.byte	0x51
 11303 0e8a 7B020000 		.4byte	.LVL53-1-.Ltext0
 11304 0e8e 8C020000 		.4byte	.LVL57-.Ltext0
 11305 0e92 0100     		.2byte	0x1
 11306 0e94 54       		.byte	0x54
 11307 0e95 8C020000 		.4byte	.LVL57-.Ltext0
 11308 0e99 8F020000 		.4byte	.LVL58-1-.Ltext0
 11309 0e9d 0100     		.2byte	0x1
 11310 0e9f 51       		.byte	0x51
 11311 0ea0 8F020000 		.4byte	.LVL58-1-.Ltext0
 11312 0ea4 A4020000 		.4byte	.LVL60-.Ltext0
 11313 0ea8 0100     		.2byte	0x1
 11314 0eaa 54       		.byte	0x54
 11315 0eab 00000000 		.4byte	0
 11316 0eaf 00000000 		.4byte	0
 11317              	.LLST24:
 11318 0eb3 6C020000 		.4byte	.LVL52-.Ltext0
 11319 0eb7 86020000 		.4byte	.LVL55-.Ltext0
 11320 0ebb 0200     		.2byte	0x2
 11321 0ebd 30       		.byte	0x30
 11322 0ebe 9F       		.byte	0x9f
 11323 0ebf 86020000 		.4byte	.LVL55-.Ltext0
 11324 0ec3 88020000 		.4byte	.LVL56-.Ltext0
 11325 0ec7 0100     		.2byte	0x1
 11326 0ec9 50       		.byte	0x50
 11327 0eca 8C020000 		.4byte	.LVL57-.Ltext0
 11328 0ece 90020000 		.4byte	.LVL58-.Ltext0
 11329 0ed2 0200     		.2byte	0x2
 11330 0ed4 30       		.byte	0x30
 11331 0ed5 9F       		.byte	0x9f
 11332 0ed6 90020000 		.4byte	.LVL58-.Ltext0
 11333 0eda 95020000 		.4byte	.LVL59-1-.Ltext0
 11334 0ede 1100     		.2byte	0x11
 11335 0ee0 70       		.byte	0x70
 11336 0ee1 00       		.sleb128 0
 11337 0ee2 F7       		.byte	0xf7
 11338 0ee3 25       		.uleb128 0x25
 11339 0ee4 0C       		.byte	0xc
ARM GAS  C:\Users\claym\AppData\Local\Temp\ccxpUFUu.s 			page 238


 11340 0ee5 80969800 		.4byte	0x989680
 11341 0ee9 F7       		.byte	0xf7
 11342 0eea 25       		.uleb128 0x25
 11343 0eeb 1B       		.byte	0x1b
 11344 0eec F7       		.byte	0xf7
 11345 0eed 00       		.uleb128 0
 11346 0eee 31       		.byte	0x31
 11347 0eef 1C       		.byte	0x1c
 11348 0ef0 9F       		.byte	0x9f
 11349 0ef1 00000000 		.4byte	0
 11350 0ef5 00000000 		.4byte	0
 11351              	.LLST25:
 11352 0ef9 A4020000 		.4byte	.LVL60-.Ltext0
 11353 0efd A8020000 		.4byte	.LVL62-.Ltext0
 11354 0f01 0100     		.2byte	0x1
 11355 0f03 52       		.byte	0x52
 11356 0f04 00000000 		.4byte	0
 11357 0f08 00000000 		.4byte	0
 11358              	.LLST26:
 11359 0f0c A4020000 		.4byte	.LVL60-.Ltext0
 11360 0f10 A6020000 		.4byte	.LVL61-.Ltext0
 11361 0f14 0100     		.2byte	0x1
 11362 0f16 51       		.byte	0x51
 11363 0f17 00000000 		.4byte	0
 11364 0f1b 00000000 		.4byte	0
 11365              	.LLST27:
 11366 0f1f A8020000 		.4byte	.LVL62-.Ltext0
 11367 0f23 AC020000 		.4byte	.LVL64-.Ltext0
 11368 0f27 0100     		.2byte	0x1
 11369 0f29 52       		.byte	0x52
 11370 0f2a 00000000 		.4byte	0
 11371 0f2e 00000000 		.4byte	0
 11372              	.LLST28:
 11373 0f32 A8020000 		.4byte	.LVL62-.Ltext0
 11374 0f36 AA020000 		.4byte	.LVL63-.Ltext0
 11375 0f3a 0100     		.2byte	0x1
 11376 0f3c 51       		.byte	0x51
 11377 0f3d 00000000 		.4byte	0
 11378 0f41 00000000 		.4byte	0
 11379              	.LLST29:
 11380 0f45 AC020000 		.4byte	.LVL64-.Ltext0
 11381 0f49 B0020000 		.4byte	.LVL65-.Ltext0
 11382 0f4d 0100     		.2byte	0x1
 11383 0f4f 52       		.byte	0x52
 11384 0f50 B0020000 		.4byte	.LVL65-.Ltext0
 11385 0f54 BC020000 		.4byte	.LVL66-.Ltext0
 11386 0f58 0100     		.2byte	0x1
 11387 0f5a 55       		.byte	0x55
 11388 0f5b BE020000 		.4byte	.LVL68-.Ltext0
 11389 0f5f C6020000 		.4byte	.LVL69-.Ltext0
 11390 0f63 0100     		.2byte	0x1
 11391 0f65 55       		.byte	0x55
 11392 0f66 00000000 		.4byte	0
 11393 0f6a 00000000 		.4byte	0
 11394              	.LLST30:
 11395 0f6e AC020000 		.4byte	.LVL64-.Ltext0
 11396 0f72 BC020000 		.4byte	.LVL66-.Ltext0
ARM GAS  C:\Users\claym\AppData\Local\Temp\ccxpUFUu.s 			page 239


 11397 0f76 0100     		.2byte	0x1
 11398 0f78 51       		.byte	0x51
 11399 0f79 BE020000 		.4byte	.LVL68-.Ltext0
 11400 0f7d C6020000 		.4byte	.LVL69-.Ltext0
 11401 0f81 0100     		.2byte	0x1
 11402 0f83 51       		.byte	0x51
 11403 0f84 00000000 		.4byte	0
 11404 0f88 00000000 		.4byte	0
 11405              	.LLST31:
 11406 0f8c C6020000 		.4byte	.LVL69-.Ltext0
 11407 0f90 CC020000 		.4byte	.LVL70-.Ltext0
 11408 0f94 0100     		.2byte	0x1
 11409 0f96 52       		.byte	0x52
 11410 0f97 CC020000 		.4byte	.LVL70-.Ltext0
 11411 0f9b D6020000 		.4byte	.LVL72-.Ltext0
 11412 0f9f 0100     		.2byte	0x1
 11413 0fa1 55       		.byte	0x55
 11414 0fa2 D6020000 		.4byte	.LVL72-.Ltext0
 11415 0fa6 D8020000 		.4byte	.LVL73-.Ltext0
 11416 0faa 0100     		.2byte	0x1
 11417 0fac 52       		.byte	0x52
 11418 0fad D8020000 		.4byte	.LVL73-.Ltext0
 11419 0fb1 DE020000 		.4byte	.LVL75-.Ltext0
 11420 0fb5 0100     		.2byte	0x1
 11421 0fb7 55       		.byte	0x55
 11422 0fb8 00000000 		.4byte	0
 11423 0fbc 00000000 		.4byte	0
 11424              	.LLST32:
 11425 0fc0 C6020000 		.4byte	.LVL69-.Ltext0
 11426 0fc4 CE020000 		.4byte	.LVL71-.Ltext0
 11427 0fc8 0100     		.2byte	0x1
 11428 0fca 51       		.byte	0x51
 11429 0fcb CE020000 		.4byte	.LVL71-.Ltext0
 11430 0fcf D6020000 		.4byte	.LVL72-.Ltext0
 11431 0fd3 0100     		.2byte	0x1
 11432 0fd5 54       		.byte	0x54
 11433 0fd6 D6020000 		.4byte	.LVL72-.Ltext0
 11434 0fda DA020000 		.4byte	.LVL74-.Ltext0
 11435 0fde 0100     		.2byte	0x1
 11436 0fe0 51       		.byte	0x51
 11437 0fe1 DA020000 		.4byte	.LVL74-.Ltext0
 11438 0fe5 DE020000 		.4byte	.LVL75-.Ltext0
 11439 0fe9 0100     		.2byte	0x1
 11440 0feb 54       		.byte	0x54
 11441 0fec 00000000 		.4byte	0
 11442 0ff0 00000000 		.4byte	0
 11443              	.LLST33:
 11444 0ff4 E8020000 		.4byte	.LVL78-.Ltext0
 11445 0ff8 EC020000 		.4byte	.LVL80-.Ltext0
 11446 0ffc 0100     		.2byte	0x1
 11447 0ffe 52       		.byte	0x52
 11448 0fff 00000000 		.4byte	0
 11449 1003 00000000 		.4byte	0
 11450              	.LLST34:
 11451 1007 E8020000 		.4byte	.LVL78-.Ltext0
 11452 100b EA020000 		.4byte	.LVL79-.Ltext0
 11453 100f 0100     		.2byte	0x1
ARM GAS  C:\Users\claym\AppData\Local\Temp\ccxpUFUu.s 			page 240


 11454 1011 51       		.byte	0x51
 11455 1012 00000000 		.4byte	0
 11456 1016 00000000 		.4byte	0
 11457              	.LLST35:
 11458 101a EC020000 		.4byte	.LVL80-.Ltext0
 11459 101e F0020000 		.4byte	.LVL82-.Ltext0
 11460 1022 0100     		.2byte	0x1
 11461 1024 52       		.byte	0x52
 11462 1025 00000000 		.4byte	0
 11463 1029 00000000 		.4byte	0
 11464              	.LLST36:
 11465 102d EC020000 		.4byte	.LVL80-.Ltext0
 11466 1031 EE020000 		.4byte	.LVL81-.Ltext0
 11467 1035 0100     		.2byte	0x1
 11468 1037 51       		.byte	0x51
 11469 1038 00000000 		.4byte	0
 11470 103c 00000000 		.4byte	0
 11471              	.LLST37:
 11472 1040 F0020000 		.4byte	.LVL82-.Ltext0
 11473 1044 F4020000 		.4byte	.LVL84-.Ltext0
 11474 1048 0100     		.2byte	0x1
 11475 104a 52       		.byte	0x52
 11476 104b 00000000 		.4byte	0
 11477 104f 00000000 		.4byte	0
 11478              	.LLST38:
 11479 1053 F0020000 		.4byte	.LVL82-.Ltext0
 11480 1057 F2020000 		.4byte	.LVL83-.Ltext0
 11481 105b 0100     		.2byte	0x1
 11482 105d 51       		.byte	0x51
 11483 105e 00000000 		.4byte	0
 11484 1062 00000000 		.4byte	0
 11485              	.LLST39:
 11486 1066 F4020000 		.4byte	.LVL84-.Ltext0
 11487 106a F8020000 		.4byte	.LVL86-.Ltext0
 11488 106e 0100     		.2byte	0x1
 11489 1070 52       		.byte	0x52
 11490 1071 00000000 		.4byte	0
 11491 1075 00000000 		.4byte	0
 11492              	.LLST40:
 11493 1079 F4020000 		.4byte	.LVL84-.Ltext0
 11494 107d F6020000 		.4byte	.LVL85-.Ltext0
 11495 1081 0100     		.2byte	0x1
 11496 1083 51       		.byte	0x51
 11497 1084 00000000 		.4byte	0
 11498 1088 00000000 		.4byte	0
 11499              	.LLST41:
 11500 108c F8020000 		.4byte	.LVL86-.Ltext0
 11501 1090 FC020000 		.4byte	.LVL88-.Ltext0
 11502 1094 0100     		.2byte	0x1
 11503 1096 52       		.byte	0x52
 11504 1097 00000000 		.4byte	0
 11505 109b 00000000 		.4byte	0
 11506              	.LLST42:
 11507 109f F8020000 		.4byte	.LVL86-.Ltext0
 11508 10a3 FA020000 		.4byte	.LVL87-.Ltext0
 11509 10a7 0100     		.2byte	0x1
 11510 10a9 51       		.byte	0x51
ARM GAS  C:\Users\claym\AppData\Local\Temp\ccxpUFUu.s 			page 241


 11511 10aa 00000000 		.4byte	0
 11512 10ae 00000000 		.4byte	0
 11513              	.LLST43:
 11514 10b2 FC020000 		.4byte	.LVL88-.Ltext0
 11515 10b6 00030000 		.4byte	.LVL90-.Ltext0
 11516 10ba 0100     		.2byte	0x1
 11517 10bc 52       		.byte	0x52
 11518 10bd 00000000 		.4byte	0
 11519 10c1 00000000 		.4byte	0
 11520              	.LLST44:
 11521 10c5 FC020000 		.4byte	.LVL88-.Ltext0
 11522 10c9 FE020000 		.4byte	.LVL89-.Ltext0
 11523 10cd 0100     		.2byte	0x1
 11524 10cf 51       		.byte	0x51
 11525 10d0 00000000 		.4byte	0
 11526 10d4 00000000 		.4byte	0
 11527              	.LLST45:
 11528 10d8 00030000 		.4byte	.LVL90-.Ltext0
 11529 10dc 04030000 		.4byte	.LVL92-.Ltext0
 11530 10e0 0100     		.2byte	0x1
 11531 10e2 52       		.byte	0x52
 11532 10e3 00000000 		.4byte	0
 11533 10e7 00000000 		.4byte	0
 11534              	.LLST46:
 11535 10eb 00030000 		.4byte	.LVL90-.Ltext0
 11536 10ef 02030000 		.4byte	.LVL91-.Ltext0
 11537 10f3 0100     		.2byte	0x1
 11538 10f5 51       		.byte	0x51
 11539 10f6 00000000 		.4byte	0
 11540 10fa 00000000 		.4byte	0
 11541              	.LLST47:
 11542 10fe 04030000 		.4byte	.LVL92-.Ltext0
 11543 1102 08030000 		.4byte	.LVL93-.Ltext0
 11544 1106 0100     		.2byte	0x1
 11545 1108 52       		.byte	0x52
 11546 1109 00000000 		.4byte	0
 11547 110d 00000000 		.4byte	0
 11548              	.LLST48:
 11549 1111 04030000 		.4byte	.LVL92-.Ltext0
 11550 1115 08030000 		.4byte	.LVL93-.Ltext0
 11551 1119 0100     		.2byte	0x1
 11552 111b 51       		.byte	0x51
 11553 111c 00000000 		.4byte	0
 11554 1120 00000000 		.4byte	0
 11555              	.LLST11:
 11556 1124 02020000 		.4byte	.LFB55-.Ltext0
 11557 1128 04020000 		.4byte	.LCFI4-.Ltext0
 11558 112c 0200     		.2byte	0x2
 11559 112e 7D       		.byte	0x7d
 11560 112f 00       		.sleb128 0
 11561 1130 04020000 		.4byte	.LCFI4-.Ltext0
 11562 1134 3A020000 		.4byte	.LFE55-.Ltext0
 11563 1138 0200     		.2byte	0x2
 11564 113a 7D       		.byte	0x7d
 11565 113b 08       		.sleb128 8
 11566 113c 00000000 		.4byte	0
 11567 1140 00000000 		.4byte	0
ARM GAS  C:\Users\claym\AppData\Local\Temp\ccxpUFUu.s 			page 242


 11568              	.LLST12:
 11569 1144 02020000 		.4byte	.LVL40-.Ltext0
 11570 1148 08020000 		.4byte	.LVL41-.Ltext0
 11571 114c 0100     		.2byte	0x1
 11572 114e 50       		.byte	0x50
 11573 114f 08020000 		.4byte	.LVL41-.Ltext0
 11574 1153 3A020000 		.4byte	.LFE55-.Ltext0
 11575 1157 0400     		.2byte	0x4
 11576 1159 F3       		.byte	0xf3
 11577 115a 01       		.uleb128 0x1
 11578 115b 50       		.byte	0x50
 11579 115c 9F       		.byte	0x9f
 11580 115d 00000000 		.4byte	0
 11581 1161 00000000 		.4byte	0
 11582              	.LLST13:
 11583 1165 02020000 		.4byte	.LVL40-.Ltext0
 11584 1169 0A020000 		.4byte	.LVL42-.Ltext0
 11585 116d 0100     		.2byte	0x1
 11586 116f 51       		.byte	0x51
 11587 1170 0A020000 		.4byte	.LVL42-.Ltext0
 11588 1174 20020000 		.4byte	.LVL45-.Ltext0
 11589 1178 0100     		.2byte	0x1
 11590 117a 54       		.byte	0x54
 11591 117b 20020000 		.4byte	.LVL45-.Ltext0
 11592 117f 3A020000 		.4byte	.LFE55-.Ltext0
 11593 1183 0400     		.2byte	0x4
 11594 1185 F3       		.byte	0xf3
 11595 1186 01       		.uleb128 0x1
 11596 1187 51       		.byte	0x51
 11597 1188 9F       		.byte	0x9f
 11598 1189 00000000 		.4byte	0
 11599 118d 00000000 		.4byte	0
 11600              	.LLST10:
 11601 1191 E4010000 		.4byte	.LVL37-.Ltext0
 11602 1195 F6010000 		.4byte	.LVL38-.Ltext0
 11603 1199 0100     		.2byte	0x1
 11604 119b 50       		.byte	0x50
 11605 119c F6010000 		.4byte	.LVL38-.Ltext0
 11606 11a0 FE010000 		.4byte	.LVL39-.Ltext0
 11607 11a4 0400     		.2byte	0x4
 11608 11a6 70       		.byte	0x70
 11609 11a7 9C7E     		.sleb128 -228
 11610 11a9 9F       		.byte	0x9f
 11611 11aa FE010000 		.4byte	.LVL39-.Ltext0
 11612 11ae 02020000 		.4byte	.LFE39-.Ltext0
 11613 11b2 0400     		.2byte	0x4
 11614 11b4 F3       		.byte	0xf3
 11615 11b5 01       		.uleb128 0x1
 11616 11b6 50       		.byte	0x50
 11617 11b7 9F       		.byte	0x9f
 11618 11b8 00000000 		.4byte	0
 11619 11bc 00000000 		.4byte	0
 11620              	.LLST7:
 11621 11c0 A4010000 		.4byte	.LFB38-.Ltext0
 11622 11c4 A6010000 		.4byte	.LCFI3-.Ltext0
 11623 11c8 0200     		.2byte	0x2
 11624 11ca 7D       		.byte	0x7d
ARM GAS  C:\Users\claym\AppData\Local\Temp\ccxpUFUu.s 			page 243


 11625 11cb 00       		.sleb128 0
 11626 11cc A6010000 		.4byte	.LCFI3-.Ltext0
 11627 11d0 E4010000 		.4byte	.LFE38-.Ltext0
 11628 11d4 0200     		.2byte	0x2
 11629 11d6 7D       		.byte	0x7d
 11630 11d7 10       		.sleb128 16
 11631 11d8 00000000 		.4byte	0
 11632 11dc 00000000 		.4byte	0
 11633              	.LLST8:
 11634 11e0 A4010000 		.4byte	.LVL26-.Ltext0
 11635 11e4 BC010000 		.4byte	.LVL27-.Ltext0
 11636 11e8 0100     		.2byte	0x1
 11637 11ea 50       		.byte	0x50
 11638 11eb BC010000 		.4byte	.LVL27-.Ltext0
 11639 11ef C2010000 		.4byte	.LVL28-.Ltext0
 11640 11f3 0200     		.2byte	0x2
 11641 11f5 71       		.byte	0x71
 11642 11f6 0C       		.sleb128 12
 11643 11f7 C2010000 		.4byte	.LVL28-.Ltext0
 11644 11fb C4010000 		.4byte	.LVL29-.Ltext0
 11645 11ff 0200     		.2byte	0x2
 11646 1201 70       		.byte	0x70
 11647 1202 0C       		.sleb128 12
 11648 1203 C4010000 		.4byte	.LVL29-.Ltext0
 11649 1207 C7010000 		.4byte	.LVL30-1-.Ltext0
 11650 120b 0200     		.2byte	0x2
 11651 120d 74       		.byte	0x74
 11652 120e 0C       		.sleb128 12
 11653 120f C7010000 		.4byte	.LVL30-1-.Ltext0
 11654 1213 DA010000 		.4byte	.LVL33-.Ltext0
 11655 1217 0400     		.2byte	0x4
 11656 1219 F3       		.byte	0xf3
 11657 121a 01       		.uleb128 0x1
 11658 121b 50       		.byte	0x50
 11659 121c 9F       		.byte	0x9f
 11660 121d DA010000 		.4byte	.LVL33-.Ltext0
 11661 1221 DC010000 		.4byte	.LVL34-.Ltext0
 11662 1225 0100     		.2byte	0x1
 11663 1227 50       		.byte	0x50
 11664 1228 DC010000 		.4byte	.LVL34-.Ltext0
 11665 122c E0010000 		.4byte	.LVL35-.Ltext0
 11666 1230 0400     		.2byte	0x4
 11667 1232 F3       		.byte	0xf3
 11668 1233 01       		.uleb128 0x1
 11669 1234 50       		.byte	0x50
 11670 1235 9F       		.byte	0x9f
 11671 1236 E0010000 		.4byte	.LVL35-.Ltext0
 11672 123a E2010000 		.4byte	.LVL36-.Ltext0
 11673 123e 0100     		.2byte	0x1
 11674 1240 50       		.byte	0x50
 11675 1241 E2010000 		.4byte	.LVL36-.Ltext0
 11676 1245 E4010000 		.4byte	.LFE38-.Ltext0
 11677 1249 0400     		.2byte	0x4
 11678 124b F3       		.byte	0xf3
 11679 124c 01       		.uleb128 0x1
 11680 124d 50       		.byte	0x50
 11681 124e 9F       		.byte	0x9f
ARM GAS  C:\Users\claym\AppData\Local\Temp\ccxpUFUu.s 			page 244


 11682 124f 00000000 		.4byte	0
 11683 1253 00000000 		.4byte	0
 11684              	.LLST9:
 11685 1257 A4010000 		.4byte	.LVL26-.Ltext0
 11686 125b C2010000 		.4byte	.LVL28-.Ltext0
 11687 125f 0100     		.2byte	0x1
 11688 1261 51       		.byte	0x51
 11689 1262 C2010000 		.4byte	.LVL28-.Ltext0
 11690 1266 C4010000 		.4byte	.LVL29-.Ltext0
 11691 126a 0100     		.2byte	0x1
 11692 126c 50       		.byte	0x50
 11693 126d C4010000 		.4byte	.LVL29-.Ltext0
 11694 1271 D0010000 		.4byte	.LVL31-.Ltext0
 11695 1275 0100     		.2byte	0x1
 11696 1277 54       		.byte	0x54
 11697 1278 D0010000 		.4byte	.LVL31-.Ltext0
 11698 127c D8010000 		.4byte	.LVL32-.Ltext0
 11699 1280 0400     		.2byte	0x4
 11700 1282 74       		.byte	0x74
 11701 1283 9C7E     		.sleb128 -228
 11702 1285 9F       		.byte	0x9f
 11703 1286 D8010000 		.4byte	.LVL32-.Ltext0
 11704 128a DA010000 		.4byte	.LVL33-.Ltext0
 11705 128e 0400     		.2byte	0x4
 11706 1290 F3       		.byte	0xf3
 11707 1291 01       		.uleb128 0x1
 11708 1292 51       		.byte	0x51
 11709 1293 9F       		.byte	0x9f
 11710 1294 DA010000 		.4byte	.LVL33-.Ltext0
 11711 1298 E4010000 		.4byte	.LFE38-.Ltext0
 11712 129c 0100     		.2byte	0x1
 11713 129e 51       		.byte	0x51
 11714 129f 00000000 		.4byte	0
 11715 12a3 00000000 		.4byte	0
 11716              	.LLST6:
 11717 12a7 86010000 		.4byte	.LFB37-.Ltext0
 11718 12ab 88010000 		.4byte	.LCFI2-.Ltext0
 11719 12af 0200     		.2byte	0x2
 11720 12b1 7D       		.byte	0x7d
 11721 12b2 00       		.sleb128 0
 11722 12b3 88010000 		.4byte	.LCFI2-.Ltext0
 11723 12b7 A4010000 		.4byte	.LFE37-.Ltext0
 11724 12bb 0200     		.2byte	0x2
 11725 12bd 7D       		.byte	0x7d
 11726 12be 10       		.sleb128 16
 11727 12bf 00000000 		.4byte	0
 11728 12c3 00000000 		.4byte	0
 11729              		.section	.debug_aranges,"",%progbits
 11730 0000 1C000000 		.4byte	0x1c
 11731 0004 0200     		.2byte	0x2
 11732 0006 00000000 		.4byte	.Ldebug_info0
 11733 000a 04       		.byte	0x4
 11734 000b 00       		.byte	0
 11735 000c 0000     		.2byte	0
 11736 000e 0000     		.2byte	0
 11737 0010 00000000 		.4byte	.Ltext0
 11738 0014 5A0C0000 		.4byte	.Letext0-.Ltext0
ARM GAS  C:\Users\claym\AppData\Local\Temp\ccxpUFUu.s 			page 245


 11739 0018 00000000 		.4byte	0
 11740 001c 00000000 		.4byte	0
 11741              		.section	.debug_ranges,"",%progbits
 11742              	.Ldebug_ranges0:
 11743 0000 6C020000 		.4byte	.LBB86-.Ltext0
 11744 0004 A4020000 		.4byte	.LBE86-.Ltext0
 11745 0008 0A030000 		.4byte	.LBB115-.Ltext0
 11746 000c 0E030000 		.4byte	.LBE115-.Ltext0
 11747 0010 00000000 		.4byte	0
 11748 0014 00000000 		.4byte	0
 11749 0018 AE020000 		.4byte	.LBB93-.Ltext0
 11750 001c BC020000 		.4byte	.LBE93-.Ltext0
 11751 0020 BE020000 		.4byte	.LBB96-.Ltext0
 11752 0024 C6020000 		.4byte	.LBE96-.Ltext0
 11753 0028 00000000 		.4byte	0
 11754 002c 00000000 		.4byte	0
 11755              		.section	.debug_line,"",%progbits
 11756              	.Ldebug_line0:
 11757 0000 16070000 		.section	.debug_str,"MS",%progbits,1
 11757      02009802 
 11757      00000201 
 11757      FB0E0D00 
 11757      01010101 
 11758              	.LASF228:
 11759 0000 434C4B54 		.ascii	"CLKTOLIMIT\000"
 11759      4F4C494D 
 11759      495400
 11760              	.LASF163:
 11761 000b 556E696E 		.ascii	"Uninitialize\000"
 11761      69746961 
 11761      6C697A65 
 11761      00
 11762              	.LASF157:
 11763 0018 64697265 		.ascii	"direction\000"
 11763      6374696F 
 11763      6E00
 11764              	.LASF305:
 11765 0022 564F525F 		.ascii	"VOR_I2C_MasterTransmit\000"
 11765      4932435F 
 11765      4D617374 
 11765      65725472 
 11765      616E736D 
 11766              	.LASF325:
 11767 0039 564F525F 		.ascii	"VOR_I2C_Poll_Tout\000"
 11767      4932435F 
 11767      506F6C6C 
 11767      5F546F75 
 11767      7400
 11768              	.LASF281:
 11769 004b 564F525F 		.ascii	"VOR_IRQ_GPIOA\000"
 11769      4952515F 
 11769      4750494F 
 11769      4100
 11770              	.LASF282:
 11771 0059 564F525F 		.ascii	"VOR_IRQ_GPIOB\000"
 11771      4952515F 
 11771      4750494F 
ARM GAS  C:\Users\claym\AppData\Local\Temp\ccxpUFUu.s 			page 246


 11771      4200
 11772              	.LASF252:
 11773 0067 636F6E66 		.ascii	"conf\000"
 11773      00
 11774              	.LASF186:
 11775 006c 4952515F 		.ascii	"IRQ_ENB\000"
 11775      454E4200 
 11776              	.LASF230:
 11777 0074 53305F4D 		.ascii	"S0_MAXWORDS\000"
 11777      4158574F 
 11777      52445300 
 11778              	.LASF41:
 11779 0080 5F6F6E5F 		.ascii	"_on_exit_args\000"
 11779      65786974 
 11779      5F617267 
 11779      7300
 11780              	.LASF147:
 11781 008e 6E61636B 		.ascii	"nackData\000"
 11781      44617461 
 11781      00
 11782              	.LASF326:
 11783 0097 564F525F 		.ascii	"VOR_I2C_Drv_Mode\000"
 11783      4932435F 
 11783      4472765F 
 11783      4D6F6465 
 11783      00
 11784              	.LASF315:
 11785 00a8 564F525F 		.ascii	"VOR_I2C_RxFifoTrg\000"
 11785      4932435F 
 11785      52784669 
 11785      666F5472 
 11785      6700
 11786              	.LASF108:
 11787 00ba 5F776374 		.ascii	"_wctomb_state\000"
 11787      6F6D625F 
 11787      73746174 
 11787      6500
 11788              	.LASF290:
 11789 00c8 6932635F 		.ascii	"i2c_driver_version\000"
 11789      64726976 
 11789      65725F76 
 11789      65727369 
 11789      6F6E00
 11790              	.LASF259:
 11791 00db 736C765F 		.ascii	"slv_addr\000"
 11791      61646472 
 11791      00
 11792              	.LASF255:
 11793 00e4 666C6167 		.ascii	"flags\000"
 11793      7300
 11794              	.LASF343:
 11795 00ea 636C6B73 		.ascii	"clkscale\000"
 11795      63616C65 
 11795      00
 11796              	.LASF105:
 11797 00f3 5F723438 		.ascii	"_r48\000"
 11797      00
ARM GAS  C:\Users\claym\AppData\Local\Temp\ccxpUFUu.s 			page 247


 11798              	.LASF238:
 11799 00f8 53305F52 		.ascii	"S0_RXCOUNT\000"
 11799      58434F55 
 11799      4E5400
 11800              	.LASF202:
 11801 0103 524F4D5F 		.ascii	"ROM_RETRIES\000"
 11801      52455452 
 11801      49455300 
 11802              	.LASF110:
 11803 010f 5F736967 		.ascii	"_signal_buf\000"
 11803      6E616C5F 
 11803      62756600 
 11804              	.LASF308:
 11805 011b 636F6E74 		.ascii	"control\000"
 11805      726F6C00 
 11806              	.LASF307:
 11807 0123 564F525F 		.ascii	"VOR_I2C_Setup\000"
 11807      4932435F 
 11807      53657475 
 11807      7000
 11808              	.LASF0:
 11809 0131 756E7369 		.ascii	"unsigned int\000"
 11809      676E6564 
 11809      20696E74 
 11809      00
 11810              	.LASF276:
 11811 013e 4932435F 		.ascii	"I2C_INFO\000"
 11811      494E464F 
 11811      00
 11812              	.LASF189:
 11813 0147 4952515F 		.ascii	"IRQ_CLR\000"
 11813      434C5200 
 11814              	.LASF310:
 11815 014f 564F525F 		.ascii	"VOR_I2C_Control\000"
 11815      4932435F 
 11815      436F6E74 
 11815      726F6C00 
 11816              	.LASF293:
 11817 015f 564F525F 		.ascii	"VOR_I2C_SlaveHandler\000"
 11817      4932435F 
 11817      536C6176 
 11817      6548616E 
 11817      646C6572 
 11818              	.LASF55:
 11819 0174 5F6C6266 		.ascii	"_lbfsize\000"
 11819      73697A65 
 11819      00
 11820              	.LASF53:
 11821 017d 5F666C61 		.ascii	"_flags\000"
 11821      677300
 11822              	.LASF288:
 11823 0184 49324330 		.ascii	"I2C0_Resources\000"
 11823      5F526573 
 11823      6F757263 
 11823      657300
 11824              	.LASF262:
 11825 0193 74786665 		.ascii	"txfemd\000"
ARM GAS  C:\Users\claym\AppData\Local\Temp\ccxpUFUu.s 			page 248


 11825      6D6400
 11826              	.LASF9:
 11827 019a 5F5F696E 		.ascii	"__int32_t\000"
 11827      7433325F 
 11827      7400
 11828              	.LASF70:
 11829 01a4 5F657272 		.ascii	"_errno\000"
 11829      6E6F00
 11830              	.LASF344:
 11831 01ab 5F5F4E4F 		.ascii	"__NOP\000"
 11831      5000
 11832              	.LASF159:
 11833 01b1 564F525F 		.ascii	"VOR_I2C_SignalEvent_t\000"
 11833      4932435F 
 11833      5369676E 
 11833      616C4576 
 11833      656E745F 
 11834              	.LASF134:
 11835 01c7 546C6F77 		.ascii	"Tlow\000"
 11835      00
 11836              	.LASF231:
 11837 01cc 53305F41 		.ascii	"S0_ADDRESS\000"
 11837      44445245 
 11837      535300
 11838              	.LASF258:
 11839 01d7 73706565 		.ascii	"speed\000"
 11839      6400
 11840              	.LASF321:
 11841 01dd 564F525F 		.ascii	"VOR_I2C_FifoClr\000"
 11841      4932435F 
 11841      4669666F 
 11841      436C7200 
 11842              	.LASF67:
 11843 01ed 5F6D6273 		.ascii	"_mbstate\000"
 11843      74617465 
 11843      00
 11844              	.LASF216:
 11845 01f6 434C4B53 		.ascii	"CLKSCALE\000"
 11845      43414C45 
 11845      00
 11846              	.LASF272:
 11847 01ff 74786964 		.ascii	"txidx\000"
 11847      7800
 11848              	.LASF57:
 11849 0205 5F726561 		.ascii	"_read\000"
 11849      6400
 11850              	.LASF207:
 11851 020b 50455249 		.ascii	"PERIPHERAL_CLK_ENABLE\000"
 11851      50484552 
 11851      414C5F43 
 11851      4C4B5F45 
 11851      4E41424C 
 11852              	.LASF246:
 11853 0221 53305F41 		.ascii	"S0_ADDRESSB\000"
 11853      44445245 
 11853      53534200 
 11854              	.LASF156:
ARM GAS  C:\Users\claym\AppData\Local\Temp\ccxpUFUu.s 			page 249


 11855 022d 6D6F6465 		.ascii	"mode\000"
 11855      00
 11856              	.LASF112:
 11857 0232 5F6D6272 		.ascii	"_mbrlen_state\000"
 11857      6C656E5F 
 11857      73746174 
 11857      6500
 11858              	.LASF287:
 11859 0240 564F525F 		.ascii	"VOR_IRQ_I2C_SL\000"
 11859      4952515F 
 11859      4932435F 
 11859      534C00
 11860              	.LASF337:
 11861 024f 5F5F6275 		.ascii	"__builtin_memcpy\000"
 11861      696C7469 
 11861      6E5F6D65 
 11861      6D637079 
 11861      00
 11862              	.LASF339:
 11863 0260 474E5520 		.ascii	"GNU C11 7.2.1 20170904 (release) [ARM/embedded-7-br"
 11863      43313120 
 11863      372E322E 
 11863      31203230 
 11863      31373039 
 11864 0293 616E6368 		.ascii	"anch revision 255204] -mcpu=cortex-m0 -mthumb -gdwa"
 11864      20726576 
 11864      6973696F 
 11864      6E203235 
 11864      35323034 
 11865 02c6 72662D32 		.ascii	"rf-2 -Os -fomit-frame-pointer\000"
 11865      202D4F73 
 11865      202D666F 
 11865      6D69742D 
 11865      6672616D 
 11866              	.LASF72:
 11867 02e4 5F737464 		.ascii	"_stdout\000"
 11867      6F757400 
 11868              	.LASF219:
 11869 02ec 44415441 		.ascii	"DATA\000"
 11869      00
 11870              	.LASF148:
 11871 02f1 72784E45 		.ascii	"rxNEmpty\000"
 11871      6D707479 
 11871      00
 11872              	.LASF16:
 11873 02fa 5F66706F 		.ascii	"_fpos_t\000"
 11873      735F7400 
 11874              	.LASF48:
 11875 0302 5F666E73 		.ascii	"_fns\000"
 11875      00
 11876              	.LASF229:
 11877 0307 53305F43 		.ascii	"S0_CTRL\000"
 11877      54524C00 
 11878              	.LASF56:
 11879 030f 5F636F6F 		.ascii	"_cookie\000"
 11879      6B696500 
 11880              	.LASF317:
ARM GAS  C:\Users\claym\AppData\Local\Temp\ccxpUFUu.s 			page 250


 11881 0317 564F525F 		.ascii	"VOR_I2C_AlgFilter\000"
 11881      4932435F 
 11881      416C6746 
 11881      696C7465 
 11881      7200
 11882              	.LASF330:
 11883 0329 564F525F 		.ascii	"VOR_Disable_Irq\000"
 11883      44697361 
 11883      626C655F 
 11883      49727100 
 11884              	.LASF30:
 11885 0339 5F426967 		.ascii	"_Bigint\000"
 11885      696E7400 
 11886              	.LASF38:
 11887 0341 5F5F746D 		.ascii	"__tm_wday\000"
 11887      5F776461 
 11887      7900
 11888              	.LASF133:
 11889 034b 54686967 		.ascii	"Thigh\000"
 11889      6800
 11890              	.LASF80:
 11891 0351 5F726573 		.ascii	"_result\000"
 11891      756C7400 
 11892              	.LASF129:
 11893 0359 75696E74 		.ascii	"uint32_t\000"
 11893      33325F74 
 11893      00
 11894              	.LASF34:
 11895 0362 5F5F746D 		.ascii	"__tm_hour\000"
 11895      5F686F75 
 11895      7200
 11896              	.LASF300:
 11897 036c 6972715F 		.ascii	"irq_raw\000"
 11897      72617700 
 11898              	.LASF323:
 11899 0374 564F525F 		.ascii	"VOR_I2C_OwnAddr\000"
 11899      4932435F 
 11899      4F776E41 
 11899      64647200 
 11900              	.LASF20:
 11901 0384 5F5F636F 		.ascii	"__count\000"
 11901      756E7400 
 11902              	.LASF291:
 11903 038c 6576656E 		.ascii	"event\000"
 11903      7400
 11904              	.LASF33:
 11905 0392 5F5F746D 		.ascii	"__tm_min\000"
 11905      5F6D696E 
 11905      00
 11906              	.LASF123:
 11907 039b 5F696D70 		.ascii	"_impure_ptr\000"
 11907      7572655F 
 11907      70747200 
 11908              	.LASF118:
 11909 03a7 5F6E6578 		.ascii	"_nextf\000"
 11909      746600
 11910              	.LASF324:
ARM GAS  C:\Users\claym\AppData\Local\Temp\ccxpUFUu.s 			page 251


 11911 03ae 564F525F 		.ascii	"VOR_I2C_busSpeed\000"
 11911      4932435F 
 11911      62757353 
 11911      70656564 
 11911      00
 11912              	.LASF169:
 11913 03bf 436F6E74 		.ascii	"Control\000"
 11913      726F6C00 
 11914              	.LASF95:
 11915 03c7 5F72616E 		.ascii	"_rand48\000"
 11915      64343800 
 11916              	.LASF222:
 11917 03cf 5458434F 		.ascii	"TXCOUNT\000"
 11917      554E5400 
 11918              	.LASF81:
 11919 03d7 5F726573 		.ascii	"_result_k\000"
 11919      756C745F 
 11919      6B00
 11920              	.LASF13:
 11921 03e1 6C6F6E67 		.ascii	"long long unsigned int\000"
 11921      206C6F6E 
 11921      6720756E 
 11921      7369676E 
 11921      65642069 
 11922              	.LASF270:
 11923 03f8 7478636E 		.ascii	"txcnt\000"
 11923      7400
 11924              	.LASF101:
 11925 03fe 5F617363 		.ascii	"_asctime_buf\000"
 11925      74696D65 
 11925      5F627566 
 11925      00
 11926              	.LASF52:
 11927 040b 5F5F7346 		.ascii	"__sFILE\000"
 11927      494C4500 
 11928              	.LASF29:
 11929 0413 5F776473 		.ascii	"_wds\000"
 11929      00
 11930              	.LASF313:
 11931 0418 564F525F 		.ascii	"VOR_I2C_ClkToLimit\000"
 11931      4932435F 
 11931      436C6B54 
 11931      6F4C696D 
 11931      697400
 11932              	.LASF336:
 11933 042b 6D656D73 		.ascii	"memset\000"
 11933      657400
 11934              	.LASF213:
 11935 0432 50455249 		.ascii	"PERID\000"
 11935      4400
 11936              	.LASF7:
 11937 0438 5F5F7569 		.ascii	"__uint16_t\000"
 11937      6E743136 
 11937      5F7400
 11938              	.LASF197:
 11939 0443 494F434F 		.ascii	"IOCONFIG_CLKDIV3\000"
 11939      4E464947 
ARM GAS  C:\Users\claym\AppData\Local\Temp\ccxpUFUu.s 			page 252


 11939      5F434C4B 
 11939      44495633 
 11939      00
 11940              	.LASF91:
 11941 0454 5F5F4649 		.ascii	"__FILE\000"
 11941      4C4500
 11942              	.LASF294:
 11943 045b 564F525F 		.ascii	"VOR_I2C_MasterHandler\000"
 11943      4932435F 
 11943      4D617374 
 11943      65724861 
 11943      6E646C65 
 11944              	.LASF201:
 11945 0471 494F434F 		.ascii	"IOCONFIG_CLKDIV7\000"
 11945      4E464947 
 11945      5F434C4B 
 11945      44495637 
 11945      00
 11946              	.LASF64:
 11947 0482 5F6F6666 		.ascii	"_offset\000"
 11947      73657400 
 11948              	.LASF167:
 11949 048a 536C6176 		.ascii	"SlaveReceive\000"
 11949      65526563 
 11949      65697665 
 11949      00
 11950              	.LASF75:
 11951 0497 5F656D65 		.ascii	"_emergency\000"
 11951      7267656E 
 11951      637900
 11952              	.LASF182:
 11953 04a2 524F4D5F 		.ascii	"ROM_TRAP_ADDR\000"
 11953      54524150 
 11953      5F414444 
 11953      5200
 11954              	.LASF150:
 11955 04b0 72784669 		.ascii	"rxFifoTrg\000"
 11955      666F5472 
 11955      6700
 11956              	.LASF187:
 11957 04ba 4952515F 		.ascii	"IRQ_RAW\000"
 11957      52415700 
 11958              	.LASF192:
 11959 04c2 524F4D5F 		.ascii	"ROM_SBE\000"
 11959      53424500 
 11960              	.LASF206:
 11961 04ca 50455249 		.ascii	"PERIPHERAL_RESET\000"
 11961      50484552 
 11961      414C5F52 
 11961      45534554 
 11961      00
 11962              	.LASF170:
 11963 04db 47657453 		.ascii	"GetStatus\000"
 11963      74617475 
 11963      7300
 11964              	.LASF274:
 11965 04e5 74786461 		.ascii	"txdata\000"
ARM GAS  C:\Users\claym\AppData\Local\Temp\ccxpUFUu.s 			page 253


 11965      746100
 11966              	.LASF233:
 11967 04ec 53305F44 		.ascii	"S0_DATA\000"
 11967      41544100 
 11968              	.LASF32:
 11969 04f4 5F5F746D 		.ascii	"__tm_sec\000"
 11969      5F736563 
 11969      00
 11970              	.LASF125:
 11971 04fd 7375626F 		.ascii	"suboptarg\000"
 11971      70746172 
 11971      6700
 11972              	.LASF39:
 11973 0507 5F5F746D 		.ascii	"__tm_yday\000"
 11973      5F796461 
 11973      7900
 11974              	.LASF74:
 11975 0511 5F696E63 		.ascii	"_inc\000"
 11975      00
 11976              	.LASF47:
 11977 0516 5F696E64 		.ascii	"_ind\000"
 11977      00
 11978              	.LASF309:
 11979 051b 564F525F 		.ascii	"VOR_I2C_GetStatus\000"
 11979      4932435F 
 11979      47657453 
 11979      74617475 
 11979      7300
 11980              	.LASF26:
 11981 052d 5F6E6578 		.ascii	"_next\000"
 11981      7400
 11982              	.LASF261:
 11983 0533 6C6F6F70 		.ascii	"loopback\000"
 11983      6261636B 
 11983      00
 11984              	.LASF114:
 11985 053c 5F6D6273 		.ascii	"_mbsrtowcs_state\000"
 11985      72746F77 
 11985      63735F73 
 11985      74617465 
 11985      00
 11986              	.LASF277:
 11987 054d 69326349 		.ascii	"i2cId\000"
 11987      6400
 11988              	.LASF212:
 11989 0553 50524F43 		.ascii	"PROCID\000"
 11989      494400
 11990              	.LASF184:
 11991 055a 52414D5F 		.ascii	"RAM_TRAP_ADDR\000"
 11991      54524150 
 11991      5F414444 
 11991      5200
 11992              	.LASF21:
 11993 0568 5F5F7661 		.ascii	"__value\000"
 11993      6C756500 
 11994              	.LASF82:
 11995 0570 5F703573 		.ascii	"_p5s\000"
ARM GAS  C:\Users\claym\AppData\Local\Temp\ccxpUFUu.s 			page 254


 11995      00
 11996              	.LASF132:
 11997 0575 5F564F52 		.ascii	"_VOR_I2C_TMCONF\000"
 11997      5F493243 
 11997      5F544D43 
 11997      4F4E4600 
 11998              	.LASF116:
 11999 0585 5F776373 		.ascii	"_wcsrtombs_state\000"
 11999      72746F6D 
 11999      62735F73 
 11999      74617465 
 11999      00
 12000              	.LASF106:
 12001 0596 5F6D626C 		.ascii	"_mblen_state\000"
 12001      656E5F73 
 12001      74617465 
 12001      00
 12002              	.LASF24:
 12003 05a3 63686172 		.ascii	"char\000"
 12003      00
 12004              	.LASF35:
 12005 05a8 5F5F746D 		.ascii	"__tm_mday\000"
 12005      5F6D6461 
 12005      7900
 12006              	.LASF88:
 12007 05b2 5F736967 		.ascii	"_sig_func\000"
 12007      5F66756E 
 12007      6300
 12008              	.LASF113:
 12009 05bc 5F6D6272 		.ascii	"_mbrtowc_state\000"
 12009      746F7763 
 12009      5F737461 
 12009      746500
 12010              	.LASF87:
 12011 05cb 5F617465 		.ascii	"_atexit0\000"
 12011      78697430 
 12011      00
 12012              	.LASF208:
 12013 05d4 4C4F434B 		.ascii	"LOCKUP_RESET\000"
 12013      55505F52 
 12013      45534554 
 12013      00
 12014              	.LASF139:
 12015 05e1 564F525F 		.ascii	"VOR_I2C_TMCONF\000"
 12015      4932435F 
 12015      544D434F 
 12015      4E4600
 12016              	.LASF23:
 12017 05f0 5F666C6F 		.ascii	"_flock_t\000"
 12017      636B5F74 
 12017      00
 12018              	.LASF218:
 12019 05f9 41444452 		.ascii	"ADDRESS\000"
 12019      45535300 
 12020              	.LASF203:
 12021 0601 52454652 		.ascii	"REFRESH_CONFIG\000"
 12021      4553485F 
ARM GAS  C:\Users\claym\AppData\Local\Temp\ccxpUFUu.s 			page 255


 12021      434F4E46 
 12021      494700
 12022              	.LASF244:
 12023 0610 53305F54 		.ascii	"S0_TXFIFOIRQTRG\000"
 12023      58464946 
 12023      4F495251 
 12023      54524700 
 12024              	.LASF18:
 12025 0620 5F5F7763 		.ascii	"__wch\000"
 12025      6800
 12026              	.LASF94:
 12027 0626 5F696F62 		.ascii	"_iobs\000"
 12027      7300
 12028              	.LASF126:
 12029 062c 75696E74 		.ascii	"uint8_t\000"
 12029      385F7400 
 12030              	.LASF254:
 12031 0634 73746174 		.ascii	"status\000"
 12031      757300
 12032              	.LASF145:
 12033 063b 6172625F 		.ascii	"arb_lost\000"
 12033      6C6F7374 
 12033      00
 12034              	.LASF279:
 12035 0644 69326343 		.ascii	"i2cClkEn\000"
 12035      6C6B456E 
 12035      00
 12036              	.LASF60:
 12037 064d 5F636C6F 		.ascii	"_close\000"
 12037      736500
 12038              	.LASF260:
 12039 0654 61646472 		.ascii	"addr_mode\000"
 12039      5F6D6F64 
 12039      6500
 12040              	.LASF78:
 12041 065e 5F5F7364 		.ascii	"__sdidinit\000"
 12041      6964696E 
 12041      697400
 12042              	.LASF131:
 12043 0669 564F525F 		.ascii	"VOR_DRIVER_VERSION\000"
 12043      44524956 
 12043      45525F56 
 12043      45525349 
 12043      4F4E00
 12044              	.LASF312:
 12045 067c 564F525F 		.ascii	"VOR_I2C_TmConfig\000"
 12045      4932435F 
 12045      546D436F 
 12045      6E666967 
 12045      00
 12046              	.LASF289:
 12047 068d 49324331 		.ascii	"I2C1_Resources\000"
 12047      5F526573 
 12047      6F757263 
 12047      657300
 12048              	.LASF71:
 12049 069c 5F737464 		.ascii	"_stdin\000"
ARM GAS  C:\Users\claym\AppData\Local\Temp\ccxpUFUu.s 			page 256


 12049      696E00
 12050              	.LASF103:
 12051 06a3 5F67616D 		.ascii	"_gamma_signgam\000"
 12051      6D615F73 
 12051      69676E67 
 12051      616D00
 12052              	.LASF1:
 12053 06b2 6C6F6E67 		.ascii	"long long int\000"
 12053      206C6F6E 
 12053      6720696E 
 12053      7400
 12054              	.LASF50:
 12055 06c0 5F626173 		.ascii	"_base\000"
 12055      6500
 12056              	.LASF237:
 12057 06c6 53305F54 		.ascii	"S0_TXCOUNT\000"
 12057      58434F55 
 12057      4E5400
 12058              	.LASF83:
 12059 06d1 5F667265 		.ascii	"_freelist\000"
 12059      656C6973 
 12059      7400
 12060              	.LASF166:
 12061 06db 536C6176 		.ascii	"SlaveTransmit\000"
 12061      65547261 
 12061      6E736D69 
 12061      7400
 12062              	.LASF97:
 12063 06e9 5F6D756C 		.ascii	"_mult\000"
 12063      7400
 12064              	.LASF25:
 12065 06ef 5F5F554C 		.ascii	"__ULong\000"
 12065      6F6E6700 
 12066              	.LASF115:
 12067 06f7 5F776372 		.ascii	"_wcrtomb_state\000"
 12067      746F6D62 
 12067      5F737461 
 12067      746500
 12068              	.LASF181:
 12069 0706 52414D5F 		.ascii	"RAM_SCRUB\000"
 12069      53435255 
 12069      4200
 12070              	.LASF54:
 12071 0710 5F66696C 		.ascii	"_file\000"
 12071      6500
 12072              	.LASF191:
 12073 0716 52414D5F 		.ascii	"RAM_MBE\000"
 12073      4D424500 
 12074              	.LASF215:
 12075 071e 4354524C 		.ascii	"CTRL\000"
 12075      00
 12076              	.LASF269:
 12077 0723 746D636F 		.ascii	"tmconfig\000"
 12077      6E666967 
 12077      00
 12078              	.LASF165:
 12079 072c 4D617374 		.ascii	"MasterReceive\000"
ARM GAS  C:\Users\claym\AppData\Local\Temp\ccxpUFUu.s 			page 257


 12079      65725265 
 12079      63656976 
 12079      6500
 12080              	.LASF329:
 12081 073a 564F525F 		.ascii	"VOR_I2Cx_GetVersion\000"
 12081      49324378 
 12081      5F476574 
 12081      56657273 
 12081      696F6E00 
 12082              	.LASF263:
 12083 074e 72786666 		.ascii	"rxffmd\000"
 12083      6D6400
 12084              	.LASF275:
 12085 0755 72786461 		.ascii	"rxdata\000"
 12085      746100
 12086              	.LASF142:
 12087 075c 49646C65 		.ascii	"Idle\000"
 12087      00
 12088              	.LASF318:
 12089 0761 564F525F 		.ascii	"VOR_I2C_Rxffmd\000"
 12089      4932435F 
 12089      52786666 
 12089      6D6400
 12090              	.LASF265:
 12091 0770 64696766 		.ascii	"digfilter\000"
 12091      696C7465 
 12091      7200
 12092              	.LASF319:
 12093 077a 564F525F 		.ascii	"VOR_I2C_Txfemd\000"
 12093      4932435F 
 12093      54786665 
 12093      6D6400
 12094              	.LASF322:
 12095 0789 564F525F 		.ascii	"VOR_I2C_Addr10Bit\000"
 12095      4932435F 
 12095      41646472 
 12095      31304269 
 12095      7400
 12096              	.LASF79:
 12097 079b 5F5F636C 		.ascii	"__cleanup\000"
 12097      65616E75 
 12097      7000
 12098              	.LASF332:
 12099 07a5 564F525F 		.ascii	"VOR_Enable_Irq\000"
 12099      456E6162 
 12099      6C655F49 
 12099      727100
 12100              	.LASF22:
 12101 07b4 5F6D6273 		.ascii	"_mbstate_t\000"
 12101      74617465 
 12101      5F7400
 12102              	.LASF306:
 12103 07bf 564F525F 		.ascii	"VOR_I2C_Stop\000"
 12103      4932435F 
 12103      53746F70 
 12103      00
 12104              	.LASF234:
ARM GAS  C:\Users\claym\AppData\Local\Temp\ccxpUFUu.s 			page 258


 12105 07cc 53305F4C 		.ascii	"S0_LASTADDRESS\000"
 12105      41535441 
 12105      44445245 
 12105      535300
 12106              	.LASF301:
 12107 07db 564F525F 		.ascii	"VOR_I2C_SlaveTransmit\000"
 12107      4932435F 
 12107      536C6176 
 12107      65547261 
 12107      6E736D69 
 12108              	.LASF299:
 12109 07f1 73746172 		.ascii	"start_time\000"
 12109      745F7469 
 12109      6D6500
 12110              	.LASF199:
 12111 07fc 494F434F 		.ascii	"IOCONFIG_CLKDIV5\000"
 12111      4E464947 
 12111      5F434C4B 
 12111      44495635 
 12111      00
 12112              	.LASF40:
 12113 080d 5F5F746D 		.ascii	"__tm_isdst\000"
 12113      5F697364 
 12113      737400
 12114              	.LASF256:
 12115 0818 706F6C6C 		.ascii	"poll_mode\000"
 12115      5F6D6F64 
 12115      6500
 12116              	.LASF175:
 12117 0822 53797374 		.ascii	"SystemCoreClock\000"
 12117      656D436F 
 12117      7265436C 
 12117      6F636B00 
 12118              	.LASF302:
 12119 0832 564F525F 		.ascii	"VOR_I2C_MasterReceive\000"
 12119      4932435F 
 12119      4D617374 
 12119      65725265 
 12119      63656976 
 12120              	.LASF117:
 12121 0848 5F685F65 		.ascii	"_h_errno\000"
 12121      72726E6F 
 12121      00
 12122              	.LASF295:
 12123 0851 564F525F 		.ascii	"VOR_I2C_GetDataCount\000"
 12123      4932435F 
 12123      47657444 
 12123      61746143 
 12123      6F756E74 
 12124              	.LASF223:
 12125 0866 5258434F 		.ascii	"RXCOUNT\000"
 12125      554E5400 
 12126              	.LASF227:
 12127 086e 544D434F 		.ascii	"TMCONFIG\000"
 12127      4E464947 
 12127      00
 12128              	.LASF171:
ARM GAS  C:\Users\claym\AppData\Local\Temp\ccxpUFUu.s 			page 259


 12129 0877 5F426F6F 		.ascii	"_Bool\000"
 12129      6C00
 12130              	.LASF152:
 12131 087d 74784E46 		.ascii	"txNFull\000"
 12131      756C6C00 
 12132              	.LASF177:
 12133 0885 5253545F 		.ascii	"RST_CNTL_ROM\000"
 12133      434E544C 
 12133      5F524F4D 
 12133      00
 12134              	.LASF297:
 12135 0892 64617461 		.ascii	"data\000"
 12135      00
 12136              	.LASF36:
 12137 0897 5F5F746D 		.ascii	"__tm_mon\000"
 12137      5F6D6F6E 
 12137      00
 12138              	.LASF250:
 12139 08a0 42414E4B 		.ascii	"BANK\000"
 12139      00
 12140              	.LASF140:
 12141 08a5 5F564F52 		.ascii	"_VOR_I2C_STATUS\000"
 12141      5F493243 
 12141      5F535441 
 12141      54555300 
 12142              	.LASF2:
 12143 08b5 6C6F6E67 		.ascii	"long double\000"
 12143      20646F75 
 12143      626C6500 
 12144              	.LASF14:
 12145 08c1 5F4C4F43 		.ascii	"_LOCK_T\000"
 12145      4B5F5400 
 12146              	.LASF127:
 12147 08c9 75696E74 		.ascii	"uint16_t\000"
 12147      31365F74 
 12147      00
 12148              	.LASF173:
 12149 08d2 44726976 		.ascii	"Driver_I2C0\000"
 12149      65725F49 
 12149      32433000 
 12150              	.LASF174:
 12151 08de 44726976 		.ascii	"Driver_I2C1\000"
 12151      65725F49 
 12151      32433100 
 12152              	.LASF58:
 12153 08ea 5F777269 		.ascii	"_write\000"
 12153      746500
 12154              	.LASF280:
 12155 08f1 4932435F 		.ascii	"I2C_RESOURCES\000"
 12155      5245534F 
 12155      55524345 
 12155      5300
 12156              	.LASF149:
 12157 08ff 72784675 		.ascii	"rxFull\000"
 12157      6C6C00
 12158              	.LASF158:
 12159 0906 564F525F 		.ascii	"VOR_I2C_STATUS\000"
ARM GAS  C:\Users\claym\AppData\Local\Temp\ccxpUFUu.s 			page 260


 12159      4932435F 
 12159      53544154 
 12159      555300
 12160              	.LASF160:
 12161 0915 5F564F52 		.ascii	"_VOR_DRIVER_I2C\000"
 12161      5F445249 
 12161      5645525F 
 12161      49324300 
 12162              	.LASF46:
 12163 0925 5F617465 		.ascii	"_atexit\000"
 12163      78697400 
 12164              	.LASF183:
 12165 092d 524F4D5F 		.ascii	"ROM_TRAP_SYND\000"
 12165      54524150 
 12165      5F53594E 
 12165      4400
 12166              	.LASF225:
 12167 093b 54584649 		.ascii	"TXFIFOIRQTRG\000"
 12167      464F4952 
 12167      51545247 
 12167      00
 12168              	.LASF304:
 12169 0948 78666572 		.ascii	"xfer_pending\000"
 12169      5F70656E 
 12169      64696E67 
 12169      00
 12170              	.LASF239:
 12171 0955 53305F49 		.ascii	"S0_IRQ_ENB\000"
 12171      52515F45 
 12171      4E4200
 12172              	.LASF249:
 12173 0960 564F525F 		.ascii	"VOR_I2C_PERIPHERAL_Type\000"
 12173      4932435F 
 12173      50455249 
 12173      50484552 
 12173      414C5F54 
 12174              	.LASF180:
 12175 0978 524F4D5F 		.ascii	"ROM_SCRUB\000"
 12175      53435255 
 12175      4200
 12176              	.LASF135:
 12177 0982 54535573 		.ascii	"TSUsto\000"
 12177      746F00
 12178              	.LASF209:
 12179 0989 52455345 		.ascii	"RESERVED0\000"
 12179      52564544 
 12179      3000
 12180              	.LASF248:
 12181 0993 52455345 		.ascii	"RESERVED1\000"
 12181      52564544 
 12181      3100
 12182              	.LASF320:
 12183 099d 564F525F 		.ascii	"VOR_I2C_Loopback\000"
 12183      4932435F 
 12183      4C6F6F70 
 12183      6261636B 
 12183      00
ARM GAS  C:\Users\claym\AppData\Local\Temp\ccxpUFUu.s 			page 261


 12184              	.LASF273:
 12185 09ae 72786964 		.ascii	"rxidx\000"
 12185      7800
 12186              	.LASF5:
 12187 09b4 73686F72 		.ascii	"short int\000"
 12187      7420696E 
 12187      7400
 12188              	.LASF341:
 12189 09be 433A5C44 		.ascii	"C:\\Development\\New_Mar8\\Workspace-Vorago - REB1\\"
 12189      6576656C 
 12189      6F706D65 
 12189      6E745C4E 
 12189      65775F4D 
 12190 09ee 766F7261 		.ascii	"vorago_try311\000"
 12190      676F5F74 
 12190      72793331 
 12190      3100
 12191              	.LASF193:
 12192 09fc 524F4D5F 		.ascii	"ROM_MBE\000"
 12192      4D424500 
 12193              	.LASF172:
 12194 0a04 564F525F 		.ascii	"VOR_DRIVER_I2C\000"
 12194      44524956 
 12194      45525F49 
 12194      324300
 12195              	.LASF10:
 12196 0a13 6C6F6E67 		.ascii	"long int\000"
 12196      20696E74 
 12196      00
 12197              	.LASF314:
 12198 0a1c 564F525F 		.ascii	"VOR_I2C_TxFifoTrg\000"
 12198      4932435F 
 12198      54784669 
 12198      666F5472 
 12198      6700
 12199              	.LASF178:
 12200 0a2e 5253545F 		.ascii	"RST_CNTL_RAM\000"
 12200      434E544C 
 12200      5F52414D 
 12200      00
 12201              	.LASF334:
 12202 0a3b 564F525F 		.ascii	"VOR_Get_ClockFreq\000"
 12202      4765745F 
 12202      436C6F63 
 12202      6B467265 
 12202      7100
 12203              	.LASF328:
 12204 0a4d 564F525F 		.ascii	"VOR_I2C_Initialize\000"
 12204      4932435F 
 12204      496E6974 
 12204      69616C69 
 12204      7A6500
 12205              	.LASF90:
 12206 0a60 5F5F7366 		.ascii	"__sf\000"
 12206      00
 12207              	.LASF28:
 12208 0a65 5F736967 		.ascii	"_sign\000"
ARM GAS  C:\Users\claym\AppData\Local\Temp\ccxpUFUu.s 			page 262


 12208      6E00
 12209              	.LASF264:
 12210 0a6b 616C6766 		.ascii	"algfilter\000"
 12210      696C7465 
 12210      7200
 12211              	.LASF168:
 12212 0a75 47657444 		.ascii	"GetDataCount\000"
 12212      61746143 
 12212      6F756E74 
 12212      00
 12213              	.LASF65:
 12214 0a82 5F646174 		.ascii	"_data\000"
 12214      6100
 12215              	.LASF19:
 12216 0a88 5F5F7763 		.ascii	"__wchb\000"
 12216      686200
 12217              	.LASF124:
 12218 0a8f 5F676C6F 		.ascii	"_global_impure_ptr\000"
 12218      62616C5F 
 12218      696D7075 
 12218      72655F70 
 12218      747200
 12219              	.LASF327:
 12220 0aa2 564F525F 		.ascii	"VOR_I2C_Uninitialize\000"
 12220      4932435F 
 12220      556E696E 
 12220      69746961 
 12220      6C697A65 
 12221              	.LASF155:
 12222 0ab7 72617753 		.ascii	"rawSCL\000"
 12222      434C00
 12223              	.LASF37:
 12224 0abe 5F5F746D 		.ascii	"__tm_year\000"
 12224      5F796561 
 12224      7200
 12225              	.LASF214:
 12226 0ac8 564F525F 		.ascii	"VOR_SYSCONFIG_Type\000"
 12226      53595343 
 12226      4F4E4649 
 12226      475F5479 
 12226      706500
 12227              	.LASF185:
 12228 0adb 52414D5F 		.ascii	"RAM_TRAP_SYND\000"
 12228      54524150 
 12228      5F53594E 
 12228      4400
 12229              	.LASF162:
 12230 0ae9 496E6974 		.ascii	"Initialize\000"
 12230      69616C69 
 12230      7A6500
 12231              	.LASF342:
 12232 0af4 746D636F 		.ascii	"tmconfig_t\000"
 12232      6E666967 
 12232      5F7400
 12233              	.LASF102:
 12234 0aff 5F6C6F63 		.ascii	"_localtime_buf\000"
 12234      616C7469 
ARM GAS  C:\Users\claym\AppData\Local\Temp\ccxpUFUu.s 			page 263


 12234      6D655F62 
 12234      756600
 12235              	.LASF257:
 12236 0b0e 706F6C6C 		.ascii	"poll_tout\000"
 12236      5F746F75 
 12236      7400
 12237              	.LASF120:
 12238 0b18 5F756E75 		.ascii	"_unused\000"
 12238      73656400 
 12239              	.LASF6:
 12240 0b20 5F5F7569 		.ascii	"__uint8_t\000"
 12240      6E74385F 
 12240      7400
 12241              	.LASF86:
 12242 0b2a 5F6E6577 		.ascii	"_new\000"
 12242      00
 12243              	.LASF84:
 12244 0b2f 5F637674 		.ascii	"_cvtlen\000"
 12244      6C656E00 
 12245              	.LASF27:
 12246 0b37 5F6D6178 		.ascii	"_maxwds\000"
 12246      77647300 
 12247              	.LASF109:
 12248 0b3f 5F6C3634 		.ascii	"_l64a_buf\000"
 12248      615F6275 
 12248      6600
 12249              	.LASF232:
 12250 0b49 53305F41 		.ascii	"S0_ADDRESSMASK\000"
 12250      44445245 
 12250      53534D41 
 12250      534B00
 12251              	.LASF286:
 12252 0b58 564F525F 		.ascii	"VOR_IRQ_I2C_MS\000"
 12252      4952515F 
 12252      4932435F 
 12252      4D5300
 12253              	.LASF251:
 12254 0b67 564F525F 		.ascii	"VOR_I2C_PERIPHERAL_BANK_Type\000"
 12254      4932435F 
 12254      50455249 
 12254      50484552 
 12254      414C5F42 
 12255              	.LASF338:
 12256 0b84 5F5F6275 		.ascii	"__builtin_memset\000"
 12256      696C7469 
 12256      6E5F6D65 
 12256      6D736574 
 12256      00
 12257              	.LASF63:
 12258 0b95 5F626C6B 		.ascii	"_blksize\000"
 12258      73697A65 
 12258      00
 12259              	.LASF31:
 12260 0b9e 5F5F746D 		.ascii	"__tm\000"
 12260      00
 12261              	.LASF154:
 12262 0ba3 72617753 		.ascii	"rawSDA\000"
ARM GAS  C:\Users\claym\AppData\Local\Temp\ccxpUFUu.s 			page 264


 12262      444100
 12263              	.LASF66:
 12264 0baa 5F6C6F63 		.ascii	"_lock\000"
 12264      6B00
 12265              	.LASF241:
 12266 0bb0 53305F49 		.ascii	"S0_IRQ_END\000"
 12266      52515F45 
 12266      4E4400
 12267              	.LASF141:
 12268 0bbb 69326349 		.ascii	"i2cIdle\000"
 12268      646C6500 
 12269              	.LASF12:
 12270 0bc3 6C6F6E67 		.ascii	"long unsigned int\000"
 12270      20756E73 
 12270      69676E65 
 12270      6420696E 
 12270      7400
 12271              	.LASF311:
 12272 0bd5 564F525F 		.ascii	"VOR_I2C_abort_transfer\000"
 12272      4932435F 
 12272      61626F72 
 12272      745F7472 
 12272      616E7366 
 12273              	.LASF243:
 12274 0bec 53305F52 		.ascii	"S0_RXFIFOIRQTRG\000"
 12274      58464946 
 12274      4F495251 
 12274      54524700 
 12275              	.LASF151:
 12276 0bfc 7478456D 		.ascii	"txEmpty\000"
 12276      70747900 
 12277              	.LASF93:
 12278 0c04 5F6E696F 		.ascii	"_niobs\000"
 12278      627300
 12279              	.LASF17:
 12280 0c0b 77696E74 		.ascii	"wint_t\000"
 12280      5F7400
 12281              	.LASF283:
 12282 0c12 564F525F 		.ascii	"VOR_IRQ_TIM\000"
 12282      4952515F 
 12282      54494D00 
 12283              	.LASF284:
 12284 0c1e 564F525F 		.ascii	"VOR_IRQ_UART\000"
 12284      4952515F 
 12284      55415254 
 12284      00
 12285              	.LASF128:
 12286 0c2b 696E7433 		.ascii	"int32_t\000"
 12286      325F7400 
 12287              	.LASF176:
 12288 0c33 5253545F 		.ascii	"RST_STAT\000"
 12288      53544154 
 12288      00
 12289              	.LASF245:
 12290 0c3c 53305F46 		.ascii	"S0_FIFO_CLR\000"
 12290      49464F5F 
 12290      434C5200 
ARM GAS  C:\Users\claym\AppData\Local\Temp\ccxpUFUu.s 			page 265


 12291              	.LASF236:
 12292 0c48 53305F53 		.ascii	"S0_STATE\000"
 12292      54415445 
 12292      00
 12293              	.LASF43:
 12294 0c51 5F64736F 		.ascii	"_dso_handle\000"
 12294      5F68616E 
 12294      646C6500 
 12295              	.LASF333:
 12296 0c5d 564F525F 		.ascii	"VOR_Sleep\000"
 12296      536C6565 
 12296      7000
 12297              	.LASF121:
 12298 0c67 5F5F6C6F 		.ascii	"__lock\000"
 12298      636B00
 12299              	.LASF235:
 12300 0c6e 53305F53 		.ascii	"S0_STATUS\000"
 12300      54415455 
 12300      5300
 12301              	.LASF136:
 12302 0c78 54535573 		.ascii	"TSUsta\000"
 12302      746100
 12303              	.LASF298:
 12304 0c7f 706F6C6C 		.ascii	"poll_time\000"
 12304      5F74696D 
 12304      6500
 12305              	.LASF85:
 12306 0c89 5F637674 		.ascii	"_cvtbuf\000"
 12306      62756600 
 12307              	.LASF205:
 12308 0c91 54494D5F 		.ascii	"TIM_CLK_ENABLE\000"
 12308      434C4B5F 
 12308      454E4142 
 12308      4C4500
 12309              	.LASF4:
 12310 0ca0 756E7369 		.ascii	"unsigned char\000"
 12310      676E6564 
 12310      20636861 
 12310      7200
 12311              	.LASF211:
 12312 0cae 45465F49 		.ascii	"EF_ID\000"
 12312      4400
 12313              	.LASF11:
 12314 0cb4 5F5F7569 		.ascii	"__uint32_t\000"
 12314      6E743332 
 12314      5F7400
 12315              	.LASF143:
 12316 0cbf 77616974 		.ascii	"waiting\000"
 12316      696E6700 
 12317              	.LASF217:
 12318 0cc7 574F5244 		.ascii	"WORDS\000"
 12318      5300
 12319              	.LASF266:
 12320 0ccd 72786669 		.ascii	"rxfifotrg\000"
 12320      666F7472 
 12320      6700
 12321              	.LASF138:
ARM GAS  C:\Users\claym\AppData\Local\Temp\ccxpUFUu.s 			page 266


 12322 0cd7 54627566 		.ascii	"Tbuf\000"
 12322      00
 12323              	.LASF111:
 12324 0cdc 5F676574 		.ascii	"_getdate_err\000"
 12324      64617465 
 12324      5F657272 
 12324      00
 12325              	.LASF190:
 12326 0ce9 52414D5F 		.ascii	"RAM_SBE\000"
 12326      53424500 
 12327              	.LASF137:
 12328 0cf1 54484473 		.ascii	"THDsta\000"
 12328      746100
 12329              	.LASF221:
 12330 0cf8 53544154 		.ascii	"STATE\000"
 12330      4500
 12331              	.LASF164:
 12332 0cfe 4D617374 		.ascii	"MasterTransmit\000"
 12332      65725472 
 12332      616E736D 
 12332      697400
 12333              	.LASF204:
 12334 0d0d 54494D5F 		.ascii	"TIM_RESET\000"
 12334      52455345 
 12334      5400
 12335              	.LASF285:
 12336 0d17 564F525F 		.ascii	"VOR_IRQ_SPI\000"
 12336      4952515F 
 12336      53504900 
 12337              	.LASF98:
 12338 0d23 5F616464 		.ascii	"_add\000"
 12338      00
 12339              	.LASF253:
 12340 0d28 63625F65 		.ascii	"cb_event\000"
 12340      76656E74 
 12340      00
 12341              	.LASF303:
 12342 0d31 61646472 		.ascii	"addr\000"
 12342      00
 12343              	.LASF49:
 12344 0d36 5F5F7362 		.ascii	"__sbuf\000"
 12344      756600
 12345              	.LASF210:
 12346 0d3d 45465F43 		.ascii	"EF_CONFIG\000"
 12346      4F4E4649 
 12346      4700
 12347              	.LASF92:
 12348 0d47 5F676C75 		.ascii	"_glue\000"
 12348      6500
 12349              	.LASF153:
 12350 0d4d 74784669 		.ascii	"txFifoTrg\000"
 12350      666F5472 
 12350      6700
 12351              	.LASF278:
 12352 0d57 696E666F 		.ascii	"info\000"
 12352      00
 12353              	.LASF89:
ARM GAS  C:\Users\claym\AppData\Local\Temp\ccxpUFUu.s 			page 267


 12354 0d5c 5F5F7367 		.ascii	"__sglue\000"
 12354      6C756500 
 12355              	.LASF224:
 12356 0d64 52584649 		.ascii	"RXFIFOIRQTRG\000"
 12356      464F4952 
 12356      51545247 
 12356      00
 12357              	.LASF100:
 12358 0d71 5F737472 		.ascii	"_strtok_last\000"
 12358      746F6B5F 
 12358      6C617374 
 12358      00
 12359              	.LASF107:
 12360 0d7e 5F6D6274 		.ascii	"_mbtowc_state\000"
 12360      6F77635F 
 12360      73746174 
 12360      6500
 12361              	.LASF130:
 12362 0d8c 5F564F52 		.ascii	"_VOR_DRIVER_VERSION\000"
 12362      5F445249 
 12362      5645525F 
 12362      56455253 
 12362      494F4E00 
 12363              	.LASF77:
 12364 0da0 5F6C6F63 		.ascii	"_locale\000"
 12364      616C6500 
 12365              	.LASF316:
 12366 0da8 564F525F 		.ascii	"VOR_I2C_DigFilter\000"
 12366      4932435F 
 12366      44696746 
 12366      696C7465 
 12366      7200
 12367              	.LASF296:
 12368 0dba 564F525F 		.ascii	"VOR_I2C_SlaveReceive\000"
 12368      4932435F 
 12368      536C6176 
 12368      65526563 
 12368      65697665 
 12369              	.LASF42:
 12370 0dcf 5F666E61 		.ascii	"_fnargs\000"
 12370      72677300 
 12371              	.LASF3:
 12372 0dd7 7369676E 		.ascii	"signed char\000"
 12372      65642063 
 12372      68617200 
 12373              	.LASF268:
 12374 0de3 636C6B74 		.ascii	"clktolimit\000"
 12374      6F6C696D 
 12374      697400
 12375              	.LASF69:
 12376 0dee 5F726565 		.ascii	"_reent\000"
 12376      6E7400
 12377              	.LASF8:
 12378 0df5 73686F72 		.ascii	"short unsigned int\000"
 12378      7420756E 
 12378      7369676E 
 12378      65642069 
ARM GAS  C:\Users\claym\AppData\Local\Temp\ccxpUFUu.s 			page 268


 12378      6E7400
 12379              	.LASF335:
 12380 0e08 6D656D63 		.ascii	"memcpy\000"
 12380      707900
 12381              	.LASF146:
 12382 0e0f 6E61636B 		.ascii	"nackAddr\000"
 12382      41646472 
 12382      00
 12383              	.LASF44:
 12384 0e18 5F666E74 		.ascii	"_fntypes\000"
 12384      79706573 
 12384      00
 12385              	.LASF226:
 12386 0e21 4649464F 		.ascii	"FIFO_CLR\000"
 12386      5F434C52 
 12386      00
 12387              	.LASF51:
 12388 0e2a 5F73697A 		.ascii	"_size\000"
 12388      6500
 12389              	.LASF271:
 12390 0e30 7278636E 		.ascii	"rxcnt\000"
 12390      7400
 12391              	.LASF242:
 12392 0e36 53305F49 		.ascii	"S0_IRQ_CLR\000"
 12392      52515F43 
 12392      4C5200
 12393              	.LASF15:
 12394 0e41 5F6F6666 		.ascii	"_off_t\000"
 12394      5F7400
 12395              	.LASF220:
 12396 0e48 53544154 		.ascii	"STATUS\000"
 12396      555300
 12397              	.LASF161:
 12398 0e4f 47657456 		.ascii	"GetVersion\000"
 12398      65727369 
 12398      6F6E00
 12399              	.LASF62:
 12400 0e5a 5F6E6275 		.ascii	"_nbuf\000"
 12400      6600
 12401              	.LASF99:
 12402 0e60 5F756E75 		.ascii	"_unused_rand\000"
 12402      7365645F 
 12402      72616E64 
 12402      00
 12403              	.LASF144:
 12404 0e6d 7374616C 		.ascii	"stalled\000"
 12404      6C656400 
 12405              	.LASF247:
 12406 0e75 53305F41 		.ascii	"S0_ADDRESSMASKB\000"
 12406      44445245 
 12406      53534D41 
 12406      534B4200 
 12407              	.LASF76:
 12408 0e85 5F756E73 		.ascii	"_unspecified_locale_info\000"
 12408      70656369 
 12408      66696564 
 12408      5F6C6F63 
ARM GAS  C:\Users\claym\AppData\Local\Temp\ccxpUFUu.s 			page 269


 12408      616C655F 
 12409              	.LASF331:
 12410 0e9e 564F525F 		.ascii	"VOR_Get_SysTime\000"
 12410      4765745F 
 12410      53797354 
 12410      696D6500 
 12411              	.LASF68:
 12412 0eae 5F666C61 		.ascii	"_flags2\000"
 12412      67733200 
 12413              	.LASF45:
 12414 0eb6 5F69735F 		.ascii	"_is_cxa\000"
 12414      63786100 
 12415              	.LASF194:
 12416 0ebe 494F434F 		.ascii	"IOCONFIG_CLKDIV0\000"
 12416      4E464947 
 12416      5F434C4B 
 12416      44495630 
 12416      00
 12417              	.LASF195:
 12418 0ecf 494F434F 		.ascii	"IOCONFIG_CLKDIV1\000"
 12418      4E464947 
 12418      5F434C4B 
 12418      44495631 
 12418      00
 12419              	.LASF196:
 12420 0ee0 494F434F 		.ascii	"IOCONFIG_CLKDIV2\000"
 12420      4E464947 
 12420      5F434C4B 
 12420      44495632 
 12420      00
 12421              	.LASF96:
 12422 0ef1 5F736565 		.ascii	"_seed\000"
 12422      6400
 12423              	.LASF198:
 12424 0ef7 494F434F 		.ascii	"IOCONFIG_CLKDIV4\000"
 12424      4E464947 
 12424      5F434C4B 
 12424      44495634 
 12424      00
 12425              	.LASF104:
 12426 0f08 5F72616E 		.ascii	"_rand_next\000"
 12426      645F6E65 
 12426      787400
 12427              	.LASF200:
 12428 0f13 494F434F 		.ascii	"IOCONFIG_CLKDIV6\000"
 12428      4E464947 
 12428      5F434C4B 
 12428      44495636 
 12428      00
 12429              	.LASF122:
 12430 0f24 5F5F6C6F 		.ascii	"__locale_t\000"
 12430      63616C65 
 12430      5F7400
 12431              	.LASF59:
 12432 0f2f 5F736565 		.ascii	"_seek\000"
 12432      6B00
 12433              	.LASF240:
ARM GAS  C:\Users\claym\AppData\Local\Temp\ccxpUFUu.s 			page 270


 12434 0f35 53305F49 		.ascii	"S0_IRQ_RAW\000"
 12434      52515F52 
 12434      415700
 12435              	.LASF292:
 12436 0f40 6972715F 		.ascii	"irq_end\000"
 12436      656E6400 
 12437              	.LASF73:
 12438 0f48 5F737464 		.ascii	"_stderr\000"
 12438      65727200 
 12439              	.LASF119:
 12440 0f50 5F6E6D61 		.ascii	"_nmalloc\000"
 12440      6C6C6F63 
 12440      00
 12441              	.LASF61:
 12442 0f59 5F756275 		.ascii	"_ubuf\000"
 12442      6600
 12443              	.LASF188:
 12444 0f5f 4952515F 		.ascii	"IRQ_END\000"
 12444      454E4400 
 12445              	.LASF340:
 12446 0f67 2E5C6472 		.ascii	".\\driver\\src\\i2c_va108xx.c\000"
 12446      69766572 
 12446      5C737263 
 12446      5C693263 
 12446      5F766131 
 12447              	.LASF179:
 12448 0f82 524F4D5F 		.ascii	"ROM_PROT\000"
 12448      50524F54 
 12448      00
 12449              	.LASF267:
 12450 0f8b 74786669 		.ascii	"txfifotrg\000"
 12450      666F7472 
 12450      6700
 12451              		.ident	"GCC: (GNU Tools for Arm Embedded Processors 7-2017-q4-major) 7.2.1 20170904 (release) [ARM
ARM GAS  C:\Users\claym\AppData\Local\Temp\ccxpUFUu.s 			page 271


DEFINED SYMBOLS
                            *ABS*:00000000 i2c_va108xx.c
C:\Users\claym\AppData\Local\Temp\ccxpUFUu.s:73     .text:00000000 $t
C:\Users\claym\AppData\Local\Temp\ccxpUFUu.s:79     .text:00000000 VOR_I2C_Setup
C:\Users\claym\AppData\Local\Temp\ccxpUFUu.s:423    .text:00000144 $d
C:\Users\claym\AppData\Local\Temp\ccxpUFUu.s:427    .text:00000148 $t
C:\Users\claym\AppData\Local\Temp\ccxpUFUu.s:433    .text:00000148 VOR_I2C_Stop
C:\Users\claym\AppData\Local\Temp\ccxpUFUu.s:536    .text:00000186 VOR_I2Cx_GetVersion
C:\Users\claym\AppData\Local\Temp\ccxpUFUu.s:568    .text:000001a0 $d
C:\Users\claym\AppData\Local\Temp\ccxpUFUu.s:572    .text:000001a4 $t
C:\Users\claym\AppData\Local\Temp\ccxpUFUu.s:579    .text:000001a4 VOR_I2C_Initialize
C:\Users\claym\AppData\Local\Temp\ccxpUFUu.s:676    .text:000001e4 VOR_I2C_Uninitialize
C:\Users\claym\AppData\Local\Temp\ccxpUFUu.s:727    .text:00000202 VOR_I2C_abort_transfer
C:\Users\claym\AppData\Local\Temp\ccxpUFUu.s:819    .text:0000023a VOR_I2C_Control
C:\Users\claym\AppData\Local\Temp\ccxpUFUu.s:853    .text:00000252 $d
C:\Users\claym\AppData\Local\Temp\ccxpUFUu.s:869    .text:00000262 $t
C:\Users\claym\AppData\Local\Temp\ccxpUFUu.s:1169   .text:00000314 $d
C:\Users\claym\AppData\Local\Temp\ccxpUFUu.s:1175   .text:00000320 $t
C:\Users\claym\AppData\Local\Temp\ccxpUFUu.s:1182   .text:00000320 VOR_I2C_GetStatus
C:\Users\claym\AppData\Local\Temp\ccxpUFUu.s:1407   .text:00000434 VOR_I2C_MasterTransmit
C:\Users\claym\AppData\Local\Temp\ccxpUFUu.s:1856   .text:000005a0 $d
C:\Users\claym\AppData\Local\Temp\ccxpUFUu.s:1860   .text:000005a4 $t
C:\Users\claym\AppData\Local\Temp\ccxpUFUu.s:1867   .text:000005a4 VOR_I2C_MasterReceive
C:\Users\claym\AppData\Local\Temp\ccxpUFUu.s:2231   .text:000006d4 $d
C:\Users\claym\AppData\Local\Temp\ccxpUFUu.s:2235   .text:000006d8 $t
C:\Users\claym\AppData\Local\Temp\ccxpUFUu.s:2242   .text:000006d8 VOR_I2C_SlaveTransmit
C:\Users\claym\AppData\Local\Temp\ccxpUFUu.s:2709   .text:00000854 $d
C:\Users\claym\AppData\Local\Temp\ccxpUFUu.s:2713   .text:00000858 $t
C:\Users\claym\AppData\Local\Temp\ccxpUFUu.s:2720   .text:00000858 VOR_I2C_SlaveReceive
C:\Users\claym\AppData\Local\Temp\ccxpUFUu.s:3034   .text:00000958 $d
C:\Users\claym\AppData\Local\Temp\ccxpUFUu.s:3038   .text:0000095c $t
C:\Users\claym\AppData\Local\Temp\ccxpUFUu.s:3045   .text:0000095c VOR_I2C_MasterHandler
C:\Users\claym\AppData\Local\Temp\ccxpUFUu.s:3472   .text:00000ace VOR_I2C_SlaveHandler
C:\Users\claym\AppData\Local\Temp\ccxpUFUu.s:3877   .text:00000c48 $d
C:\Users\claym\AppData\Local\Temp\ccxpUFUu.s:3881   .text:00000c4c $t
C:\Users\claym\AppData\Local\Temp\ccxpUFUu.s:3888   .text:00000c4c VOR_I2C_GetDataCount
C:\Users\claym\AppData\Local\Temp\ccxpUFUu.s:3936   .data:00000000 I2C1_Resources
C:\Users\claym\AppData\Local\Temp\ccxpUFUu.s:3951   .data:000000e8 I2C0_Resources
C:\Users\claym\AppData\Local\Temp\ccxpUFUu.s:3923   .rodata:00000000 $d
C:\Users\claym\AppData\Local\Temp\ccxpUFUu.s:3927   .rodata:00000000 i2c_driver_version
C:\Users\claym\AppData\Local\Temp\ccxpUFUu.s:3933   .data:00000000 $d

UNDEFINED SYMBOLS
VOR_Sleep
memcpy
memset
VOR_Disable_Irq
__aeabi_uidiv
__gnu_thumb1_case_uqi
VOR_Get_ClockFreq
VOR_Enable_Irq
VOR_Get_SysTime
Driver_I2C1
Driver_I2C0
