ARM GAS  C:\Users\claym\AppData\Local\Temp\cc49Frxo.s 			page 1


   1              		.cpu cortex-m0
   2              		.eabi_attribute 20, 1	@ Tag_ABI_FP_denormal
   3              		.eabi_attribute 21, 1	@ Tag_ABI_FP_exceptions
   4              		.eabi_attribute 23, 3	@ Tag_ABI_FP_number_model
   5              		.eabi_attribute 24, 1	@ Tag_ABI_align8_needed
   6              		.eabi_attribute 25, 1	@ Tag_ABI_align8_preserved
   7              		.eabi_attribute 26, 1	@ Tag_ABI_enum_size
   8              		.eabi_attribute 30, 4	@ Tag_ABI_optimization_goals
   9              		.eabi_attribute 34, 0	@ Tag_CPU_unaligned_access
  10              		.eabi_attribute 18, 4	@ Tag_ABI_PCS_wchar_t
  11              		.file	"i2c_drv_api.c"
  12              	@ GNU C11 (GNU Tools for Arm Embedded Processors 7-2017-q4-major) version 7.2.1 20170904 (release) 
  13              	@	compiled by GNU C version 5.3.1 20160211, GMP version 6.1.0, MPFR version 3.1.4, MPC version 1.0.
  14              	
  15              	@ GGC heuristics: --param ggc-min-expand=100 --param ggc-min-heapsize=131072
  16              	@ options passed:  -I . -I .\common\hdr -I .\driver\hdr -I .\utilities\hdr
  17              	@ -I .\inc -I .\driver\hdr -I .\hdr -imultilib thumb/v6-m
  18              	@ -iprefix c:\program files (x86)\gnu tools arm embedded\7 2017-q4-major\bin\../lib/gcc/arm-none-ea
  19              	@ -isysroot c:\program files (x86)\gnu tools arm embedded\7 2017-q4-major\bin\../arm-none-eabi
  20              	@ -D__USES_INITFINI__ -D RUN_FROM_FLASH=1 .\driver\src\i2c_drv_api.c
  21              	@ -mcpu=cortex-m0 -mthumb -auxbase-strip .\driver\src\i2c_drv_api.o
  22              	@ -gdwarf-2 -Os -Wall -Wstrict-prototypes -fomit-frame-pointer
  23              	@ -fverbose-asm
  24              	@ options enabled:  -faggressive-loop-optimizations -falign-jumps
  25              	@ -falign-labels -falign-loops -fauto-inc-dec -fbranch-count-reg
  26              	@ -fcaller-saves -fchkp-check-incomplete-type -fchkp-check-read
  27              	@ -fchkp-check-write -fchkp-instrument-calls -fchkp-narrow-bounds
  28              	@ -fchkp-optimize -fchkp-store-bounds -fchkp-use-static-bounds
  29              	@ -fchkp-use-static-const-bounds -fchkp-use-wrappers -fcode-hoisting
  30              	@ -fcombine-stack-adjustments -fcommon -fcompare-elim -fcprop-registers
  31              	@ -fcrossjumping -fcse-follow-jumps -fdefer-pop
  32              	@ -fdelete-null-pointer-checks -fdevirtualize -fdevirtualize-speculatively
  33              	@ -fdwarf2-cfi-asm -fearly-inlining -feliminate-unused-debug-types
  34              	@ -fexpensive-optimizations -fforward-propagate -ffp-int-builtin-inexact
  35              	@ -ffunction-cse -fgcse -fgcse-lm -fgnu-runtime -fgnu-unique
  36              	@ -fguess-branch-probability -fhoist-adjacent-loads -fident -fif-conversion
  37              	@ -fif-conversion2 -findirect-inlining -finline -finline-atomics
  38              	@ -finline-functions -finline-functions-called-once
  39              	@ -finline-small-functions -fipa-bit-cp -fipa-cp -fipa-icf
  40              	@ -fipa-icf-functions -fipa-icf-variables -fipa-profile -fipa-pure-const
  41              	@ -fipa-reference -fipa-sra -fipa-vrp -fira-hoist-pressure
  42              	@ -fira-share-save-slots -fira-share-spill-slots
  43              	@ -fisolate-erroneous-paths-dereference -fivopts -fkeep-static-consts
  44              	@ -fleading-underscore -flifetime-dse -flra-remat -flto-odr-type-merging
  45              	@ -fmath-errno -fmerge-constants -fmerge-debug-strings
  46              	@ -fmove-loop-invariants -fomit-frame-pointer -foptimize-sibling-calls
  47              	@ -fpartial-inlining -fpeephole -fpeephole2 -fplt -fprefetch-loop-arrays
  48              	@ -freg-struct-return -freorder-blocks -freorder-functions
  49              	@ -frerun-cse-after-loop -fsched-critical-path-heuristic
  50              	@ -fsched-dep-count-heuristic -fsched-group-heuristic -fsched-interblock
  51              	@ -fsched-last-insn-heuristic -fsched-pressure -fsched-rank-heuristic
  52              	@ -fsched-spec -fsched-spec-insn-heuristic -fsched-stalled-insns-dep
  53              	@ -fschedule-insns2 -fsection-anchors -fsemantic-interposition
  54              	@ -fshow-column -fshrink-wrap -fshrink-wrap-separate -fsigned-zeros
  55              	@ -fsplit-ivs-in-unroller -fsplit-wide-types -fssa-backprop -fssa-phiopt
  56              	@ -fstdarg-opt -fstore-merging -fstrict-aliasing -fstrict-overflow
  57              	@ -fstrict-volatile-bitfields -fsync-libcalls -fthread-jumps
ARM GAS  C:\Users\claym\AppData\Local\Temp\cc49Frxo.s 			page 2


  58              	@ -ftoplevel-reorder -ftrapping-math -ftree-bit-ccp -ftree-builtin-call-dce
  59              	@ -ftree-ccp -ftree-ch -ftree-coalesce-vars -ftree-copy-prop -ftree-cselim
  60              	@ -ftree-dce -ftree-dominator-opts -ftree-dse -ftree-forwprop -ftree-fre
  61              	@ -ftree-loop-if-convert -ftree-loop-im -ftree-loop-ivcanon
  62              	@ -ftree-loop-optimize -ftree-parallelize-loops= -ftree-phiprop -ftree-pre
  63              	@ -ftree-pta -ftree-reassoc -ftree-scev-cprop -ftree-sink -ftree-slsr
  64              	@ -ftree-sra -ftree-switch-conversion -ftree-tail-merge -ftree-ter
  65              	@ -ftree-vrp -funit-at-a-time -fvar-tracking -fvar-tracking-assignments
  66              	@ -fverbose-asm -fzero-initialized-in-bss -mlittle-endian
  67              	@ -mpic-data-is-text-relative -msched-prolog -mthumb
  68              	@ -mvectorize-with-neon-quad
  69              	
  70              		.text
  71              	.Ltext0:
  72              		.cfi_sections	.debug_frame
  73              		.align	1
  74              		.syntax unified
  75              		.code	16
  76              		.thumb_func
  77              		.fpu softvfp
  78              		.type	VOR_I2C0_GetStatus, %function
  79              	VOR_I2C0_GetStatus:
  80              	.LFB42:
  81              		.file 1 ".\\driver\\src\\i2c_drv_api.c"
   1:.\driver\src/i2c_drv_api.c **** /***************************************************************************************
   2:.\driver\src/i2c_drv_api.c ****  * @file     i2c_drv_api.c
   3:.\driver\src/i2c_drv_api.c ****  * @version  V1.0
   4:.\driver\src/i2c_drv_api.c ****  * @date     31. March 2016
   5:.\driver\src/i2c_drv_api.c ****  *
   6:.\driver\src/i2c_drv_api.c ****  * @note
   7:.\driver\src/i2c_drv_api.c ****  * VORAGO Technologies 
   8:.\driver\src/i2c_drv_api.c ****  *
   9:.\driver\src/i2c_drv_api.c ****  * @note
  10:.\driver\src/i2c_drv_api.c ****  * Copyright (c) 2013-2016 VORAGO Technologies. 
  11:.\driver\src/i2c_drv_api.c ****  *
  12:.\driver\src/i2c_drv_api.c ****  * @par
  13:.\driver\src/i2c_drv_api.c ****  * BY DOWNLOADING, INSTALLING OR USING THIS SOFTWARE, YOU AGREE TO BE BOUND BY 
  14:.\driver\src/i2c_drv_api.c ****  * ALL THE TERMS AND CONDITIONS OF THE VORAGO TECHNOLOGIES END USER LICENSE AGREEMENT. 
  15:.\driver\src/i2c_drv_api.c ****  * THIS SOFTWARE IS PROVIDED "AS IS". NO WARRANTIES, WHETHER EXPRESS, IMPLIED
  16:.\driver\src/i2c_drv_api.c ****  * OR STATUTORY, INCLUDING, BUT NOT LIMITED TO, IMPLIED WARRANTIES OF MERCHANTABILITY 
  17:.\driver\src/i2c_drv_api.c ****  * AND FITNESS FOR A PARTICULAR PURPOSE APPLY TO THIS SOFTWARE. VORAGO TECHNOLOGIES 
  18:.\driver\src/i2c_drv_api.c ****  * SHALL NOT, IN ANY CIRCUMSTANCES, BE LIABLE FOR SPECIAL, INCIDENTAL, OR CONSEQUENTIAL 
  19:.\driver\src/i2c_drv_api.c ****  * DAMAGES, FOR ANY REASON WHATSOEVER.
  20:.\driver\src/i2c_drv_api.c ****  *
  21:.\driver\src/i2c_drv_api.c ****  ****************************************************************************************/
  22:.\driver\src/i2c_drv_api.c **** #include "i2c_va108xx.h"
  23:.\driver\src/i2c_drv_api.c **** #include "driver_common.h"
  24:.\driver\src/i2c_drv_api.c **** 
  25:.\driver\src/i2c_drv_api.c **** extern I2C_RESOURCES I2C0_Resources;
  26:.\driver\src/i2c_drv_api.c **** extern I2C_RESOURCES I2C1_Resources;
  27:.\driver\src/i2c_drv_api.c **** 
  28:.\driver\src/i2c_drv_api.c **** 
  29:.\driver\src/i2c_drv_api.c **** /* I2C0 Driver wrapper functions */
  30:.\driver\src/i2c_drv_api.c **** static int32_t VOR_I2C0_Initialize (VOR_I2C_SignalEvent_t cb_event) {
  31:.\driver\src/i2c_drv_api.c ****   return (VOR_I2C_Initialize (cb_event, &I2C0_Resources));
  32:.\driver\src/i2c_drv_api.c **** }
  33:.\driver\src/i2c_drv_api.c **** static int32_t VOR_I2C0_Uninitialize (void) {
ARM GAS  C:\Users\claym\AppData\Local\Temp\cc49Frxo.s 			page 3


  34:.\driver\src/i2c_drv_api.c ****   return (VOR_I2C_Uninitialize (&I2C0_Resources));
  35:.\driver\src/i2c_drv_api.c **** }
  36:.\driver\src/i2c_drv_api.c **** static int32_t VOR_I2C0_MasterTransmit (uint32_t addr, const uint8_t *data, uint32_t num, bool xfer
  37:.\driver\src/i2c_drv_api.c ****   return (VOR_I2C_MasterTransmit (addr, data, num, xfer_pending, &I2C0_Resources));
  38:.\driver\src/i2c_drv_api.c **** }
  39:.\driver\src/i2c_drv_api.c **** static int32_t VOR_I2C0_MasterReceive (uint32_t addr, uint8_t *data, uint32_t num, bool xfer_pendin
  40:.\driver\src/i2c_drv_api.c ****   return (VOR_I2C_MasterReceive (addr, data, num, xfer_pending, &I2C0_Resources));
  41:.\driver\src/i2c_drv_api.c **** }
  42:.\driver\src/i2c_drv_api.c **** static int32_t VOR_I2C0_SlaveTransmit (const uint8_t *data, uint32_t num) {
  43:.\driver\src/i2c_drv_api.c ****   return (VOR_I2C_SlaveTransmit (data, num, &I2C0_Resources));
  44:.\driver\src/i2c_drv_api.c **** }
  45:.\driver\src/i2c_drv_api.c **** static int32_t VOR_I2C0_SlaveReceive (uint8_t *data, uint32_t num) {
  46:.\driver\src/i2c_drv_api.c ****   return (VOR_I2C_SlaveReceive (data, num, &I2C0_Resources));
  47:.\driver\src/i2c_drv_api.c **** }
  48:.\driver\src/i2c_drv_api.c **** static int32_t VOR_I2C0_GetDataCount (void) {
  49:.\driver\src/i2c_drv_api.c ****   return (VOR_I2C_GetDataCount (&I2C0_Resources));
  50:.\driver\src/i2c_drv_api.c **** }
  51:.\driver\src/i2c_drv_api.c **** static int32_t VOR_I2C0_Control (uint32_t control, uint32_t arg) {
  52:.\driver\src/i2c_drv_api.c ****   return (VOR_I2C_Control (control, arg, &I2C0_Resources));
  53:.\driver\src/i2c_drv_api.c **** }
  54:.\driver\src/i2c_drv_api.c **** static VOR_I2C_STATUS VOR_I2C0_GetStatus (void) {
  82              		.loc 1 54 0
  83              		.cfi_startproc
  84              		@ args = 0, pretend = 0, frame = 0
  85              		@ frame_needed = 0, uses_anonymous_args = 0
  86 0000 10B5     		push	{r4, lr}	@
  87              	.LCFI0:
  88              		.cfi_def_cfa_offset 8
  89              		.cfi_offset 4, -8
  90              		.cfi_offset 14, -4
  91              	@ .\driver\src\i2c_drv_api.c:55:   return (VOR_I2C_GetStatus (&I2C0_Resources));
  55:.\driver\src/i2c_drv_api.c ****   return (VOR_I2C_GetStatus (&I2C0_Resources));
  92              		.loc 1 55 0
  93 0002 0248     		ldr	r0, .L2	@,
  94 0004 FFF7FEFF 		bl	VOR_I2C_GetStatus	@
  95              	.LVL0:
  96              	@ .\driver\src\i2c_drv_api.c:56: }
  56:.\driver\src/i2c_drv_api.c **** }
  97              		.loc 1 56 0
  98              		@ sp needed	@
  99 0008 10BD     		pop	{r4, pc}
 100              	.L3:
 101 000a C046     		.align	2
 102              	.L2:
 103 000c 00000000 		.word	I2C0_Resources
 104              		.cfi_endproc
 105              	.LFE42:
 106              		.size	VOR_I2C0_GetStatus, .-VOR_I2C0_GetStatus
 107              		.align	1
 108              		.syntax unified
 109              		.code	16
 110              		.thumb_func
 111              		.fpu softvfp
 112              		.type	VOR_I2C1_GetStatus, %function
 113              	VOR_I2C1_GetStatus:
 114              	.LFB53:
  57:.\driver\src/i2c_drv_api.c **** void VOR_I2C0_MS_IRQHandler (void) {
ARM GAS  C:\Users\claym\AppData\Local\Temp\cc49Frxo.s 			page 4


  58:.\driver\src/i2c_drv_api.c ****   VOR_I2C_MasterHandler (&I2C0_Resources);
  59:.\driver\src/i2c_drv_api.c **** }
  60:.\driver\src/i2c_drv_api.c **** void VOR_I2C0_SL_IRQHandler (void) {
  61:.\driver\src/i2c_drv_api.c ****   VOR_I2C_SlaveHandler (&I2C0_Resources);
  62:.\driver\src/i2c_drv_api.c **** }
  63:.\driver\src/i2c_drv_api.c **** 
  64:.\driver\src/i2c_drv_api.c **** /* I2C0 Driver Control Block */
  65:.\driver\src/i2c_drv_api.c **** VOR_DRIVER_I2C Driver_I2C0 = {
  66:.\driver\src/i2c_drv_api.c ****   VOR_I2Cx_GetVersion,
  67:.\driver\src/i2c_drv_api.c ****   VOR_I2C0_Initialize,
  68:.\driver\src/i2c_drv_api.c ****   VOR_I2C0_Uninitialize,
  69:.\driver\src/i2c_drv_api.c ****   VOR_I2C0_MasterTransmit,
  70:.\driver\src/i2c_drv_api.c ****   VOR_I2C0_MasterReceive,
  71:.\driver\src/i2c_drv_api.c ****   VOR_I2C0_SlaveTransmit,
  72:.\driver\src/i2c_drv_api.c ****   VOR_I2C0_SlaveReceive,
  73:.\driver\src/i2c_drv_api.c ****   VOR_I2C0_GetDataCount,
  74:.\driver\src/i2c_drv_api.c ****   VOR_I2C0_Control,
  75:.\driver\src/i2c_drv_api.c ****   VOR_I2C0_GetStatus
  76:.\driver\src/i2c_drv_api.c **** };
  77:.\driver\src/i2c_drv_api.c **** 
  78:.\driver\src/i2c_drv_api.c **** /* I2C1 Driver wrapper functions */
  79:.\driver\src/i2c_drv_api.c **** static int32_t VOR_I2C1_Initialize (VOR_I2C_SignalEvent_t cb_event) {
  80:.\driver\src/i2c_drv_api.c ****   return (VOR_I2C_Initialize (cb_event, &I2C1_Resources));
  81:.\driver\src/i2c_drv_api.c **** }
  82:.\driver\src/i2c_drv_api.c **** static int32_t VOR_I2C1_Uninitialize (void) {
  83:.\driver\src/i2c_drv_api.c ****   return (VOR_I2C_Uninitialize (&I2C1_Resources));
  84:.\driver\src/i2c_drv_api.c **** }
  85:.\driver\src/i2c_drv_api.c **** static int32_t VOR_I2C1_MasterTransmit (uint32_t addr, const uint8_t *data, uint32_t num, bool xfer
  86:.\driver\src/i2c_drv_api.c ****   return (VOR_I2C_MasterTransmit (addr, data, num, xfer_pending, &I2C1_Resources));
  87:.\driver\src/i2c_drv_api.c **** }
  88:.\driver\src/i2c_drv_api.c **** static int32_t VOR_I2C1_MasterReceive (uint32_t addr, uint8_t *data, uint32_t num, bool xfer_pendin
  89:.\driver\src/i2c_drv_api.c ****   return (VOR_I2C_MasterReceive (addr, data, num, xfer_pending, &I2C1_Resources));
  90:.\driver\src/i2c_drv_api.c **** }
  91:.\driver\src/i2c_drv_api.c **** static int32_t VOR_I2C1_SlaveTransmit (const uint8_t *data, uint32_t num) {
  92:.\driver\src/i2c_drv_api.c ****   return (VOR_I2C_SlaveTransmit (data, num, &I2C1_Resources));
  93:.\driver\src/i2c_drv_api.c **** }
  94:.\driver\src/i2c_drv_api.c **** static int32_t VOR_I2C1_SlaveReceive (uint8_t *data, uint32_t num) {
  95:.\driver\src/i2c_drv_api.c ****   return (VOR_I2C_SlaveReceive (data, num, &I2C1_Resources));
  96:.\driver\src/i2c_drv_api.c **** }
  97:.\driver\src/i2c_drv_api.c **** static int32_t VOR_I2C1_GetDataCount (void) {
  98:.\driver\src/i2c_drv_api.c ****   return (VOR_I2C_GetDataCount (&I2C1_Resources));
  99:.\driver\src/i2c_drv_api.c **** }
 100:.\driver\src/i2c_drv_api.c **** static int32_t VOR_I2C1_Control (uint32_t control, uint32_t arg) {
 101:.\driver\src/i2c_drv_api.c ****   return (VOR_I2C_Control (control, arg, &I2C1_Resources));
 102:.\driver\src/i2c_drv_api.c **** }
 103:.\driver\src/i2c_drv_api.c **** static VOR_I2C_STATUS VOR_I2C1_GetStatus (void) {
 115              		.loc 1 103 0
 116              		.cfi_startproc
 117              		@ args = 0, pretend = 0, frame = 0
 118              		@ frame_needed = 0, uses_anonymous_args = 0
 119 0010 10B5     		push	{r4, lr}	@
 120              	.LCFI1:
 121              		.cfi_def_cfa_offset 8
 122              		.cfi_offset 4, -8
 123              		.cfi_offset 14, -4
 124              	@ .\driver\src\i2c_drv_api.c:104:   return (VOR_I2C_GetStatus (&I2C1_Resources));
 104:.\driver\src/i2c_drv_api.c ****   return (VOR_I2C_GetStatus (&I2C1_Resources));
ARM GAS  C:\Users\claym\AppData\Local\Temp\cc49Frxo.s 			page 5


 125              		.loc 1 104 0
 126 0012 0248     		ldr	r0, .L5	@,
 127 0014 FFF7FEFF 		bl	VOR_I2C_GetStatus	@
 128              	.LVL1:
 129              	@ .\driver\src\i2c_drv_api.c:105: }
 105:.\driver\src/i2c_drv_api.c **** }
 130              		.loc 1 105 0
 131              		@ sp needed	@
 132 0018 10BD     		pop	{r4, pc}
 133              	.L6:
 134 001a C046     		.align	2
 135              	.L5:
 136 001c 00000000 		.word	I2C1_Resources
 137              		.cfi_endproc
 138              	.LFE53:
 139              		.size	VOR_I2C1_GetStatus, .-VOR_I2C1_GetStatus
 140              		.align	1
 141              		.syntax unified
 142              		.code	16
 143              		.thumb_func
 144              		.fpu softvfp
 145              		.type	VOR_I2C0_Control, %function
 146              	VOR_I2C0_Control:
 147              	.LFB41:
  51:.\driver\src/i2c_drv_api.c ****   return (VOR_I2C_Control (control, arg, &I2C0_Resources));
 148              		.loc 1 51 0
 149              		.cfi_startproc
 150              		@ args = 0, pretend = 0, frame = 0
 151              		@ frame_needed = 0, uses_anonymous_args = 0
 152              	.LVL2:
 153 0020 10B5     		push	{r4, lr}	@
 154              	.LCFI2:
 155              		.cfi_def_cfa_offset 8
 156              		.cfi_offset 4, -8
 157              		.cfi_offset 14, -4
 158              	@ .\driver\src\i2c_drv_api.c:52:   return (VOR_I2C_Control (control, arg, &I2C0_Resources));
  52:.\driver\src/i2c_drv_api.c **** }
 159              		.loc 1 52 0
 160 0022 024A     		ldr	r2, .L8	@,
 161 0024 FFF7FEFF 		bl	VOR_I2C_Control	@
 162              	.LVL3:
 163              	@ .\driver\src\i2c_drv_api.c:53: }
  53:.\driver\src/i2c_drv_api.c **** static VOR_I2C_STATUS VOR_I2C0_GetStatus (void) {
 164              		.loc 1 53 0
 165              		@ sp needed	@
 166 0028 10BD     		pop	{r4, pc}
 167              	.L9:
 168 002a C046     		.align	2
 169              	.L8:
 170 002c 00000000 		.word	I2C0_Resources
 171              		.cfi_endproc
 172              	.LFE41:
 173              		.size	VOR_I2C0_Control, .-VOR_I2C0_Control
 174              		.align	1
 175              		.syntax unified
 176              		.code	16
 177              		.thumb_func
ARM GAS  C:\Users\claym\AppData\Local\Temp\cc49Frxo.s 			page 6


 178              		.fpu softvfp
 179              		.type	VOR_I2C1_Control, %function
 180              	VOR_I2C1_Control:
 181              	.LFB52:
 100:.\driver\src/i2c_drv_api.c ****   return (VOR_I2C_Control (control, arg, &I2C1_Resources));
 182              		.loc 1 100 0
 183              		.cfi_startproc
 184              		@ args = 0, pretend = 0, frame = 0
 185              		@ frame_needed = 0, uses_anonymous_args = 0
 186              	.LVL4:
 187 0030 10B5     		push	{r4, lr}	@
 188              	.LCFI3:
 189              		.cfi_def_cfa_offset 8
 190              		.cfi_offset 4, -8
 191              		.cfi_offset 14, -4
 192              	@ .\driver\src\i2c_drv_api.c:101:   return (VOR_I2C_Control (control, arg, &I2C1_Resources));
 101:.\driver\src/i2c_drv_api.c **** }
 193              		.loc 1 101 0
 194 0032 024A     		ldr	r2, .L11	@,
 195 0034 FFF7FEFF 		bl	VOR_I2C_Control	@
 196              	.LVL5:
 197              	@ .\driver\src\i2c_drv_api.c:102: }
 102:.\driver\src/i2c_drv_api.c **** static VOR_I2C_STATUS VOR_I2C1_GetStatus (void) {
 198              		.loc 1 102 0
 199              		@ sp needed	@
 200 0038 10BD     		pop	{r4, pc}
 201              	.L12:
 202 003a C046     		.align	2
 203              	.L11:
 204 003c 00000000 		.word	I2C1_Resources
 205              		.cfi_endproc
 206              	.LFE52:
 207              		.size	VOR_I2C1_Control, .-VOR_I2C1_Control
 208              		.align	1
 209              		.syntax unified
 210              		.code	16
 211              		.thumb_func
 212              		.fpu softvfp
 213              		.type	VOR_I2C0_GetDataCount, %function
 214              	VOR_I2C0_GetDataCount:
 215              	.LFB40:
  48:.\driver\src/i2c_drv_api.c ****   return (VOR_I2C_GetDataCount (&I2C0_Resources));
 216              		.loc 1 48 0
 217              		.cfi_startproc
 218              		@ args = 0, pretend = 0, frame = 0
 219              		@ frame_needed = 0, uses_anonymous_args = 0
 220 0040 10B5     		push	{r4, lr}	@
 221              	.LCFI4:
 222              		.cfi_def_cfa_offset 8
 223              		.cfi_offset 4, -8
 224              		.cfi_offset 14, -4
 225              	@ .\driver\src\i2c_drv_api.c:49:   return (VOR_I2C_GetDataCount (&I2C0_Resources));
  49:.\driver\src/i2c_drv_api.c **** }
 226              		.loc 1 49 0
 227 0042 0248     		ldr	r0, .L14	@,
 228 0044 FFF7FEFF 		bl	VOR_I2C_GetDataCount	@
 229              	.LVL6:
ARM GAS  C:\Users\claym\AppData\Local\Temp\cc49Frxo.s 			page 7


 230              	@ .\driver\src\i2c_drv_api.c:50: }
  50:.\driver\src/i2c_drv_api.c **** static int32_t VOR_I2C0_Control (uint32_t control, uint32_t arg) {
 231              		.loc 1 50 0
 232              		@ sp needed	@
 233 0048 10BD     		pop	{r4, pc}
 234              	.L15:
 235 004a C046     		.align	2
 236              	.L14:
 237 004c 00000000 		.word	I2C0_Resources
 238              		.cfi_endproc
 239              	.LFE40:
 240              		.size	VOR_I2C0_GetDataCount, .-VOR_I2C0_GetDataCount
 241              		.align	1
 242              		.syntax unified
 243              		.code	16
 244              		.thumb_func
 245              		.fpu softvfp
 246              		.type	VOR_I2C1_GetDataCount, %function
 247              	VOR_I2C1_GetDataCount:
 248              	.LFB51:
  97:.\driver\src/i2c_drv_api.c ****   return (VOR_I2C_GetDataCount (&I2C1_Resources));
 249              		.loc 1 97 0
 250              		.cfi_startproc
 251              		@ args = 0, pretend = 0, frame = 0
 252              		@ frame_needed = 0, uses_anonymous_args = 0
 253 0050 10B5     		push	{r4, lr}	@
 254              	.LCFI5:
 255              		.cfi_def_cfa_offset 8
 256              		.cfi_offset 4, -8
 257              		.cfi_offset 14, -4
 258              	@ .\driver\src\i2c_drv_api.c:98:   return (VOR_I2C_GetDataCount (&I2C1_Resources));
  98:.\driver\src/i2c_drv_api.c **** }
 259              		.loc 1 98 0
 260 0052 0248     		ldr	r0, .L17	@,
 261 0054 FFF7FEFF 		bl	VOR_I2C_GetDataCount	@
 262              	.LVL7:
 263              	@ .\driver\src\i2c_drv_api.c:99: }
  99:.\driver\src/i2c_drv_api.c **** static int32_t VOR_I2C1_Control (uint32_t control, uint32_t arg) {
 264              		.loc 1 99 0
 265              		@ sp needed	@
 266 0058 10BD     		pop	{r4, pc}
 267              	.L18:
 268 005a C046     		.align	2
 269              	.L17:
 270 005c 00000000 		.word	I2C1_Resources
 271              		.cfi_endproc
 272              	.LFE51:
 273              		.size	VOR_I2C1_GetDataCount, .-VOR_I2C1_GetDataCount
 274              		.align	1
 275              		.syntax unified
 276              		.code	16
 277              		.thumb_func
 278              		.fpu softvfp
 279              		.type	VOR_I2C0_SlaveReceive, %function
 280              	VOR_I2C0_SlaveReceive:
 281              	.LFB39:
  45:.\driver\src/i2c_drv_api.c ****   return (VOR_I2C_SlaveReceive (data, num, &I2C0_Resources));
ARM GAS  C:\Users\claym\AppData\Local\Temp\cc49Frxo.s 			page 8


 282              		.loc 1 45 0
 283              		.cfi_startproc
 284              		@ args = 0, pretend = 0, frame = 0
 285              		@ frame_needed = 0, uses_anonymous_args = 0
 286              	.LVL8:
 287 0060 10B5     		push	{r4, lr}	@
 288              	.LCFI6:
 289              		.cfi_def_cfa_offset 8
 290              		.cfi_offset 4, -8
 291              		.cfi_offset 14, -4
 292              	@ .\driver\src\i2c_drv_api.c:46:   return (VOR_I2C_SlaveReceive (data, num, &I2C0_Resources));
  46:.\driver\src/i2c_drv_api.c **** }
 293              		.loc 1 46 0
 294 0062 024A     		ldr	r2, .L20	@,
 295 0064 FFF7FEFF 		bl	VOR_I2C_SlaveReceive	@
 296              	.LVL9:
 297              	@ .\driver\src\i2c_drv_api.c:47: }
  47:.\driver\src/i2c_drv_api.c **** static int32_t VOR_I2C0_GetDataCount (void) {
 298              		.loc 1 47 0
 299              		@ sp needed	@
 300 0068 10BD     		pop	{r4, pc}
 301              	.L21:
 302 006a C046     		.align	2
 303              	.L20:
 304 006c 00000000 		.word	I2C0_Resources
 305              		.cfi_endproc
 306              	.LFE39:
 307              		.size	VOR_I2C0_SlaveReceive, .-VOR_I2C0_SlaveReceive
 308              		.align	1
 309              		.syntax unified
 310              		.code	16
 311              		.thumb_func
 312              		.fpu softvfp
 313              		.type	VOR_I2C1_SlaveReceive, %function
 314              	VOR_I2C1_SlaveReceive:
 315              	.LFB50:
  94:.\driver\src/i2c_drv_api.c ****   return (VOR_I2C_SlaveReceive (data, num, &I2C1_Resources));
 316              		.loc 1 94 0
 317              		.cfi_startproc
 318              		@ args = 0, pretend = 0, frame = 0
 319              		@ frame_needed = 0, uses_anonymous_args = 0
 320              	.LVL10:
 321 0070 10B5     		push	{r4, lr}	@
 322              	.LCFI7:
 323              		.cfi_def_cfa_offset 8
 324              		.cfi_offset 4, -8
 325              		.cfi_offset 14, -4
 326              	@ .\driver\src\i2c_drv_api.c:95:   return (VOR_I2C_SlaveReceive (data, num, &I2C1_Resources));
  95:.\driver\src/i2c_drv_api.c **** }
 327              		.loc 1 95 0
 328 0072 024A     		ldr	r2, .L23	@,
 329 0074 FFF7FEFF 		bl	VOR_I2C_SlaveReceive	@
 330              	.LVL11:
 331              	@ .\driver\src\i2c_drv_api.c:96: }
  96:.\driver\src/i2c_drv_api.c **** static int32_t VOR_I2C1_GetDataCount (void) {
 332              		.loc 1 96 0
 333              		@ sp needed	@
ARM GAS  C:\Users\claym\AppData\Local\Temp\cc49Frxo.s 			page 9


 334 0078 10BD     		pop	{r4, pc}
 335              	.L24:
 336 007a C046     		.align	2
 337              	.L23:
 338 007c 00000000 		.word	I2C1_Resources
 339              		.cfi_endproc
 340              	.LFE50:
 341              		.size	VOR_I2C1_SlaveReceive, .-VOR_I2C1_SlaveReceive
 342              		.align	1
 343              		.syntax unified
 344              		.code	16
 345              		.thumb_func
 346              		.fpu softvfp
 347              		.type	VOR_I2C0_SlaveTransmit, %function
 348              	VOR_I2C0_SlaveTransmit:
 349              	.LFB38:
  42:.\driver\src/i2c_drv_api.c ****   return (VOR_I2C_SlaveTransmit (data, num, &I2C0_Resources));
 350              		.loc 1 42 0
 351              		.cfi_startproc
 352              		@ args = 0, pretend = 0, frame = 0
 353              		@ frame_needed = 0, uses_anonymous_args = 0
 354              	.LVL12:
 355 0080 10B5     		push	{r4, lr}	@
 356              	.LCFI8:
 357              		.cfi_def_cfa_offset 8
 358              		.cfi_offset 4, -8
 359              		.cfi_offset 14, -4
 360              	@ .\driver\src\i2c_drv_api.c:43:   return (VOR_I2C_SlaveTransmit (data, num, &I2C0_Resources));
  43:.\driver\src/i2c_drv_api.c **** }
 361              		.loc 1 43 0
 362 0082 024A     		ldr	r2, .L26	@,
 363 0084 FFF7FEFF 		bl	VOR_I2C_SlaveTransmit	@
 364              	.LVL13:
 365              	@ .\driver\src\i2c_drv_api.c:44: }
  44:.\driver\src/i2c_drv_api.c **** static int32_t VOR_I2C0_SlaveReceive (uint8_t *data, uint32_t num) {
 366              		.loc 1 44 0
 367              		@ sp needed	@
 368 0088 10BD     		pop	{r4, pc}
 369              	.L27:
 370 008a C046     		.align	2
 371              	.L26:
 372 008c 00000000 		.word	I2C0_Resources
 373              		.cfi_endproc
 374              	.LFE38:
 375              		.size	VOR_I2C0_SlaveTransmit, .-VOR_I2C0_SlaveTransmit
 376              		.align	1
 377              		.syntax unified
 378              		.code	16
 379              		.thumb_func
 380              		.fpu softvfp
 381              		.type	VOR_I2C1_SlaveTransmit, %function
 382              	VOR_I2C1_SlaveTransmit:
 383              	.LFB49:
  91:.\driver\src/i2c_drv_api.c ****   return (VOR_I2C_SlaveTransmit (data, num, &I2C1_Resources));
 384              		.loc 1 91 0
 385              		.cfi_startproc
 386              		@ args = 0, pretend = 0, frame = 0
ARM GAS  C:\Users\claym\AppData\Local\Temp\cc49Frxo.s 			page 10


 387              		@ frame_needed = 0, uses_anonymous_args = 0
 388              	.LVL14:
 389 0090 10B5     		push	{r4, lr}	@
 390              	.LCFI9:
 391              		.cfi_def_cfa_offset 8
 392              		.cfi_offset 4, -8
 393              		.cfi_offset 14, -4
 394              	@ .\driver\src\i2c_drv_api.c:92:   return (VOR_I2C_SlaveTransmit (data, num, &I2C1_Resources));
  92:.\driver\src/i2c_drv_api.c **** }
 395              		.loc 1 92 0
 396 0092 024A     		ldr	r2, .L29	@,
 397 0094 FFF7FEFF 		bl	VOR_I2C_SlaveTransmit	@
 398              	.LVL15:
 399              	@ .\driver\src\i2c_drv_api.c:93: }
  93:.\driver\src/i2c_drv_api.c **** static int32_t VOR_I2C1_SlaveReceive (uint8_t *data, uint32_t num) {
 400              		.loc 1 93 0
 401              		@ sp needed	@
 402 0098 10BD     		pop	{r4, pc}
 403              	.L30:
 404 009a C046     		.align	2
 405              	.L29:
 406 009c 00000000 		.word	I2C1_Resources
 407              		.cfi_endproc
 408              	.LFE49:
 409              		.size	VOR_I2C1_SlaveTransmit, .-VOR_I2C1_SlaveTransmit
 410              		.align	1
 411              		.syntax unified
 412              		.code	16
 413              		.thumb_func
 414              		.fpu softvfp
 415              		.type	VOR_I2C0_MasterReceive, %function
 416              	VOR_I2C0_MasterReceive:
 417              	.LFB37:
  39:.\driver\src/i2c_drv_api.c ****   return (VOR_I2C_MasterReceive (addr, data, num, xfer_pending, &I2C0_Resources));
 418              		.loc 1 39 0
 419              		.cfi_startproc
 420              		@ args = 0, pretend = 0, frame = 0
 421              		@ frame_needed = 0, uses_anonymous_args = 0
 422              	.LVL16:
 423 00a0 13B5     		push	{r0, r1, r4, lr}	@
 424              	.LCFI10:
 425              		.cfi_def_cfa_offset 16
 426              		.cfi_offset 0, -16
 427              		.cfi_offset 1, -12
 428              		.cfi_offset 4, -8
 429              		.cfi_offset 14, -4
 430              	@ .\driver\src\i2c_drv_api.c:40:   return (VOR_I2C_MasterReceive (addr, data, num, xfer_pending, &I
  40:.\driver\src/i2c_drv_api.c **** }
 431              		.loc 1 40 0
 432 00a2 024C     		ldr	r4, .L32	@ tmp115,
 433              	@ .\driver\src\i2c_drv_api.c:41: }
  41:.\driver\src/i2c_drv_api.c **** static int32_t VOR_I2C0_SlaveTransmit (const uint8_t *data, uint32_t num) {
 434              		.loc 1 41 0
 435              		@ sp needed	@
 436              	@ .\driver\src\i2c_drv_api.c:40:   return (VOR_I2C_MasterReceive (addr, data, num, xfer_pending, &I
  40:.\driver\src/i2c_drv_api.c **** }
 437              		.loc 1 40 0
ARM GAS  C:\Users\claym\AppData\Local\Temp\cc49Frxo.s 			page 11


 438 00a4 0094     		str	r4, [sp]	@ tmp115,
 439 00a6 FFF7FEFF 		bl	VOR_I2C_MasterReceive	@
 440              	.LVL17:
 441              	@ .\driver\src\i2c_drv_api.c:41: }
  41:.\driver\src/i2c_drv_api.c **** static int32_t VOR_I2C0_SlaveTransmit (const uint8_t *data, uint32_t num) {
 442              		.loc 1 41 0
 443 00aa 16BD     		pop	{r1, r2, r4, pc}
 444              	.L33:
 445              		.align	2
 446              	.L32:
 447 00ac 00000000 		.word	I2C0_Resources
 448              		.cfi_endproc
 449              	.LFE37:
 450              		.size	VOR_I2C0_MasterReceive, .-VOR_I2C0_MasterReceive
 451              		.align	1
 452              		.syntax unified
 453              		.code	16
 454              		.thumb_func
 455              		.fpu softvfp
 456              		.type	VOR_I2C1_MasterReceive, %function
 457              	VOR_I2C1_MasterReceive:
 458              	.LFB48:
  88:.\driver\src/i2c_drv_api.c ****   return (VOR_I2C_MasterReceive (addr, data, num, xfer_pending, &I2C1_Resources));
 459              		.loc 1 88 0
 460              		.cfi_startproc
 461              		@ args = 0, pretend = 0, frame = 0
 462              		@ frame_needed = 0, uses_anonymous_args = 0
 463              	.LVL18:
 464 00b0 13B5     		push	{r0, r1, r4, lr}	@
 465              	.LCFI11:
 466              		.cfi_def_cfa_offset 16
 467              		.cfi_offset 0, -16
 468              		.cfi_offset 1, -12
 469              		.cfi_offset 4, -8
 470              		.cfi_offset 14, -4
 471              	@ .\driver\src\i2c_drv_api.c:89:   return (VOR_I2C_MasterReceive (addr, data, num, xfer_pending, &I
  89:.\driver\src/i2c_drv_api.c **** }
 472              		.loc 1 89 0
 473 00b2 024C     		ldr	r4, .L35	@ tmp115,
 474              	@ .\driver\src\i2c_drv_api.c:90: }
  90:.\driver\src/i2c_drv_api.c **** static int32_t VOR_I2C1_SlaveTransmit (const uint8_t *data, uint32_t num) {
 475              		.loc 1 90 0
 476              		@ sp needed	@
 477              	@ .\driver\src\i2c_drv_api.c:89:   return (VOR_I2C_MasterReceive (addr, data, num, xfer_pending, &I
  89:.\driver\src/i2c_drv_api.c **** }
 478              		.loc 1 89 0
 479 00b4 0094     		str	r4, [sp]	@ tmp115,
 480 00b6 FFF7FEFF 		bl	VOR_I2C_MasterReceive	@
 481              	.LVL19:
 482              	@ .\driver\src\i2c_drv_api.c:90: }
  90:.\driver\src/i2c_drv_api.c **** static int32_t VOR_I2C1_SlaveTransmit (const uint8_t *data, uint32_t num) {
 483              		.loc 1 90 0
 484 00ba 16BD     		pop	{r1, r2, r4, pc}
 485              	.L36:
 486              		.align	2
 487              	.L35:
 488 00bc 00000000 		.word	I2C1_Resources
ARM GAS  C:\Users\claym\AppData\Local\Temp\cc49Frxo.s 			page 12


 489              		.cfi_endproc
 490              	.LFE48:
 491              		.size	VOR_I2C1_MasterReceive, .-VOR_I2C1_MasterReceive
 492              		.align	1
 493              		.syntax unified
 494              		.code	16
 495              		.thumb_func
 496              		.fpu softvfp
 497              		.type	VOR_I2C0_MasterTransmit, %function
 498              	VOR_I2C0_MasterTransmit:
 499              	.LFB36:
  36:.\driver\src/i2c_drv_api.c ****   return (VOR_I2C_MasterTransmit (addr, data, num, xfer_pending, &I2C0_Resources));
 500              		.loc 1 36 0
 501              		.cfi_startproc
 502              		@ args = 0, pretend = 0, frame = 0
 503              		@ frame_needed = 0, uses_anonymous_args = 0
 504              	.LVL20:
 505 00c0 13B5     		push	{r0, r1, r4, lr}	@
 506              	.LCFI12:
 507              		.cfi_def_cfa_offset 16
 508              		.cfi_offset 0, -16
 509              		.cfi_offset 1, -12
 510              		.cfi_offset 4, -8
 511              		.cfi_offset 14, -4
 512              	@ .\driver\src\i2c_drv_api.c:37:   return (VOR_I2C_MasterTransmit (addr, data, num, xfer_pending, &
  37:.\driver\src/i2c_drv_api.c **** }
 513              		.loc 1 37 0
 514 00c2 024C     		ldr	r4, .L38	@ tmp115,
 515              	@ .\driver\src\i2c_drv_api.c:38: }
  38:.\driver\src/i2c_drv_api.c **** static int32_t VOR_I2C0_MasterReceive (uint32_t addr, uint8_t *data, uint32_t num, bool xfer_pendin
 516              		.loc 1 38 0
 517              		@ sp needed	@
 518              	@ .\driver\src\i2c_drv_api.c:37:   return (VOR_I2C_MasterTransmit (addr, data, num, xfer_pending, &
  37:.\driver\src/i2c_drv_api.c **** }
 519              		.loc 1 37 0
 520 00c4 0094     		str	r4, [sp]	@ tmp115,
 521 00c6 FFF7FEFF 		bl	VOR_I2C_MasterTransmit	@
 522              	.LVL21:
 523              	@ .\driver\src\i2c_drv_api.c:38: }
  38:.\driver\src/i2c_drv_api.c **** static int32_t VOR_I2C0_MasterReceive (uint32_t addr, uint8_t *data, uint32_t num, bool xfer_pendin
 524              		.loc 1 38 0
 525 00ca 16BD     		pop	{r1, r2, r4, pc}
 526              	.L39:
 527              		.align	2
 528              	.L38:
 529 00cc 00000000 		.word	I2C0_Resources
 530              		.cfi_endproc
 531              	.LFE36:
 532              		.size	VOR_I2C0_MasterTransmit, .-VOR_I2C0_MasterTransmit
 533              		.align	1
 534              		.syntax unified
 535              		.code	16
 536              		.thumb_func
 537              		.fpu softvfp
 538              		.type	VOR_I2C1_MasterTransmit, %function
 539              	VOR_I2C1_MasterTransmit:
 540              	.LFB47:
ARM GAS  C:\Users\claym\AppData\Local\Temp\cc49Frxo.s 			page 13


  85:.\driver\src/i2c_drv_api.c ****   return (VOR_I2C_MasterTransmit (addr, data, num, xfer_pending, &I2C1_Resources));
 541              		.loc 1 85 0
 542              		.cfi_startproc
 543              		@ args = 0, pretend = 0, frame = 0
 544              		@ frame_needed = 0, uses_anonymous_args = 0
 545              	.LVL22:
 546 00d0 13B5     		push	{r0, r1, r4, lr}	@
 547              	.LCFI13:
 548              		.cfi_def_cfa_offset 16
 549              		.cfi_offset 0, -16
 550              		.cfi_offset 1, -12
 551              		.cfi_offset 4, -8
 552              		.cfi_offset 14, -4
 553              	@ .\driver\src\i2c_drv_api.c:86:   return (VOR_I2C_MasterTransmit (addr, data, num, xfer_pending, &
  86:.\driver\src/i2c_drv_api.c **** }
 554              		.loc 1 86 0
 555 00d2 024C     		ldr	r4, .L41	@ tmp115,
 556              	@ .\driver\src\i2c_drv_api.c:87: }
  87:.\driver\src/i2c_drv_api.c **** static int32_t VOR_I2C1_MasterReceive (uint32_t addr, uint8_t *data, uint32_t num, bool xfer_pendin
 557              		.loc 1 87 0
 558              		@ sp needed	@
 559              	@ .\driver\src\i2c_drv_api.c:86:   return (VOR_I2C_MasterTransmit (addr, data, num, xfer_pending, &
  86:.\driver\src/i2c_drv_api.c **** }
 560              		.loc 1 86 0
 561 00d4 0094     		str	r4, [sp]	@ tmp115,
 562 00d6 FFF7FEFF 		bl	VOR_I2C_MasterTransmit	@
 563              	.LVL23:
 564              	@ .\driver\src\i2c_drv_api.c:87: }
  87:.\driver\src/i2c_drv_api.c **** static int32_t VOR_I2C1_MasterReceive (uint32_t addr, uint8_t *data, uint32_t num, bool xfer_pendin
 565              		.loc 1 87 0
 566 00da 16BD     		pop	{r1, r2, r4, pc}
 567              	.L42:
 568              		.align	2
 569              	.L41:
 570 00dc 00000000 		.word	I2C1_Resources
 571              		.cfi_endproc
 572              	.LFE47:
 573              		.size	VOR_I2C1_MasterTransmit, .-VOR_I2C1_MasterTransmit
 574              		.align	1
 575              		.syntax unified
 576              		.code	16
 577              		.thumb_func
 578              		.fpu softvfp
 579              		.type	VOR_I2C0_Uninitialize, %function
 580              	VOR_I2C0_Uninitialize:
 581              	.LFB35:
  33:.\driver\src/i2c_drv_api.c ****   return (VOR_I2C_Uninitialize (&I2C0_Resources));
 582              		.loc 1 33 0
 583              		.cfi_startproc
 584              		@ args = 0, pretend = 0, frame = 0
 585              		@ frame_needed = 0, uses_anonymous_args = 0
 586 00e0 10B5     		push	{r4, lr}	@
 587              	.LCFI14:
 588              		.cfi_def_cfa_offset 8
 589              		.cfi_offset 4, -8
 590              		.cfi_offset 14, -4
 591              	@ .\driver\src\i2c_drv_api.c:34:   return (VOR_I2C_Uninitialize (&I2C0_Resources));
ARM GAS  C:\Users\claym\AppData\Local\Temp\cc49Frxo.s 			page 14


  34:.\driver\src/i2c_drv_api.c **** }
 592              		.loc 1 34 0
 593 00e2 0248     		ldr	r0, .L44	@,
 594 00e4 FFF7FEFF 		bl	VOR_I2C_Uninitialize	@
 595              	.LVL24:
 596              	@ .\driver\src\i2c_drv_api.c:35: }
  35:.\driver\src/i2c_drv_api.c **** static int32_t VOR_I2C0_MasterTransmit (uint32_t addr, const uint8_t *data, uint32_t num, bool xfer
 597              		.loc 1 35 0
 598              		@ sp needed	@
 599 00e8 10BD     		pop	{r4, pc}
 600              	.L45:
 601 00ea C046     		.align	2
 602              	.L44:
 603 00ec 00000000 		.word	I2C0_Resources
 604              		.cfi_endproc
 605              	.LFE35:
 606              		.size	VOR_I2C0_Uninitialize, .-VOR_I2C0_Uninitialize
 607              		.align	1
 608              		.syntax unified
 609              		.code	16
 610              		.thumb_func
 611              		.fpu softvfp
 612              		.type	VOR_I2C1_Uninitialize, %function
 613              	VOR_I2C1_Uninitialize:
 614              	.LFB46:
  82:.\driver\src/i2c_drv_api.c ****   return (VOR_I2C_Uninitialize (&I2C1_Resources));
 615              		.loc 1 82 0
 616              		.cfi_startproc
 617              		@ args = 0, pretend = 0, frame = 0
 618              		@ frame_needed = 0, uses_anonymous_args = 0
 619 00f0 10B5     		push	{r4, lr}	@
 620              	.LCFI15:
 621              		.cfi_def_cfa_offset 8
 622              		.cfi_offset 4, -8
 623              		.cfi_offset 14, -4
 624              	@ .\driver\src\i2c_drv_api.c:83:   return (VOR_I2C_Uninitialize (&I2C1_Resources));
  83:.\driver\src/i2c_drv_api.c **** }
 625              		.loc 1 83 0
 626 00f2 0248     		ldr	r0, .L47	@,
 627 00f4 FFF7FEFF 		bl	VOR_I2C_Uninitialize	@
 628              	.LVL25:
 629              	@ .\driver\src\i2c_drv_api.c:84: }
  84:.\driver\src/i2c_drv_api.c **** static int32_t VOR_I2C1_MasterTransmit (uint32_t addr, const uint8_t *data, uint32_t num, bool xfer
 630              		.loc 1 84 0
 631              		@ sp needed	@
 632 00f8 10BD     		pop	{r4, pc}
 633              	.L48:
 634 00fa C046     		.align	2
 635              	.L47:
 636 00fc 00000000 		.word	I2C1_Resources
 637              		.cfi_endproc
 638              	.LFE46:
 639              		.size	VOR_I2C1_Uninitialize, .-VOR_I2C1_Uninitialize
 640              		.align	1
 641              		.syntax unified
 642              		.code	16
 643              		.thumb_func
ARM GAS  C:\Users\claym\AppData\Local\Temp\cc49Frxo.s 			page 15


 644              		.fpu softvfp
 645              		.type	VOR_I2C0_Initialize, %function
 646              	VOR_I2C0_Initialize:
 647              	.LFB34:
  30:.\driver\src/i2c_drv_api.c ****   return (VOR_I2C_Initialize (cb_event, &I2C0_Resources));
 648              		.loc 1 30 0
 649              		.cfi_startproc
 650              		@ args = 0, pretend = 0, frame = 0
 651              		@ frame_needed = 0, uses_anonymous_args = 0
 652              	.LVL26:
 653 0100 10B5     		push	{r4, lr}	@
 654              	.LCFI16:
 655              		.cfi_def_cfa_offset 8
 656              		.cfi_offset 4, -8
 657              		.cfi_offset 14, -4
 658              	@ .\driver\src\i2c_drv_api.c:31:   return (VOR_I2C_Initialize (cb_event, &I2C0_Resources));
  31:.\driver\src/i2c_drv_api.c **** }
 659              		.loc 1 31 0
 660 0102 0249     		ldr	r1, .L50	@,
 661 0104 FFF7FEFF 		bl	VOR_I2C_Initialize	@
 662              	.LVL27:
 663              	@ .\driver\src\i2c_drv_api.c:32: }
  32:.\driver\src/i2c_drv_api.c **** static int32_t VOR_I2C0_Uninitialize (void) {
 664              		.loc 1 32 0
 665              		@ sp needed	@
 666 0108 10BD     		pop	{r4, pc}
 667              	.L51:
 668 010a C046     		.align	2
 669              	.L50:
 670 010c 00000000 		.word	I2C0_Resources
 671              		.cfi_endproc
 672              	.LFE34:
 673              		.size	VOR_I2C0_Initialize, .-VOR_I2C0_Initialize
 674              		.align	1
 675              		.syntax unified
 676              		.code	16
 677              		.thumb_func
 678              		.fpu softvfp
 679              		.type	VOR_I2C1_Initialize, %function
 680              	VOR_I2C1_Initialize:
 681              	.LFB45:
  79:.\driver\src/i2c_drv_api.c ****   return (VOR_I2C_Initialize (cb_event, &I2C1_Resources));
 682              		.loc 1 79 0
 683              		.cfi_startproc
 684              		@ args = 0, pretend = 0, frame = 0
 685              		@ frame_needed = 0, uses_anonymous_args = 0
 686              	.LVL28:
 687 0110 10B5     		push	{r4, lr}	@
 688              	.LCFI17:
 689              		.cfi_def_cfa_offset 8
 690              		.cfi_offset 4, -8
 691              		.cfi_offset 14, -4
 692              	@ .\driver\src\i2c_drv_api.c:80:   return (VOR_I2C_Initialize (cb_event, &I2C1_Resources));
  80:.\driver\src/i2c_drv_api.c **** }
 693              		.loc 1 80 0
 694 0112 0249     		ldr	r1, .L53	@,
 695 0114 FFF7FEFF 		bl	VOR_I2C_Initialize	@
ARM GAS  C:\Users\claym\AppData\Local\Temp\cc49Frxo.s 			page 16


 696              	.LVL29:
 697              	@ .\driver\src\i2c_drv_api.c:81: }
  81:.\driver\src/i2c_drv_api.c **** static int32_t VOR_I2C1_Uninitialize (void) {
 698              		.loc 1 81 0
 699              		@ sp needed	@
 700 0118 10BD     		pop	{r4, pc}
 701              	.L54:
 702 011a C046     		.align	2
 703              	.L53:
 704 011c 00000000 		.word	I2C1_Resources
 705              		.cfi_endproc
 706              	.LFE45:
 707              		.size	VOR_I2C1_Initialize, .-VOR_I2C1_Initialize
 708              		.align	1
 709              		.global	VOR_I2C0_MS_IRQHandler
 710              		.syntax unified
 711              		.code	16
 712              		.thumb_func
 713              		.fpu softvfp
 714              		.type	VOR_I2C0_MS_IRQHandler, %function
 715              	VOR_I2C0_MS_IRQHandler:
 716              	.LFB43:
  57:.\driver\src/i2c_drv_api.c ****   VOR_I2C_MasterHandler (&I2C0_Resources);
 717              		.loc 1 57 0
 718              		.cfi_startproc
 719              		@ args = 0, pretend = 0, frame = 0
 720              		@ frame_needed = 0, uses_anonymous_args = 0
 721 0120 10B5     		push	{r4, lr}	@
 722              	.LCFI18:
 723              		.cfi_def_cfa_offset 8
 724              		.cfi_offset 4, -8
 725              		.cfi_offset 14, -4
 726              	@ .\driver\src\i2c_drv_api.c:58:   VOR_I2C_MasterHandler (&I2C0_Resources);
  58:.\driver\src/i2c_drv_api.c **** }
 727              		.loc 1 58 0
 728 0122 0248     		ldr	r0, .L56	@,
 729 0124 FFF7FEFF 		bl	VOR_I2C_MasterHandler	@
 730              	.LVL30:
 731              	@ .\driver\src\i2c_drv_api.c:59: }
  59:.\driver\src/i2c_drv_api.c **** void VOR_I2C0_SL_IRQHandler (void) {
 732              		.loc 1 59 0
 733              		@ sp needed	@
 734 0128 10BD     		pop	{r4, pc}
 735              	.L57:
 736 012a C046     		.align	2
 737              	.L56:
 738 012c 00000000 		.word	I2C0_Resources
 739              		.cfi_endproc
 740              	.LFE43:
 741              		.size	VOR_I2C0_MS_IRQHandler, .-VOR_I2C0_MS_IRQHandler
 742              		.align	1
 743              		.global	VOR_I2C0_SL_IRQHandler
 744              		.syntax unified
 745              		.code	16
 746              		.thumb_func
 747              		.fpu softvfp
 748              		.type	VOR_I2C0_SL_IRQHandler, %function
ARM GAS  C:\Users\claym\AppData\Local\Temp\cc49Frxo.s 			page 17


 749              	VOR_I2C0_SL_IRQHandler:
 750              	.LFB44:
  60:.\driver\src/i2c_drv_api.c ****   VOR_I2C_SlaveHandler (&I2C0_Resources);
 751              		.loc 1 60 0
 752              		.cfi_startproc
 753              		@ args = 0, pretend = 0, frame = 0
 754              		@ frame_needed = 0, uses_anonymous_args = 0
 755 0130 10B5     		push	{r4, lr}	@
 756              	.LCFI19:
 757              		.cfi_def_cfa_offset 8
 758              		.cfi_offset 4, -8
 759              		.cfi_offset 14, -4
 760              	@ .\driver\src\i2c_drv_api.c:61:   VOR_I2C_SlaveHandler (&I2C0_Resources);
  61:.\driver\src/i2c_drv_api.c **** }
 761              		.loc 1 61 0
 762 0132 0248     		ldr	r0, .L59	@,
 763 0134 FFF7FEFF 		bl	VOR_I2C_SlaveHandler	@
 764              	.LVL31:
 765              	@ .\driver\src\i2c_drv_api.c:62: }
  62:.\driver\src/i2c_drv_api.c **** 
 766              		.loc 1 62 0
 767              		@ sp needed	@
 768 0138 10BD     		pop	{r4, pc}
 769              	.L60:
 770 013a C046     		.align	2
 771              	.L59:
 772 013c 00000000 		.word	I2C0_Resources
 773              		.cfi_endproc
 774              	.LFE44:
 775              		.size	VOR_I2C0_SL_IRQHandler, .-VOR_I2C0_SL_IRQHandler
 776              		.align	1
 777              		.global	VOR_I2C1_MS_IRQHandler
 778              		.syntax unified
 779              		.code	16
 780              		.thumb_func
 781              		.fpu softvfp
 782              		.type	VOR_I2C1_MS_IRQHandler, %function
 783              	VOR_I2C1_MS_IRQHandler:
 784              	.LFB54:
 106:.\driver\src/i2c_drv_api.c **** void VOR_I2C1_MS_IRQHandler (void) {
 785              		.loc 1 106 0
 786              		.cfi_startproc
 787              		@ args = 0, pretend = 0, frame = 0
 788              		@ frame_needed = 0, uses_anonymous_args = 0
 789 0140 10B5     		push	{r4, lr}	@
 790              	.LCFI20:
 791              		.cfi_def_cfa_offset 8
 792              		.cfi_offset 4, -8
 793              		.cfi_offset 14, -4
 794              	@ .\driver\src\i2c_drv_api.c:107:   VOR_I2C_MasterHandler (&I2C1_Resources);
 107:.\driver\src/i2c_drv_api.c ****   VOR_I2C_MasterHandler (&I2C1_Resources);
 795              		.loc 1 107 0
 796 0142 0248     		ldr	r0, .L62	@,
 797 0144 FFF7FEFF 		bl	VOR_I2C_MasterHandler	@
 798              	.LVL32:
 799              	@ .\driver\src\i2c_drv_api.c:108: }
 108:.\driver\src/i2c_drv_api.c **** }
ARM GAS  C:\Users\claym\AppData\Local\Temp\cc49Frxo.s 			page 18


 800              		.loc 1 108 0
 801              		@ sp needed	@
 802 0148 10BD     		pop	{r4, pc}
 803              	.L63:
 804 014a C046     		.align	2
 805              	.L62:
 806 014c 00000000 		.word	I2C1_Resources
 807              		.cfi_endproc
 808              	.LFE54:
 809              		.size	VOR_I2C1_MS_IRQHandler, .-VOR_I2C1_MS_IRQHandler
 810              		.align	1
 811              		.global	VOR_I2C1_SL_IRQHandler
 812              		.syntax unified
 813              		.code	16
 814              		.thumb_func
 815              		.fpu softvfp
 816              		.type	VOR_I2C1_SL_IRQHandler, %function
 817              	VOR_I2C1_SL_IRQHandler:
 818              	.LFB55:
 109:.\driver\src/i2c_drv_api.c **** void VOR_I2C1_SL_IRQHandler (void) {
 819              		.loc 1 109 0
 820              		.cfi_startproc
 821              		@ args = 0, pretend = 0, frame = 0
 822              		@ frame_needed = 0, uses_anonymous_args = 0
 823 0150 10B5     		push	{r4, lr}	@
 824              	.LCFI21:
 825              		.cfi_def_cfa_offset 8
 826              		.cfi_offset 4, -8
 827              		.cfi_offset 14, -4
 828              	@ .\driver\src\i2c_drv_api.c:110:   VOR_I2C_SlaveHandler (&I2C1_Resources);
 110:.\driver\src/i2c_drv_api.c ****   VOR_I2C_SlaveHandler (&I2C1_Resources);
 829              		.loc 1 110 0
 830 0152 0248     		ldr	r0, .L65	@,
 831 0154 FFF7FEFF 		bl	VOR_I2C_SlaveHandler	@
 832              	.LVL33:
 833              	@ .\driver\src\i2c_drv_api.c:111: }
 111:.\driver\src/i2c_drv_api.c **** }
 834              		.loc 1 111 0
 835              		@ sp needed	@
 836 0158 10BD     		pop	{r4, pc}
 837              	.L66:
 838 015a C046     		.align	2
 839              	.L65:
 840 015c 00000000 		.word	I2C1_Resources
 841              		.cfi_endproc
 842              	.LFE55:
 843              		.size	VOR_I2C1_SL_IRQHandler, .-VOR_I2C1_SL_IRQHandler
 844              		.global	Driver_I2C1
 845              		.global	Driver_I2C0
 846              		.data
 847              		.align	2
 848              		.type	Driver_I2C1, %object
 849              		.size	Driver_I2C1, 40
 850              	Driver_I2C1:
 851              	@ GetVersion:
 852 0000 00000000 		.word	VOR_I2Cx_GetVersion
 853              	@ Initialize:
ARM GAS  C:\Users\claym\AppData\Local\Temp\cc49Frxo.s 			page 19


 854 0004 00000000 		.word	VOR_I2C1_Initialize
 855              	@ Uninitialize:
 856 0008 00000000 		.word	VOR_I2C1_Uninitialize
 857              	@ MasterTransmit:
 858 000c 00000000 		.word	VOR_I2C1_MasterTransmit
 859              	@ MasterReceive:
 860 0010 00000000 		.word	VOR_I2C1_MasterReceive
 861              	@ SlaveTransmit:
 862 0014 00000000 		.word	VOR_I2C1_SlaveTransmit
 863              	@ SlaveReceive:
 864 0018 00000000 		.word	VOR_I2C1_SlaveReceive
 865              	@ GetDataCount:
 866 001c 00000000 		.word	VOR_I2C1_GetDataCount
 867              	@ Control:
 868 0020 00000000 		.word	VOR_I2C1_Control
 869              	@ GetStatus:
 870 0024 00000000 		.word	VOR_I2C1_GetStatus
 871              		.type	Driver_I2C0, %object
 872              		.size	Driver_I2C0, 40
 873              	Driver_I2C0:
 874              	@ GetVersion:
 875 0028 00000000 		.word	VOR_I2Cx_GetVersion
 876              	@ Initialize:
 877 002c 00000000 		.word	VOR_I2C0_Initialize
 878              	@ Uninitialize:
 879 0030 00000000 		.word	VOR_I2C0_Uninitialize
 880              	@ MasterTransmit:
 881 0034 00000000 		.word	VOR_I2C0_MasterTransmit
 882              	@ MasterReceive:
 883 0038 00000000 		.word	VOR_I2C0_MasterReceive
 884              	@ SlaveTransmit:
 885 003c 00000000 		.word	VOR_I2C0_SlaveTransmit
 886              	@ SlaveReceive:
 887 0040 00000000 		.word	VOR_I2C0_SlaveReceive
 888              	@ GetDataCount:
 889 0044 00000000 		.word	VOR_I2C0_GetDataCount
 890              	@ Control:
 891 0048 00000000 		.word	VOR_I2C0_Control
 892              	@ GetStatus:
 893 004c 00000000 		.word	VOR_I2C0_GetStatus
 894              		.text
 895              	.Letext0:
 896              		.file 2 "c:\\program files (x86)\\gnu tools arm embedded\\7 2017-q4-major\\arm-none-eabi\\include\
 897              		.file 3 "c:\\program files (x86)\\gnu tools arm embedded\\7 2017-q4-major\\arm-none-eabi\\include\
 898              		.file 4 ".\\driver\\hdr/driver_common.h"
 899              		.file 5 ".\\driver\\hdr/driver_i2c.h"
 900              		.file 6 ".\\common\\hdr/system_va108xx.h"
 901              		.file 7 ".\\common\\hdr/va108xx.h"
 902              		.file 8 ".\\driver\\hdr/i2c_va108xx.h"