ARM GAS  C:\Users\claym\AppData\Local\Temp\cctQKk9X.s 			page 1


   1              		.cpu cortex-m0
   2              		.eabi_attribute 20, 1	@ Tag_ABI_FP_denormal
   3              		.eabi_attribute 21, 1	@ Tag_ABI_FP_exceptions
   4              		.eabi_attribute 23, 3	@ Tag_ABI_FP_number_model
   5              		.eabi_attribute 24, 1	@ Tag_ABI_align8_needed
   6              		.eabi_attribute 25, 1	@ Tag_ABI_align8_preserved
   7              		.eabi_attribute 26, 1	@ Tag_ABI_enum_size
   8              		.eabi_attribute 30, 4	@ Tag_ABI_optimization_goals
   9              		.eabi_attribute 34, 0	@ Tag_CPU_unaligned_access
  10              		.eabi_attribute 18, 4	@ Tag_ABI_PCS_wchar_t
  11              		.file	"uart_drv_api.c"
  12              	@ GNU C11 (GNU Tools for Arm Embedded Processors 7-2017-q4-major) version 7.2.1 20170904 (release) 
  13              	@	compiled by GNU C version 5.3.1 20160211, GMP version 6.1.0, MPFR version 3.1.4, MPC version 1.0.
  14              	
  15              	@ GGC heuristics: --param ggc-min-expand=100 --param ggc-min-heapsize=131072
  16              	@ options passed:  -I . -I .\common\hdr -I .\driver\hdr -I .\utilities\hdr
  17              	@ -I .\inc -I .\driver\hdr -I .\hdr -imultilib thumb/v6-m
  18              	@ -iprefix c:\program files (x86)\gnu tools arm embedded\7 2017-q4-major\bin\../lib/gcc/arm-none-ea
  19              	@ -isysroot c:\program files (x86)\gnu tools arm embedded\7 2017-q4-major\bin\../arm-none-eabi
  20              	@ -D__USES_INITFINI__ -D RUN_FROM_FLASH=1 .\driver\src\uart_drv_api.c
  21              	@ -mcpu=cortex-m0 -mthumb -auxbase-strip .\driver\src\uart_drv_api.o
  22              	@ -gdwarf-2 -Os -Wall -Wstrict-prototypes -fomit-frame-pointer
  23              	@ -fverbose-asm
  24              	@ options enabled:  -faggressive-loop-optimizations -falign-jumps
  25              	@ -falign-labels -falign-loops -fauto-inc-dec -fbranch-count-reg
  26              	@ -fcaller-saves -fchkp-check-incomplete-type -fchkp-check-read
  27              	@ -fchkp-check-write -fchkp-instrument-calls -fchkp-narrow-bounds
  28              	@ -fchkp-optimize -fchkp-store-bounds -fchkp-use-static-bounds
  29              	@ -fchkp-use-static-const-bounds -fchkp-use-wrappers -fcode-hoisting
  30              	@ -fcombine-stack-adjustments -fcommon -fcompare-elim -fcprop-registers
  31              	@ -fcrossjumping -fcse-follow-jumps -fdefer-pop
  32              	@ -fdelete-null-pointer-checks -fdevirtualize -fdevirtualize-speculatively
  33              	@ -fdwarf2-cfi-asm -fearly-inlining -feliminate-unused-debug-types
  34              	@ -fexpensive-optimizations -fforward-propagate -ffp-int-builtin-inexact
  35              	@ -ffunction-cse -fgcse -fgcse-lm -fgnu-runtime -fgnu-unique
  36              	@ -fguess-branch-probability -fhoist-adjacent-loads -fident -fif-conversion
  37              	@ -fif-conversion2 -findirect-inlining -finline -finline-atomics
  38              	@ -finline-functions -finline-functions-called-once
  39              	@ -finline-small-functions -fipa-bit-cp -fipa-cp -fipa-icf
  40              	@ -fipa-icf-functions -fipa-icf-variables -fipa-profile -fipa-pure-const
  41              	@ -fipa-reference -fipa-sra -fipa-vrp -fira-hoist-pressure
  42              	@ -fira-share-save-slots -fira-share-spill-slots
  43              	@ -fisolate-erroneous-paths-dereference -fivopts -fkeep-static-consts
  44              	@ -fleading-underscore -flifetime-dse -flra-remat -flto-odr-type-merging
  45              	@ -fmath-errno -fmerge-constants -fmerge-debug-strings
  46              	@ -fmove-loop-invariants -fomit-frame-pointer -foptimize-sibling-calls
  47              	@ -fpartial-inlining -fpeephole -fpeephole2 -fplt -fprefetch-loop-arrays
  48              	@ -freg-struct-return -freorder-blocks -freorder-functions
  49              	@ -frerun-cse-after-loop -fsched-critical-path-heuristic
  50              	@ -fsched-dep-count-heuristic -fsched-group-heuristic -fsched-interblock
  51              	@ -fsched-last-insn-heuristic -fsched-pressure -fsched-rank-heuristic
  52              	@ -fsched-spec -fsched-spec-insn-heuristic -fsched-stalled-insns-dep
  53              	@ -fschedule-insns2 -fsection-anchors -fsemantic-interposition
  54              	@ -fshow-column -fshrink-wrap -fshrink-wrap-separate -fsigned-zeros
  55              	@ -fsplit-ivs-in-unroller -fsplit-wide-types -fssa-backprop -fssa-phiopt
  56              	@ -fstdarg-opt -fstore-merging -fstrict-aliasing -fstrict-overflow
  57              	@ -fstrict-volatile-bitfields -fsync-libcalls -fthread-jumps
ARM GAS  C:\Users\claym\AppData\Local\Temp\cctQKk9X.s 			page 2


  58              	@ -ftoplevel-reorder -ftrapping-math -ftree-bit-ccp -ftree-builtin-call-dce
  59              	@ -ftree-ccp -ftree-ch -ftree-coalesce-vars -ftree-copy-prop -ftree-cselim
  60              	@ -ftree-dce -ftree-dominator-opts -ftree-dse -ftree-forwprop -ftree-fre
  61              	@ -ftree-loop-if-convert -ftree-loop-im -ftree-loop-ivcanon
  62              	@ -ftree-loop-optimize -ftree-parallelize-loops= -ftree-phiprop -ftree-pre
  63              	@ -ftree-pta -ftree-reassoc -ftree-scev-cprop -ftree-sink -ftree-slsr
  64              	@ -ftree-sra -ftree-switch-conversion -ftree-tail-merge -ftree-ter
  65              	@ -ftree-vrp -funit-at-a-time -fvar-tracking -fvar-tracking-assignments
  66              	@ -fverbose-asm -fzero-initialized-in-bss -mlittle-endian
  67              	@ -mpic-data-is-text-relative -msched-prolog -mthumb
  68              	@ -mvectorize-with-neon-quad
  69              	
  70              		.text
  71              	.Ltext0:
  72              		.cfi_sections	.debug_frame
  73              		.align	1
  74              		.syntax unified
  75              		.code	16
  76              		.thumb_func
  77              		.fpu softvfp
  78              		.type	UART0_GetStatus, %function
  79              	UART0_GetStatus:
  80              	.LFB41:
  81              		.file 1 ".\\driver\\src\\uart_drv_api.c"
   1:.\driver\src/uart_drv_api.c **** /***************************************************************************************
   2:.\driver\src/uart_drv_api.c ****  * @file     uart_drv_api.c
   3:.\driver\src/uart_drv_api.c ****  * @version  V1.0
   4:.\driver\src/uart_drv_api.c ****  * @date     31. March 2016
   5:.\driver\src/uart_drv_api.c ****  *
   6:.\driver\src/uart_drv_api.c ****  * @note
   7:.\driver\src/uart_drv_api.c ****  * VORAGO Technologies 
   8:.\driver\src/uart_drv_api.c ****  *
   9:.\driver\src/uart_drv_api.c ****  * @note
  10:.\driver\src/uart_drv_api.c ****  * Copyright (c) 2013-2016 VORAGO Technologies. 
  11:.\driver\src/uart_drv_api.c ****  *
  12:.\driver\src/uart_drv_api.c ****  * @par
  13:.\driver\src/uart_drv_api.c ****  * BY DOWNLOADING, INSTALLING OR USING THIS SOFTWARE, YOU AGREE TO BE BOUND BY 
  14:.\driver\src/uart_drv_api.c ****  * ALL THE TERMS AND CONDITIONS OF THE VORAGO TECHNOLOGIES END USER LICENSE AGREEMENT. 
  15:.\driver\src/uart_drv_api.c ****  * THIS SOFTWARE IS PROVIDED "AS IS". NO WARRANTIES, WHETHER EXPRESS, IMPLIED
  16:.\driver\src/uart_drv_api.c ****  * OR STATUTORY, INCLUDING, BUT NOT LIMITED TO, IMPLIED WARRANTIES OF MERCHANTABILITY 
  17:.\driver\src/uart_drv_api.c ****  * AND FITNESS FOR A PARTICULAR PURPOSE APPLY TO THIS SOFTWARE. VORAGO TECHNOLOGIES 
  18:.\driver\src/uart_drv_api.c ****  * SHALL NOT, IN ANY CIRCUMSTANCES, BE LIABLE FOR SPECIAL, INCIDENTAL, OR CONSEQUENTIAL 
  19:.\driver\src/uart_drv_api.c ****  * DAMAGES, FOR ANY REASON WHATSOEVER.
  20:.\driver\src/uart_drv_api.c ****  *
  21:.\driver\src/uart_drv_api.c ****  ****************************************************************************************/
  22:.\driver\src/uart_drv_api.c **** #include "uart_va108xx.h"
  23:.\driver\src/uart_drv_api.c **** #include "driver_common.h"
  24:.\driver\src/uart_drv_api.c **** #ifndef RTT_LOG
  25:.\driver\src/uart_drv_api.c **** extern UART_RESOURCES UART0_Resources;
  26:.\driver\src/uart_drv_api.c **** extern UART_RESOURCES UART1_Resources;
  27:.\driver\src/uart_drv_api.c **** 
  28:.\driver\src/uart_drv_api.c **** static int32_t UART0_Initialize (VOR_UART_SignalEvent_t cb_event) {
  29:.\driver\src/uart_drv_api.c ****   return UART_Initialize (cb_event, &UART0_Resources);
  30:.\driver\src/uart_drv_api.c **** }
  31:.\driver\src/uart_drv_api.c **** static int32_t UART0_Uninitialize (void) {
  32:.\driver\src/uart_drv_api.c ****   return UART_Uninitialize(&UART0_Resources);
  33:.\driver\src/uart_drv_api.c **** }
ARM GAS  C:\Users\claym\AppData\Local\Temp\cctQKk9X.s 			page 3


  34:.\driver\src/uart_drv_api.c **** static int32_t UART0_Send (uint8_t *data, uint32_t num) {
  35:.\driver\src/uart_drv_api.c ****   return UART_Send (data, num, &UART0_Resources);
  36:.\driver\src/uart_drv_api.c **** }
  37:.\driver\src/uart_drv_api.c **** static int32_t UART0_Receive (uint8_t *data, uint32_t num) {
  38:.\driver\src/uart_drv_api.c ****   return UART_Receive (data, num, &UART0_Resources);
  39:.\driver\src/uart_drv_api.c **** }
  40:.\driver\src/uart_drv_api.c **** 
  41:.\driver\src/uart_drv_api.c **** static int32_t UART0_GetTxCount (void) {
  42:.\driver\src/uart_drv_api.c ****   return VOR_UART_GetTxCount(&UART0_Resources);
  43:.\driver\src/uart_drv_api.c **** }
  44:.\driver\src/uart_drv_api.c **** 
  45:.\driver\src/uart_drv_api.c **** static int32_t UART0_GetRxCount (void) {
  46:.\driver\src/uart_drv_api.c ****   return VOR_UART_GetRxCount(&UART0_Resources);
  47:.\driver\src/uart_drv_api.c **** }
  48:.\driver\src/uart_drv_api.c **** 
  49:.\driver\src/uart_drv_api.c **** static int32_t UART0_Control (uint32_t control, uint32_t arg) {
  50:.\driver\src/uart_drv_api.c ****   return UART_Control (control, arg, &UART0_Resources);
  51:.\driver\src/uart_drv_api.c **** }
  52:.\driver\src/uart_drv_api.c **** static VOR_UART_STATUS UART0_GetStatus (void) {
  82              		.loc 1 52 0
  83              		.cfi_startproc
  84              		@ args = 0, pretend = 0, frame = 0
  85              		@ frame_needed = 0, uses_anonymous_args = 0
  86 0000 10B5     		push	{r4, lr}	@
  87              	.LCFI0:
  88              		.cfi_def_cfa_offset 8
  89              		.cfi_offset 4, -8
  90              		.cfi_offset 14, -4
  91              	@ .\driver\src\uart_drv_api.c:53:   return UART_GetStatus (&UART0_Resources);
  53:.\driver\src/uart_drv_api.c ****   return UART_GetStatus (&UART0_Resources);
  92              		.loc 1 53 0
  93 0002 0248     		ldr	r0, .L2	@,
  94 0004 FFF7FEFF 		bl	UART_GetStatus	@
  95              	.LVL0:
  96              	@ .\driver\src\uart_drv_api.c:54: }
  54:.\driver\src/uart_drv_api.c **** }
  97              		.loc 1 54 0
  98              		@ sp needed	@
  99 0008 10BD     		pop	{r4, pc}
 100              	.L3:
 101 000a C046     		.align	2
 102              	.L2:
 103 000c 00000000 		.word	UART0_Resources
 104              		.cfi_endproc
 105              	.LFE41:
 106              		.size	UART0_GetStatus, .-UART0_GetStatus
 107              		.align	1
 108              		.syntax unified
 109              		.code	16
 110              		.thumb_func
 111              		.fpu softvfp
 112              		.type	UART1_GetStatus, %function
 113              	UART1_GetStatus:
 114              	.LFB50:
  55:.\driver\src/uart_drv_api.c **** void VOR_UART0_IRQHandler (void) {
  56:.\driver\src/uart_drv_api.c ****   UART_IRQHandler (&UART0_Resources);
  57:.\driver\src/uart_drv_api.c **** }
ARM GAS  C:\Users\claym\AppData\Local\Temp\cctQKk9X.s 			page 4


  58:.\driver\src/uart_drv_api.c **** 
  59:.\driver\src/uart_drv_api.c **** // UART0 Driver Control Block
  60:.\driver\src/uart_drv_api.c **** VOR_DRIVER_UART Driver_UART0 = {
  61:.\driver\src/uart_drv_api.c ****     UARTx_GetVersion,
  62:.\driver\src/uart_drv_api.c ****     UART0_Initialize,
  63:.\driver\src/uart_drv_api.c ****     UART0_Uninitialize,
  64:.\driver\src/uart_drv_api.c ****     UART0_Send, 
  65:.\driver\src/uart_drv_api.c ****     UART0_Receive,
  66:.\driver\src/uart_drv_api.c **** 	  UART0_GetTxCount,
  67:.\driver\src/uart_drv_api.c **** 	  UART0_GetRxCount,
  68:.\driver\src/uart_drv_api.c ****     UART0_Control,
  69:.\driver\src/uart_drv_api.c ****     UART0_GetStatus,
  70:.\driver\src/uart_drv_api.c **** };
  71:.\driver\src/uart_drv_api.c **** 
  72:.\driver\src/uart_drv_api.c **** // UART1 Driver Wrapper functions
  73:.\driver\src/uart_drv_api.c **** static int32_t UART1_Initialize (VOR_UART_SignalEvent_t cb_event) {
  74:.\driver\src/uart_drv_api.c ****   return UART_Initialize (cb_event, &UART1_Resources);
  75:.\driver\src/uart_drv_api.c **** }
  76:.\driver\src/uart_drv_api.c **** static int32_t UART1_Uninitialize (void) {
  77:.\driver\src/uart_drv_api.c ****   return UART_Uninitialize(&UART1_Resources);
  78:.\driver\src/uart_drv_api.c **** }
  79:.\driver\src/uart_drv_api.c **** static int32_t UART1_Send (uint8_t *data, uint32_t num) {
  80:.\driver\src/uart_drv_api.c ****   return UART_Send (data, num, &UART1_Resources);
  81:.\driver\src/uart_drv_api.c **** }
  82:.\driver\src/uart_drv_api.c **** static int32_t UART1_Receive (uint8_t *data, uint32_t num) {
  83:.\driver\src/uart_drv_api.c ****   return UART_Receive (data, num, &UART1_Resources);
  84:.\driver\src/uart_drv_api.c **** }
  85:.\driver\src/uart_drv_api.c **** static int32_t UART1_GetTxCount (void) {
  86:.\driver\src/uart_drv_api.c ****   return VOR_UART_GetTxCount(&UART1_Resources);
  87:.\driver\src/uart_drv_api.c **** }
  88:.\driver\src/uart_drv_api.c **** static int32_t UART1_GetRxCount (void) {
  89:.\driver\src/uart_drv_api.c ****   return VOR_UART_GetRxCount(&UART1_Resources);
  90:.\driver\src/uart_drv_api.c **** }
  91:.\driver\src/uart_drv_api.c **** static int32_t UART1_Control (uint32_t control, uint32_t arg) {
  92:.\driver\src/uart_drv_api.c ****   return UART_Control (control, arg, &UART1_Resources);
  93:.\driver\src/uart_drv_api.c **** }
  94:.\driver\src/uart_drv_api.c **** static VOR_UART_STATUS UART1_GetStatus (void) {
 115              		.loc 1 94 0
 116              		.cfi_startproc
 117              		@ args = 0, pretend = 0, frame = 0
 118              		@ frame_needed = 0, uses_anonymous_args = 0
 119 0010 10B5     		push	{r4, lr}	@
 120              	.LCFI1:
 121              		.cfi_def_cfa_offset 8
 122              		.cfi_offset 4, -8
 123              		.cfi_offset 14, -4
 124              	@ .\driver\src\uart_drv_api.c:95:   return UART_GetStatus (&UART1_Resources);
  95:.\driver\src/uart_drv_api.c ****   return UART_GetStatus (&UART1_Resources);
 125              		.loc 1 95 0
 126 0012 0248     		ldr	r0, .L5	@,
 127 0014 FFF7FEFF 		bl	UART_GetStatus	@
 128              	.LVL1:
 129              	@ .\driver\src\uart_drv_api.c:96: }
  96:.\driver\src/uart_drv_api.c **** }
 130              		.loc 1 96 0
 131              		@ sp needed	@
 132 0018 10BD     		pop	{r4, pc}
ARM GAS  C:\Users\claym\AppData\Local\Temp\cctQKk9X.s 			page 5


 133              	.L6:
 134 001a C046     		.align	2
 135              	.L5:
 136 001c 00000000 		.word	UART1_Resources
 137              		.cfi_endproc
 138              	.LFE50:
 139              		.size	UART1_GetStatus, .-UART1_GetStatus
 140              		.align	1
 141              		.syntax unified
 142              		.code	16
 143              		.thumb_func
 144              		.fpu softvfp
 145              		.type	UART0_Control, %function
 146              	UART0_Control:
 147              	.LFB40:
  49:.\driver\src/uart_drv_api.c ****   return UART_Control (control, arg, &UART0_Resources);
 148              		.loc 1 49 0
 149              		.cfi_startproc
 150              		@ args = 0, pretend = 0, frame = 0
 151              		@ frame_needed = 0, uses_anonymous_args = 0
 152              	.LVL2:
 153 0020 10B5     		push	{r4, lr}	@
 154              	.LCFI2:
 155              		.cfi_def_cfa_offset 8
 156              		.cfi_offset 4, -8
 157              		.cfi_offset 14, -4
 158              	@ .\driver\src\uart_drv_api.c:50:   return UART_Control (control, arg, &UART0_Resources);
  50:.\driver\src/uart_drv_api.c **** }
 159              		.loc 1 50 0
 160 0022 024A     		ldr	r2, .L8	@,
 161 0024 FFF7FEFF 		bl	UART_Control	@
 162              	.LVL3:
 163              	@ .\driver\src\uart_drv_api.c:51: }
  51:.\driver\src/uart_drv_api.c **** static VOR_UART_STATUS UART0_GetStatus (void) {
 164              		.loc 1 51 0
 165              		@ sp needed	@
 166 0028 10BD     		pop	{r4, pc}
 167              	.L9:
 168 002a C046     		.align	2
 169              	.L8:
 170 002c 00000000 		.word	UART0_Resources
 171              		.cfi_endproc
 172              	.LFE40:
 173              		.size	UART0_Control, .-UART0_Control
 174              		.align	1
 175              		.syntax unified
 176              		.code	16
 177              		.thumb_func
 178              		.fpu softvfp
 179              		.type	UART1_Control, %function
 180              	UART1_Control:
 181              	.LFB49:
  91:.\driver\src/uart_drv_api.c ****   return UART_Control (control, arg, &UART1_Resources);
 182              		.loc 1 91 0
 183              		.cfi_startproc
 184              		@ args = 0, pretend = 0, frame = 0
 185              		@ frame_needed = 0, uses_anonymous_args = 0
ARM GAS  C:\Users\claym\AppData\Local\Temp\cctQKk9X.s 			page 6


 186              	.LVL4:
 187 0030 10B5     		push	{r4, lr}	@
 188              	.LCFI3:
 189              		.cfi_def_cfa_offset 8
 190              		.cfi_offset 4, -8
 191              		.cfi_offset 14, -4
 192              	@ .\driver\src\uart_drv_api.c:92:   return UART_Control (control, arg, &UART1_Resources);
  92:.\driver\src/uart_drv_api.c **** }
 193              		.loc 1 92 0
 194 0032 024A     		ldr	r2, .L11	@,
 195 0034 FFF7FEFF 		bl	UART_Control	@
 196              	.LVL5:
 197              	@ .\driver\src\uart_drv_api.c:93: }
  93:.\driver\src/uart_drv_api.c **** static VOR_UART_STATUS UART1_GetStatus (void) {
 198              		.loc 1 93 0
 199              		@ sp needed	@
 200 0038 10BD     		pop	{r4, pc}
 201              	.L12:
 202 003a C046     		.align	2
 203              	.L11:
 204 003c 00000000 		.word	UART1_Resources
 205              		.cfi_endproc
 206              	.LFE49:
 207              		.size	UART1_Control, .-UART1_Control
 208              		.align	1
 209              		.syntax unified
 210              		.code	16
 211              		.thumb_func
 212              		.fpu softvfp
 213              		.type	UART0_GetRxCount, %function
 214              	UART0_GetRxCount:
 215              	.LFB39:
  45:.\driver\src/uart_drv_api.c ****   return VOR_UART_GetRxCount(&UART0_Resources);
 216              		.loc 1 45 0
 217              		.cfi_startproc
 218              		@ args = 0, pretend = 0, frame = 0
 219              		@ frame_needed = 0, uses_anonymous_args = 0
 220 0040 10B5     		push	{r4, lr}	@
 221              	.LCFI4:
 222              		.cfi_def_cfa_offset 8
 223              		.cfi_offset 4, -8
 224              		.cfi_offset 14, -4
 225              	@ .\driver\src\uart_drv_api.c:46:   return VOR_UART_GetRxCount(&UART0_Resources);
  46:.\driver\src/uart_drv_api.c **** }
 226              		.loc 1 46 0
 227 0042 0248     		ldr	r0, .L14	@,
 228 0044 FFF7FEFF 		bl	VOR_UART_GetRxCount	@
 229              	.LVL6:
 230              	@ .\driver\src\uart_drv_api.c:47: }
  47:.\driver\src/uart_drv_api.c **** 
 231              		.loc 1 47 0
 232              		@ sp needed	@
 233 0048 10BD     		pop	{r4, pc}
 234              	.L15:
 235 004a C046     		.align	2
 236              	.L14:
 237 004c 00000000 		.word	UART0_Resources
ARM GAS  C:\Users\claym\AppData\Local\Temp\cctQKk9X.s 			page 7


 238              		.cfi_endproc
 239              	.LFE39:
 240              		.size	UART0_GetRxCount, .-UART0_GetRxCount
 241              		.align	1
 242              		.syntax unified
 243              		.code	16
 244              		.thumb_func
 245              		.fpu softvfp
 246              		.type	UART1_GetRxCount, %function
 247              	UART1_GetRxCount:
 248              	.LFB48:
  88:.\driver\src/uart_drv_api.c ****   return VOR_UART_GetRxCount(&UART1_Resources);
 249              		.loc 1 88 0
 250              		.cfi_startproc
 251              		@ args = 0, pretend = 0, frame = 0
 252              		@ frame_needed = 0, uses_anonymous_args = 0
 253 0050 10B5     		push	{r4, lr}	@
 254              	.LCFI5:
 255              		.cfi_def_cfa_offset 8
 256              		.cfi_offset 4, -8
 257              		.cfi_offset 14, -4
 258              	@ .\driver\src\uart_drv_api.c:89:   return VOR_UART_GetRxCount(&UART1_Resources);
  89:.\driver\src/uart_drv_api.c **** }
 259              		.loc 1 89 0
 260 0052 0248     		ldr	r0, .L17	@,
 261 0054 FFF7FEFF 		bl	VOR_UART_GetRxCount	@
 262              	.LVL7:
 263              	@ .\driver\src\uart_drv_api.c:90: }
  90:.\driver\src/uart_drv_api.c **** static int32_t UART1_Control (uint32_t control, uint32_t arg) {
 264              		.loc 1 90 0
 265              		@ sp needed	@
 266 0058 10BD     		pop	{r4, pc}
 267              	.L18:
 268 005a C046     		.align	2
 269              	.L17:
 270 005c 00000000 		.word	UART1_Resources
 271              		.cfi_endproc
 272              	.LFE48:
 273              		.size	UART1_GetRxCount, .-UART1_GetRxCount
 274              		.align	1
 275              		.syntax unified
 276              		.code	16
 277              		.thumb_func
 278              		.fpu softvfp
 279              		.type	UART0_GetTxCount, %function
 280              	UART0_GetTxCount:
 281              	.LFB38:
  41:.\driver\src/uart_drv_api.c ****   return VOR_UART_GetTxCount(&UART0_Resources);
 282              		.loc 1 41 0
 283              		.cfi_startproc
 284              		@ args = 0, pretend = 0, frame = 0
 285              		@ frame_needed = 0, uses_anonymous_args = 0
 286 0060 10B5     		push	{r4, lr}	@
 287              	.LCFI6:
 288              		.cfi_def_cfa_offset 8
 289              		.cfi_offset 4, -8
 290              		.cfi_offset 14, -4
ARM GAS  C:\Users\claym\AppData\Local\Temp\cctQKk9X.s 			page 8


 291              	@ .\driver\src\uart_drv_api.c:42:   return VOR_UART_GetTxCount(&UART0_Resources);
  42:.\driver\src/uart_drv_api.c **** }
 292              		.loc 1 42 0
 293 0062 0248     		ldr	r0, .L20	@,
 294 0064 FFF7FEFF 		bl	VOR_UART_GetTxCount	@
 295              	.LVL8:
 296              	@ .\driver\src\uart_drv_api.c:43: }
  43:.\driver\src/uart_drv_api.c **** 
 297              		.loc 1 43 0
 298              		@ sp needed	@
 299 0068 10BD     		pop	{r4, pc}
 300              	.L21:
 301 006a C046     		.align	2
 302              	.L20:
 303 006c 00000000 		.word	UART0_Resources
 304              		.cfi_endproc
 305              	.LFE38:
 306              		.size	UART0_GetTxCount, .-UART0_GetTxCount
 307              		.align	1
 308              		.syntax unified
 309              		.code	16
 310              		.thumb_func
 311              		.fpu softvfp
 312              		.type	UART1_GetTxCount, %function
 313              	UART1_GetTxCount:
 314              	.LFB47:
  85:.\driver\src/uart_drv_api.c ****   return VOR_UART_GetTxCount(&UART1_Resources);
 315              		.loc 1 85 0
 316              		.cfi_startproc
 317              		@ args = 0, pretend = 0, frame = 0
 318              		@ frame_needed = 0, uses_anonymous_args = 0
 319 0070 10B5     		push	{r4, lr}	@
 320              	.LCFI7:
 321              		.cfi_def_cfa_offset 8
 322              		.cfi_offset 4, -8
 323              		.cfi_offset 14, -4
 324              	@ .\driver\src\uart_drv_api.c:86:   return VOR_UART_GetTxCount(&UART1_Resources);
  86:.\driver\src/uart_drv_api.c **** }
 325              		.loc 1 86 0
 326 0072 0248     		ldr	r0, .L23	@,
 327 0074 FFF7FEFF 		bl	VOR_UART_GetTxCount	@
 328              	.LVL9:
 329              	@ .\driver\src\uart_drv_api.c:87: }
  87:.\driver\src/uart_drv_api.c **** static int32_t UART1_GetRxCount (void) {
 330              		.loc 1 87 0
 331              		@ sp needed	@
 332 0078 10BD     		pop	{r4, pc}
 333              	.L24:
 334 007a C046     		.align	2
 335              	.L23:
 336 007c 00000000 		.word	UART1_Resources
 337              		.cfi_endproc
 338              	.LFE47:
 339              		.size	UART1_GetTxCount, .-UART1_GetTxCount
 340              		.align	1
 341              		.syntax unified
 342              		.code	16
ARM GAS  C:\Users\claym\AppData\Local\Temp\cctQKk9X.s 			page 9


 343              		.thumb_func
 344              		.fpu softvfp
 345              		.type	UART0_Receive, %function
 346              	UART0_Receive:
 347              	.LFB37:
  37:.\driver\src/uart_drv_api.c ****   return UART_Receive (data, num, &UART0_Resources);
 348              		.loc 1 37 0
 349              		.cfi_startproc
 350              		@ args = 0, pretend = 0, frame = 0
 351              		@ frame_needed = 0, uses_anonymous_args = 0
 352              	.LVL10:
 353 0080 10B5     		push	{r4, lr}	@
 354              	.LCFI8:
 355              		.cfi_def_cfa_offset 8
 356              		.cfi_offset 4, -8
 357              		.cfi_offset 14, -4
 358              	@ .\driver\src\uart_drv_api.c:38:   return UART_Receive (data, num, &UART0_Resources);
  38:.\driver\src/uart_drv_api.c **** }
 359              		.loc 1 38 0
 360 0082 024A     		ldr	r2, .L26	@,
 361 0084 FFF7FEFF 		bl	UART_Receive	@
 362              	.LVL11:
 363              	@ .\driver\src\uart_drv_api.c:39: }
  39:.\driver\src/uart_drv_api.c **** 
 364              		.loc 1 39 0
 365              		@ sp needed	@
 366 0088 10BD     		pop	{r4, pc}
 367              	.L27:
 368 008a C046     		.align	2
 369              	.L26:
 370 008c 00000000 		.word	UART0_Resources
 371              		.cfi_endproc
 372              	.LFE37:
 373              		.size	UART0_Receive, .-UART0_Receive
 374              		.align	1
 375              		.syntax unified
 376              		.code	16
 377              		.thumb_func
 378              		.fpu softvfp
 379              		.type	UART1_Receive, %function
 380              	UART1_Receive:
 381              	.LFB46:
  82:.\driver\src/uart_drv_api.c ****   return UART_Receive (data, num, &UART1_Resources);
 382              		.loc 1 82 0
 383              		.cfi_startproc
 384              		@ args = 0, pretend = 0, frame = 0
 385              		@ frame_needed = 0, uses_anonymous_args = 0
 386              	.LVL12:
 387 0090 10B5     		push	{r4, lr}	@
 388              	.LCFI9:
 389              		.cfi_def_cfa_offset 8
 390              		.cfi_offset 4, -8
 391              		.cfi_offset 14, -4
 392              	@ .\driver\src\uart_drv_api.c:83:   return UART_Receive (data, num, &UART1_Resources);
  83:.\driver\src/uart_drv_api.c **** }
 393              		.loc 1 83 0
 394 0092 024A     		ldr	r2, .L29	@,
ARM GAS  C:\Users\claym\AppData\Local\Temp\cctQKk9X.s 			page 10


 395 0094 FFF7FEFF 		bl	UART_Receive	@
 396              	.LVL13:
 397              	@ .\driver\src\uart_drv_api.c:84: }
  84:.\driver\src/uart_drv_api.c **** static int32_t UART1_GetTxCount (void) {
 398              		.loc 1 84 0
 399              		@ sp needed	@
 400 0098 10BD     		pop	{r4, pc}
 401              	.L30:
 402 009a C046     		.align	2
 403              	.L29:
 404 009c 00000000 		.word	UART1_Resources
 405              		.cfi_endproc
 406              	.LFE46:
 407              		.size	UART1_Receive, .-UART1_Receive
 408              		.align	1
 409              		.syntax unified
 410              		.code	16
 411              		.thumb_func
 412              		.fpu softvfp
 413              		.type	UART0_Send, %function
 414              	UART0_Send:
 415              	.LFB36:
  34:.\driver\src/uart_drv_api.c ****   return UART_Send (data, num, &UART0_Resources);
 416              		.loc 1 34 0
 417              		.cfi_startproc
 418              		@ args = 0, pretend = 0, frame = 0
 419              		@ frame_needed = 0, uses_anonymous_args = 0
 420              	.LVL14:
 421 00a0 10B5     		push	{r4, lr}	@
 422              	.LCFI10:
 423              		.cfi_def_cfa_offset 8
 424              		.cfi_offset 4, -8
 425              		.cfi_offset 14, -4
 426              	@ .\driver\src\uart_drv_api.c:35:   return UART_Send (data, num, &UART0_Resources);
  35:.\driver\src/uart_drv_api.c **** }
 427              		.loc 1 35 0
 428 00a2 024A     		ldr	r2, .L32	@,
 429 00a4 FFF7FEFF 		bl	UART_Send	@
 430              	.LVL15:
 431              	@ .\driver\src\uart_drv_api.c:36: }
  36:.\driver\src/uart_drv_api.c **** static int32_t UART0_Receive (uint8_t *data, uint32_t num) {
 432              		.loc 1 36 0
 433              		@ sp needed	@
 434 00a8 10BD     		pop	{r4, pc}
 435              	.L33:
 436 00aa C046     		.align	2
 437              	.L32:
 438 00ac 00000000 		.word	UART0_Resources
 439              		.cfi_endproc
 440              	.LFE36:
 441              		.size	UART0_Send, .-UART0_Send
 442              		.align	1
 443              		.syntax unified
 444              		.code	16
 445              		.thumb_func
 446              		.fpu softvfp
 447              		.type	UART1_Send, %function
ARM GAS  C:\Users\claym\AppData\Local\Temp\cctQKk9X.s 			page 11


 448              	UART1_Send:
 449              	.LFB45:
  79:.\driver\src/uart_drv_api.c ****   return UART_Send (data, num, &UART1_Resources);
 450              		.loc 1 79 0
 451              		.cfi_startproc
 452              		@ args = 0, pretend = 0, frame = 0
 453              		@ frame_needed = 0, uses_anonymous_args = 0
 454              	.LVL16:
 455 00b0 10B5     		push	{r4, lr}	@
 456              	.LCFI11:
 457              		.cfi_def_cfa_offset 8
 458              		.cfi_offset 4, -8
 459              		.cfi_offset 14, -4
 460              	@ .\driver\src\uart_drv_api.c:80:   return UART_Send (data, num, &UART1_Resources);
  80:.\driver\src/uart_drv_api.c **** }
 461              		.loc 1 80 0
 462 00b2 024A     		ldr	r2, .L35	@,
 463 00b4 FFF7FEFF 		bl	UART_Send	@
 464              	.LVL17:
 465              	@ .\driver\src\uart_drv_api.c:81: }
  81:.\driver\src/uart_drv_api.c **** static int32_t UART1_Receive (uint8_t *data, uint32_t num) {
 466              		.loc 1 81 0
 467              		@ sp needed	@
 468 00b8 10BD     		pop	{r4, pc}
 469              	.L36:
 470 00ba C046     		.align	2
 471              	.L35:
 472 00bc 00000000 		.word	UART1_Resources
 473              		.cfi_endproc
 474              	.LFE45:
 475              		.size	UART1_Send, .-UART1_Send
 476              		.align	1
 477              		.syntax unified
 478              		.code	16
 479              		.thumb_func
 480              		.fpu softvfp
 481              		.type	UART0_Uninitialize, %function
 482              	UART0_Uninitialize:
 483              	.LFB35:
  31:.\driver\src/uart_drv_api.c ****   return UART_Uninitialize(&UART0_Resources);
 484              		.loc 1 31 0
 485              		.cfi_startproc
 486              		@ args = 0, pretend = 0, frame = 0
 487              		@ frame_needed = 0, uses_anonymous_args = 0
 488 00c0 10B5     		push	{r4, lr}	@
 489              	.LCFI12:
 490              		.cfi_def_cfa_offset 8
 491              		.cfi_offset 4, -8
 492              		.cfi_offset 14, -4
 493              	@ .\driver\src\uart_drv_api.c:32:   return UART_Uninitialize(&UART0_Resources);
  32:.\driver\src/uart_drv_api.c **** }
 494              		.loc 1 32 0
 495 00c2 0248     		ldr	r0, .L38	@,
 496 00c4 FFF7FEFF 		bl	UART_Uninitialize	@
 497              	.LVL18:
 498              	@ .\driver\src\uart_drv_api.c:33: }
  33:.\driver\src/uart_drv_api.c **** static int32_t UART0_Send (uint8_t *data, uint32_t num) {
ARM GAS  C:\Users\claym\AppData\Local\Temp\cctQKk9X.s 			page 12


 499              		.loc 1 33 0
 500              		@ sp needed	@
 501 00c8 10BD     		pop	{r4, pc}
 502              	.L39:
 503 00ca C046     		.align	2
 504              	.L38:
 505 00cc 00000000 		.word	UART0_Resources
 506              		.cfi_endproc
 507              	.LFE35:
 508              		.size	UART0_Uninitialize, .-UART0_Uninitialize
 509              		.align	1
 510              		.syntax unified
 511              		.code	16
 512              		.thumb_func
 513              		.fpu softvfp
 514              		.type	UART1_Uninitialize, %function
 515              	UART1_Uninitialize:
 516              	.LFB44:
  76:.\driver\src/uart_drv_api.c ****   return UART_Uninitialize(&UART1_Resources);
 517              		.loc 1 76 0
 518              		.cfi_startproc
 519              		@ args = 0, pretend = 0, frame = 0
 520              		@ frame_needed = 0, uses_anonymous_args = 0
 521 00d0 10B5     		push	{r4, lr}	@
 522              	.LCFI13:
 523              		.cfi_def_cfa_offset 8
 524              		.cfi_offset 4, -8
 525              		.cfi_offset 14, -4
 526              	@ .\driver\src\uart_drv_api.c:77:   return UART_Uninitialize(&UART1_Resources);
  77:.\driver\src/uart_drv_api.c **** }
 527              		.loc 1 77 0
 528 00d2 0248     		ldr	r0, .L41	@,
 529 00d4 FFF7FEFF 		bl	UART_Uninitialize	@
 530              	.LVL19:
 531              	@ .\driver\src\uart_drv_api.c:78: }
  78:.\driver\src/uart_drv_api.c **** static int32_t UART1_Send (uint8_t *data, uint32_t num) {
 532              		.loc 1 78 0
 533              		@ sp needed	@
 534 00d8 10BD     		pop	{r4, pc}
 535              	.L42:
 536 00da C046     		.align	2
 537              	.L41:
 538 00dc 00000000 		.word	UART1_Resources
 539              		.cfi_endproc
 540              	.LFE44:
 541              		.size	UART1_Uninitialize, .-UART1_Uninitialize
 542              		.align	1
 543              		.syntax unified
 544              		.code	16
 545              		.thumb_func
 546              		.fpu softvfp
 547              		.type	UART0_Initialize, %function
 548              	UART0_Initialize:
 549              	.LFB34:
  28:.\driver\src/uart_drv_api.c ****   return UART_Initialize (cb_event, &UART0_Resources);
 550              		.loc 1 28 0
 551              		.cfi_startproc
ARM GAS  C:\Users\claym\AppData\Local\Temp\cctQKk9X.s 			page 13


 552              		@ args = 0, pretend = 0, frame = 0
 553              		@ frame_needed = 0, uses_anonymous_args = 0
 554              	.LVL20:
 555 00e0 10B5     		push	{r4, lr}	@
 556              	.LCFI14:
 557              		.cfi_def_cfa_offset 8
 558              		.cfi_offset 4, -8
 559              		.cfi_offset 14, -4
 560              	@ .\driver\src\uart_drv_api.c:29:   return UART_Initialize (cb_event, &UART0_Resources);
  29:.\driver\src/uart_drv_api.c **** }
 561              		.loc 1 29 0
 562 00e2 0249     		ldr	r1, .L44	@,
 563 00e4 FFF7FEFF 		bl	UART_Initialize	@
 564              	.LVL21:
 565              	@ .\driver\src\uart_drv_api.c:30: }
  30:.\driver\src/uart_drv_api.c **** static int32_t UART0_Uninitialize (void) {
 566              		.loc 1 30 0
 567              		@ sp needed	@
 568 00e8 10BD     		pop	{r4, pc}
 569              	.L45:
 570 00ea C046     		.align	2
 571              	.L44:
 572 00ec 00000000 		.word	UART0_Resources
 573              		.cfi_endproc
 574              	.LFE34:
 575              		.size	UART0_Initialize, .-UART0_Initialize
 576              		.align	1
 577              		.syntax unified
 578              		.code	16
 579              		.thumb_func
 580              		.fpu softvfp
 581              		.type	UART1_Initialize, %function
 582              	UART1_Initialize:
 583              	.LFB43:
  73:.\driver\src/uart_drv_api.c ****   return UART_Initialize (cb_event, &UART1_Resources);
 584              		.loc 1 73 0
 585              		.cfi_startproc
 586              		@ args = 0, pretend = 0, frame = 0
 587              		@ frame_needed = 0, uses_anonymous_args = 0
 588              	.LVL22:
 589 00f0 10B5     		push	{r4, lr}	@
 590              	.LCFI15:
 591              		.cfi_def_cfa_offset 8
 592              		.cfi_offset 4, -8
 593              		.cfi_offset 14, -4
 594              	@ .\driver\src\uart_drv_api.c:74:   return UART_Initialize (cb_event, &UART1_Resources);
  74:.\driver\src/uart_drv_api.c **** }
 595              		.loc 1 74 0
 596 00f2 0249     		ldr	r1, .L47	@,
 597 00f4 FFF7FEFF 		bl	UART_Initialize	@
 598              	.LVL23:
 599              	@ .\driver\src\uart_drv_api.c:75: }
  75:.\driver\src/uart_drv_api.c **** static int32_t UART1_Uninitialize (void) {
 600              		.loc 1 75 0
 601              		@ sp needed	@
 602 00f8 10BD     		pop	{r4, pc}
 603              	.L48:
ARM GAS  C:\Users\claym\AppData\Local\Temp\cctQKk9X.s 			page 14


 604 00fa C046     		.align	2
 605              	.L47:
 606 00fc 00000000 		.word	UART1_Resources
 607              		.cfi_endproc
 608              	.LFE43:
 609              		.size	UART1_Initialize, .-UART1_Initialize
 610              		.align	1
 611              		.global	VOR_UART0_IRQHandler
 612              		.syntax unified
 613              		.code	16
 614              		.thumb_func
 615              		.fpu softvfp
 616              		.type	VOR_UART0_IRQHandler, %function
 617              	VOR_UART0_IRQHandler:
 618              	.LFB42:
  55:.\driver\src/uart_drv_api.c ****   UART_IRQHandler (&UART0_Resources);
 619              		.loc 1 55 0
 620              		.cfi_startproc
 621              		@ args = 0, pretend = 0, frame = 0
 622              		@ frame_needed = 0, uses_anonymous_args = 0
 623 0100 10B5     		push	{r4, lr}	@
 624              	.LCFI16:
 625              		.cfi_def_cfa_offset 8
 626              		.cfi_offset 4, -8
 627              		.cfi_offset 14, -4
 628              	@ .\driver\src\uart_drv_api.c:56:   UART_IRQHandler (&UART0_Resources);
  56:.\driver\src/uart_drv_api.c **** }
 629              		.loc 1 56 0
 630 0102 0248     		ldr	r0, .L50	@,
 631 0104 FFF7FEFF 		bl	UART_IRQHandler	@
 632              	.LVL24:
 633              	@ .\driver\src\uart_drv_api.c:57: }
  57:.\driver\src/uart_drv_api.c **** 
 634              		.loc 1 57 0
 635              		@ sp needed	@
 636 0108 10BD     		pop	{r4, pc}
 637              	.L51:
 638 010a C046     		.align	2
 639              	.L50:
 640 010c 00000000 		.word	UART0_Resources
 641              		.cfi_endproc
 642              	.LFE42:
 643              		.size	VOR_UART0_IRQHandler, .-VOR_UART0_IRQHandler
 644              		.align	1
 645              		.global	VOR_UART1_IRQHandler
 646              		.syntax unified
 647              		.code	16
 648              		.thumb_func
 649              		.fpu softvfp
 650              		.type	VOR_UART1_IRQHandler, %function
 651              	VOR_UART1_IRQHandler:
 652              	.LFB51:
  97:.\driver\src/uart_drv_api.c **** void VOR_UART1_IRQHandler (void) {
 653              		.loc 1 97 0
 654              		.cfi_startproc
 655              		@ args = 0, pretend = 0, frame = 0
 656              		@ frame_needed = 0, uses_anonymous_args = 0
ARM GAS  C:\Users\claym\AppData\Local\Temp\cctQKk9X.s 			page 15


 657 0110 10B5     		push	{r4, lr}	@
 658              	.LCFI17:
 659              		.cfi_def_cfa_offset 8
 660              		.cfi_offset 4, -8
 661              		.cfi_offset 14, -4
 662              	@ .\driver\src\uart_drv_api.c:98:   UART_IRQHandler (&UART1_Resources);
  98:.\driver\src/uart_drv_api.c ****   UART_IRQHandler (&UART1_Resources);
 663              		.loc 1 98 0
 664 0112 0248     		ldr	r0, .L53	@,
 665 0114 FFF7FEFF 		bl	UART_IRQHandler	@
 666              	.LVL25:
 667              	@ .\driver\src\uart_drv_api.c:99: }
  99:.\driver\src/uart_drv_api.c **** }
 668              		.loc 1 99 0
 669              		@ sp needed	@
 670 0118 10BD     		pop	{r4, pc}
 671              	.L54:
 672 011a C046     		.align	2
 673              	.L53:
 674 011c 00000000 		.word	UART1_Resources
 675              		.cfi_endproc
 676              	.LFE51:
 677              		.size	VOR_UART1_IRQHandler, .-VOR_UART1_IRQHandler
 678              		.global	Driver_UART1
 679              		.global	Driver_UART0
 680              		.data
 681              		.align	2
 682              		.type	Driver_UART1, %object
 683              		.size	Driver_UART1, 36
 684              	Driver_UART1:
 685              	@ GetVersion:
 686 0000 00000000 		.word	UARTx_GetVersion
 687              	@ Initialize:
 688 0004 00000000 		.word	UART1_Initialize
 689              	@ Uninitialize:
 690 0008 00000000 		.word	UART1_Uninitialize
 691              	@ Send:
 692 000c 00000000 		.word	UART1_Send
 693              	@ Receive:
 694 0010 00000000 		.word	UART1_Receive
 695              	@ GetTxCount:
 696 0014 00000000 		.word	UART1_GetTxCount
 697              	@ GetRxCount:
 698 0018 00000000 		.word	UART1_GetRxCount
 699              	@ Control:
 700 001c 00000000 		.word	UART1_Control
 701              	@ GetStatus:
 702 0020 00000000 		.word	UART1_GetStatus
 703              		.type	Driver_UART0, %object
 704              		.size	Driver_UART0, 36
 705              	Driver_UART0:
 706              	@ GetVersion:
 707 0024 00000000 		.word	UARTx_GetVersion
 708              	@ Initialize:
 709 0028 00000000 		.word	UART0_Initialize
 710              	@ Uninitialize:
 711 002c 00000000 		.word	UART0_Uninitialize
ARM GAS  C:\Users\claym\AppData\Local\Temp\cctQKk9X.s 			page 16


 712              	@ Send:
 713 0030 00000000 		.word	UART0_Send
 714              	@ Receive:
 715 0034 00000000 		.word	UART0_Receive
 716              	@ GetTxCount:
 717 0038 00000000 		.word	UART0_GetTxCount
 718              	@ GetRxCount:
 719 003c 00000000 		.word	UART0_GetRxCount
 720              	@ Control:
 721 0040 00000000 		.word	UART0_Control
 722              	@ GetStatus:
 723 0044 00000000 		.word	UART0_GetStatus
 724              		.text
 725              	.Letext0:
 726              		.file 2 "c:\\program files (x86)\\gnu tools arm embedded\\7 2017-q4-major\\arm-none-eabi\\include\
 727              		.file 3 "c:\\program files (x86)\\gnu tools arm embedded\\7 2017-q4-major\\arm-none-eabi\\include\
 728              		.file 4 ".\\driver\\hdr/driver_common.h"
 729              		.file 5 ".\\driver\\hdr/driver_uart.h"
 730              		.file 6 ".\\common\\hdr/system_va108xx.h"
 731              		.file 7 ".\\common\\hdr/va108xx.h"
 732              		.file 8 ".\\driver\\hdr/uart_va108xx.h"
 733              		.section	.debug_info,"",%progbits
 734              	.Ldebug_info0:
 735 0000 B10A0000 		.4byte	0xab1
 736 0004 0200     		.2byte	0x2
 737 0006 00000000 		.4byte	.Ldebug_abbrev0
 738 000a 04       		.byte	0x4
 739 000b 01       		.uleb128 0x1
 740 000c DE000000 		.4byte	.LASF123
 741 0010 0C       		.byte	0xc
 742 0011 91010000 		.4byte	.LASF124
 743 0015 1A040000 		.4byte	.LASF125
 744 0019 00000000 		.4byte	.Ltext0
 745 001d 20010000 		.4byte	.Letext0
 746 0021 00000000 		.4byte	.Ldebug_line0
 747 0025 02       		.uleb128 0x2
 748 0026 04       		.byte	0x4
 749 0027 05       		.byte	0x5
 750 0028 696E7400 		.ascii	"int\000"
 751 002c 03       		.uleb128 0x3
 752 002d 04       		.byte	0x4
 753 002e 07       		.byte	0x7
 754 002f 7B000000 		.4byte	.LASF0
 755 0033 03       		.uleb128 0x3
 756 0034 08       		.byte	0x8
 757 0035 05       		.byte	0x5
 758 0036 06030000 		.4byte	.LASF1
 759 003a 03       		.uleb128 0x3
 760 003b 08       		.byte	0x8
 761 003c 04       		.byte	0x4
 762 003d C8030000 		.4byte	.LASF2
 763 0041 03       		.uleb128 0x3
 764 0042 01       		.byte	0x1
 765 0043 06       		.byte	0x6
 766 0044 EE050000 		.4byte	.LASF3
 767 0048 04       		.uleb128 0x4
 768 0049 AC040000 		.4byte	.LASF6
ARM GAS  C:\Users\claym\AppData\Local\Temp\cctQKk9X.s 			page 17


 769 004d 02       		.byte	0x2
 770 004e 2B       		.byte	0x2b
 771 004f 53000000 		.4byte	0x53
 772 0053 03       		.uleb128 0x3
 773 0054 01       		.byte	0x1
 774 0055 08       		.byte	0x8
 775 0056 30050000 		.4byte	.LASF4
 776 005a 03       		.uleb128 0x3
 777 005b 02       		.byte	0x2
 778 005c 05       		.byte	0x5
 779 005d 02040000 		.4byte	.LASF5
 780 0061 04       		.uleb128 0x4
 781 0062 13020000 		.4byte	.LASF7
 782 0066 02       		.byte	0x2
 783 0067 39       		.byte	0x39
 784 0068 6C000000 		.4byte	0x6c
 785 006c 03       		.uleb128 0x3
 786 006d 02       		.byte	0x2
 787 006e 07       		.byte	0x7
 788 006f FA050000 		.4byte	.LASF8
 789 0073 04       		.uleb128 0x4
 790 0074 B1000000 		.4byte	.LASF9
 791 0078 02       		.byte	0x2
 792 0079 4D       		.byte	0x4d
 793 007a 7E000000 		.4byte	0x7e
 794 007e 03       		.uleb128 0x3
 795 007f 04       		.byte	0x4
 796 0080 05       		.byte	0x5
 797 0081 58040000 		.4byte	.LASF10
 798 0085 04       		.uleb128 0x4
 799 0086 58050000 		.4byte	.LASF11
 800 008a 02       		.byte	0x2
 801 008b 4F       		.byte	0x4f
 802 008c 90000000 		.4byte	0x90
 803 0090 03       		.uleb128 0x3
 804 0091 04       		.byte	0x4
 805 0092 07       		.byte	0x7
 806 0093 E7040000 		.4byte	.LASF12
 807 0097 03       		.uleb128 0x3
 808 0098 08       		.byte	0x8
 809 0099 07       		.byte	0x7
 810 009a F0010000 		.4byte	.LASF13
 811 009e 04       		.uleb128 0x4
 812 009f CC020000 		.4byte	.LASF14
 813 00a3 03       		.byte	0x3
 814 00a4 18       		.byte	0x18
 815 00a5 48000000 		.4byte	0x48
 816 00a9 04       		.uleb128 0x4
 817 00aa D4030000 		.4byte	.LASF15
 818 00ae 03       		.byte	0x3
 819 00af 24       		.byte	0x24
 820 00b0 61000000 		.4byte	0x61
 821 00b4 04       		.uleb128 0x4
 822 00b5 01050000 		.4byte	.LASF16
 823 00b9 03       		.byte	0x3
 824 00ba 2C       		.byte	0x2c
 825 00bb 73000000 		.4byte	0x73
ARM GAS  C:\Users\claym\AppData\Local\Temp\cctQKk9X.s 			page 18


 826 00bf 04       		.uleb128 0x4
 827 00c0 AD010000 		.4byte	.LASF17
 828 00c4 03       		.byte	0x3
 829 00c5 30       		.byte	0x30
 830 00c6 85000000 		.4byte	0x85
 831 00ca 05       		.uleb128 0x5
 832 00cb BF000000 		.4byte	0xbf
 833 00cf 06       		.uleb128 0x6
 834 00d0 CA000000 		.4byte	0xca
 835 00d4 07       		.uleb128 0x7
 836 00d5 BE050000 		.4byte	.LASF19
 837 00d9 04       		.byte	0x4
 838 00da 04       		.byte	0x4
 839 00db 2D       		.byte	0x2d
 840 00dc FD000000 		.4byte	0xfd
 841 00e0 08       		.uleb128 0x8
 842 00e1 61706900 		.ascii	"api\000"
 843 00e5 04       		.byte	0x4
 844 00e6 2E       		.byte	0x2e
 845 00e7 A9000000 		.4byte	0xa9
 846 00eb 02       		.byte	0x2
 847 00ec 23       		.byte	0x23
 848 00ed 00       		.uleb128 0
 849 00ee 08       		.uleb128 0x8
 850 00ef 64727600 		.ascii	"drv\000"
 851 00f3 04       		.byte	0x4
 852 00f4 2F       		.byte	0x2f
 853 00f5 A9000000 		.4byte	0xa9
 854 00f9 02       		.byte	0x2
 855 00fa 23       		.byte	0x23
 856 00fb 02       		.uleb128 0x2
 857 00fc 00       		.byte	0
 858 00fd 04       		.uleb128 0x4
 859 00fe 1E020000 		.4byte	.LASF18
 860 0102 04       		.byte	0x4
 861 0103 30       		.byte	0x30
 862 0104 D4000000 		.4byte	0xd4
 863 0108 07       		.uleb128 0x7
 864 0109 62010000 		.4byte	.LASF20
 865 010d 04       		.byte	0x4
 866 010e 05       		.byte	0x5
 867 010f 80       		.byte	0x80
 868 0110 25020000 		.4byte	0x225
 869 0114 09       		.uleb128 0x9
 870 0115 52000000 		.4byte	.LASF21
 871 0119 05       		.byte	0x5
 872 011a 81       		.byte	0x81
 873 011b BF000000 		.4byte	0xbf
 874 011f 04       		.byte	0x4
 875 0120 01       		.byte	0x1
 876 0121 1F       		.byte	0x1f
 877 0122 02       		.byte	0x2
 878 0123 23       		.byte	0x23
 879 0124 00       		.uleb128 0
 880 0125 09       		.uleb128 0x9
 881 0126 4A020000 		.4byte	.LASF22
 882 012a 05       		.byte	0x5
ARM GAS  C:\Users\claym\AppData\Local\Temp\cctQKk9X.s 			page 19


 883 012b 82       		.byte	0x82
 884 012c BF000000 		.4byte	0xbf
 885 0130 04       		.byte	0x4
 886 0131 01       		.byte	0x1
 887 0132 1E       		.byte	0x1e
 888 0133 02       		.byte	0x2
 889 0134 23       		.byte	0x23
 890 0135 00       		.uleb128 0
 891 0136 09       		.uleb128 0x9
 892 0137 F4030000 		.4byte	.LASF23
 893 013b 05       		.byte	0x5
 894 013c 83       		.byte	0x83
 895 013d BF000000 		.4byte	0xbf
 896 0141 04       		.byte	0x4
 897 0142 01       		.byte	0x1
 898 0143 1D       		.byte	0x1d
 899 0144 02       		.byte	0x2
 900 0145 23       		.byte	0x23
 901 0146 00       		.uleb128 0
 902 0147 09       		.uleb128 0x9
 903 0148 B0020000 		.4byte	.LASF24
 904 014c 05       		.byte	0x5
 905 014d 84       		.byte	0x84
 906 014e BF000000 		.4byte	0xbf
 907 0152 04       		.byte	0x4
 908 0153 01       		.byte	0x1
 909 0154 1C       		.byte	0x1c
 910 0155 02       		.byte	0x2
 911 0156 23       		.byte	0x23
 912 0157 00       		.uleb128 0
 913 0158 09       		.uleb128 0x9
 914 0159 31020000 		.4byte	.LASF25
 915 015d 05       		.byte	0x5
 916 015e 85       		.byte	0x85
 917 015f BF000000 		.4byte	0xbf
 918 0163 04       		.byte	0x4
 919 0164 01       		.byte	0x1
 920 0165 1B       		.byte	0x1b
 921 0166 02       		.byte	0x2
 922 0167 23       		.byte	0x23
 923 0168 00       		.uleb128 0
 924 0169 09       		.uleb128 0x9
 925 016a EF020000 		.4byte	.LASF26
 926 016e 05       		.byte	0x5
 927 016f 86       		.byte	0x86
 928 0170 BF000000 		.4byte	0xbf
 929 0174 04       		.byte	0x4
 930 0175 01       		.byte	0x1
 931 0176 1A       		.byte	0x1a
 932 0177 02       		.byte	0x2
 933 0178 23       		.byte	0x23
 934 0179 00       		.uleb128 0
 935 017a 09       		.uleb128 0x9
 936 017b 55020000 		.4byte	.LASF27
 937 017f 05       		.byte	0x5
 938 0180 87       		.byte	0x87
 939 0181 BF000000 		.4byte	0xbf
ARM GAS  C:\Users\claym\AppData\Local\Temp\cctQKk9X.s 			page 20


 940 0185 04       		.byte	0x4
 941 0186 01       		.byte	0x1
 942 0187 19       		.byte	0x19
 943 0188 02       		.byte	0x2
 944 0189 23       		.byte	0x23
 945 018a 00       		.uleb128 0
 946 018b 09       		.uleb128 0x9
 947 018c 91050000 		.4byte	.LASF28
 948 0190 05       		.byte	0x5
 949 0191 88       		.byte	0x88
 950 0192 BF000000 		.4byte	0xbf
 951 0196 04       		.byte	0x4
 952 0197 01       		.byte	0x1
 953 0198 18       		.byte	0x18
 954 0199 02       		.byte	0x2
 955 019a 23       		.byte	0x23
 956 019b 00       		.uleb128 0
 957 019c 09       		.uleb128 0x9
 958 019d 09050000 		.4byte	.LASF29
 959 01a1 05       		.byte	0x5
 960 01a2 89       		.byte	0x89
 961 01a3 BF000000 		.4byte	0xbf
 962 01a7 04       		.byte	0x4
 963 01a8 01       		.byte	0x1
 964 01a9 17       		.byte	0x17
 965 01aa 02       		.byte	0x2
 966 01ab 23       		.byte	0x23
 967 01ac 00       		.uleb128 0
 968 01ad 09       		.uleb128 0x9
 969 01ae 4F030000 		.4byte	.LASF30
 970 01b2 05       		.byte	0x5
 971 01b3 8A       		.byte	0x8a
 972 01b4 BF000000 		.4byte	0xbf
 973 01b8 04       		.byte	0x4
 974 01b9 01       		.byte	0x1
 975 01ba 16       		.byte	0x16
 976 01bb 02       		.byte	0x2
 977 01bc 23       		.byte	0x23
 978 01bd 00       		.uleb128 0
 979 01be 09       		.uleb128 0x9
 980 01bf 6B020000 		.4byte	.LASF31
 981 01c3 05       		.byte	0x5
 982 01c4 8B       		.byte	0x8b
 983 01c5 BF000000 		.4byte	0xbf
 984 01c9 04       		.byte	0x4
 985 01ca 01       		.byte	0x1
 986 01cb 15       		.byte	0x15
 987 01cc 02       		.byte	0x2
 988 01cd 23       		.byte	0x23
 989 01ce 00       		.uleb128 0
 990 01cf 09       		.uleb128 0x9
 991 01d0 AA030000 		.4byte	.LASF32
 992 01d4 05       		.byte	0x5
 993 01d5 8C       		.byte	0x8c
 994 01d6 BF000000 		.4byte	0xbf
 995 01da 04       		.byte	0x4
 996 01db 01       		.byte	0x1
ARM GAS  C:\Users\claym\AppData\Local\Temp\cctQKk9X.s 			page 21


 997 01dc 14       		.byte	0x14
 998 01dd 02       		.byte	0x2
 999 01de 23       		.byte	0x23
 1000 01df 00       		.uleb128 0
 1001 01e0 09       		.uleb128 0x9
 1002 01e1 2D030000 		.4byte	.LASF33
 1003 01e5 05       		.byte	0x5
 1004 01e6 8D       		.byte	0x8d
 1005 01e7 BF000000 		.4byte	0xbf
 1006 01eb 04       		.byte	0x4
 1007 01ec 01       		.byte	0x1
 1008 01ed 13       		.byte	0x13
 1009 01ee 02       		.byte	0x2
 1010 01ef 23       		.byte	0x23
 1011 01f0 00       		.uleb128 0
 1012 01f1 09       		.uleb128 0x9
 1013 01f2 F9040000 		.4byte	.LASF34
 1014 01f6 05       		.byte	0x5
 1015 01f7 8E       		.byte	0x8e
 1016 01f8 BF000000 		.4byte	0xbf
 1017 01fc 04       		.byte	0x4
 1018 01fd 01       		.byte	0x1
 1019 01fe 12       		.byte	0x12
 1020 01ff 02       		.byte	0x2
 1021 0200 23       		.byte	0x23
 1022 0201 00       		.uleb128 0
 1023 0202 09       		.uleb128 0x9
 1024 0203 B4050000 		.4byte	.LASF35
 1025 0207 05       		.byte	0x5
 1026 0208 8F       		.byte	0x8f
 1027 0209 BF000000 		.4byte	0xbf
 1028 020d 04       		.byte	0x4
 1029 020e 01       		.byte	0x1
 1030 020f 11       		.byte	0x11
 1031 0210 02       		.byte	0x2
 1032 0211 23       		.byte	0x23
 1033 0212 00       		.uleb128 0
 1034 0213 09       		.uleb128 0x9
 1035 0214 61040000 		.4byte	.LASF36
 1036 0218 05       		.byte	0x5
 1037 0219 90       		.byte	0x90
 1038 021a BF000000 		.4byte	0xbf
 1039 021e 04       		.byte	0x4
 1040 021f 01       		.byte	0x1
 1041 0220 10       		.byte	0x10
 1042 0221 02       		.byte	0x2
 1043 0222 23       		.byte	0x23
 1044 0223 00       		.uleb128 0
 1045 0224 00       		.byte	0
 1046 0225 04       		.uleb128 0x4
 1047 0226 63030000 		.4byte	.LASF37
 1048 022a 05       		.byte	0x5
 1049 022b 91       		.byte	0x91
 1050 022c 08010000 		.4byte	0x108
 1051 0230 04       		.uleb128 0x4
 1052 0231 D1010000 		.4byte	.LASF38
 1053 0235 05       		.byte	0x5
ARM GAS  C:\Users\claym\AppData\Local\Temp\cctQKk9X.s 			page 22


 1054 0236 D4       		.byte	0xd4
 1055 0237 3B020000 		.4byte	0x23b
 1056 023b 0A       		.uleb128 0xa
 1057 023c 04       		.byte	0x4
 1058 023d 41020000 		.4byte	0x241
 1059 0241 0B       		.uleb128 0xb
 1060 0242 01       		.byte	0x1
 1061 0243 4D020000 		.4byte	0x24d
 1062 0247 0C       		.uleb128 0xc
 1063 0248 BF000000 		.4byte	0xbf
 1064 024c 00       		.byte	0
 1065 024d 07       		.uleb128 0x7
 1066 024e A0000000 		.4byte	.LASF39
 1067 0252 24       		.byte	0x24
 1068 0253 05       		.byte	0x5
 1069 0254 DA       		.byte	0xda
 1070 0255 D8020000 		.4byte	0x2d8
 1071 0259 0D       		.uleb128 0xd
 1072 025a 38060000 		.4byte	.LASF40
 1073 025e 05       		.byte	0x5
 1074 025f DB       		.byte	0xdb
 1075 0260 DE020000 		.4byte	0x2de
 1076 0264 02       		.byte	0x2
 1077 0265 23       		.byte	0x23
 1078 0266 00       		.uleb128 0
 1079 0267 0D       		.uleb128 0xd
 1080 0268 97040000 		.4byte	.LASF41
 1081 026c 05       		.byte	0x5
 1082 026d DC       		.byte	0xdc
 1083 026e F4020000 		.4byte	0x2f4
 1084 0272 02       		.byte	0x2
 1085 0273 23       		.byte	0x23
 1086 0274 04       		.uleb128 0x4
 1087 0275 0D       		.uleb128 0xd
 1088 0276 00000000 		.4byte	.LASF42
 1089 027a 05       		.byte	0x5
 1090 027b DD       		.byte	0xdd
 1091 027c 00030000 		.4byte	0x300
 1092 0280 02       		.byte	0x2
 1093 0281 23       		.byte	0x23
 1094 0282 08       		.uleb128 0x8
 1095 0283 0D       		.uleb128 0xd
 1096 0284 2B050000 		.4byte	.LASF43
 1097 0288 05       		.byte	0x5
 1098 0289 DE       		.byte	0xde
 1099 028a 21030000 		.4byte	0x321
 1100 028e 02       		.byte	0x2
 1101 028f 23       		.byte	0x23
 1102 0290 0C       		.uleb128 0xc
 1103 0291 0D       		.uleb128 0xd
 1104 0292 8E030000 		.4byte	.LASF44
 1105 0296 05       		.byte	0x5
 1106 0297 DF       		.byte	0xdf
 1107 0298 21030000 		.4byte	0x321
 1108 029c 02       		.byte	0x2
 1109 029d 23       		.byte	0x23
 1110 029e 10       		.uleb128 0x10
ARM GAS  C:\Users\claym\AppData\Local\Temp\cctQKk9X.s 			page 23


 1111 029f 0D       		.uleb128 0xd
 1112 02a0 BB000000 		.4byte	.LASF45
 1113 02a4 05       		.byte	0x5
 1114 02a5 E0       		.byte	0xe0
 1115 02a6 00030000 		.4byte	0x300
 1116 02aa 02       		.byte	0x2
 1117 02ab 23       		.byte	0x23
 1118 02ac 14       		.uleb128 0x14
 1119 02ad 0D       		.uleb128 0xd
 1120 02ae 56060000 		.4byte	.LASF46
 1121 02b2 05       		.byte	0x5
 1122 02b3 E1       		.byte	0xe1
 1123 02b4 00030000 		.4byte	0x300
 1124 02b8 02       		.byte	0x2
 1125 02b9 23       		.byte	0x23
 1126 02ba 18       		.uleb128 0x18
 1127 02bb 0D       		.uleb128 0xd
 1128 02bc E8010000 		.4byte	.LASF47
 1129 02c0 05       		.byte	0x5
 1130 02c1 E2       		.byte	0xe2
 1131 02c2 3C030000 		.4byte	0x33c
 1132 02c6 02       		.byte	0x2
 1133 02c7 23       		.byte	0x23
 1134 02c8 1C       		.uleb128 0x1c
 1135 02c9 0D       		.uleb128 0xd
 1136 02ca 40020000 		.4byte	.LASF48
 1137 02ce 05       		.byte	0x5
 1138 02cf E3       		.byte	0xe3
 1139 02d0 48030000 		.4byte	0x348
 1140 02d4 02       		.byte	0x2
 1141 02d5 23       		.byte	0x23
 1142 02d6 20       		.uleb128 0x20
 1143 02d7 00       		.byte	0
 1144 02d8 0E       		.uleb128 0xe
 1145 02d9 01       		.byte	0x1
 1146 02da FD000000 		.4byte	0xfd
 1147 02de 0A       		.uleb128 0xa
 1148 02df 04       		.byte	0x4
 1149 02e0 D8020000 		.4byte	0x2d8
 1150 02e4 0F       		.uleb128 0xf
 1151 02e5 01       		.byte	0x1
 1152 02e6 B4000000 		.4byte	0xb4
 1153 02ea F4020000 		.4byte	0x2f4
 1154 02ee 0C       		.uleb128 0xc
 1155 02ef 30020000 		.4byte	0x230
 1156 02f3 00       		.byte	0
 1157 02f4 0A       		.uleb128 0xa
 1158 02f5 04       		.byte	0x4
 1159 02f6 E4020000 		.4byte	0x2e4
 1160 02fa 0E       		.uleb128 0xe
 1161 02fb 01       		.byte	0x1
 1162 02fc B4000000 		.4byte	0xb4
 1163 0300 0A       		.uleb128 0xa
 1164 0301 04       		.byte	0x4
 1165 0302 FA020000 		.4byte	0x2fa
 1166 0306 0F       		.uleb128 0xf
 1167 0307 01       		.byte	0x1
ARM GAS  C:\Users\claym\AppData\Local\Temp\cctQKk9X.s 			page 24


 1168 0308 B4000000 		.4byte	0xb4
 1169 030c 1B030000 		.4byte	0x31b
 1170 0310 0C       		.uleb128 0xc
 1171 0311 1B030000 		.4byte	0x31b
 1172 0315 0C       		.uleb128 0xc
 1173 0316 BF000000 		.4byte	0xbf
 1174 031a 00       		.byte	0
 1175 031b 0A       		.uleb128 0xa
 1176 031c 04       		.byte	0x4
 1177 031d 9E000000 		.4byte	0x9e
 1178 0321 0A       		.uleb128 0xa
 1179 0322 04       		.byte	0x4
 1180 0323 06030000 		.4byte	0x306
 1181 0327 0F       		.uleb128 0xf
 1182 0328 01       		.byte	0x1
 1183 0329 B4000000 		.4byte	0xb4
 1184 032d 3C030000 		.4byte	0x33c
 1185 0331 0C       		.uleb128 0xc
 1186 0332 BF000000 		.4byte	0xbf
 1187 0336 0C       		.uleb128 0xc
 1188 0337 BF000000 		.4byte	0xbf
 1189 033b 00       		.byte	0
 1190 033c 0A       		.uleb128 0xa
 1191 033d 04       		.byte	0x4
 1192 033e 27030000 		.4byte	0x327
 1193 0342 0E       		.uleb128 0xe
 1194 0343 01       		.byte	0x1
 1195 0344 25020000 		.4byte	0x225
 1196 0348 0A       		.uleb128 0xa
 1197 0349 04       		.byte	0x4
 1198 034a 42030000 		.4byte	0x342
 1199 034e 04       		.uleb128 0x4
 1200 034f F6020000 		.4byte	.LASF49
 1201 0353 05       		.byte	0x5
 1202 0354 E4       		.byte	0xe4
 1203 0355 4D020000 		.4byte	0x24d
 1204 0359 10       		.uleb128 0x10
 1205 035a 4B050000 		.4byte	.LASF50
 1206 035e 05       		.byte	0x5
 1207 035f E6       		.byte	0xe6
 1208 0360 4E030000 		.4byte	0x34e
 1209 0364 01       		.byte	0x1
 1210 0365 01       		.byte	0x1
 1211 0366 10       		.uleb128 0x10
 1212 0367 3E050000 		.4byte	.LASF51
 1213 036b 05       		.byte	0x5
 1214 036c E7       		.byte	0xe7
 1215 036d 4E030000 		.4byte	0x34e
 1216 0371 01       		.byte	0x1
 1217 0372 01       		.byte	0x1
 1218 0373 10       		.uleb128 0x10
 1219 0374 A0020000 		.4byte	.LASF52
 1220 0378 06       		.byte	0x6
 1221 0379 B2       		.byte	0xb2
 1222 037a BF000000 		.4byte	0xbf
 1223 037e 01       		.byte	0x1
 1224 037f 01       		.byte	0x1
ARM GAS  C:\Users\claym\AppData\Local\Temp\cctQKk9X.s 			page 25


 1225 0380 11       		.uleb128 0x11
 1226 0381 0010     		.2byte	0x1000
 1227 0383 07       		.byte	0x7
 1228 0384 9501     		.2byte	0x195
 1229 0386 B8040000 		.4byte	0x4b8
 1230 038a 12       		.uleb128 0x12
 1231 038b 73010000 		.4byte	.LASF53
 1232 038f 07       		.byte	0x7
 1233 0390 9601     		.2byte	0x196
 1234 0392 CA000000 		.4byte	0xca
 1235 0396 02       		.byte	0x2
 1236 0397 23       		.byte	0x23
 1237 0398 00       		.uleb128 0
 1238 0399 12       		.uleb128 0x12
 1239 039a E0040000 		.4byte	.LASF54
 1240 039e 07       		.byte	0x7
 1241 039f 9701     		.2byte	0x197
 1242 03a1 CA000000 		.4byte	0xca
 1243 03a5 02       		.byte	0x2
 1244 03a6 23       		.byte	0x23
 1245 03a7 04       		.uleb128 0x4
 1246 03a8 12       		.uleb128 0x12
 1247 03a9 71060000 		.4byte	.LASF55
 1248 03ad 07       		.byte	0x7
 1249 03ae 9801     		.2byte	0x198
 1250 03b0 CA000000 		.4byte	0xca
 1251 03b4 02       		.byte	0x2
 1252 03b5 23       		.byte	0x23
 1253 03b6 08       		.uleb128 0x8
 1254 03b7 12       		.uleb128 0x12
 1255 03b8 D5000000 		.4byte	.LASF56
 1256 03bc 07       		.byte	0x7
 1257 03bd 9901     		.2byte	0x199
 1258 03bf CA000000 		.4byte	0xca
 1259 03c3 02       		.byte	0x2
 1260 03c4 23       		.byte	0x23
 1261 03c5 0C       		.uleb128 0xc
 1262 03c6 12       		.uleb128 0x12
 1263 03c7 6A000000 		.4byte	.LASF57
 1264 03cb 07       		.byte	0x7
 1265 03cc 9A01     		.2byte	0x19a
 1266 03ce CF000000 		.4byte	0xcf
 1267 03d2 02       		.byte	0x2
 1268 03d3 23       		.byte	0x23
 1269 03d4 10       		.uleb128 0x10
 1270 03d5 12       		.uleb128 0x12
 1271 03d6 14030000 		.4byte	.LASF58
 1272 03da 07       		.byte	0x7
 1273 03db 9B01     		.2byte	0x19b
 1274 03dd CF000000 		.4byte	0xcf
 1275 03e1 02       		.byte	0x2
 1276 03e2 23       		.byte	0x23
 1277 03e3 14       		.uleb128 0x14
 1278 03e4 12       		.uleb128 0x12
 1279 03e5 23060000 		.4byte	.LASF59
 1280 03e9 07       		.byte	0x7
 1281 03ea 9C01     		.2byte	0x19c
ARM GAS  C:\Users\claym\AppData\Local\Temp\cctQKk9X.s 			page 26


 1282 03ec CA000000 		.4byte	0xca
 1283 03f0 02       		.byte	0x2
 1284 03f1 23       		.byte	0x23
 1285 03f2 18       		.uleb128 0x18
 1286 03f3 12       		.uleb128 0x12
 1287 03f4 B3030000 		.4byte	.LASF60
 1288 03f8 07       		.byte	0x7
 1289 03f9 9D01     		.2byte	0x19d
 1290 03fb CA000000 		.4byte	0xca
 1291 03ff 02       		.byte	0x2
 1292 0400 23       		.byte	0x23
 1293 0401 1C       		.uleb128 0x1c
 1294 0402 12       		.uleb128 0x12
 1295 0403 32060000 		.4byte	.LASF61
 1296 0407 07       		.byte	0x7
 1297 0408 9E01     		.2byte	0x19e
 1298 040a CA000000 		.4byte	0xca
 1299 040e 02       		.byte	0x2
 1300 040f 23       		.byte	0x23
 1301 0410 20       		.uleb128 0x20
 1302 0411 12       		.uleb128 0x12
 1303 0412 98050000 		.4byte	.LASF62
 1304 0416 07       		.byte	0x7
 1305 0417 9F01     		.2byte	0x19f
 1306 0419 CA000000 		.4byte	0xca
 1307 041d 02       		.byte	0x2
 1308 041e 23       		.byte	0x23
 1309 041f 24       		.uleb128 0x24
 1310 0420 12       		.uleb128 0x12
 1311 0421 61060000 		.4byte	.LASF63
 1312 0425 07       		.byte	0x7
 1313 0426 A001     		.2byte	0x1a0
 1314 0428 CA000000 		.4byte	0xca
 1315 042c 02       		.byte	0x2
 1316 042d 23       		.byte	0x23
 1317 042e 28       		.uleb128 0x28
 1318 042f 12       		.uleb128 0x12
 1319 0430 38020000 		.4byte	.LASF64
 1320 0434 07       		.byte	0x7
 1321 0435 A101     		.2byte	0x1a1
 1322 0437 CF000000 		.4byte	0xcf
 1323 043b 02       		.byte	0x2
 1324 043c 23       		.byte	0x23
 1325 043d 2C       		.uleb128 0x2c
 1326 043e 12       		.uleb128 0x12
 1327 043f 69060000 		.4byte	.LASF65
 1328 0443 07       		.byte	0x7
 1329 0444 A201     		.2byte	0x1a2
 1330 0446 CF000000 		.4byte	0xcf
 1331 044a 02       		.byte	0x2
 1332 044b 23       		.byte	0x23
 1333 044c 30       		.uleb128 0x30
 1334 044d 12       		.uleb128 0x12
 1335 044e 98000000 		.4byte	.LASF66
 1336 0452 07       		.byte	0x7
 1337 0453 A301     		.2byte	0x1a3
 1338 0455 CA000000 		.4byte	0xca
ARM GAS  C:\Users\claym\AppData\Local\Temp\cctQKk9X.s 			page 27


 1339 0459 02       		.byte	0x2
 1340 045a 23       		.byte	0x23
 1341 045b 34       		.uleb128 0x34
 1342 045c 12       		.uleb128 0x12
 1343 045d A7050000 		.4byte	.LASF67
 1344 0461 07       		.byte	0x7
 1345 0462 A401     		.2byte	0x1a4
 1346 0464 CA000000 		.4byte	0xca
 1347 0468 02       		.byte	0x2
 1348 0469 23       		.byte	0x23
 1349 046a 38       		.uleb128 0x38
 1350 046b 12       		.uleb128 0x12
 1351 046c DD030000 		.4byte	.LASF68
 1352 0470 07       		.byte	0x7
 1353 0471 A501     		.2byte	0x1a5
 1354 0473 CA000000 		.4byte	0xca
 1355 0477 02       		.byte	0x2
 1356 0478 23       		.byte	0x23
 1357 0479 3C       		.uleb128 0x3c
 1358 047a 12       		.uleb128 0x12
 1359 047b D3040000 		.4byte	.LASF69
 1360 047f 07       		.byte	0x7
 1361 0480 A601     		.2byte	0x1a6
 1362 0482 CA000000 		.4byte	0xca
 1363 0486 02       		.byte	0x2
 1364 0487 23       		.byte	0x23
 1365 0488 40       		.uleb128 0x40
 1366 0489 12       		.uleb128 0x12
 1367 048a 71050000 		.4byte	.LASF70
 1368 048e 07       		.byte	0x7
 1369 048f A701     		.2byte	0x1a7
 1370 0491 CF000000 		.4byte	0xcf
 1371 0495 02       		.byte	0x2
 1372 0496 23       		.byte	0x23
 1373 0497 44       		.uleb128 0x44
 1374 0498 12       		.uleb128 0x12
 1375 0499 EA030000 		.4byte	.LASF71
 1376 049d 07       		.byte	0x7
 1377 049e A801     		.2byte	0x1a8
 1378 04a0 CE040000 		.4byte	0x4ce
 1379 04a4 02       		.byte	0x2
 1380 04a5 23       		.byte	0x23
 1381 04a6 48       		.uleb128 0x48
 1382 04a7 12       		.uleb128 0x12
 1383 04a8 0D020000 		.4byte	.LASF72
 1384 04ac 07       		.byte	0x7
 1385 04ad A901     		.2byte	0x1a9
 1386 04af CF000000 		.4byte	0xcf
 1387 04b3 03       		.byte	0x3
 1388 04b4 23       		.byte	0x23
 1389 04b5 FC1F     		.uleb128 0xffc
 1390 04b7 00       		.byte	0
 1391 04b8 13       		.uleb128 0x13
 1392 04b9 CF000000 		.4byte	0xcf
 1393 04bd C9040000 		.4byte	0x4c9
 1394 04c1 14       		.uleb128 0x14
 1395 04c2 2C000000 		.4byte	0x2c
ARM GAS  C:\Users\claym\AppData\Local\Temp\cctQKk9X.s 			page 28


 1396 04c6 EC03     		.2byte	0x3ec
 1397 04c8 00       		.byte	0
 1398 04c9 06       		.uleb128 0x6
 1399 04ca B8040000 		.4byte	0x4b8
 1400 04ce 05       		.uleb128 0x5
 1401 04cf C9040000 		.4byte	0x4c9
 1402 04d3 15       		.uleb128 0x15
 1403 04d4 78010000 		.4byte	.LASF73
 1404 04d8 07       		.byte	0x7
 1405 04d9 AA01     		.2byte	0x1aa
 1406 04db 80030000 		.4byte	0x380
 1407 04df 07       		.uleb128 0x7
 1408 04e0 22000000 		.4byte	.LASF74
 1409 04e4 AC       		.byte	0xac
 1410 04e5 08       		.byte	0x8
 1411 04e6 2B       		.byte	0x2b
 1412 04e7 95050000 		.4byte	0x595
 1413 04eb 0D       		.uleb128 0xd
 1414 04ec 77050000 		.4byte	.LASF75
 1415 04f0 08       		.byte	0x8
 1416 04f1 2C       		.byte	0x2c
 1417 04f2 30020000 		.4byte	0x230
 1418 04f6 02       		.byte	0x2
 1419 04f7 23       		.byte	0x23
 1420 04f8 00       		.uleb128 0
 1421 04f9 0D       		.uleb128 0xd
 1422 04fa D4020000 		.4byte	.LASF76
 1423 04fe 08       		.byte	0x8
 1424 04ff 2D       		.byte	0x2d
 1425 0500 25020000 		.4byte	0x225
 1426 0504 02       		.byte	0x2
 1427 0505 23       		.byte	0x23
 1428 0506 04       		.uleb128 0x4
 1429 0507 0D       		.uleb128 0xd
 1430 0508 64000000 		.4byte	.LASF77
 1431 050c 08       		.byte	0x8
 1432 050d 2E       		.byte	0x2e
 1433 050e BF000000 		.4byte	0xbf
 1434 0512 02       		.byte	0x2
 1435 0513 23       		.byte	0x23
 1436 0514 08       		.uleb128 0x8
 1437 0515 0D       		.uleb128 0xd
 1438 0516 84030000 		.4byte	.LASF78
 1439 051a 08       		.byte	0x8
 1440 051b 2F       		.byte	0x2f
 1441 051c BF000000 		.4byte	0xbf
 1442 0520 02       		.byte	0x2
 1443 0521 23       		.byte	0x23
 1444 0522 0C       		.uleb128 0xc
 1445 0523 0D       		.uleb128 0xd
 1446 0524 A2040000 		.4byte	.LASF79
 1447 0528 08       		.byte	0x8
 1448 0529 30       		.byte	0x30
 1449 052a BF000000 		.4byte	0xbf
 1450 052e 02       		.byte	0x2
 1451 052f 23       		.byte	0x23
 1452 0530 10       		.uleb128 0x10
ARM GAS  C:\Users\claym\AppData\Local\Temp\cctQKk9X.s 			page 29


 1453 0531 0D       		.uleb128 0xd
 1454 0532 5B000000 		.4byte	.LASF80
 1455 0536 08       		.byte	0x8
 1456 0537 31       		.byte	0x31
 1457 0538 BF000000 		.4byte	0xbf
 1458 053c 02       		.byte	0x2
 1459 053d 23       		.byte	0x23
 1460 053e 14       		.uleb128 0x14
 1461 053f 0D       		.uleb128 0xd
 1462 0540 07020000 		.4byte	.LASF81
 1463 0544 08       		.byte	0x8
 1464 0545 32       		.byte	0x32
 1465 0546 BF000000 		.4byte	0xbf
 1466 054a 02       		.byte	0x2
 1467 054b 23       		.byte	0x23
 1468 054c 18       		.uleb128 0x18
 1469 054d 0D       		.uleb128 0xd
 1470 054e 2C060000 		.4byte	.LASF82
 1471 0552 08       		.byte	0x8
 1472 0553 33       		.byte	0x33
 1473 0554 BF000000 		.4byte	0xbf
 1474 0558 02       		.byte	0x2
 1475 0559 23       		.byte	0x23
 1476 055a 1C       		.uleb128 0x1c
 1477 055b 0D       		.uleb128 0xd
 1478 055c 43060000 		.4byte	.LASF83
 1479 0560 08       		.byte	0x8
 1480 0561 34       		.byte	0x34
 1481 0562 BF000000 		.4byte	0xbf
 1482 0566 02       		.byte	0x2
 1483 0567 23       		.byte	0x23
 1484 0568 20       		.uleb128 0x20
 1485 0569 0D       		.uleb128 0xd
 1486 056a FC030000 		.4byte	.LASF84
 1487 056e 08       		.byte	0x8
 1488 056f 35       		.byte	0x35
 1489 0570 BF000000 		.4byte	0xbf
 1490 0574 02       		.byte	0x2
 1491 0575 23       		.byte	0x23
 1492 0576 24       		.uleb128 0x24
 1493 0577 0D       		.uleb128 0xd
 1494 0578 14050000 		.4byte	.LASF85
 1495 057c 08       		.byte	0x8
 1496 057d 36       		.byte	0x36
 1497 057e 95050000 		.4byte	0x595
 1498 0582 02       		.byte	0x2
 1499 0583 23       		.byte	0x23
 1500 0584 28       		.uleb128 0x28
 1501 0585 0D       		.uleb128 0xd
 1502 0586 48030000 		.4byte	.LASF86
 1503 058a 08       		.byte	0x8
 1504 058b 37       		.byte	0x37
 1505 058c 1B030000 		.4byte	0x31b
 1506 0590 03       		.byte	0x3
 1507 0591 23       		.byte	0x23
 1508 0592 A801     		.uleb128 0xa8
 1509 0594 00       		.byte	0
ARM GAS  C:\Users\claym\AppData\Local\Temp\cctQKk9X.s 			page 30


 1510 0595 13       		.uleb128 0x13
 1511 0596 9E000000 		.4byte	0x9e
 1512 059a A5050000 		.4byte	0x5a5
 1513 059e 16       		.uleb128 0x16
 1514 059f 2C000000 		.4byte	0x2c
 1515 05a3 7F       		.byte	0x7f
 1516 05a4 00       		.byte	0
 1517 05a5 04       		.uleb128 0x4
 1518 05a6 C7010000 		.4byte	.LASF87
 1519 05aa 08       		.byte	0x8
 1520 05ab 38       		.byte	0x38
 1521 05ac DF040000 		.4byte	0x4df
 1522 05b0 17       		.uleb128 0x17
 1523 05b1 BC       		.byte	0xbc
 1524 05b2 08       		.byte	0x8
 1525 05b3 3C       		.byte	0x3c
 1526 05b4 00060000 		.4byte	0x600
 1527 05b8 0D       		.uleb128 0xd
 1528 05b9 0D060000 		.4byte	.LASF88
 1529 05bd 08       		.byte	0x8
 1530 05be 3D       		.byte	0x3d
 1531 05bf BF000000 		.4byte	0xbf
 1532 05c3 02       		.byte	0x2
 1533 05c4 23       		.byte	0x23
 1534 05c5 00       		.uleb128 0
 1535 05c6 08       		.uleb128 0x8
 1536 05c7 72656700 		.ascii	"reg\000"
 1537 05cb 08       		.byte	0x8
 1538 05cc 3E       		.byte	0x3e
 1539 05cd 00060000 		.4byte	0x600
 1540 05d1 02       		.byte	0x2
 1541 05d2 23       		.byte	0x23
 1542 05d3 04       		.uleb128 0x4
 1543 05d4 08       		.uleb128 0x8
 1544 05d5 64727600 		.ascii	"drv\000"
 1545 05d9 08       		.byte	0x8
 1546 05da 3F       		.byte	0x3f
 1547 05db 06060000 		.4byte	0x606
 1548 05df 02       		.byte	0x2
 1549 05e0 23       		.byte	0x23
 1550 05e1 08       		.uleb128 0x8
 1551 05e2 0D       		.uleb128 0xd
 1552 05e3 A2050000 		.4byte	.LASF89
 1553 05e7 08       		.byte	0x8
 1554 05e8 40       		.byte	0x40
 1555 05e9 A5050000 		.4byte	0x5a5
 1556 05ed 02       		.byte	0x2
 1557 05ee 23       		.byte	0x23
 1558 05ef 0C       		.uleb128 0xc
 1559 05f0 0D       		.uleb128 0xd
 1560 05f1 68040000 		.4byte	.LASF90
 1561 05f5 08       		.byte	0x8
 1562 05f6 41       		.byte	0x41
 1563 05f7 BF000000 		.4byte	0xbf
 1564 05fb 03       		.byte	0x3
 1565 05fc 23       		.byte	0x23
 1566 05fd B801     		.uleb128 0xb8
ARM GAS  C:\Users\claym\AppData\Local\Temp\cctQKk9X.s 			page 31


 1567 05ff 00       		.byte	0
 1568 0600 0A       		.uleb128 0xa
 1569 0601 04       		.byte	0x4
 1570 0602 D3040000 		.4byte	0x4d3
 1571 0606 0A       		.uleb128 0xa
 1572 0607 04       		.byte	0x4
 1573 0608 4E030000 		.4byte	0x34e
 1574 060c 04       		.uleb128 0x4
 1575 060d 5C020000 		.4byte	.LASF91
 1576 0611 08       		.byte	0x8
 1577 0612 42       		.byte	0x42
 1578 0613 B0050000 		.4byte	0x5b0
 1579 0617 10       		.uleb128 0x10
 1580 0618 1D030000 		.4byte	.LASF92
 1581 061c 01       		.byte	0x1
 1582 061d 19       		.byte	0x19
 1583 061e 0C060000 		.4byte	0x60c
 1584 0622 01       		.byte	0x1
 1585 0623 01       		.byte	0x1
 1586 0624 10       		.uleb128 0x10
 1587 0625 72020000 		.4byte	.LASF93
 1588 0629 01       		.byte	0x1
 1589 062a 1A       		.byte	0x1a
 1590 062b 0C060000 		.4byte	0x60c
 1591 062f 01       		.byte	0x1
 1592 0630 01       		.byte	0x1
 1593 0631 18       		.uleb128 0x18
 1594 0632 66030000 		.4byte	0x366
 1595 0636 01       		.byte	0x1
 1596 0637 3C       		.byte	0x3c
 1597 0638 05       		.byte	0x5
 1598 0639 03       		.byte	0x3
 1599 063a 00000000 		.4byte	Driver_UART0
 1600 063e 18       		.uleb128 0x18
 1601 063f 59030000 		.4byte	0x359
 1602 0643 01       		.byte	0x1
 1603 0644 66       		.byte	0x66
 1604 0645 05       		.byte	0x5
 1605 0646 03       		.byte	0x3
 1606 0647 00000000 		.4byte	Driver_UART1
 1607 064b 19       		.uleb128 0x19
 1608 064c 01       		.byte	0x1
 1609 064d 2D000000 		.4byte	.LASF104
 1610 0651 01       		.byte	0x1
 1611 0652 61       		.byte	0x61
 1612 0653 01       		.byte	0x1
 1613 0654 10010000 		.4byte	.LFB51
 1614 0658 20010000 		.4byte	.LFE51
 1615 065c 00000000 		.4byte	.LLST31
 1616 0660 01       		.byte	0x1
 1617 0661 6F060000 		.4byte	0x66f
 1618 0665 1A       		.uleb128 0x1a
 1619 0666 18010000 		.4byte	.LVL25
 1620 066a 3F0A0000 		.4byte	0xa3f
 1621 066e 00       		.byte	0
 1622 066f 1B       		.uleb128 0x1b
 1623 0670 88000000 		.4byte	.LASF94
ARM GAS  C:\Users\claym\AppData\Local\Temp\cctQKk9X.s 			page 32


 1624 0674 01       		.byte	0x1
 1625 0675 5E       		.byte	0x5e
 1626 0676 01       		.byte	0x1
 1627 0677 25020000 		.4byte	0x225
 1628 067b 10000000 		.4byte	.LFB50
 1629 067f 20000000 		.4byte	.LFE50
 1630 0683 20000000 		.4byte	.LLST1
 1631 0687 01       		.byte	0x1
 1632 0688 96060000 		.4byte	0x696
 1633 068c 1A       		.uleb128 0x1a
 1634 068d 18000000 		.4byte	.LVL1
 1635 0691 4C0A0000 		.4byte	0xa4c
 1636 0695 00       		.byte	0
 1637 0696 1B       		.uleb128 0x1b
 1638 0697 63050000 		.4byte	.LASF95
 1639 069b 01       		.byte	0x1
 1640 069c 5B       		.byte	0x5b
 1641 069d 01       		.byte	0x1
 1642 069e B4000000 		.4byte	0xb4
 1643 06a2 30000000 		.4byte	.LFB49
 1644 06a6 40000000 		.4byte	.LFE49
 1645 06aa 40000000 		.4byte	.LLST5
 1646 06ae 01       		.byte	0x1
 1647 06af EA060000 		.4byte	0x6ea
 1648 06b3 1C       		.uleb128 0x1c
 1649 06b4 73000000 		.4byte	.LASF96
 1650 06b8 01       		.byte	0x1
 1651 06b9 5B       		.byte	0x5b
 1652 06ba BF000000 		.4byte	0xbf
 1653 06be 60000000 		.4byte	.LLST6
 1654 06c2 1D       		.uleb128 0x1d
 1655 06c3 61726700 		.ascii	"arg\000"
 1656 06c7 01       		.byte	0x1
 1657 06c8 5B       		.byte	0x5b
 1658 06c9 BF000000 		.4byte	0xbf
 1659 06cd 81000000 		.4byte	.LLST7
 1660 06d1 1E       		.uleb128 0x1e
 1661 06d2 38000000 		.4byte	.LVL5
 1662 06d6 590A0000 		.4byte	0xa59
 1663 06da 1F       		.uleb128 0x1f
 1664 06db 01       		.byte	0x1
 1665 06dc 50       		.byte	0x50
 1666 06dd 03       		.byte	0x3
 1667 06de F3       		.byte	0xf3
 1668 06df 01       		.uleb128 0x1
 1669 06e0 50       		.byte	0x50
 1670 06e1 1F       		.uleb128 0x1f
 1671 06e2 01       		.byte	0x1
 1672 06e3 51       		.byte	0x51
 1673 06e4 03       		.byte	0x3
 1674 06e5 F3       		.byte	0xf3
 1675 06e6 01       		.uleb128 0x1
 1676 06e7 51       		.byte	0x51
 1677 06e8 00       		.byte	0
 1678 06e9 00       		.byte	0
 1679 06ea 1B       		.uleb128 0x1b
 1680 06eb 80050000 		.4byte	.LASF97
ARM GAS  C:\Users\claym\AppData\Local\Temp\cctQKk9X.s 			page 33


 1681 06ef 01       		.byte	0x1
 1682 06f0 58       		.byte	0x58
 1683 06f1 01       		.byte	0x1
 1684 06f2 B4000000 		.4byte	0xb4
 1685 06f6 50000000 		.4byte	.LFB48
 1686 06fa 60000000 		.4byte	.LFE48
 1687 06fe A2000000 		.4byte	.LLST9
 1688 0702 01       		.byte	0x1
 1689 0703 11070000 		.4byte	0x711
 1690 0707 1A       		.uleb128 0x1a
 1691 0708 58000000 		.4byte	.LVL7
 1692 070c 660A0000 		.4byte	0xa66
 1693 0710 00       		.byte	0
 1694 0711 1B       		.uleb128 0x1b
 1695 0712 D2050000 		.4byte	.LASF98
 1696 0716 01       		.byte	0x1
 1697 0717 55       		.byte	0x55
 1698 0718 01       		.byte	0x1
 1699 0719 B4000000 		.4byte	0xb4
 1700 071d 70000000 		.4byte	.LFB47
 1701 0721 80000000 		.4byte	.LFE47
 1702 0725 C2000000 		.4byte	.LLST11
 1703 0729 01       		.byte	0x1
 1704 072a 38070000 		.4byte	0x738
 1705 072e 1A       		.uleb128 0x1a
 1706 072f 78000000 		.4byte	.LVL9
 1707 0733 730A0000 		.4byte	0xa73
 1708 0737 00       		.byte	0
 1709 0738 1B       		.uleb128 0x1b
 1710 0739 0C040000 		.4byte	.LASF99
 1711 073d 01       		.byte	0x1
 1712 073e 52       		.byte	0x52
 1713 073f 01       		.byte	0x1
 1714 0740 B4000000 		.4byte	0xb4
 1715 0744 90000000 		.4byte	.LFB46
 1716 0748 A0000000 		.4byte	.LFE46
 1717 074c E2000000 		.4byte	.LLST15
 1718 0750 01       		.byte	0x1
 1719 0751 8C070000 		.4byte	0x78c
 1720 0755 1C       		.uleb128 0x1c
 1721 0756 B6020000 		.4byte	.LASF100
 1722 075a 01       		.byte	0x1
 1723 075b 52       		.byte	0x52
 1724 075c 1B030000 		.4byte	0x31b
 1725 0760 02010000 		.4byte	.LLST16
 1726 0764 1D       		.uleb128 0x1d
 1727 0765 6E756D00 		.ascii	"num\000"
 1728 0769 01       		.byte	0x1
 1729 076a 52       		.byte	0x52
 1730 076b BF000000 		.4byte	0xbf
 1731 076f 23010000 		.4byte	.LLST17
 1732 0773 1E       		.uleb128 0x1e
 1733 0774 98000000 		.4byte	.LVL13
 1734 0778 800A0000 		.4byte	0xa80
 1735 077c 1F       		.uleb128 0x1f
 1736 077d 01       		.byte	0x1
 1737 077e 50       		.byte	0x50
ARM GAS  C:\Users\claym\AppData\Local\Temp\cctQKk9X.s 			page 34


 1738 077f 03       		.byte	0x3
 1739 0780 F3       		.byte	0xf3
 1740 0781 01       		.uleb128 0x1
 1741 0782 50       		.byte	0x50
 1742 0783 1F       		.uleb128 0x1f
 1743 0784 01       		.byte	0x1
 1744 0785 51       		.byte	0x51
 1745 0786 03       		.byte	0x3
 1746 0787 F3       		.byte	0xf3
 1747 0788 01       		.uleb128 0x1
 1748 0789 51       		.byte	0x51
 1749 078a 00       		.byte	0
 1750 078b 00       		.byte	0
 1751 078c 1B       		.uleb128 0x1b
 1752 078d 58030000 		.4byte	.LASF101
 1753 0791 01       		.byte	0x1
 1754 0792 4F       		.byte	0x4f
 1755 0793 01       		.byte	0x1
 1756 0794 B4000000 		.4byte	0xb4
 1757 0798 B0000000 		.4byte	.LFB45
 1758 079c C0000000 		.4byte	.LFE45
 1759 07a0 44010000 		.4byte	.LLST21
 1760 07a4 01       		.byte	0x1
 1761 07a5 E0070000 		.4byte	0x7e0
 1762 07a9 1C       		.uleb128 0x1c
 1763 07aa B6020000 		.4byte	.LASF100
 1764 07ae 01       		.byte	0x1
 1765 07af 4F       		.byte	0x4f
 1766 07b0 1B030000 		.4byte	0x31b
 1767 07b4 64010000 		.4byte	.LLST22
 1768 07b8 1D       		.uleb128 0x1d
 1769 07b9 6E756D00 		.ascii	"num\000"
 1770 07bd 01       		.byte	0x1
 1771 07be 4F       		.byte	0x4f
 1772 07bf BF000000 		.4byte	0xbf
 1773 07c3 85010000 		.4byte	.LLST23
 1774 07c7 1E       		.uleb128 0x1e
 1775 07c8 B8000000 		.4byte	.LVL17
 1776 07cc 8D0A0000 		.4byte	0xa8d
 1777 07d0 1F       		.uleb128 0x1f
 1778 07d1 01       		.byte	0x1
 1779 07d2 50       		.byte	0x50
 1780 07d3 03       		.byte	0x3
 1781 07d4 F3       		.byte	0xf3
 1782 07d5 01       		.uleb128 0x1
 1783 07d6 50       		.byte	0x50
 1784 07d7 1F       		.uleb128 0x1f
 1785 07d8 01       		.byte	0x1
 1786 07d9 51       		.byte	0x51
 1787 07da 03       		.byte	0x3
 1788 07db F3       		.byte	0xf3
 1789 07dc 01       		.uleb128 0x1
 1790 07dd 51       		.byte	0x51
 1791 07de 00       		.byte	0
 1792 07df 00       		.byte	0
 1793 07e0 1B       		.uleb128 0x1b
 1794 07e1 84040000 		.4byte	.LASF102
ARM GAS  C:\Users\claym\AppData\Local\Temp\cctQKk9X.s 			page 35


 1795 07e5 01       		.byte	0x1
 1796 07e6 4C       		.byte	0x4c
 1797 07e7 01       		.byte	0x1
 1798 07e8 B4000000 		.4byte	0xb4
 1799 07ec D0000000 		.4byte	.LFB44
 1800 07f0 E0000000 		.4byte	.LFE44
 1801 07f4 A6010000 		.4byte	.LLST25
 1802 07f8 01       		.byte	0x1
 1803 07f9 07080000 		.4byte	0x807
 1804 07fd 1A       		.uleb128 0x1a
 1805 07fe D8000000 		.4byte	.LVL19
 1806 0802 9A0A0000 		.4byte	0xa9a
 1807 0806 00       		.byte	0
 1808 0807 1B       		.uleb128 0x1b
 1809 0808 37030000 		.4byte	.LASF103
 1810 080c 01       		.byte	0x1
 1811 080d 49       		.byte	0x49
 1812 080e 01       		.byte	0x1
 1813 080f B4000000 		.4byte	0xb4
 1814 0813 F0000000 		.4byte	.LFB43
 1815 0817 00010000 		.4byte	.LFE43
 1816 081b C6010000 		.4byte	.LLST28
 1817 081f 01       		.byte	0x1
 1818 0820 45080000 		.4byte	0x845
 1819 0824 1C       		.uleb128 0x1c
 1820 0825 77050000 		.4byte	.LASF75
 1821 0829 01       		.byte	0x1
 1822 082a 49       		.byte	0x49
 1823 082b 30020000 		.4byte	0x230
 1824 082f E6010000 		.4byte	.LLST29
 1825 0833 1E       		.uleb128 0x1e
 1826 0834 F8000000 		.4byte	.LVL23
 1827 0838 A70A0000 		.4byte	0xaa7
 1828 083c 1F       		.uleb128 0x1f
 1829 083d 01       		.byte	0x1
 1830 083e 50       		.byte	0x50
 1831 083f 03       		.byte	0x3
 1832 0840 F3       		.byte	0xf3
 1833 0841 01       		.uleb128 0x1
 1834 0842 50       		.byte	0x50
 1835 0843 00       		.byte	0
 1836 0844 00       		.byte	0
 1837 0845 19       		.uleb128 0x19
 1838 0846 01       		.byte	0x1
 1839 0847 0D000000 		.4byte	.LASF105
 1840 084b 01       		.byte	0x1
 1841 084c 37       		.byte	0x37
 1842 084d 01       		.byte	0x1
 1843 084e 00010000 		.4byte	.LFB42
 1844 0852 10010000 		.4byte	.LFE42
 1845 0856 07020000 		.4byte	.LLST30
 1846 085a 01       		.byte	0x1
 1847 085b 69080000 		.4byte	0x869
 1848 085f 1A       		.uleb128 0x1a
 1849 0860 08010000 		.4byte	.LVL24
 1850 0864 3F0A0000 		.4byte	0xa3f
 1851 0868 00       		.byte	0
ARM GAS  C:\Users\claym\AppData\Local\Temp\cctQKk9X.s 			page 36


 1852 0869 1B       		.uleb128 0x1b
 1853 086a 42000000 		.4byte	.LASF106
 1854 086e 01       		.byte	0x1
 1855 086f 34       		.byte	0x34
 1856 0870 01       		.byte	0x1
 1857 0871 25020000 		.4byte	0x225
 1858 0875 00000000 		.4byte	.LFB41
 1859 0879 10000000 		.4byte	.LFE41
 1860 087d 27020000 		.4byte	.LLST0
 1861 0881 01       		.byte	0x1
 1862 0882 90080000 		.4byte	0x890
 1863 0886 1A       		.uleb128 0x1a
 1864 0887 08000000 		.4byte	.LVL0
 1865 088b 4C0A0000 		.4byte	0xa4c
 1866 088f 00       		.byte	0
 1867 0890 1B       		.uleb128 0x1b
 1868 0891 15060000 		.4byte	.LASF107
 1869 0895 01       		.byte	0x1
 1870 0896 31       		.byte	0x31
 1871 0897 01       		.byte	0x1
 1872 0898 B4000000 		.4byte	0xb4
 1873 089c 20000000 		.4byte	.LFB40
 1874 08a0 30000000 		.4byte	.LFE40
 1875 08a4 47020000 		.4byte	.LLST2
 1876 08a8 01       		.byte	0x1
 1877 08a9 E4080000 		.4byte	0x8e4
 1878 08ad 1C       		.uleb128 0x1c
 1879 08ae 73000000 		.4byte	.LASF96
 1880 08b2 01       		.byte	0x1
 1881 08b3 31       		.byte	0x31
 1882 08b4 BF000000 		.4byte	0xbf
 1883 08b8 67020000 		.4byte	.LLST3
 1884 08bc 1D       		.uleb128 0x1d
 1885 08bd 61726700 		.ascii	"arg\000"
 1886 08c1 01       		.byte	0x1
 1887 08c2 31       		.byte	0x31
 1888 08c3 BF000000 		.4byte	0xbf
 1889 08c7 88020000 		.4byte	.LLST4
 1890 08cb 1E       		.uleb128 0x1e
 1891 08cc 28000000 		.4byte	.LVL3
 1892 08d0 590A0000 		.4byte	0xa59
 1893 08d4 1F       		.uleb128 0x1f
 1894 08d5 01       		.byte	0x1
 1895 08d6 50       		.byte	0x50
 1896 08d7 03       		.byte	0x3
 1897 08d8 F3       		.byte	0xf3
 1898 08d9 01       		.uleb128 0x1
 1899 08da 50       		.byte	0x50
 1900 08db 1F       		.uleb128 0x1f
 1901 08dc 01       		.byte	0x1
 1902 08dd 51       		.byte	0x51
 1903 08de 03       		.byte	0x3
 1904 08df F3       		.byte	0xf3
 1905 08e0 01       		.uleb128 0x1
 1906 08e1 51       		.byte	0x51
 1907 08e2 00       		.byte	0
 1908 08e3 00       		.byte	0
ARM GAS  C:\Users\claym\AppData\Local\Temp\cctQKk9X.s 			page 37


 1909 08e4 1B       		.uleb128 0x1b
 1910 08e5 BB020000 		.4byte	.LASF108
 1911 08e9 01       		.byte	0x1
 1912 08ea 2D       		.byte	0x2d
 1913 08eb 01       		.byte	0x1
 1914 08ec B4000000 		.4byte	0xb4
 1915 08f0 40000000 		.4byte	.LFB39
 1916 08f4 50000000 		.4byte	.LFE39
 1917 08f8 A9020000 		.4byte	.LLST8
 1918 08fc 01       		.byte	0x1
 1919 08fd 0B090000 		.4byte	0x90b
 1920 0901 1A       		.uleb128 0x1a
 1921 0902 48000000 		.4byte	.LVL6
 1922 0906 660A0000 		.4byte	0xa66
 1923 090a 00       		.byte	0
 1924 090b 1B       		.uleb128 0x1b
 1925 090c 73030000 		.4byte	.LASF109
 1926 0910 01       		.byte	0x1
 1927 0911 29       		.byte	0x29
 1928 0912 01       		.byte	0x1
 1929 0913 B4000000 		.4byte	0xb4
 1930 0917 60000000 		.4byte	.LFB38
 1931 091b 70000000 		.4byte	.LFE38
 1932 091f C9020000 		.4byte	.LLST10
 1933 0923 01       		.byte	0x1
 1934 0924 32090000 		.4byte	0x932
 1935 0928 1A       		.uleb128 0x1a
 1936 0929 68000000 		.4byte	.LVL8
 1937 092d 730A0000 		.4byte	0xa73
 1938 0931 00       		.byte	0
 1939 0932 1B       		.uleb128 0x1b
 1940 0933 92020000 		.4byte	.LASF110
 1941 0937 01       		.byte	0x1
 1942 0938 25       		.byte	0x25
 1943 0939 01       		.byte	0x1
 1944 093a B4000000 		.4byte	0xb4
 1945 093e 80000000 		.4byte	.LFB37
 1946 0942 90000000 		.4byte	.LFE37
 1947 0946 E9020000 		.4byte	.LLST12
 1948 094a 01       		.byte	0x1
 1949 094b 86090000 		.4byte	0x986
 1950 094f 1C       		.uleb128 0x1c
 1951 0950 B6020000 		.4byte	.LASF100
 1952 0954 01       		.byte	0x1
 1953 0955 25       		.byte	0x25
 1954 0956 1B030000 		.4byte	0x31b
 1955 095a 09030000 		.4byte	.LLST13
 1956 095e 1D       		.uleb128 0x1d
 1957 095f 6E756D00 		.ascii	"num\000"
 1958 0963 01       		.byte	0x1
 1959 0964 25       		.byte	0x25
 1960 0965 BF000000 		.4byte	0xbf
 1961 0969 2A030000 		.4byte	.LLST14
 1962 096d 1E       		.uleb128 0x1e
 1963 096e 88000000 		.4byte	.LVL11
 1964 0972 800A0000 		.4byte	0xa80
 1965 0976 1F       		.uleb128 0x1f
ARM GAS  C:\Users\claym\AppData\Local\Temp\cctQKk9X.s 			page 38


 1966 0977 01       		.byte	0x1
 1967 0978 50       		.byte	0x50
 1968 0979 03       		.byte	0x3
 1969 097a F3       		.byte	0xf3
 1970 097b 01       		.uleb128 0x1
 1971 097c 50       		.byte	0x50
 1972 097d 1F       		.uleb128 0x1f
 1973 097e 01       		.byte	0x1
 1974 097f 51       		.byte	0x51
 1975 0980 03       		.byte	0x3
 1976 0981 F3       		.byte	0xf3
 1977 0982 01       		.uleb128 0x1
 1978 0983 51       		.byte	0x51
 1979 0984 00       		.byte	0
 1980 0985 00       		.byte	0
 1981 0986 1B       		.uleb128 0x1b
 1982 0987 E3050000 		.4byte	.LASF111
 1983 098b 01       		.byte	0x1
 1984 098c 22       		.byte	0x22
 1985 098d 01       		.byte	0x1
 1986 098e B4000000 		.4byte	0xb4
 1987 0992 A0000000 		.4byte	.LFB36
 1988 0996 B0000000 		.4byte	.LFE36
 1989 099a 4B030000 		.4byte	.LLST18
 1990 099e 01       		.byte	0x1
 1991 099f DA090000 		.4byte	0x9da
 1992 09a3 1C       		.uleb128 0x1c
 1993 09a4 B6020000 		.4byte	.LASF100
 1994 09a8 01       		.byte	0x1
 1995 09a9 22       		.byte	0x22
 1996 09aa 1B030000 		.4byte	0x31b
 1997 09ae 6B030000 		.4byte	.LLST19
 1998 09b2 1D       		.uleb128 0x1d
 1999 09b3 6E756D00 		.ascii	"num\000"
 2000 09b7 01       		.byte	0x1
 2001 09b8 22       		.byte	0x22
 2002 09b9 BF000000 		.4byte	0xbf
 2003 09bd 8C030000 		.4byte	.LLST20
 2004 09c1 1E       		.uleb128 0x1e
 2005 09c2 A8000000 		.4byte	.LVL15
 2006 09c6 8D0A0000 		.4byte	0xa8d
 2007 09ca 1F       		.uleb128 0x1f
 2008 09cb 01       		.byte	0x1
 2009 09cc 50       		.byte	0x50
 2010 09cd 03       		.byte	0x3
 2011 09ce F3       		.byte	0xf3
 2012 09cf 01       		.uleb128 0x1
 2013 09d0 50       		.byte	0x50
 2014 09d1 1F       		.uleb128 0x1f
 2015 09d2 01       		.byte	0x1
 2016 09d3 51       		.byte	0x51
 2017 09d4 03       		.byte	0x3
 2018 09d5 F3       		.byte	0xf3
 2019 09d6 01       		.uleb128 0x1
 2020 09d7 51       		.byte	0x51
 2021 09d8 00       		.byte	0
 2022 09d9 00       		.byte	0
ARM GAS  C:\Users\claym\AppData\Local\Temp\cctQKk9X.s 			page 39


 2023 09da 1B       		.uleb128 0x1b
 2024 09db C0040000 		.4byte	.LASF112
 2025 09df 01       		.byte	0x1
 2026 09e0 1F       		.byte	0x1f
 2027 09e1 01       		.byte	0x1
 2028 09e2 B4000000 		.4byte	0xb4
 2029 09e6 C0000000 		.4byte	.LFB35
 2030 09ea D0000000 		.4byte	.LFE35
 2031 09ee AD030000 		.4byte	.LLST24
 2032 09f2 01       		.byte	0x1
 2033 09f3 010A0000 		.4byte	0xa01
 2034 09f7 1A       		.uleb128 0x1a
 2035 09f8 C8000000 		.4byte	.LVL18
 2036 09fc 9A0A0000 		.4byte	0xa9a
 2037 0a00 00       		.byte	0
 2038 0a01 1B       		.uleb128 0x1b
 2039 0a02 B6010000 		.4byte	.LASF113
 2040 0a06 01       		.byte	0x1
 2041 0a07 1C       		.byte	0x1c
 2042 0a08 01       		.byte	0x1
 2043 0a09 B4000000 		.4byte	0xb4
 2044 0a0d E0000000 		.4byte	.LFB34
 2045 0a11 F0000000 		.4byte	.LFE34
 2046 0a15 CD030000 		.4byte	.LLST26
 2047 0a19 01       		.byte	0x1
 2048 0a1a 3F0A0000 		.4byte	0xa3f
 2049 0a1e 1C       		.uleb128 0x1c
 2050 0a1f 77050000 		.4byte	.LASF75
 2051 0a23 01       		.byte	0x1
 2052 0a24 1C       		.byte	0x1c
 2053 0a25 30020000 		.4byte	0x230
 2054 0a29 ED030000 		.4byte	.LLST27
 2055 0a2d 1E       		.uleb128 0x1e
 2056 0a2e E8000000 		.4byte	.LVL21
 2057 0a32 A70A0000 		.4byte	0xaa7
 2058 0a36 1F       		.uleb128 0x1f
 2059 0a37 01       		.byte	0x1
 2060 0a38 50       		.byte	0x50
 2061 0a39 03       		.byte	0x3
 2062 0a3a F3       		.byte	0xf3
 2063 0a3b 01       		.uleb128 0x1
 2064 0a3c 50       		.byte	0x50
 2065 0a3d 00       		.byte	0
 2066 0a3e 00       		.byte	0
 2067 0a3f 20       		.uleb128 0x20
 2068 0a40 01       		.byte	0x1
 2069 0a41 01       		.byte	0x1
 2070 0a42 82020000 		.4byte	.LASF114
 2071 0a46 82020000 		.4byte	.LASF114
 2072 0a4a 08       		.byte	0x8
 2073 0a4b 8E       		.byte	0x8e
 2074 0a4c 20       		.uleb128 0x20
 2075 0a4d 01       		.byte	0x1
 2076 0a4e 01       		.byte	0x1
 2077 0a4f C6000000 		.4byte	.LASF115
 2078 0a53 C6000000 		.4byte	.LASF115
 2079 0a57 08       		.byte	0x8
ARM GAS  C:\Users\claym\AppData\Local\Temp\cctQKk9X.s 			page 40


 2080 0a58 87       		.byte	0x87
 2081 0a59 20       		.uleb128 0x20
 2082 0a5a 01       		.byte	0x1
 2083 0a5b 01       		.byte	0x1
 2084 0a5c BB030000 		.4byte	.LASF116
 2085 0a60 BB030000 		.4byte	.LASF116
 2086 0a64 08       		.byte	0x8
 2087 0a65 7F       		.byte	0x7f
 2088 0a66 20       		.uleb128 0x20
 2089 0a67 01       		.byte	0x1
 2090 0a68 01       		.byte	0x1
 2091 0a69 DB020000 		.4byte	.LASF117
 2092 0a6d DB020000 		.4byte	.LASF117
 2093 0a71 08       		.byte	0x8
 2094 0a72 9B       		.byte	0x9b
 2095 0a73 20       		.uleb128 0x20
 2096 0a74 01       		.byte	0x1
 2097 0a75 01       		.byte	0x1
 2098 0a76 96030000 		.4byte	.LASF118
 2099 0a7a 96030000 		.4byte	.LASF118
 2100 0a7e 08       		.byte	0x8
 2101 0a7f 95       		.byte	0x95
 2102 0a80 20       		.uleb128 0x20
 2103 0a81 01       		.byte	0x1
 2104 0a82 01       		.byte	0x1
 2105 0a83 49060000 		.4byte	.LASF119
 2106 0a87 49060000 		.4byte	.LASF119
 2107 0a8b 08       		.byte	0x8
 2108 0a8c 73       		.byte	0x73
 2109 0a8d 20       		.uleb128 0x20
 2110 0a8e 01       		.byte	0x1
 2111 0a8f 01       		.byte	0x1
 2112 0a90 B6040000 		.4byte	.LASF120
 2113 0a94 B6040000 		.4byte	.LASF120
 2114 0a98 08       		.byte	0x8
 2115 0a99 67       		.byte	0x67
 2116 0a9a 20       		.uleb128 0x20
 2117 0a9b 01       		.byte	0x1
 2118 0a9c 01       		.byte	0x1
 2119 0a9d 72040000 		.4byte	.LASF121
 2120 0aa1 72040000 		.4byte	.LASF121
 2121 0aa5 08       		.byte	0x8
 2122 0aa6 5B       		.byte	0x5b
 2123 0aa7 20       		.uleb128 0x20
 2124 0aa8 01       		.byte	0x1
 2125 0aa9 01       		.byte	0x1
 2126 0aaa 1B050000 		.4byte	.LASF122
 2127 0aae 1B050000 		.4byte	.LASF122
 2128 0ab2 08       		.byte	0x8
 2129 0ab3 53       		.byte	0x53
 2130 0ab4 00       		.byte	0
 2131              		.section	.debug_abbrev,"",%progbits
 2132              	.Ldebug_abbrev0:
 2133 0000 01       		.uleb128 0x1
 2134 0001 11       		.uleb128 0x11
 2135 0002 01       		.byte	0x1
 2136 0003 25       		.uleb128 0x25
ARM GAS  C:\Users\claym\AppData\Local\Temp\cctQKk9X.s 			page 41


 2137 0004 0E       		.uleb128 0xe
 2138 0005 13       		.uleb128 0x13
 2139 0006 0B       		.uleb128 0xb
 2140 0007 03       		.uleb128 0x3
 2141 0008 0E       		.uleb128 0xe
 2142 0009 1B       		.uleb128 0x1b
 2143 000a 0E       		.uleb128 0xe
 2144 000b 11       		.uleb128 0x11
 2145 000c 01       		.uleb128 0x1
 2146 000d 12       		.uleb128 0x12
 2147 000e 01       		.uleb128 0x1
 2148 000f 10       		.uleb128 0x10
 2149 0010 06       		.uleb128 0x6
 2150 0011 00       		.byte	0
 2151 0012 00       		.byte	0
 2152 0013 02       		.uleb128 0x2
 2153 0014 24       		.uleb128 0x24
 2154 0015 00       		.byte	0
 2155 0016 0B       		.uleb128 0xb
 2156 0017 0B       		.uleb128 0xb
 2157 0018 3E       		.uleb128 0x3e
 2158 0019 0B       		.uleb128 0xb
 2159 001a 03       		.uleb128 0x3
 2160 001b 08       		.uleb128 0x8
 2161 001c 00       		.byte	0
 2162 001d 00       		.byte	0
 2163 001e 03       		.uleb128 0x3
 2164 001f 24       		.uleb128 0x24
 2165 0020 00       		.byte	0
 2166 0021 0B       		.uleb128 0xb
 2167 0022 0B       		.uleb128 0xb
 2168 0023 3E       		.uleb128 0x3e
 2169 0024 0B       		.uleb128 0xb
 2170 0025 03       		.uleb128 0x3
 2171 0026 0E       		.uleb128 0xe
 2172 0027 00       		.byte	0
 2173 0028 00       		.byte	0
 2174 0029 04       		.uleb128 0x4
 2175 002a 16       		.uleb128 0x16
 2176 002b 00       		.byte	0
 2177 002c 03       		.uleb128 0x3
 2178 002d 0E       		.uleb128 0xe
 2179 002e 3A       		.uleb128 0x3a
 2180 002f 0B       		.uleb128 0xb
 2181 0030 3B       		.uleb128 0x3b
 2182 0031 0B       		.uleb128 0xb
 2183 0032 49       		.uleb128 0x49
 2184 0033 13       		.uleb128 0x13
 2185 0034 00       		.byte	0
 2186 0035 00       		.byte	0
 2187 0036 05       		.uleb128 0x5
 2188 0037 35       		.uleb128 0x35
 2189 0038 00       		.byte	0
 2190 0039 49       		.uleb128 0x49
 2191 003a 13       		.uleb128 0x13
 2192 003b 00       		.byte	0
 2193 003c 00       		.byte	0
ARM GAS  C:\Users\claym\AppData\Local\Temp\cctQKk9X.s 			page 42


 2194 003d 06       		.uleb128 0x6
 2195 003e 26       		.uleb128 0x26
 2196 003f 00       		.byte	0
 2197 0040 49       		.uleb128 0x49
 2198 0041 13       		.uleb128 0x13
 2199 0042 00       		.byte	0
 2200 0043 00       		.byte	0
 2201 0044 07       		.uleb128 0x7
 2202 0045 13       		.uleb128 0x13
 2203 0046 01       		.byte	0x1
 2204 0047 03       		.uleb128 0x3
 2205 0048 0E       		.uleb128 0xe
 2206 0049 0B       		.uleb128 0xb
 2207 004a 0B       		.uleb128 0xb
 2208 004b 3A       		.uleb128 0x3a
 2209 004c 0B       		.uleb128 0xb
 2210 004d 3B       		.uleb128 0x3b
 2211 004e 0B       		.uleb128 0xb
 2212 004f 01       		.uleb128 0x1
 2213 0050 13       		.uleb128 0x13
 2214 0051 00       		.byte	0
 2215 0052 00       		.byte	0
 2216 0053 08       		.uleb128 0x8
 2217 0054 0D       		.uleb128 0xd
 2218 0055 00       		.byte	0
 2219 0056 03       		.uleb128 0x3
 2220 0057 08       		.uleb128 0x8
 2221 0058 3A       		.uleb128 0x3a
 2222 0059 0B       		.uleb128 0xb
 2223 005a 3B       		.uleb128 0x3b
 2224 005b 0B       		.uleb128 0xb
 2225 005c 49       		.uleb128 0x49
 2226 005d 13       		.uleb128 0x13
 2227 005e 38       		.uleb128 0x38
 2228 005f 0A       		.uleb128 0xa
 2229 0060 00       		.byte	0
 2230 0061 00       		.byte	0
 2231 0062 09       		.uleb128 0x9
 2232 0063 0D       		.uleb128 0xd
 2233 0064 00       		.byte	0
 2234 0065 03       		.uleb128 0x3
 2235 0066 0E       		.uleb128 0xe
 2236 0067 3A       		.uleb128 0x3a
 2237 0068 0B       		.uleb128 0xb
 2238 0069 3B       		.uleb128 0x3b
 2239 006a 0B       		.uleb128 0xb
 2240 006b 49       		.uleb128 0x49
 2241 006c 13       		.uleb128 0x13
 2242 006d 0B       		.uleb128 0xb
 2243 006e 0B       		.uleb128 0xb
 2244 006f 0D       		.uleb128 0xd
 2245 0070 0B       		.uleb128 0xb
 2246 0071 0C       		.uleb128 0xc
 2247 0072 0B       		.uleb128 0xb
 2248 0073 38       		.uleb128 0x38
 2249 0074 0A       		.uleb128 0xa
 2250 0075 00       		.byte	0
ARM GAS  C:\Users\claym\AppData\Local\Temp\cctQKk9X.s 			page 43


 2251 0076 00       		.byte	0
 2252 0077 0A       		.uleb128 0xa
 2253 0078 0F       		.uleb128 0xf
 2254 0079 00       		.byte	0
 2255 007a 0B       		.uleb128 0xb
 2256 007b 0B       		.uleb128 0xb
 2257 007c 49       		.uleb128 0x49
 2258 007d 13       		.uleb128 0x13
 2259 007e 00       		.byte	0
 2260 007f 00       		.byte	0
 2261 0080 0B       		.uleb128 0xb
 2262 0081 15       		.uleb128 0x15
 2263 0082 01       		.byte	0x1
 2264 0083 27       		.uleb128 0x27
 2265 0084 0C       		.uleb128 0xc
 2266 0085 01       		.uleb128 0x1
 2267 0086 13       		.uleb128 0x13
 2268 0087 00       		.byte	0
 2269 0088 00       		.byte	0
 2270 0089 0C       		.uleb128 0xc
 2271 008a 05       		.uleb128 0x5
 2272 008b 00       		.byte	0
 2273 008c 49       		.uleb128 0x49
 2274 008d 13       		.uleb128 0x13
 2275 008e 00       		.byte	0
 2276 008f 00       		.byte	0
 2277 0090 0D       		.uleb128 0xd
 2278 0091 0D       		.uleb128 0xd
 2279 0092 00       		.byte	0
 2280 0093 03       		.uleb128 0x3
 2281 0094 0E       		.uleb128 0xe
 2282 0095 3A       		.uleb128 0x3a
 2283 0096 0B       		.uleb128 0xb
 2284 0097 3B       		.uleb128 0x3b
 2285 0098 0B       		.uleb128 0xb
 2286 0099 49       		.uleb128 0x49
 2287 009a 13       		.uleb128 0x13
 2288 009b 38       		.uleb128 0x38
 2289 009c 0A       		.uleb128 0xa
 2290 009d 00       		.byte	0
 2291 009e 00       		.byte	0
 2292 009f 0E       		.uleb128 0xe
 2293 00a0 15       		.uleb128 0x15
 2294 00a1 00       		.byte	0
 2295 00a2 27       		.uleb128 0x27
 2296 00a3 0C       		.uleb128 0xc
 2297 00a4 49       		.uleb128 0x49
 2298 00a5 13       		.uleb128 0x13
 2299 00a6 00       		.byte	0
 2300 00a7 00       		.byte	0
 2301 00a8 0F       		.uleb128 0xf
 2302 00a9 15       		.uleb128 0x15
 2303 00aa 01       		.byte	0x1
 2304 00ab 27       		.uleb128 0x27
 2305 00ac 0C       		.uleb128 0xc
 2306 00ad 49       		.uleb128 0x49
 2307 00ae 13       		.uleb128 0x13
ARM GAS  C:\Users\claym\AppData\Local\Temp\cctQKk9X.s 			page 44


 2308 00af 01       		.uleb128 0x1
 2309 00b0 13       		.uleb128 0x13
 2310 00b1 00       		.byte	0
 2311 00b2 00       		.byte	0
 2312 00b3 10       		.uleb128 0x10
 2313 00b4 34       		.uleb128 0x34
 2314 00b5 00       		.byte	0
 2315 00b6 03       		.uleb128 0x3
 2316 00b7 0E       		.uleb128 0xe
 2317 00b8 3A       		.uleb128 0x3a
 2318 00b9 0B       		.uleb128 0xb
 2319 00ba 3B       		.uleb128 0x3b
 2320 00bb 0B       		.uleb128 0xb
 2321 00bc 49       		.uleb128 0x49
 2322 00bd 13       		.uleb128 0x13
 2323 00be 3F       		.uleb128 0x3f
 2324 00bf 0C       		.uleb128 0xc
 2325 00c0 3C       		.uleb128 0x3c
 2326 00c1 0C       		.uleb128 0xc
 2327 00c2 00       		.byte	0
 2328 00c3 00       		.byte	0
 2329 00c4 11       		.uleb128 0x11
 2330 00c5 13       		.uleb128 0x13
 2331 00c6 01       		.byte	0x1
 2332 00c7 0B       		.uleb128 0xb
 2333 00c8 05       		.uleb128 0x5
 2334 00c9 3A       		.uleb128 0x3a
 2335 00ca 0B       		.uleb128 0xb
 2336 00cb 3B       		.uleb128 0x3b
 2337 00cc 05       		.uleb128 0x5
 2338 00cd 01       		.uleb128 0x1
 2339 00ce 13       		.uleb128 0x13
 2340 00cf 00       		.byte	0
 2341 00d0 00       		.byte	0
 2342 00d1 12       		.uleb128 0x12
 2343 00d2 0D       		.uleb128 0xd
 2344 00d3 00       		.byte	0
 2345 00d4 03       		.uleb128 0x3
 2346 00d5 0E       		.uleb128 0xe
 2347 00d6 3A       		.uleb128 0x3a
 2348 00d7 0B       		.uleb128 0xb
 2349 00d8 3B       		.uleb128 0x3b
 2350 00d9 05       		.uleb128 0x5
 2351 00da 49       		.uleb128 0x49
 2352 00db 13       		.uleb128 0x13
 2353 00dc 38       		.uleb128 0x38
 2354 00dd 0A       		.uleb128 0xa
 2355 00de 00       		.byte	0
 2356 00df 00       		.byte	0
 2357 00e0 13       		.uleb128 0x13
 2358 00e1 01       		.uleb128 0x1
 2359 00e2 01       		.byte	0x1
 2360 00e3 49       		.uleb128 0x49
 2361 00e4 13       		.uleb128 0x13
 2362 00e5 01       		.uleb128 0x1
 2363 00e6 13       		.uleb128 0x13
 2364 00e7 00       		.byte	0
ARM GAS  C:\Users\claym\AppData\Local\Temp\cctQKk9X.s 			page 45


 2365 00e8 00       		.byte	0
 2366 00e9 14       		.uleb128 0x14
 2367 00ea 21       		.uleb128 0x21
 2368 00eb 00       		.byte	0
 2369 00ec 49       		.uleb128 0x49
 2370 00ed 13       		.uleb128 0x13
 2371 00ee 2F       		.uleb128 0x2f
 2372 00ef 05       		.uleb128 0x5
 2373 00f0 00       		.byte	0
 2374 00f1 00       		.byte	0
 2375 00f2 15       		.uleb128 0x15
 2376 00f3 16       		.uleb128 0x16
 2377 00f4 00       		.byte	0
 2378 00f5 03       		.uleb128 0x3
 2379 00f6 0E       		.uleb128 0xe
 2380 00f7 3A       		.uleb128 0x3a
 2381 00f8 0B       		.uleb128 0xb
 2382 00f9 3B       		.uleb128 0x3b
 2383 00fa 05       		.uleb128 0x5
 2384 00fb 49       		.uleb128 0x49
 2385 00fc 13       		.uleb128 0x13
 2386 00fd 00       		.byte	0
 2387 00fe 00       		.byte	0
 2388 00ff 16       		.uleb128 0x16
 2389 0100 21       		.uleb128 0x21
 2390 0101 00       		.byte	0
 2391 0102 49       		.uleb128 0x49
 2392 0103 13       		.uleb128 0x13
 2393 0104 2F       		.uleb128 0x2f
 2394 0105 0B       		.uleb128 0xb
 2395 0106 00       		.byte	0
 2396 0107 00       		.byte	0
 2397 0108 17       		.uleb128 0x17
 2398 0109 13       		.uleb128 0x13
 2399 010a 01       		.byte	0x1
 2400 010b 0B       		.uleb128 0xb
 2401 010c 0B       		.uleb128 0xb
 2402 010d 3A       		.uleb128 0x3a
 2403 010e 0B       		.uleb128 0xb
 2404 010f 3B       		.uleb128 0x3b
 2405 0110 0B       		.uleb128 0xb
 2406 0111 01       		.uleb128 0x1
 2407 0112 13       		.uleb128 0x13
 2408 0113 00       		.byte	0
 2409 0114 00       		.byte	0
 2410 0115 18       		.uleb128 0x18
 2411 0116 34       		.uleb128 0x34
 2412 0117 00       		.byte	0
 2413 0118 47       		.uleb128 0x47
 2414 0119 13       		.uleb128 0x13
 2415 011a 3A       		.uleb128 0x3a
 2416 011b 0B       		.uleb128 0xb
 2417 011c 3B       		.uleb128 0x3b
 2418 011d 0B       		.uleb128 0xb
 2419 011e 02       		.uleb128 0x2
 2420 011f 0A       		.uleb128 0xa
 2421 0120 00       		.byte	0
ARM GAS  C:\Users\claym\AppData\Local\Temp\cctQKk9X.s 			page 46


 2422 0121 00       		.byte	0
 2423 0122 19       		.uleb128 0x19
 2424 0123 2E       		.uleb128 0x2e
 2425 0124 01       		.byte	0x1
 2426 0125 3F       		.uleb128 0x3f
 2427 0126 0C       		.uleb128 0xc
 2428 0127 03       		.uleb128 0x3
 2429 0128 0E       		.uleb128 0xe
 2430 0129 3A       		.uleb128 0x3a
 2431 012a 0B       		.uleb128 0xb
 2432 012b 3B       		.uleb128 0x3b
 2433 012c 0B       		.uleb128 0xb
 2434 012d 27       		.uleb128 0x27
 2435 012e 0C       		.uleb128 0xc
 2436 012f 11       		.uleb128 0x11
 2437 0130 01       		.uleb128 0x1
 2438 0131 12       		.uleb128 0x12
 2439 0132 01       		.uleb128 0x1
 2440 0133 40       		.uleb128 0x40
 2441 0134 06       		.uleb128 0x6
 2442 0135 9742     		.uleb128 0x2117
 2443 0137 0C       		.uleb128 0xc
 2444 0138 01       		.uleb128 0x1
 2445 0139 13       		.uleb128 0x13
 2446 013a 00       		.byte	0
 2447 013b 00       		.byte	0
 2448 013c 1A       		.uleb128 0x1a
 2449 013d 898201   		.uleb128 0x4109
 2450 0140 00       		.byte	0
 2451 0141 11       		.uleb128 0x11
 2452 0142 01       		.uleb128 0x1
 2453 0143 31       		.uleb128 0x31
 2454 0144 13       		.uleb128 0x13
 2455 0145 00       		.byte	0
 2456 0146 00       		.byte	0
 2457 0147 1B       		.uleb128 0x1b
 2458 0148 2E       		.uleb128 0x2e
 2459 0149 01       		.byte	0x1
 2460 014a 03       		.uleb128 0x3
 2461 014b 0E       		.uleb128 0xe
 2462 014c 3A       		.uleb128 0x3a
 2463 014d 0B       		.uleb128 0xb
 2464 014e 3B       		.uleb128 0x3b
 2465 014f 0B       		.uleb128 0xb
 2466 0150 27       		.uleb128 0x27
 2467 0151 0C       		.uleb128 0xc
 2468 0152 49       		.uleb128 0x49
 2469 0153 13       		.uleb128 0x13
 2470 0154 11       		.uleb128 0x11
 2471 0155 01       		.uleb128 0x1
 2472 0156 12       		.uleb128 0x12
 2473 0157 01       		.uleb128 0x1
 2474 0158 40       		.uleb128 0x40
 2475 0159 06       		.uleb128 0x6
 2476 015a 9742     		.uleb128 0x2117
 2477 015c 0C       		.uleb128 0xc
 2478 015d 01       		.uleb128 0x1
ARM GAS  C:\Users\claym\AppData\Local\Temp\cctQKk9X.s 			page 47


 2479 015e 13       		.uleb128 0x13
 2480 015f 00       		.byte	0
 2481 0160 00       		.byte	0
 2482 0161 1C       		.uleb128 0x1c
 2483 0162 05       		.uleb128 0x5
 2484 0163 00       		.byte	0
 2485 0164 03       		.uleb128 0x3
 2486 0165 0E       		.uleb128 0xe
 2487 0166 3A       		.uleb128 0x3a
 2488 0167 0B       		.uleb128 0xb
 2489 0168 3B       		.uleb128 0x3b
 2490 0169 0B       		.uleb128 0xb
 2491 016a 49       		.uleb128 0x49
 2492 016b 13       		.uleb128 0x13
 2493 016c 02       		.uleb128 0x2
 2494 016d 06       		.uleb128 0x6
 2495 016e 00       		.byte	0
 2496 016f 00       		.byte	0
 2497 0170 1D       		.uleb128 0x1d
 2498 0171 05       		.uleb128 0x5
 2499 0172 00       		.byte	0
 2500 0173 03       		.uleb128 0x3
 2501 0174 08       		.uleb128 0x8
 2502 0175 3A       		.uleb128 0x3a
 2503 0176 0B       		.uleb128 0xb
 2504 0177 3B       		.uleb128 0x3b
 2505 0178 0B       		.uleb128 0xb
 2506 0179 49       		.uleb128 0x49
 2507 017a 13       		.uleb128 0x13
 2508 017b 02       		.uleb128 0x2
 2509 017c 06       		.uleb128 0x6
 2510 017d 00       		.byte	0
 2511 017e 00       		.byte	0
 2512 017f 1E       		.uleb128 0x1e
 2513 0180 898201   		.uleb128 0x4109
 2514 0183 01       		.byte	0x1
 2515 0184 11       		.uleb128 0x11
 2516 0185 01       		.uleb128 0x1
 2517 0186 31       		.uleb128 0x31
 2518 0187 13       		.uleb128 0x13
 2519 0188 00       		.byte	0
 2520 0189 00       		.byte	0
 2521 018a 1F       		.uleb128 0x1f
 2522 018b 8A8201   		.uleb128 0x410a
 2523 018e 00       		.byte	0
 2524 018f 02       		.uleb128 0x2
 2525 0190 0A       		.uleb128 0xa
 2526 0191 9142     		.uleb128 0x2111
 2527 0193 0A       		.uleb128 0xa
 2528 0194 00       		.byte	0
 2529 0195 00       		.byte	0
 2530 0196 20       		.uleb128 0x20
 2531 0197 2E       		.uleb128 0x2e
 2532 0198 00       		.byte	0
 2533 0199 3F       		.uleb128 0x3f
 2534 019a 0C       		.uleb128 0xc
 2535 019b 3C       		.uleb128 0x3c
ARM GAS  C:\Users\claym\AppData\Local\Temp\cctQKk9X.s 			page 48


 2536 019c 0C       		.uleb128 0xc
 2537 019d 8740     		.uleb128 0x2007
 2538 019f 0E       		.uleb128 0xe
 2539 01a0 03       		.uleb128 0x3
 2540 01a1 0E       		.uleb128 0xe
 2541 01a2 3A       		.uleb128 0x3a
 2542 01a3 0B       		.uleb128 0xb
 2543 01a4 3B       		.uleb128 0x3b
 2544 01a5 0B       		.uleb128 0xb
 2545 01a6 00       		.byte	0
 2546 01a7 00       		.byte	0
 2547 01a8 00       		.byte	0
 2548              		.section	.debug_loc,"",%progbits
 2549              	.Ldebug_loc0:
 2550              	.LLST31:
 2551 0000 10010000 		.4byte	.LFB51-.Ltext0
 2552 0004 12010000 		.4byte	.LCFI17-.Ltext0
 2553 0008 0200     		.2byte	0x2
 2554 000a 7D       		.byte	0x7d
 2555 000b 00       		.sleb128 0
 2556 000c 12010000 		.4byte	.LCFI17-.Ltext0
 2557 0010 20010000 		.4byte	.LFE51-.Ltext0
 2558 0014 0200     		.2byte	0x2
 2559 0016 7D       		.byte	0x7d
 2560 0017 08       		.sleb128 8
 2561 0018 00000000 		.4byte	0
 2562 001c 00000000 		.4byte	0
 2563              	.LLST1:
 2564 0020 10000000 		.4byte	.LFB50-.Ltext0
 2565 0024 12000000 		.4byte	.LCFI1-.Ltext0
 2566 0028 0200     		.2byte	0x2
 2567 002a 7D       		.byte	0x7d
 2568 002b 00       		.sleb128 0
 2569 002c 12000000 		.4byte	.LCFI1-.Ltext0
 2570 0030 20000000 		.4byte	.LFE50-.Ltext0
 2571 0034 0200     		.2byte	0x2
 2572 0036 7D       		.byte	0x7d
 2573 0037 08       		.sleb128 8
 2574 0038 00000000 		.4byte	0
 2575 003c 00000000 		.4byte	0
 2576              	.LLST5:
 2577 0040 30000000 		.4byte	.LFB49-.Ltext0
 2578 0044 32000000 		.4byte	.LCFI3-.Ltext0
 2579 0048 0200     		.2byte	0x2
 2580 004a 7D       		.byte	0x7d
 2581 004b 00       		.sleb128 0
 2582 004c 32000000 		.4byte	.LCFI3-.Ltext0
 2583 0050 40000000 		.4byte	.LFE49-.Ltext0
 2584 0054 0200     		.2byte	0x2
 2585 0056 7D       		.byte	0x7d
 2586 0057 08       		.sleb128 8
 2587 0058 00000000 		.4byte	0
 2588 005c 00000000 		.4byte	0
 2589              	.LLST6:
 2590 0060 30000000 		.4byte	.LVL4-.Ltext0
 2591 0064 37000000 		.4byte	.LVL5-1-.Ltext0
 2592 0068 0100     		.2byte	0x1
ARM GAS  C:\Users\claym\AppData\Local\Temp\cctQKk9X.s 			page 49


 2593 006a 50       		.byte	0x50
 2594 006b 37000000 		.4byte	.LVL5-1-.Ltext0
 2595 006f 40000000 		.4byte	.LFE49-.Ltext0
 2596 0073 0400     		.2byte	0x4
 2597 0075 F3       		.byte	0xf3
 2598 0076 01       		.uleb128 0x1
 2599 0077 50       		.byte	0x50
 2600 0078 9F       		.byte	0x9f
 2601 0079 00000000 		.4byte	0
 2602 007d 00000000 		.4byte	0
 2603              	.LLST7:
 2604 0081 30000000 		.4byte	.LVL4-.Ltext0
 2605 0085 37000000 		.4byte	.LVL5-1-.Ltext0
 2606 0089 0100     		.2byte	0x1
 2607 008b 51       		.byte	0x51
 2608 008c 37000000 		.4byte	.LVL5-1-.Ltext0
 2609 0090 40000000 		.4byte	.LFE49-.Ltext0
 2610 0094 0400     		.2byte	0x4
 2611 0096 F3       		.byte	0xf3
 2612 0097 01       		.uleb128 0x1
 2613 0098 51       		.byte	0x51
 2614 0099 9F       		.byte	0x9f
 2615 009a 00000000 		.4byte	0
 2616 009e 00000000 		.4byte	0
 2617              	.LLST9:
 2618 00a2 50000000 		.4byte	.LFB48-.Ltext0
 2619 00a6 52000000 		.4byte	.LCFI5-.Ltext0
 2620 00aa 0200     		.2byte	0x2
 2621 00ac 7D       		.byte	0x7d
 2622 00ad 00       		.sleb128 0
 2623 00ae 52000000 		.4byte	.LCFI5-.Ltext0
 2624 00b2 60000000 		.4byte	.LFE48-.Ltext0
 2625 00b6 0200     		.2byte	0x2
 2626 00b8 7D       		.byte	0x7d
 2627 00b9 08       		.sleb128 8
 2628 00ba 00000000 		.4byte	0
 2629 00be 00000000 		.4byte	0
 2630              	.LLST11:
 2631 00c2 70000000 		.4byte	.LFB47-.Ltext0
 2632 00c6 72000000 		.4byte	.LCFI7-.Ltext0
 2633 00ca 0200     		.2byte	0x2
 2634 00cc 7D       		.byte	0x7d
 2635 00cd 00       		.sleb128 0
 2636 00ce 72000000 		.4byte	.LCFI7-.Ltext0
 2637 00d2 80000000 		.4byte	.LFE47-.Ltext0
 2638 00d6 0200     		.2byte	0x2
 2639 00d8 7D       		.byte	0x7d
 2640 00d9 08       		.sleb128 8
 2641 00da 00000000 		.4byte	0
 2642 00de 00000000 		.4byte	0
 2643              	.LLST15:
 2644 00e2 90000000 		.4byte	.LFB46-.Ltext0
 2645 00e6 92000000 		.4byte	.LCFI9-.Ltext0
 2646 00ea 0200     		.2byte	0x2
 2647 00ec 7D       		.byte	0x7d
 2648 00ed 00       		.sleb128 0
 2649 00ee 92000000 		.4byte	.LCFI9-.Ltext0
ARM GAS  C:\Users\claym\AppData\Local\Temp\cctQKk9X.s 			page 50


 2650 00f2 A0000000 		.4byte	.LFE46-.Ltext0
 2651 00f6 0200     		.2byte	0x2
 2652 00f8 7D       		.byte	0x7d
 2653 00f9 08       		.sleb128 8
 2654 00fa 00000000 		.4byte	0
 2655 00fe 00000000 		.4byte	0
 2656              	.LLST16:
 2657 0102 90000000 		.4byte	.LVL12-.Ltext0
 2658 0106 97000000 		.4byte	.LVL13-1-.Ltext0
 2659 010a 0100     		.2byte	0x1
 2660 010c 50       		.byte	0x50
 2661 010d 97000000 		.4byte	.LVL13-1-.Ltext0
 2662 0111 A0000000 		.4byte	.LFE46-.Ltext0
 2663 0115 0400     		.2byte	0x4
 2664 0117 F3       		.byte	0xf3
 2665 0118 01       		.uleb128 0x1
 2666 0119 50       		.byte	0x50
 2667 011a 9F       		.byte	0x9f
 2668 011b 00000000 		.4byte	0
 2669 011f 00000000 		.4byte	0
 2670              	.LLST17:
 2671 0123 90000000 		.4byte	.LVL12-.Ltext0
 2672 0127 97000000 		.4byte	.LVL13-1-.Ltext0
 2673 012b 0100     		.2byte	0x1
 2674 012d 51       		.byte	0x51
 2675 012e 97000000 		.4byte	.LVL13-1-.Ltext0
 2676 0132 A0000000 		.4byte	.LFE46-.Ltext0
 2677 0136 0400     		.2byte	0x4
 2678 0138 F3       		.byte	0xf3
 2679 0139 01       		.uleb128 0x1
 2680 013a 51       		.byte	0x51
 2681 013b 9F       		.byte	0x9f
 2682 013c 00000000 		.4byte	0
 2683 0140 00000000 		.4byte	0
 2684              	.LLST21:
 2685 0144 B0000000 		.4byte	.LFB45-.Ltext0
 2686 0148 B2000000 		.4byte	.LCFI11-.Ltext0
 2687 014c 0200     		.2byte	0x2
 2688 014e 7D       		.byte	0x7d
 2689 014f 00       		.sleb128 0
 2690 0150 B2000000 		.4byte	.LCFI11-.Ltext0
 2691 0154 C0000000 		.4byte	.LFE45-.Ltext0
 2692 0158 0200     		.2byte	0x2
 2693 015a 7D       		.byte	0x7d
 2694 015b 08       		.sleb128 8
 2695 015c 00000000 		.4byte	0
 2696 0160 00000000 		.4byte	0
 2697              	.LLST22:
 2698 0164 B0000000 		.4byte	.LVL16-.Ltext0
 2699 0168 B7000000 		.4byte	.LVL17-1-.Ltext0
 2700 016c 0100     		.2byte	0x1
 2701 016e 50       		.byte	0x50
 2702 016f B7000000 		.4byte	.LVL17-1-.Ltext0
 2703 0173 C0000000 		.4byte	.LFE45-.Ltext0
 2704 0177 0400     		.2byte	0x4
 2705 0179 F3       		.byte	0xf3
 2706 017a 01       		.uleb128 0x1
ARM GAS  C:\Users\claym\AppData\Local\Temp\cctQKk9X.s 			page 51


 2707 017b 50       		.byte	0x50
 2708 017c 9F       		.byte	0x9f
 2709 017d 00000000 		.4byte	0
 2710 0181 00000000 		.4byte	0
 2711              	.LLST23:
 2712 0185 B0000000 		.4byte	.LVL16-.Ltext0
 2713 0189 B7000000 		.4byte	.LVL17-1-.Ltext0
 2714 018d 0100     		.2byte	0x1
 2715 018f 51       		.byte	0x51
 2716 0190 B7000000 		.4byte	.LVL17-1-.Ltext0
 2717 0194 C0000000 		.4byte	.LFE45-.Ltext0
 2718 0198 0400     		.2byte	0x4
 2719 019a F3       		.byte	0xf3
 2720 019b 01       		.uleb128 0x1
 2721 019c 51       		.byte	0x51
 2722 019d 9F       		.byte	0x9f
 2723 019e 00000000 		.4byte	0
 2724 01a2 00000000 		.4byte	0
 2725              	.LLST25:
 2726 01a6 D0000000 		.4byte	.LFB44-.Ltext0
 2727 01aa D2000000 		.4byte	.LCFI13-.Ltext0
 2728 01ae 0200     		.2byte	0x2
 2729 01b0 7D       		.byte	0x7d
 2730 01b1 00       		.sleb128 0
 2731 01b2 D2000000 		.4byte	.LCFI13-.Ltext0
 2732 01b6 E0000000 		.4byte	.LFE44-.Ltext0
 2733 01ba 0200     		.2byte	0x2
 2734 01bc 7D       		.byte	0x7d
 2735 01bd 08       		.sleb128 8
 2736 01be 00000000 		.4byte	0
 2737 01c2 00000000 		.4byte	0
 2738              	.LLST28:
 2739 01c6 F0000000 		.4byte	.LFB43-.Ltext0
 2740 01ca F2000000 		.4byte	.LCFI15-.Ltext0
 2741 01ce 0200     		.2byte	0x2
 2742 01d0 7D       		.byte	0x7d
 2743 01d1 00       		.sleb128 0
 2744 01d2 F2000000 		.4byte	.LCFI15-.Ltext0
 2745 01d6 00010000 		.4byte	.LFE43-.Ltext0
 2746 01da 0200     		.2byte	0x2
 2747 01dc 7D       		.byte	0x7d
 2748 01dd 08       		.sleb128 8
 2749 01de 00000000 		.4byte	0
 2750 01e2 00000000 		.4byte	0
 2751              	.LLST29:
 2752 01e6 F0000000 		.4byte	.LVL22-.Ltext0
 2753 01ea F7000000 		.4byte	.LVL23-1-.Ltext0
 2754 01ee 0100     		.2byte	0x1
 2755 01f0 50       		.byte	0x50
 2756 01f1 F7000000 		.4byte	.LVL23-1-.Ltext0
 2757 01f5 00010000 		.4byte	.LFE43-.Ltext0
 2758 01f9 0400     		.2byte	0x4
 2759 01fb F3       		.byte	0xf3
 2760 01fc 01       		.uleb128 0x1
 2761 01fd 50       		.byte	0x50
 2762 01fe 9F       		.byte	0x9f
 2763 01ff 00000000 		.4byte	0
ARM GAS  C:\Users\claym\AppData\Local\Temp\cctQKk9X.s 			page 52


 2764 0203 00000000 		.4byte	0
 2765              	.LLST30:
 2766 0207 00010000 		.4byte	.LFB42-.Ltext0
 2767 020b 02010000 		.4byte	.LCFI16-.Ltext0
 2768 020f 0200     		.2byte	0x2
 2769 0211 7D       		.byte	0x7d
 2770 0212 00       		.sleb128 0
 2771 0213 02010000 		.4byte	.LCFI16-.Ltext0
 2772 0217 10010000 		.4byte	.LFE42-.Ltext0
 2773 021b 0200     		.2byte	0x2
 2774 021d 7D       		.byte	0x7d
 2775 021e 08       		.sleb128 8
 2776 021f 00000000 		.4byte	0
 2777 0223 00000000 		.4byte	0
 2778              	.LLST0:
 2779 0227 00000000 		.4byte	.LFB41-.Ltext0
 2780 022b 02000000 		.4byte	.LCFI0-.Ltext0
 2781 022f 0200     		.2byte	0x2
 2782 0231 7D       		.byte	0x7d
 2783 0232 00       		.sleb128 0
 2784 0233 02000000 		.4byte	.LCFI0-.Ltext0
 2785 0237 10000000 		.4byte	.LFE41-.Ltext0
 2786 023b 0200     		.2byte	0x2
 2787 023d 7D       		.byte	0x7d
 2788 023e 08       		.sleb128 8
 2789 023f 00000000 		.4byte	0
 2790 0243 00000000 		.4byte	0
 2791              	.LLST2:
 2792 0247 20000000 		.4byte	.LFB40-.Ltext0
 2793 024b 22000000 		.4byte	.LCFI2-.Ltext0
 2794 024f 0200     		.2byte	0x2
 2795 0251 7D       		.byte	0x7d
 2796 0252 00       		.sleb128 0
 2797 0253 22000000 		.4byte	.LCFI2-.Ltext0
 2798 0257 30000000 		.4byte	.LFE40-.Ltext0
 2799 025b 0200     		.2byte	0x2
 2800 025d 7D       		.byte	0x7d
 2801 025e 08       		.sleb128 8
 2802 025f 00000000 		.4byte	0
 2803 0263 00000000 		.4byte	0
 2804              	.LLST3:
 2805 0267 20000000 		.4byte	.LVL2-.Ltext0
 2806 026b 27000000 		.4byte	.LVL3-1-.Ltext0
 2807 026f 0100     		.2byte	0x1
 2808 0271 50       		.byte	0x50
 2809 0272 27000000 		.4byte	.LVL3-1-.Ltext0
 2810 0276 30000000 		.4byte	.LFE40-.Ltext0
 2811 027a 0400     		.2byte	0x4
 2812 027c F3       		.byte	0xf3
 2813 027d 01       		.uleb128 0x1
 2814 027e 50       		.byte	0x50
 2815 027f 9F       		.byte	0x9f
 2816 0280 00000000 		.4byte	0
 2817 0284 00000000 		.4byte	0
 2818              	.LLST4:
 2819 0288 20000000 		.4byte	.LVL2-.Ltext0
 2820 028c 27000000 		.4byte	.LVL3-1-.Ltext0
ARM GAS  C:\Users\claym\AppData\Local\Temp\cctQKk9X.s 			page 53


 2821 0290 0100     		.2byte	0x1
 2822 0292 51       		.byte	0x51
 2823 0293 27000000 		.4byte	.LVL3-1-.Ltext0
 2824 0297 30000000 		.4byte	.LFE40-.Ltext0
 2825 029b 0400     		.2byte	0x4
 2826 029d F3       		.byte	0xf3
 2827 029e 01       		.uleb128 0x1
 2828 029f 51       		.byte	0x51
 2829 02a0 9F       		.byte	0x9f
 2830 02a1 00000000 		.4byte	0
 2831 02a5 00000000 		.4byte	0
 2832              	.LLST8:
 2833 02a9 40000000 		.4byte	.LFB39-.Ltext0
 2834 02ad 42000000 		.4byte	.LCFI4-.Ltext0
 2835 02b1 0200     		.2byte	0x2
 2836 02b3 7D       		.byte	0x7d
 2837 02b4 00       		.sleb128 0
 2838 02b5 42000000 		.4byte	.LCFI4-.Ltext0
 2839 02b9 50000000 		.4byte	.LFE39-.Ltext0
 2840 02bd 0200     		.2byte	0x2
 2841 02bf 7D       		.byte	0x7d
 2842 02c0 08       		.sleb128 8
 2843 02c1 00000000 		.4byte	0
 2844 02c5 00000000 		.4byte	0
 2845              	.LLST10:
 2846 02c9 60000000 		.4byte	.LFB38-.Ltext0
 2847 02cd 62000000 		.4byte	.LCFI6-.Ltext0
 2848 02d1 0200     		.2byte	0x2
 2849 02d3 7D       		.byte	0x7d
 2850 02d4 00       		.sleb128 0
 2851 02d5 62000000 		.4byte	.LCFI6-.Ltext0
 2852 02d9 70000000 		.4byte	.LFE38-.Ltext0
 2853 02dd 0200     		.2byte	0x2
 2854 02df 7D       		.byte	0x7d
 2855 02e0 08       		.sleb128 8
 2856 02e1 00000000 		.4byte	0
 2857 02e5 00000000 		.4byte	0
 2858              	.LLST12:
 2859 02e9 80000000 		.4byte	.LFB37-.Ltext0
 2860 02ed 82000000 		.4byte	.LCFI8-.Ltext0
 2861 02f1 0200     		.2byte	0x2
 2862 02f3 7D       		.byte	0x7d
 2863 02f4 00       		.sleb128 0
 2864 02f5 82000000 		.4byte	.LCFI8-.Ltext0
 2865 02f9 90000000 		.4byte	.LFE37-.Ltext0
 2866 02fd 0200     		.2byte	0x2
 2867 02ff 7D       		.byte	0x7d
 2868 0300 08       		.sleb128 8
 2869 0301 00000000 		.4byte	0
 2870 0305 00000000 		.4byte	0
 2871              	.LLST13:
 2872 0309 80000000 		.4byte	.LVL10-.Ltext0
 2873 030d 87000000 		.4byte	.LVL11-1-.Ltext0
 2874 0311 0100     		.2byte	0x1
 2875 0313 50       		.byte	0x50
 2876 0314 87000000 		.4byte	.LVL11-1-.Ltext0
 2877 0318 90000000 		.4byte	.LFE37-.Ltext0
ARM GAS  C:\Users\claym\AppData\Local\Temp\cctQKk9X.s 			page 54


 2878 031c 0400     		.2byte	0x4
 2879 031e F3       		.byte	0xf3
 2880 031f 01       		.uleb128 0x1
 2881 0320 50       		.byte	0x50
 2882 0321 9F       		.byte	0x9f
 2883 0322 00000000 		.4byte	0
 2884 0326 00000000 		.4byte	0
 2885              	.LLST14:
 2886 032a 80000000 		.4byte	.LVL10-.Ltext0
 2887 032e 87000000 		.4byte	.LVL11-1-.Ltext0
 2888 0332 0100     		.2byte	0x1
 2889 0334 51       		.byte	0x51
 2890 0335 87000000 		.4byte	.LVL11-1-.Ltext0
 2891 0339 90000000 		.4byte	.LFE37-.Ltext0
 2892 033d 0400     		.2byte	0x4
 2893 033f F3       		.byte	0xf3
 2894 0340 01       		.uleb128 0x1
 2895 0341 51       		.byte	0x51
 2896 0342 9F       		.byte	0x9f
 2897 0343 00000000 		.4byte	0
 2898 0347 00000000 		.4byte	0
 2899              	.LLST18:
 2900 034b A0000000 		.4byte	.LFB36-.Ltext0
 2901 034f A2000000 		.4byte	.LCFI10-.Ltext0
 2902 0353 0200     		.2byte	0x2
 2903 0355 7D       		.byte	0x7d
 2904 0356 00       		.sleb128 0
 2905 0357 A2000000 		.4byte	.LCFI10-.Ltext0
 2906 035b B0000000 		.4byte	.LFE36-.Ltext0
 2907 035f 0200     		.2byte	0x2
 2908 0361 7D       		.byte	0x7d
 2909 0362 08       		.sleb128 8
 2910 0363 00000000 		.4byte	0
 2911 0367 00000000 		.4byte	0
 2912              	.LLST19:
 2913 036b A0000000 		.4byte	.LVL14-.Ltext0
 2914 036f A7000000 		.4byte	.LVL15-1-.Ltext0
 2915 0373 0100     		.2byte	0x1
 2916 0375 50       		.byte	0x50
 2917 0376 A7000000 		.4byte	.LVL15-1-.Ltext0
 2918 037a B0000000 		.4byte	.LFE36-.Ltext0
 2919 037e 0400     		.2byte	0x4
 2920 0380 F3       		.byte	0xf3
 2921 0381 01       		.uleb128 0x1
 2922 0382 50       		.byte	0x50
 2923 0383 9F       		.byte	0x9f
 2924 0384 00000000 		.4byte	0
 2925 0388 00000000 		.4byte	0
 2926              	.LLST20:
 2927 038c A0000000 		.4byte	.LVL14-.Ltext0
 2928 0390 A7000000 		.4byte	.LVL15-1-.Ltext0
 2929 0394 0100     		.2byte	0x1
 2930 0396 51       		.byte	0x51
 2931 0397 A7000000 		.4byte	.LVL15-1-.Ltext0
 2932 039b B0000000 		.4byte	.LFE36-.Ltext0
 2933 039f 0400     		.2byte	0x4
 2934 03a1 F3       		.byte	0xf3
ARM GAS  C:\Users\claym\AppData\Local\Temp\cctQKk9X.s 			page 55


 2935 03a2 01       		.uleb128 0x1
 2936 03a3 51       		.byte	0x51
 2937 03a4 9F       		.byte	0x9f
 2938 03a5 00000000 		.4byte	0
 2939 03a9 00000000 		.4byte	0
 2940              	.LLST24:
 2941 03ad C0000000 		.4byte	.LFB35-.Ltext0
 2942 03b1 C2000000 		.4byte	.LCFI12-.Ltext0
 2943 03b5 0200     		.2byte	0x2
 2944 03b7 7D       		.byte	0x7d
 2945 03b8 00       		.sleb128 0
 2946 03b9 C2000000 		.4byte	.LCFI12-.Ltext0
 2947 03bd D0000000 		.4byte	.LFE35-.Ltext0
 2948 03c1 0200     		.2byte	0x2
 2949 03c3 7D       		.byte	0x7d
 2950 03c4 08       		.sleb128 8
 2951 03c5 00000000 		.4byte	0
 2952 03c9 00000000 		.4byte	0
 2953              	.LLST26:
 2954 03cd E0000000 		.4byte	.LFB34-.Ltext0
 2955 03d1 E2000000 		.4byte	.LCFI14-.Ltext0
 2956 03d5 0200     		.2byte	0x2
 2957 03d7 7D       		.byte	0x7d
 2958 03d8 00       		.sleb128 0
 2959 03d9 E2000000 		.4byte	.LCFI14-.Ltext0
 2960 03dd F0000000 		.4byte	.LFE34-.Ltext0
 2961 03e1 0200     		.2byte	0x2
 2962 03e3 7D       		.byte	0x7d
 2963 03e4 08       		.sleb128 8
 2964 03e5 00000000 		.4byte	0
 2965 03e9 00000000 		.4byte	0
 2966              	.LLST27:
 2967 03ed E0000000 		.4byte	.LVL20-.Ltext0
 2968 03f1 E7000000 		.4byte	.LVL21-1-.Ltext0
 2969 03f5 0100     		.2byte	0x1
 2970 03f7 50       		.byte	0x50
 2971 03f8 E7000000 		.4byte	.LVL21-1-.Ltext0
 2972 03fc F0000000 		.4byte	.LFE34-.Ltext0
 2973 0400 0400     		.2byte	0x4
 2974 0402 F3       		.byte	0xf3
 2975 0403 01       		.uleb128 0x1
 2976 0404 50       		.byte	0x50
 2977 0405 9F       		.byte	0x9f
 2978 0406 00000000 		.4byte	0
 2979 040a 00000000 		.4byte	0
 2980              		.section	.debug_aranges,"",%progbits
 2981 0000 1C000000 		.4byte	0x1c
 2982 0004 0200     		.2byte	0x2
 2983 0006 00000000 		.4byte	.Ldebug_info0
 2984 000a 04       		.byte	0x4
 2985 000b 00       		.byte	0
 2986 000c 0000     		.2byte	0
 2987 000e 0000     		.2byte	0
 2988 0010 00000000 		.4byte	.Ltext0
 2989 0014 20010000 		.4byte	.Letext0-.Ltext0
 2990 0018 00000000 		.4byte	0
 2991 001c 00000000 		.4byte	0
ARM GAS  C:\Users\claym\AppData\Local\Temp\cctQKk9X.s 			page 56


 2992              		.section	.debug_line,"",%progbits
 2993              	.Ldebug_line0:
 2994 0000 E4010000 		.section	.debug_str,"MS",%progbits,1
 2994      02007801 
 2994      00000201 
 2994      FB0E0D00 
 2994      01010101 
 2995              	.LASF42:
 2996 0000 556E696E 		.ascii	"Uninitialize\000"
 2996      69746961 
 2996      6C697A65 
 2996      00
 2997              	.LASF105:
 2998 000d 564F525F 		.ascii	"VOR_UART0_IRQHandler\000"
 2998      55415254 
 2998      305F4952 
 2998      5148616E 
 2998      646C6572 
 2999              	.LASF74:
 3000 0022 5F554152 		.ascii	"_UART_INFO\000"
 3000      545F494E 
 3000      464F00
 3001              	.LASF104:
 3002 002d 564F525F 		.ascii	"VOR_UART1_IRQHandler\000"
 3002      55415254 
 3002      315F4952 
 3002      5148616E 
 3002      646C6572 
 3003              	.LASF106:
 3004 0042 55415254 		.ascii	"UART0_GetStatus\000"
 3004      305F4765 
 3004      74537461 
 3004      74757300 
 3005              	.LASF21:
 3006 0052 52585F52 		.ascii	"RX_RDAVL\000"
 3006      4441564C 
 3006      00
 3007              	.LASF80:
 3008 005b 62617564 		.ascii	"baudrate\000"
 3008      72617465 
 3008      00
 3009              	.LASF77:
 3010 0064 666C6167 		.ascii	"flags\000"
 3010      7300
 3011              	.LASF57:
 3012 006a 52585354 		.ascii	"RXSTATUS\000"
 3012      41545553 
 3012      00
 3013              	.LASF96:
 3014 0073 636F6E74 		.ascii	"control\000"
 3014      726F6C00 
 3015              	.LASF0:
 3016 007b 756E7369 		.ascii	"unsigned int\000"
 3016      676E6564 
 3016      20696E74 
 3016      00
 3017              	.LASF94:
ARM GAS  C:\Users\claym\AppData\Local\Temp\cctQKk9X.s 			page 57


 3018 0088 55415254 		.ascii	"UART1_GetStatus\000"
 3018      315F4765 
 3018      74537461 
 3018      74757300 
 3019              	.LASF66:
 3020 0098 4952515F 		.ascii	"IRQ_CLR\000"
 3020      434C5200 
 3021              	.LASF39:
 3022 00a0 5F564F52 		.ascii	"_VOR_DRIVER_UART\000"
 3022      5F445249 
 3022      5645525F 
 3022      55415254 
 3022      00
 3023              	.LASF9:
 3024 00b1 5F5F696E 		.ascii	"__int32_t\000"
 3024      7433325F 
 3024      7400
 3025              	.LASF45:
 3026 00bb 47657454 		.ascii	"GetTxCount\000"
 3026      78436F75 
 3026      6E7400
 3027              	.LASF115:
 3028 00c6 55415254 		.ascii	"UART_GetStatus\000"
 3028      5F476574 
 3028      53746174 
 3028      757300
 3029              	.LASF56:
 3030 00d5 434C4B53 		.ascii	"CLKSCALE\000"
 3030      43414C45 
 3030      00
 3031              	.LASF123:
 3032 00de 474E5520 		.ascii	"GNU C11 7.2.1 20170904 (release) [ARM/embedded-7-br"
 3032      43313120 
 3032      372E322E 
 3032      31203230 
 3032      31373039 
 3033 0111 616E6368 		.ascii	"anch revision 255204] -mcpu=cortex-m0 -mthumb -gdwa"
 3033      20726576 
 3033      6973696F 
 3033      6E203235 
 3033      35323034 
 3034 0144 72662D32 		.ascii	"rf-2 -Os -fomit-frame-pointer\000"
 3034      202D4F73 
 3034      202D666F 
 3034      6D69742D 
 3034      6672616D 
 3035              	.LASF20:
 3036 0162 5F564F52 		.ascii	"_VOR_UART_STATUS\000"
 3036      5F554152 
 3036      545F5354 
 3036      41545553 
 3036      00
 3037              	.LASF53:
 3038 0173 44415441 		.ascii	"DATA\000"
 3038      00
 3039              	.LASF73:
 3040 0178 564F525F 		.ascii	"VOR_UART_PERIPHERAL_Type\000"
ARM GAS  C:\Users\claym\AppData\Local\Temp\cctQKk9X.s 			page 58


 3040      55415254 
 3040      5F504552 
 3040      49504845 
 3040      52414C5F 
 3041              	.LASF124:
 3042 0191 2E5C6472 		.ascii	".\\driver\\src\\uart_drv_api.c\000"
 3042      69766572 
 3042      5C737263 
 3042      5C756172 
 3042      745F6472 
 3043              	.LASF17:
 3044 01ad 75696E74 		.ascii	"uint32_t\000"
 3044      33325F74 
 3044      00
 3045              	.LASF113:
 3046 01b6 55415254 		.ascii	"UART0_Initialize\000"
 3046      305F496E 
 3046      69746961 
 3046      6C697A65 
 3046      00
 3047              	.LASF87:
 3048 01c7 55415254 		.ascii	"UART_INFO\000"
 3048      5F494E46 
 3048      4F00
 3049              	.LASF38:
 3050 01d1 564F525F 		.ascii	"VOR_UART_SignalEvent_t\000"
 3050      55415254 
 3050      5F536967 
 3050      6E616C45 
 3050      76656E74 
 3051              	.LASF47:
 3052 01e8 436F6E74 		.ascii	"Control\000"
 3052      726F6C00 
 3053              	.LASF13:
 3054 01f0 6C6F6E67 		.ascii	"long long unsigned int\000"
 3054      206C6F6E 
 3054      6720756E 
 3054      7369676E 
 3054      65642069 
 3055              	.LASF81:
 3056 0207 7478636E 		.ascii	"txcnt\000"
 3056      7400
 3057              	.LASF72:
 3058 020d 50455249 		.ascii	"PERID\000"
 3058      4400
 3059              	.LASF7:
 3060 0213 5F5F7569 		.ascii	"__uint16_t\000"
 3060      6E743136 
 3060      5F7400
 3061              	.LASF18:
 3062 021e 564F525F 		.ascii	"VOR_DRIVER_VERSION\000"
 3062      44524956 
 3062      45525F56 
 3062      45525349 
 3062      4F4E00
 3063              	.LASF25:
 3064 0231 52585F4F 		.ascii	"RX_OVR\000"
ARM GAS  C:\Users\claym\AppData\Local\Temp\cctQKk9X.s 			page 59


 3064      565200
 3065              	.LASF64:
 3066 0238 4952515F 		.ascii	"IRQ_RAW\000"
 3066      52415700 
 3067              	.LASF48:
 3068 0240 47657453 		.ascii	"GetStatus\000"
 3068      74617475 
 3068      7300
 3069              	.LASF22:
 3070 024a 52585F52 		.ascii	"RX_RDNFULL\000"
 3070      444E4655 
 3070      4C4C00
 3071              	.LASF27:
 3072 0255 52585F50 		.ascii	"RX_PAR\000"
 3072      415200
 3073              	.LASF91:
 3074 025c 55415254 		.ascii	"UART_RESOURCES\000"
 3074      5F524553 
 3074      4F555243 
 3074      455300
 3075              	.LASF31:
 3076 026b 52585F52 		.ascii	"RX_RTS\000"
 3076      545300
 3077              	.LASF93:
 3078 0272 55415254 		.ascii	"UART1_Resources\000"
 3078      315F5265 
 3078      736F7572 
 3078      63657300 
 3079              	.LASF114:
 3080 0282 55415254 		.ascii	"UART_IRQHandler\000"
 3080      5F495251 
 3080      48616E64 
 3080      6C657200 
 3081              	.LASF110:
 3082 0292 55415254 		.ascii	"UART0_Receive\000"
 3082      305F5265 
 3082      63656976 
 3082      6500
 3083              	.LASF52:
 3084 02a0 53797374 		.ascii	"SystemCoreClock\000"
 3084      656D436F 
 3084      7265436C 
 3084      6F636B00 
 3085              	.LASF24:
 3086 02b0 52585F54 		.ascii	"RX_TO\000"
 3086      4F00
 3087              	.LASF100:
 3088 02b6 64617461 		.ascii	"data\000"
 3088      00
 3089              	.LASF108:
 3090 02bb 55415254 		.ascii	"UART0_GetRxCount\000"
 3090      305F4765 
 3090      74527843 
 3090      6F756E74 
 3090      00
 3091              	.LASF14:
 3092 02cc 75696E74 		.ascii	"uint8_t\000"
ARM GAS  C:\Users\claym\AppData\Local\Temp\cctQKk9X.s 			page 60


 3092      385F7400 
 3093              	.LASF76:
 3094 02d4 73746174 		.ascii	"status\000"
 3094      757300
 3095              	.LASF117:
 3096 02db 564F525F 		.ascii	"VOR_UART_GetRxCount\000"
 3096      55415254 
 3096      5F476574 
 3096      5278436F 
 3096      756E7400 
 3097              	.LASF26:
 3098 02ef 52585F46 		.ascii	"RX_FRM\000"
 3098      524D00
 3099              	.LASF49:
 3100 02f6 564F525F 		.ascii	"VOR_DRIVER_UART\000"
 3100      44524956 
 3100      45525F55 
 3100      41525400 
 3101              	.LASF1:
 3102 0306 6C6F6E67 		.ascii	"long long int\000"
 3102      206C6F6E 
 3102      6720696E 
 3102      7400
 3103              	.LASF58:
 3104 0314 54585354 		.ascii	"TXSTATUS\000"
 3104      41545553 
 3104      00
 3105              	.LASF92:
 3106 031d 55415254 		.ascii	"UART0_Resources\000"
 3106      305F5265 
 3106      736F7572 
 3106      63657300 
 3107              	.LASF33:
 3108 032d 54585F57 		.ascii	"TX_WRBUSY\000"
 3108      52425553 
 3108      5900
 3109              	.LASF103:
 3110 0337 55415254 		.ascii	"UART1_Initialize\000"
 3110      315F496E 
 3110      69746961 
 3110      6C697A65 
 3110      00
 3111              	.LASF86:
 3112 0348 72786461 		.ascii	"rxdata\000"
 3112      746100
 3113              	.LASF30:
 3114 034f 52585F41 		.ascii	"RX_ADDR9\000"
 3114      44445239 
 3114      00
 3115              	.LASF101:
 3116 0358 55415254 		.ascii	"UART1_Send\000"
 3116      315F5365 
 3116      6E6400
 3117              	.LASF37:
 3118 0363 564F525F 		.ascii	"VOR_UART_STATUS\000"
 3118      55415254 
 3118      5F535441 
ARM GAS  C:\Users\claym\AppData\Local\Temp\cctQKk9X.s 			page 61


 3118      54555300 
 3119              	.LASF109:
 3120 0373 55415254 		.ascii	"UART0_GetTxCount\000"
 3120      305F4765 
 3120      74547843 
 3120      6F756E74 
 3120      00
 3121              	.LASF78:
 3122 0384 706F6C6C 		.ascii	"poll_mode\000"
 3122      5F6D6F64 
 3122      6500
 3123              	.LASF44:
 3124 038e 52656365 		.ascii	"Receive\000"
 3124      69766500 
 3125              	.LASF118:
 3126 0396 564F525F 		.ascii	"VOR_UART_GetTxCount\000"
 3126      55415254 
 3126      5F476574 
 3126      5478436F 
 3126      756E7400 
 3127              	.LASF32:
 3128 03aa 54585F57 		.ascii	"TX_WRRDY\000"
 3128      52524459 
 3128      00
 3129              	.LASF60:
 3130 03b3 54584252 		.ascii	"TXBREAK\000"
 3130      45414B00 
 3131              	.LASF116:
 3132 03bb 55415254 		.ascii	"UART_Control\000"
 3132      5F436F6E 
 3132      74726F6C 
 3132      00
 3133              	.LASF2:
 3134 03c8 6C6F6E67 		.ascii	"long double\000"
 3134      20646F75 
 3134      626C6500 
 3135              	.LASF15:
 3136 03d4 75696E74 		.ascii	"uint16_t\000"
 3136      31365F74 
 3136      00
 3137              	.LASF68:
 3138 03dd 54584649 		.ascii	"TXFIFOIRQTRG\000"
 3138      464F4952 
 3138      51545247 
 3138      00
 3139              	.LASF71:
 3140 03ea 52455345 		.ascii	"RESERVED0\000"
 3140      52564544 
 3140      3000
 3141              	.LASF23:
 3142 03f4 52585F42 		.ascii	"RX_BUSY\000"
 3142      55535900 
 3143              	.LASF84:
 3144 03fc 72786964 		.ascii	"rxidx\000"
 3144      7800
 3145              	.LASF5:
 3146 0402 73686F72 		.ascii	"short int\000"
ARM GAS  C:\Users\claym\AppData\Local\Temp\cctQKk9X.s 			page 62


 3146      7420696E 
 3146      7400
 3147              	.LASF99:
 3148 040c 55415254 		.ascii	"UART1_Receive\000"
 3148      315F5265 
 3148      63656976 
 3148      6500
 3149              	.LASF125:
 3150 041a 433A5C44 		.ascii	"C:\\Development\\New_Mar8\\Workspace-Vorago - REB1\\"
 3150      6576656C 
 3150      6F706D65 
 3150      6E745C4E 
 3150      65775F4D 
 3151 044a 766F7261 		.ascii	"vorago_try311\000"
 3151      676F5F74 
 3151      72793331 
 3151      3100
 3152              	.LASF10:
 3153 0458 6C6F6E67 		.ascii	"long int\000"
 3153      20696E74 
 3153      00
 3154              	.LASF36:
 3155 0461 54585F43 		.ascii	"TX_CTS\000"
 3155      545300
 3156              	.LASF90:
 3157 0468 75617274 		.ascii	"uartClkEn\000"
 3157      436C6B45 
 3157      6E00
 3158              	.LASF121:
 3159 0472 55415254 		.ascii	"UART_Uninitialize\000"
 3159      5F556E69 
 3159      6E697469 
 3159      616C697A 
 3159      6500
 3160              	.LASF102:
 3161 0484 55415254 		.ascii	"UART1_Uninitialize\000"
 3161      315F556E 
 3161      696E6974 
 3161      69616C69 
 3161      7A6500
 3162              	.LASF41:
 3163 0497 496E6974 		.ascii	"Initialize\000"
 3163      69616C69 
 3163      7A6500
 3164              	.LASF79:
 3165 04a2 706F6C6C 		.ascii	"poll_tout\000"
 3165      5F746F75 
 3165      7400
 3166              	.LASF6:
 3167 04ac 5F5F7569 		.ascii	"__uint8_t\000"
 3167      6E74385F 
 3167      7400
 3168              	.LASF120:
 3169 04b6 55415254 		.ascii	"UART_Send\000"
 3169      5F53656E 
 3169      6400
 3170              	.LASF112:
ARM GAS  C:\Users\claym\AppData\Local\Temp\cctQKk9X.s 			page 63


 3171 04c0 55415254 		.ascii	"UART0_Uninitialize\000"
 3171      305F556E 
 3171      696E6974 
 3171      69616C69 
 3171      7A6500
 3172              	.LASF69:
 3173 04d3 52584649 		.ascii	"RXFIFORTSTRG\000"
 3173      464F5254 
 3173      53545247 
 3173      00
 3174              	.LASF54:
 3175 04e0 454E4142 		.ascii	"ENABLE\000"
 3175      4C4500
 3176              	.LASF12:
 3177 04e7 6C6F6E67 		.ascii	"long unsigned int\000"
 3177      20756E73 
 3177      69676E65 
 3177      6420696E 
 3177      7400
 3178              	.LASF34:
 3179 04f9 54585F42 		.ascii	"TX_BUSY\000"
 3179      55535900 
 3180              	.LASF16:
 3181 0501 696E7433 		.ascii	"int32_t\000"
 3181      325F7400 
 3182              	.LASF29:
 3183 0509 52585F42 		.ascii	"RX_BUSYBRK\000"
 3183      55535942 
 3183      524B00
 3184              	.LASF85:
 3185 0514 74786461 		.ascii	"txdata\000"
 3185      746100
 3186              	.LASF122:
 3187 051b 55415254 		.ascii	"UART_Initialize\000"
 3187      5F496E69 
 3187      7469616C 
 3187      697A6500 
 3188              	.LASF43:
 3189 052b 53656E64 		.ascii	"Send\000"
 3189      00
 3190              	.LASF4:
 3191 0530 756E7369 		.ascii	"unsigned char\000"
 3191      676E6564 
 3191      20636861 
 3191      7200
 3192              	.LASF51:
 3193 053e 44726976 		.ascii	"Driver_UART0\000"
 3193      65725F55 
 3193      41525430 
 3193      00
 3194              	.LASF50:
 3195 054b 44726976 		.ascii	"Driver_UART1\000"
 3195      65725F55 
 3195      41525431 
 3195      00
 3196              	.LASF11:
 3197 0558 5F5F7569 		.ascii	"__uint32_t\000"
ARM GAS  C:\Users\claym\AppData\Local\Temp\cctQKk9X.s 			page 64


 3197      6E743332 
 3197      5F7400
 3198              	.LASF95:
 3199 0563 55415254 		.ascii	"UART1_Control\000"
 3199      315F436F 
 3199      6E74726F 
 3199      6C00
 3200              	.LASF70:
 3201 0571 53544154 		.ascii	"STATE\000"
 3201      4500
 3202              	.LASF75:
 3203 0577 63625F65 		.ascii	"cb_event\000"
 3203      76656E74 
 3203      00
 3204              	.LASF97:
 3205 0580 55415254 		.ascii	"UART1_GetRxCount\000"
 3205      315F4765 
 3205      74527843 
 3205      6F756E74 
 3205      00
 3206              	.LASF28:
 3207 0591 52585F42 		.ascii	"RX_BRK\000"
 3207      524B00
 3208              	.LASF62:
 3209 0598 41444452 		.ascii	"ADDR9MASK\000"
 3209      394D4153 
 3209      4B00
 3210              	.LASF89:
 3211 05a2 696E666F 		.ascii	"info\000"
 3211      00
 3212              	.LASF67:
 3213 05a7 52584649 		.ascii	"RXFIFOIRQTRG\000"
 3213      464F4952 
 3213      51545247 
 3213      00
 3214              	.LASF35:
 3215 05b4 54585F57 		.ascii	"TX_WRLOST\000"
 3215      524C4F53 
 3215      5400
 3216              	.LASF19:
 3217 05be 5F564F52 		.ascii	"_VOR_DRIVER_VERSION\000"
 3217      5F445249 
 3217      5645525F 
 3217      56455253 
 3217      494F4E00 
 3218              	.LASF98:
 3219 05d2 55415254 		.ascii	"UART1_GetTxCount\000"
 3219      315F4765 
 3219      74547843 
 3219      6F756E74 
 3219      00
 3220              	.LASF111:
 3221 05e3 55415254 		.ascii	"UART0_Send\000"
 3221      305F5365 
 3221      6E6400
 3222              	.LASF3:
 3223 05ee 7369676E 		.ascii	"signed char\000"
ARM GAS  C:\Users\claym\AppData\Local\Temp\cctQKk9X.s 			page 65


 3223      65642063 
 3223      68617200 
 3224              	.LASF8:
 3225 05fa 73686F72 		.ascii	"short unsigned int\000"
 3225      7420756E 
 3225      7369676E 
 3225      65642069 
 3225      6E7400
 3226              	.LASF88:
 3227 060d 75617274 		.ascii	"uart_id\000"
 3227      5F696400 
 3228              	.LASF107:
 3229 0615 55415254 		.ascii	"UART0_Control\000"
 3229      305F436F 
 3229      6E74726F 
 3229      6C00
 3230              	.LASF59:
 3231 0623 4649464F 		.ascii	"FIFO_CLR\000"
 3231      5F434C52 
 3231      00
 3232              	.LASF82:
 3233 062c 7278636E 		.ascii	"rxcnt\000"
 3233      7400
 3234              	.LASF61:
 3235 0632 41444452 		.ascii	"ADDR9\000"
 3235      3900
 3236              	.LASF40:
 3237 0638 47657456 		.ascii	"GetVersion\000"
 3237      65727369 
 3237      6F6E00
 3238              	.LASF83:
 3239 0643 74786964 		.ascii	"txidx\000"
 3239      7800
 3240              	.LASF119:
 3241 0649 55415254 		.ascii	"UART_Receive\000"
 3241      5F526563 
 3241      65697665 
 3241      00
 3242              	.LASF46:
 3243 0656 47657452 		.ascii	"GetRxCount\000"
 3243      78436F75 
 3243      6E7400
 3244              	.LASF63:
 3245 0661 4952515F 		.ascii	"IRQ_ENB\000"
 3245      454E4200 
 3246              	.LASF65:
 3247 0669 4952515F 		.ascii	"IRQ_END\000"
 3247      454E4400 
 3248              	.LASF55:
 3249 0671 4354524C 		.ascii	"CTRL\000"
 3249      00
 3250              		.ident	"GCC: (GNU Tools for Arm Embedded Processors 7-2017-q4-major) 7.2.1 20170904 (release) [ARM
ARM GAS  C:\Users\claym\AppData\Local\Temp\cctQKk9X.s 			page 66


DEFINED SYMBOLS
                            *ABS*:00000000 uart_drv_api.c
C:\Users\claym\AppData\Local\Temp\cctQKk9X.s:73     .text:00000000 $t
C:\Users\claym\AppData\Local\Temp\cctQKk9X.s:79     .text:00000000 UART0_GetStatus
C:\Users\claym\AppData\Local\Temp\cctQKk9X.s:103    .text:0000000c $d
C:\Users\claym\AppData\Local\Temp\cctQKk9X.s:107    .text:00000010 $t
C:\Users\claym\AppData\Local\Temp\cctQKk9X.s:113    .text:00000010 UART1_GetStatus
C:\Users\claym\AppData\Local\Temp\cctQKk9X.s:136    .text:0000001c $d
C:\Users\claym\AppData\Local\Temp\cctQKk9X.s:140    .text:00000020 $t
C:\Users\claym\AppData\Local\Temp\cctQKk9X.s:146    .text:00000020 UART0_Control
C:\Users\claym\AppData\Local\Temp\cctQKk9X.s:170    .text:0000002c $d
C:\Users\claym\AppData\Local\Temp\cctQKk9X.s:174    .text:00000030 $t
C:\Users\claym\AppData\Local\Temp\cctQKk9X.s:180    .text:00000030 UART1_Control
C:\Users\claym\AppData\Local\Temp\cctQKk9X.s:204    .text:0000003c $d
C:\Users\claym\AppData\Local\Temp\cctQKk9X.s:208    .text:00000040 $t
C:\Users\claym\AppData\Local\Temp\cctQKk9X.s:214    .text:00000040 UART0_GetRxCount
C:\Users\claym\AppData\Local\Temp\cctQKk9X.s:237    .text:0000004c $d
C:\Users\claym\AppData\Local\Temp\cctQKk9X.s:241    .text:00000050 $t
C:\Users\claym\AppData\Local\Temp\cctQKk9X.s:247    .text:00000050 UART1_GetRxCount
C:\Users\claym\AppData\Local\Temp\cctQKk9X.s:270    .text:0000005c $d
C:\Users\claym\AppData\Local\Temp\cctQKk9X.s:274    .text:00000060 $t
C:\Users\claym\AppData\Local\Temp\cctQKk9X.s:280    .text:00000060 UART0_GetTxCount
C:\Users\claym\AppData\Local\Temp\cctQKk9X.s:303    .text:0000006c $d
C:\Users\claym\AppData\Local\Temp\cctQKk9X.s:307    .text:00000070 $t
C:\Users\claym\AppData\Local\Temp\cctQKk9X.s:313    .text:00000070 UART1_GetTxCount
C:\Users\claym\AppData\Local\Temp\cctQKk9X.s:336    .text:0000007c $d
C:\Users\claym\AppData\Local\Temp\cctQKk9X.s:340    .text:00000080 $t
C:\Users\claym\AppData\Local\Temp\cctQKk9X.s:346    .text:00000080 UART0_Receive
C:\Users\claym\AppData\Local\Temp\cctQKk9X.s:370    .text:0000008c $d
C:\Users\claym\AppData\Local\Temp\cctQKk9X.s:374    .text:00000090 $t
C:\Users\claym\AppData\Local\Temp\cctQKk9X.s:380    .text:00000090 UART1_Receive
C:\Users\claym\AppData\Local\Temp\cctQKk9X.s:404    .text:0000009c $d
C:\Users\claym\AppData\Local\Temp\cctQKk9X.s:408    .text:000000a0 $t
C:\Users\claym\AppData\Local\Temp\cctQKk9X.s:414    .text:000000a0 UART0_Send
C:\Users\claym\AppData\Local\Temp\cctQKk9X.s:438    .text:000000ac $d
C:\Users\claym\AppData\Local\Temp\cctQKk9X.s:442    .text:000000b0 $t
C:\Users\claym\AppData\Local\Temp\cctQKk9X.s:448    .text:000000b0 UART1_Send
C:\Users\claym\AppData\Local\Temp\cctQKk9X.s:472    .text:000000bc $d
C:\Users\claym\AppData\Local\Temp\cctQKk9X.s:476    .text:000000c0 $t
C:\Users\claym\AppData\Local\Temp\cctQKk9X.s:482    .text:000000c0 UART0_Uninitialize
C:\Users\claym\AppData\Local\Temp\cctQKk9X.s:505    .text:000000cc $d
C:\Users\claym\AppData\Local\Temp\cctQKk9X.s:509    .text:000000d0 $t
C:\Users\claym\AppData\Local\Temp\cctQKk9X.s:515    .text:000000d0 UART1_Uninitialize
C:\Users\claym\AppData\Local\Temp\cctQKk9X.s:538    .text:000000dc $d
C:\Users\claym\AppData\Local\Temp\cctQKk9X.s:542    .text:000000e0 $t
C:\Users\claym\AppData\Local\Temp\cctQKk9X.s:548    .text:000000e0 UART0_Initialize
C:\Users\claym\AppData\Local\Temp\cctQKk9X.s:572    .text:000000ec $d
C:\Users\claym\AppData\Local\Temp\cctQKk9X.s:576    .text:000000f0 $t
C:\Users\claym\AppData\Local\Temp\cctQKk9X.s:582    .text:000000f0 UART1_Initialize
C:\Users\claym\AppData\Local\Temp\cctQKk9X.s:606    .text:000000fc $d
C:\Users\claym\AppData\Local\Temp\cctQKk9X.s:610    .text:00000100 $t
C:\Users\claym\AppData\Local\Temp\cctQKk9X.s:617    .text:00000100 VOR_UART0_IRQHandler
C:\Users\claym\AppData\Local\Temp\cctQKk9X.s:640    .text:0000010c $d
C:\Users\claym\AppData\Local\Temp\cctQKk9X.s:644    .text:00000110 $t
C:\Users\claym\AppData\Local\Temp\cctQKk9X.s:651    .text:00000110 VOR_UART1_IRQHandler
C:\Users\claym\AppData\Local\Temp\cctQKk9X.s:674    .text:0000011c $d
C:\Users\claym\AppData\Local\Temp\cctQKk9X.s:684    .data:00000000 Driver_UART1
ARM GAS  C:\Users\claym\AppData\Local\Temp\cctQKk9X.s 			page 67


C:\Users\claym\AppData\Local\Temp\cctQKk9X.s:705    .data:00000024 Driver_UART0
C:\Users\claym\AppData\Local\Temp\cctQKk9X.s:681    .data:00000000 $d

UNDEFINED SYMBOLS
UART_GetStatus
UART0_Resources
UART1_Resources
UART_Control
VOR_UART_GetRxCount
VOR_UART_GetTxCount
UART_Receive
UART_Send
UART_Uninitialize
UART_Initialize
UART_IRQHandler
UARTx_GetVersion
