ARM GAS  C:\Users\claym\AppData\Local\Temp\cc2sTfd9.s 			page 1


   1              		.cpu cortex-m0
   2              		.eabi_attribute 20, 1	@ Tag_ABI_FP_denormal
   3              		.eabi_attribute 21, 1	@ Tag_ABI_FP_exceptions
   4              		.eabi_attribute 23, 3	@ Tag_ABI_FP_number_model
   5              		.eabi_attribute 24, 1	@ Tag_ABI_align8_needed
   6              		.eabi_attribute 25, 1	@ Tag_ABI_align8_preserved
   7              		.eabi_attribute 26, 1	@ Tag_ABI_enum_size
   8              		.eabi_attribute 30, 4	@ Tag_ABI_optimization_goals
   9              		.eabi_attribute 34, 0	@ Tag_CPU_unaligned_access
  10              		.eabi_attribute 18, 4	@ Tag_ABI_PCS_wchar_t
  11              		.file	"uart_va108xx.c"
  12              	@ GNU C11 (GNU Tools for Arm Embedded Processors 7-2017-q4-major) version 7.2.1 20170904 (release) 
  13              	@	compiled by GNU C version 5.3.1 20160211, GMP version 6.1.0, MPFR version 3.1.4, MPC version 1.0.
  14              	
  15              	@ GGC heuristics: --param ggc-min-expand=100 --param ggc-min-heapsize=131072
  16              	@ options passed:  -I . -I .\common\hdr -I .\driver\hdr -I .\utilities\hdr
  17              	@ -I .\inc -I .\driver\hdr -I .\hdr -imultilib thumb/v6-m
  18              	@ -iprefix c:\program files (x86)\gnu tools arm embedded\7 2017-q4-major\bin\../lib/gcc/arm-none-ea
  19              	@ -isysroot c:\program files (x86)\gnu tools arm embedded\7 2017-q4-major\bin\../arm-none-eabi
  20              	@ -D__USES_INITFINI__ -D RUN_FROM_FLASH=1 .\driver\src\uart_va108xx.c
  21              	@ -mcpu=cortex-m0 -mthumb -auxbase-strip .\driver\src\uart_va108xx.o
  22              	@ -gdwarf-2 -Os -Wall -Wstrict-prototypes -fomit-frame-pointer
  23              	@ -fverbose-asm
  24              	@ options enabled:  -faggressive-loop-optimizations -falign-jumps
  25              	@ -falign-labels -falign-loops -fauto-inc-dec -fbranch-count-reg
  26              	@ -fcaller-saves -fchkp-check-incomplete-type -fchkp-check-read
  27              	@ -fchkp-check-write -fchkp-instrument-calls -fchkp-narrow-bounds
  28              	@ -fchkp-optimize -fchkp-store-bounds -fchkp-use-static-bounds
  29              	@ -fchkp-use-static-const-bounds -fchkp-use-wrappers -fcode-hoisting
  30              	@ -fcombine-stack-adjustments -fcommon -fcompare-elim -fcprop-registers
  31              	@ -fcrossjumping -fcse-follow-jumps -fdefer-pop
  32              	@ -fdelete-null-pointer-checks -fdevirtualize -fdevirtualize-speculatively
  33              	@ -fdwarf2-cfi-asm -fearly-inlining -feliminate-unused-debug-types
  34              	@ -fexpensive-optimizations -fforward-propagate -ffp-int-builtin-inexact
  35              	@ -ffunction-cse -fgcse -fgcse-lm -fgnu-runtime -fgnu-unique
  36              	@ -fguess-branch-probability -fhoist-adjacent-loads -fident -fif-conversion
  37              	@ -fif-conversion2 -findirect-inlining -finline -finline-atomics
  38              	@ -finline-functions -finline-functions-called-once
  39              	@ -finline-small-functions -fipa-bit-cp -fipa-cp -fipa-icf
  40              	@ -fipa-icf-functions -fipa-icf-variables -fipa-profile -fipa-pure-const
  41              	@ -fipa-reference -fipa-sra -fipa-vrp -fira-hoist-pressure
  42              	@ -fira-share-save-slots -fira-share-spill-slots
  43              	@ -fisolate-erroneous-paths-dereference -fivopts -fkeep-static-consts
  44              	@ -fleading-underscore -flifetime-dse -flra-remat -flto-odr-type-merging
  45              	@ -fmath-errno -fmerge-constants -fmerge-debug-strings
  46              	@ -fmove-loop-invariants -fomit-frame-pointer -foptimize-sibling-calls
  47              	@ -fpartial-inlining -fpeephole -fpeephole2 -fplt -fprefetch-loop-arrays
  48              	@ -freg-struct-return -freorder-blocks -freorder-functions
  49              	@ -frerun-cse-after-loop -fsched-critical-path-heuristic
  50              	@ -fsched-dep-count-heuristic -fsched-group-heuristic -fsched-interblock
  51              	@ -fsched-last-insn-heuristic -fsched-pressure -fsched-rank-heuristic
  52              	@ -fsched-spec -fsched-spec-insn-heuristic -fsched-stalled-insns-dep
  53              	@ -fschedule-insns2 -fsection-anchors -fsemantic-interposition
  54              	@ -fshow-column -fshrink-wrap -fshrink-wrap-separate -fsigned-zeros
  55              	@ -fsplit-ivs-in-unroller -fsplit-wide-types -fssa-backprop -fssa-phiopt
  56              	@ -fstdarg-opt -fstore-merging -fstrict-aliasing -fstrict-overflow
  57              	@ -fstrict-volatile-bitfields -fsync-libcalls -fthread-jumps
ARM GAS  C:\Users\claym\AppData\Local\Temp\cc2sTfd9.s 			page 2


  58              	@ -ftoplevel-reorder -ftrapping-math -ftree-bit-ccp -ftree-builtin-call-dce
  59              	@ -ftree-ccp -ftree-ch -ftree-coalesce-vars -ftree-copy-prop -ftree-cselim
  60              	@ -ftree-dce -ftree-dominator-opts -ftree-dse -ftree-forwprop -ftree-fre
  61              	@ -ftree-loop-if-convert -ftree-loop-im -ftree-loop-ivcanon
  62              	@ -ftree-loop-optimize -ftree-parallelize-loops= -ftree-phiprop -ftree-pre
  63              	@ -ftree-pta -ftree-reassoc -ftree-scev-cprop -ftree-sink -ftree-slsr
  64              	@ -ftree-sra -ftree-switch-conversion -ftree-tail-merge -ftree-ter
  65              	@ -ftree-vrp -funit-at-a-time -fvar-tracking -fvar-tracking-assignments
  66              	@ -fverbose-asm -fzero-initialized-in-bss -mlittle-endian
  67              	@ -mpic-data-is-text-relative -msched-prolog -mthumb
  68              	@ -mvectorize-with-neon-quad
  69              	
  70              		.text
  71              	.Ltext0:
  72              		.cfi_sections	.debug_frame
  73              		.global	__aeabi_uidiv
  74              		.align	1
  75              		.global	UART_SetBaudrate
  76              		.syntax unified
  77              		.code	16
  78              		.thumb_func
  79              		.fpu softvfp
  80              		.type	UART_SetBaudrate, %function
  81              	UART_SetBaudrate:
  82              	.LFB34:
  83              		.file 1 ".\\driver\\src\\uart_va108xx.c"
   1:.\driver\src/uart_va108xx.c **** /***************************************************************************************
   2:.\driver\src/uart_va108xx.c ****  * @file     uart_va108xx.c
   3:.\driver\src/uart_va108xx.c ****  * @version  V1.0
   4:.\driver\src/uart_va108xx.c ****  * @date     31. March 2016
   5:.\driver\src/uart_va108xx.c ****  *
   6:.\driver\src/uart_va108xx.c ****  * @note
   7:.\driver\src/uart_va108xx.c ****  * VORAGO Technologies 
   8:.\driver\src/uart_va108xx.c ****  *
   9:.\driver\src/uart_va108xx.c ****  * @note
  10:.\driver\src/uart_va108xx.c ****  * Copyright (c) 2013-2016 VORAGO Technologies. 
  11:.\driver\src/uart_va108xx.c ****  *
  12:.\driver\src/uart_va108xx.c ****  * @par
  13:.\driver\src/uart_va108xx.c ****  * BY DOWNLOADING, INSTALLING OR USING THIS SOFTWARE, YOU AGREE TO BE BOUND BY 
  14:.\driver\src/uart_va108xx.c ****  * ALL THE TERMS AND CONDITIONS OF THE VORAGO TECHNOLOGIES END USER LICENSE AGREEMENT. 
  15:.\driver\src/uart_va108xx.c ****  * THIS SOFTWARE IS PROVIDED "AS IS". NO WARRANTIES, WHETHER EXPRESS, IMPLIED
  16:.\driver\src/uart_va108xx.c ****  * OR STATUTORY, INCLUDING, BUT NOT LIMITED TO, IMPLIED WARRANTIES OF MERCHANTABILITY 
  17:.\driver\src/uart_va108xx.c ****  * AND FITNESS FOR A PARTICULAR PURPOSE APPLY TO THIS SOFTWARE. VORAGO TECHNOLOGIES 
  18:.\driver\src/uart_va108xx.c ****  * SHALL NOT, IN ANY CIRCUMSTANCES, BE LIABLE FOR SPECIAL, INCIDENTAL, OR CONSEQUENTIAL 
  19:.\driver\src/uart_va108xx.c ****  * DAMAGES, FOR ANY REASON WHATSOEVER.
  20:.\driver\src/uart_va108xx.c ****  *
  21:.\driver\src/uart_va108xx.c ****  ****************************************************************************************/
  22:.\driver\src/uart_va108xx.c **** #include "uart_va108xx.h"
  23:.\driver\src/uart_va108xx.c **** #include "driver_common.h"
  24:.\driver\src/uart_va108xx.c **** #include "driver_uart.h"
  25:.\driver\src/uart_va108xx.c **** #include "irq_va108xx.h"
  26:.\driver\src/uart_va108xx.c **** #include "string.h"
  27:.\driver\src/uart_va108xx.c **** 
  28:.\driver\src/uart_va108xx.c **** #ifndef RTT_LOG
  29:.\driver\src/uart_va108xx.c **** 
  30:.\driver\src/uart_va108xx.c **** // Driver Version
  31:.\driver\src/uart_va108xx.c **** static const VOR_DRIVER_VERSION uart_driver_version = { VOR_UART_API_VERSION, VOR_UART_DRV_VERSION 
ARM GAS  C:\Users\claym\AppData\Local\Temp\cc2sTfd9.s 			page 3


  32:.\driver\src/uart_va108xx.c **** 
  33:.\driver\src/uart_va108xx.c **** // UART0
  34:.\driver\src/uart_va108xx.c **** // UART0 Resources
  35:.\driver\src/uart_va108xx.c **** UART_RESOURCES UART0_Resources = {
  36:.\driver\src/uart_va108xx.c ****   0,
  37:.\driver\src/uart_va108xx.c **** 	&VOR_UART->BANK[0],
  38:.\driver\src/uart_va108xx.c ****   &Driver_UART0,
  39:.\driver\src/uart_va108xx.c **** 	{0},
  40:.\driver\src/uart_va108xx.c **** 	UART0_CLK_EN_MASK
  41:.\driver\src/uart_va108xx.c **** };
  42:.\driver\src/uart_va108xx.c **** 
  43:.\driver\src/uart_va108xx.c **** // UART1
  44:.\driver\src/uart_va108xx.c **** // UART1 Resources
  45:.\driver\src/uart_va108xx.c **** UART_RESOURCES UART1_Resources = {
  46:.\driver\src/uart_va108xx.c **** 	1,
  47:.\driver\src/uart_va108xx.c **** 	&VOR_UART->BANK[1],
  48:.\driver\src/uart_va108xx.c ****   &Driver_UART1,
  49:.\driver\src/uart_va108xx.c **** 	{0},
  50:.\driver\src/uart_va108xx.c **** 	UART1_CLK_EN_MASK
  51:.\driver\src/uart_va108xx.c **** };
  52:.\driver\src/uart_va108xx.c **** 
  53:.\driver\src/uart_va108xx.c **** extern uint32_t VOR_Get_ClockFreq (void);
  54:.\driver\src/uart_va108xx.c **** 
  55:.\driver\src/uart_va108xx.c **** // Local Function
  56:.\driver\src/uart_va108xx.c **** /**
  57:.\driver\src/uart_va108xx.c ****   function:    int32_t UART_SetBaudrate (uint32_t         baudrate,
  58:.\driver\src/uart_va108xx.c ****                                           UART_RESOURCES *UART)
  59:.\driver\src/uart_va108xx.c ****   brief:       Set baudrate dividers
  60:.\driver\src/uart_va108xx.c ****   Input:       baudrate  UART baudrate
  61:.\driver\src/uart_va108xx.c ****   Input:       UART     Pointer to UART resources)
  62:.\driver\src/uart_va108xx.c ****   return:s
  63:.\driver\src/uart_va108xx.c ****    -   0: function succeeded
  64:.\driver\src/uart_va108xx.c ****    -  -1: function failed
  65:.\driver\src/uart_va108xx.c **** */
  66:.\driver\src/uart_va108xx.c **** uint32_t UART_SetBaudrate (uint32_t  baudrate, UART_RESOURCES *UART)  
  67:.\driver\src/uart_va108xx.c **** {
  84              		.loc 1 67 0
  85              		.cfi_startproc
  86              		@ args = 0, pretend = 0, frame = 0
  87              		@ frame_needed = 0, uses_anonymous_args = 0
  88              	.LVL0:
  89 0000 70B5     		push	{r4, r5, r6, lr}	@
  90              	.LCFI0:
  91              		.cfi_def_cfa_offset 16
  92              		.cfi_offset 4, -16
  93              		.cfi_offset 5, -12
  94              		.cfi_offset 6, -8
  95              		.cfi_offset 14, -4
  96              	@ .\driver\src\uart_va108xx.c:67: {
  97              		.loc 1 67 0
  98 0002 0500     		movs	r5, r0	@ baudrate, baudrate
  99 0004 0C00     		movs	r4, r1	@ UART, UART
 100              	@ .\driver\src\uart_va108xx.c:69: 	x = (VOR_Get_ClockFreq()/(baudrate * baudmode))*128;
  68:.\driver\src/uart_va108xx.c ****   uint32_t baudmode = 16, x, Register;
  69:.\driver\src/uart_va108xx.c **** 	x = (VOR_Get_ClockFreq()/(baudrate * baudmode))*128;
 101              		.loc 1 69 0
 102 0006 FFF7FEFF 		bl	VOR_Get_ClockFreq	@
ARM GAS  C:\Users\claym\AppData\Local\Temp\cc2sTfd9.s 			page 4


 103              	.LVL1:
 104 000a 2901     		lsls	r1, r5, #4	@ tmp120, baudrate,
 105 000c FFF7FEFF 		bl	__aeabi_uidiv	@
 106              	.LVL2:
 107              	@ .\driver\src\uart_va108xx.c:71: 	UART->reg->CLKSCALE = Register;
  70:.\driver\src/uart_va108xx.c ****   Register = (x+1)/2;
  71:.\driver\src/uart_va108xx.c **** 	UART->reg->CLKSCALE = Register;
 108              		.loc 1 71 0
 109 0010 6368     		ldr	r3, [r4, #4]	@ _5, UART_11(D)->reg
 110              	@ .\driver\src\uart_va108xx.c:69: 	x = (VOR_Get_ClockFreq()/(baudrate * baudmode))*128;
  69:.\driver\src/uart_va108xx.c ****   Register = (x+1)/2;
 111              		.loc 1 69 0
 112 0012 C001     		lsls	r0, r0, #7	@ x, tmp124,
 113              	@ .\driver\src\uart_va108xx.c:70:   Register = (x+1)/2;
  70:.\driver\src/uart_va108xx.c ****   Register = (x+1)/2;
 114              		.loc 1 70 0
 115 0014 4008     		lsrs	r0, r0, #1	@ Register, x,
 116              	.LVL3:
 117              	@ .\driver\src\uart_va108xx.c:71: 	UART->reg->CLKSCALE = Register;
 118              		.loc 1 71 0
 119 0016 D860     		str	r0, [r3, #12]	@ Register, _5->CLKSCALE
 120              	@ .\driver\src\uart_va108xx.c:74: }
  72:.\driver\src/uart_va108xx.c ****   UART->info.baudrate = baudrate;
  73:.\driver\src/uart_va108xx.c ****   return 0;
  74:.\driver\src/uart_va108xx.c **** }
 121              		.loc 1 74 0
 122              		@ sp needed	@
 123              	@ .\driver\src\uart_va108xx.c:72:   UART->info.baudrate = baudrate;
  72:.\driver\src/uart_va108xx.c ****   UART->info.baudrate = baudrate;
 124              		.loc 1 72 0
 125 0018 2562     		str	r5, [r4, #32]	@ baudrate, UART_11(D)->info.baudrate
 126              	@ .\driver\src\uart_va108xx.c:74: }
 127              		.loc 1 74 0
 128 001a 0020     		movs	r0, #0	@,
 129              	.LVL4:
 130              	.LVL5:
 131              	.LVL6:
 132 001c 70BD     		pop	{r4, r5, r6, pc}
 133              		.cfi_endproc
 134              	.LFE34:
 135              		.size	UART_SetBaudrate, .-UART_SetBaudrate
 136              		.align	1
 137              		.global	UARTx_GetVersion
 138              		.syntax unified
 139              		.code	16
 140              		.thumb_func
 141              		.fpu softvfp
 142              		.type	UARTx_GetVersion, %function
 143              	UARTx_GetVersion:
 144              	.LFB35:
  75:.\driver\src/uart_va108xx.c **** 
  76:.\driver\src/uart_va108xx.c **** /**
  77:.\driver\src/uart_va108xx.c ****   function:    VOR_DRIVER_VERSION UARTx_GetVersion (void)
  78:.\driver\src/uart_va108xx.c ****   brief:       Get driver version.
  79:.\driver\src/uart_va108xx.c ****   return:      VOR_DRIVER_VERSION
  80:.\driver\src/uart_va108xx.c **** */
  81:.\driver\src/uart_va108xx.c **** VOR_DRIVER_VERSION UARTx_GetVersion (void) {
ARM GAS  C:\Users\claym\AppData\Local\Temp\cc2sTfd9.s 			page 5


 145              		.loc 1 81 0
 146              		.cfi_startproc
 147              		@ args = 0, pretend = 0, frame = 8
 148              		@ frame_needed = 0, uses_anonymous_args = 0
 149 001e 13B5     		push	{r0, r1, r4, lr}	@
 150              	.LCFI1:
 151              		.cfi_def_cfa_offset 16
 152              		.cfi_offset 0, -16
 153              		.cfi_offset 1, -12
 154              		.cfi_offset 4, -8
 155              		.cfi_offset 14, -4
 156              	@ .\driver\src\uart_va108xx.c:82:   return uart_driver_version;
  82:.\driver\src/uart_va108xx.c ****   return uart_driver_version;
 157              		.loc 1 82 0
 158 0020 01AC     		add	r4, sp, #4	@ tmp111,,
 159 0022 0422     		movs	r2, #4	@,
 160 0024 0449     		ldr	r1, .L3	@,
 161 0026 2000     		movs	r0, r4	@, tmp111
 162 0028 FFF7FEFF 		bl	memcpy	@
 163              	.LVL7:
 164 002c 6388     		ldrh	r3, [r4, #2]	@ D.5432, D.5432
 165 002e 2088     		ldrh	r0, [r4]	@ tmp128, D.5432
 166 0030 1B04     		lsls	r3, r3, #16	@ tmp127, D.5432,
 167 0032 1843     		orrs	r0, r3	@ tmp130, tmp127
 168              	@ .\driver\src\uart_va108xx.c:83: }
  83:.\driver\src/uart_va108xx.c **** }
 169              		.loc 1 83 0
 170              		@ sp needed	@
 171 0034 16BD     		pop	{r1, r2, r4, pc}
 172              	.L4:
 173 0036 C046     		.align	2
 174              	.L3:
 175 0038 00000000 		.word	.LANCHOR0
 176              		.cfi_endproc
 177              	.LFE35:
 178              		.size	UARTx_GetVersion, .-UARTx_GetVersion
 179              		.align	1
 180              		.global	UART_Initialize
 181              		.syntax unified
 182              		.code	16
 183              		.thumb_func
 184              		.fpu softvfp
 185              		.type	UART_Initialize, %function
 186              	UART_Initialize:
 187              	.LFB36:
  84:.\driver\src/uart_va108xx.c **** 
  85:.\driver\src/uart_va108xx.c **** /**
  86:.\driver\src/uart_va108xx.c ****   function:    int32_t UART_Initialize (VOR_UART_SignalEvent_t  cb_event
  87:.\driver\src/uart_va108xx.c ****                                          UART_RESOURCES         *UART)
  88:.\driver\src/uart_va108xx.c ****   brief:       Initialize UART Interface.
  89:.\driver\src/uart_va108xx.c ****   Input:       cb_event  Pointer to VOR_UART_SignalEvent
  90:.\driver\src/uart_va108xx.c ****   Input:       UART     Pointer to UART resources
  91:.\driver\src/uart_va108xx.c ****   return:      execution_status
  92:.\driver\src/uart_va108xx.c **** */
  93:.\driver\src/uart_va108xx.c **** int32_t UART_Initialize (VOR_UART_SignalEvent_t  cb_event, UART_RESOURCES *UART)
  94:.\driver\src/uart_va108xx.c **** {
 188              		.loc 1 94 0
ARM GAS  C:\Users\claym\AppData\Local\Temp\cc2sTfd9.s 			page 6


 189              		.cfi_startproc
 190              		@ args = 0, pretend = 0, frame = 0
 191              		@ frame_needed = 0, uses_anonymous_args = 0
 192              	.LVL8:
 193 003c 30B5     		push	{r4, r5, lr}	@
 194              	.LCFI2:
 195              		.cfi_def_cfa_offset 12
 196              		.cfi_offset 4, -12
 197              		.cfi_offset 5, -8
 198              		.cfi_offset 14, -4
 199              	@ .\driver\src\uart_va108xx.c:95: 	if((UART == NULL) || (UART->reg ==NULL))
  95:.\driver\src/uart_va108xx.c **** 	if((UART == NULL) || (UART->reg ==NULL))
 200              		.loc 1 95 0
 201 003e 0029     		cmp	r1, #0	@ UART,
 202 0040 14D0     		beq	.L8	@,
 203              	@ .\driver\src\uart_va108xx.c:95: 	if((UART == NULL) || (UART->reg ==NULL))
 204              		.loc 1 95 0 is_stmt 0 discriminator 1
 205 0042 4B68     		ldr	r3, [r1, #4]	@ tmp136, UART_10(D)->reg
 206 0044 002B     		cmp	r3, #0	@ tmp136,
 207 0046 11D0     		beq	.L8	@,
 208              	@ .\driver\src\uart_va108xx.c:98: 		UART->info.flags |= UART_FLAG_INIT; 
  96:.\driver\src/uart_va108xx.c **** 	return VOR_DRIVER_ERROR_PARAMETER;
  97:.\driver\src/uart_va108xx.c **** 	
  98:.\driver\src/uart_va108xx.c **** 		UART->info.flags |= UART_FLAG_INIT; 
 209              		.loc 1 98 0 is_stmt 1
 210 0048 0123     		movs	r3, #1	@ tmp123,
 211 004a 4A69     		ldr	r2, [r1, #20]	@ tmp137, UART_10(D)->info.flags
 212 004c 1343     		orrs	r3, r2	@ tmp121, tmp137
 213 004e 4B61     		str	r3, [r1, #20]	@ tmp121, UART_10(D)->info.flags
 214              	@ .\driver\src\uart_va108xx.c:100:   if(UART->info.cb_event != NULL)
  99:.\driver\src/uart_va108xx.c **** 	
 100:.\driver\src/uart_va108xx.c ****   if(UART->info.cb_event != NULL)
 215              		.loc 1 100 0
 216 0050 CB68     		ldr	r3, [r1, #12]	@ UART_10(D)->info.cb_event, UART_10(D)->info.cb_event
 217 0052 002B     		cmp	r3, #0	@ UART_10(D)->info.cb_event,
 218 0054 0DD1     		bne	.L9	@,
 219              	@ .\driver\src\uart_va108xx.c:104: 	VOR_SYSCONFIG->PERIPHERAL_CLK_ENABLE |=  UART->uartClkEn; 
 101:.\driver\src/uart_va108xx.c **** 	return VOR_UART_ERROR_MULTIPLEINIT; 
 102:.\driver\src/uart_va108xx.c **** 
 103:.\driver\src/uart_va108xx.c **** 	// Switch-on clocks to UART module 
 104:.\driver\src/uart_va108xx.c **** 	VOR_SYSCONFIG->PERIPHERAL_CLK_ENABLE |=  UART->uartClkEn; 
 220              		.loc 1 104 0
 221 0056 8024     		movs	r4, #128	@ tmp125,
 222 0058 0D00     		movs	r5, r1	@ tmp128, UART
 223 005a E405     		lsls	r4, r4, #23	@ tmp125, tmp125,
 224 005c B835     		adds	r5, r5, #184	@ tmp128,
 225 005e E26F     		ldr	r2, [r4, #124]	@ _5, MEM[(struct VOR_SYSCONFIG_Type *)1073741824B].PERIPHERAL_CLK_ENABLE
 226 0060 2D68     		ldr	r5, [r5]	@ UART_10(D)->uartClkEn, UART_10(D)->uartClkEn
 227 0062 2A43     		orrs	r2, r5	@ _7, UART_10(D)->uartClkEn
 228 0064 E267     		str	r2, [r4, #124]	@ _7, MEM[(struct VOR_SYSCONFIG_Type *)1073741824B].PERIPHERAL_CLK_ENABLE
 229              	@ .\driver\src\uart_va108xx.c:106: 	UART->info.cb_event = cb_event;  
 105:.\driver\src/uart_va108xx.c **** 	
 106:.\driver\src/uart_va108xx.c **** 	UART->info.cb_event = cb_event;  
 230              		.loc 1 106 0
 231 0066 C860     		str	r0, [r1, #12]	@ cb_event, UART_10(D)->info.cb_event
 232              	@ .\driver\src\uart_va108xx.c:107:   return VOR_DRIVER_OK;
 107:.\driver\src/uart_va108xx.c ****   return VOR_DRIVER_OK;
ARM GAS  C:\Users\claym\AppData\Local\Temp\cc2sTfd9.s 			page 7


 233              		.loc 1 107 0
 234 0068 1800     		movs	r0, r3	@ <retval>, UART_10(D)->info.cb_event
 235              	.LVL9:
 236              	.L5:
 237              	@ .\driver\src\uart_va108xx.c:108: }
 108:.\driver\src/uart_va108xx.c **** }
 238              		.loc 1 108 0
 239              		@ sp needed	@
 240 006a 30BD     		pop	{r4, r5, pc}
 241              	.LVL10:
 242              	.L8:
 243              	@ .\driver\src\uart_va108xx.c:96: 	return VOR_DRIVER_ERROR_PARAMETER;
  96:.\driver\src/uart_va108xx.c **** 	
 244              		.loc 1 96 0
 245 006c 0520     		movs	r0, #5	@ <retval>,
 246              	.LVL11:
 247              	.L10:
 248              	@ .\driver\src\uart_va108xx.c:101: 	return VOR_UART_ERROR_MULTIPLEINIT; 
 101:.\driver\src/uart_va108xx.c **** 
 249              		.loc 1 101 0
 250 006e 4042     		rsbs	r0, r0, #0	@ <retval>, <retval>
 251 0070 FBE7     		b	.L5	@
 252              	.LVL12:
 253              	.L9:
 254 0072 0D20     		movs	r0, #13	@ <retval>,
 255              	.LVL13:
 256 0074 FBE7     		b	.L10	@
 257              		.cfi_endproc
 258              	.LFE36:
 259              		.size	UART_Initialize, .-UART_Initialize
 260              		.align	1
 261              		.global	UART_Uninitialize
 262              		.syntax unified
 263              		.code	16
 264              		.thumb_func
 265              		.fpu softvfp
 266              		.type	UART_Uninitialize, %function
 267              	UART_Uninitialize:
 268              	.LFB37:
 109:.\driver\src/uart_va108xx.c **** 
 110:.\driver\src/uart_va108xx.c **** /**
 111:.\driver\src/uart_va108xx.c ****   function:    int32_t UART_Uninitialize (UART_RESOURCES *UART)
 112:.\driver\src/uart_va108xx.c ****   brief:       De-initialize UART Interface.
 113:.\driver\src/uart_va108xx.c ****   Input:       UART     Pointer to UART resources
 114:.\driver\src/uart_va108xx.c ****   return:      execution_status
 115:.\driver\src/uart_va108xx.c **** */
 116:.\driver\src/uart_va108xx.c **** int32_t UART_Uninitialize (UART_RESOURCES *UART) {
 269              		.loc 1 116 0
 270              		.cfi_startproc
 271              		@ args = 0, pretend = 0, frame = 0
 272              		@ frame_needed = 0, uses_anonymous_args = 0
 273              	.LVL14:
 274 0076 10B5     		push	{r4, lr}	@
 275              	.LCFI3:
 276              		.cfi_def_cfa_offset 8
 277              		.cfi_offset 4, -8
 278              		.cfi_offset 14, -4
ARM GAS  C:\Users\claym\AppData\Local\Temp\cc2sTfd9.s 			page 8


 279              	@ .\driver\src\uart_va108xx.c:118:   if((UART == NULL) || (UART->reg ==NULL))
 117:.\driver\src/uart_va108xx.c **** 
 118:.\driver\src/uart_va108xx.c ****   if((UART == NULL) || (UART->reg ==NULL))
 280              		.loc 1 118 0
 281 0078 0028     		cmp	r0, #0	@ UART,
 282 007a 11D0     		beq	.L14	@,
 283              	@ .\driver\src\uart_va108xx.c:118:   if((UART == NULL) || (UART->reg ==NULL))
 284              		.loc 1 118 0 is_stmt 0 discriminator 1
 285 007c 4368     		ldr	r3, [r0, #4]	@ tmp135, UART_10(D)->reg
 286 007e 002B     		cmp	r3, #0	@ tmp135,
 287 0080 0ED0     		beq	.L14	@,
 288              	@ .\driver\src\uart_va108xx.c:121: 	UART->info.flags &= ~UART_FLAG_INIT;  
 119:.\driver\src/uart_va108xx.c ****    	{return VOR_DRIVER_ERROR_PARAMETER;}
 120:.\driver\src/uart_va108xx.c **** 	
 121:.\driver\src/uart_va108xx.c **** 	UART->info.flags &= ~UART_FLAG_INIT;  
 289              		.loc 1 121 0 is_stmt 1
 290 0082 0123     		movs	r3, #1	@ tmp122,
 291 0084 4269     		ldr	r2, [r0, #20]	@ tmp120, UART_10(D)->info.flags
 292              	@ .\driver\src\uart_va108xx.c:125: 	VOR_SYSCONFIG->PERIPHERAL_CLK_ENABLE &=  ~UART->uartClkEn; 
 122:.\driver\src/uart_va108xx.c **** 
 123:.\driver\src/uart_va108xx.c ****   UART->info.cb_event = NULL;
 124:.\driver\src/uart_va108xx.c **** 	// Switch-off clocks to UART module 
 125:.\driver\src/uart_va108xx.c **** 	VOR_SYSCONFIG->PERIPHERAL_CLK_ENABLE &=  ~UART->uartClkEn; 
 293              		.loc 1 125 0
 294 0086 8024     		movs	r4, #128	@ tmp124,
 295              	@ .\driver\src\uart_va108xx.c:121: 	UART->info.flags &= ~UART_FLAG_INIT;  
 121:.\driver\src/uart_va108xx.c **** 
 296              		.loc 1 121 0
 297 0088 9A43     		bics	r2, r3	@ tmp120, tmp122
 298 008a 4261     		str	r2, [r0, #20]	@ tmp120, UART_10(D)->info.flags
 299              	@ .\driver\src\uart_va108xx.c:123:   UART->info.cb_event = NULL;
 123:.\driver\src/uart_va108xx.c **** 	// Switch-off clocks to UART module 
 300              		.loc 1 123 0
 301 008c 0022     		movs	r2, #0	@ tmp123,
 302 008e C260     		str	r2, [r0, #12]	@ tmp123, UART_10(D)->info.cb_event
 303              	@ .\driver\src\uart_va108xx.c:125: 	VOR_SYSCONFIG->PERIPHERAL_CLK_ENABLE &=  ~UART->uartClkEn; 
 304              		.loc 1 125 0
 305 0090 B830     		adds	r0, r0, #184	@ tmp127,
 306              	.LVL15:
 307 0092 0368     		ldr	r3, [r0]	@ UART_10(D)->uartClkEn, UART_10(D)->uartClkEn
 308              	@ .\driver\src\uart_va108xx.c:127: 	return VOR_DRIVER_OK;
 126:.\driver\src/uart_va108xx.c ****   
 127:.\driver\src/uart_va108xx.c **** 	return VOR_DRIVER_OK;
 309              		.loc 1 127 0
 310 0094 1000     		movs	r0, r2	@ <retval>, tmp123
 311              	.LVL16:
 312              	@ .\driver\src\uart_va108xx.c:125: 	VOR_SYSCONFIG->PERIPHERAL_CLK_ENABLE &=  ~UART->uartClkEn; 
 125:.\driver\src/uart_va108xx.c ****   
 313              		.loc 1 125 0
 314 0096 E405     		lsls	r4, r4, #23	@ tmp124, tmp124,
 315 0098 E16F     		ldr	r1, [r4, #124]	@ _4, MEM[(struct VOR_SYSCONFIG_Type *)1073741824B].PERIPHERAL_CLK_ENABLE
 316 009a 9943     		bics	r1, r3	@ _7, UART_10(D)->uartClkEn
 317 009c E167     		str	r1, [r4, #124]	@ _7, MEM[(struct VOR_SYSCONFIG_Type *)1073741824B].PERIPHERAL_CLK_ENABLE
 318              	.L11:
 319              	@ .\driver\src\uart_va108xx.c:128: }
 128:.\driver\src/uart_va108xx.c **** }
 320              		.loc 1 128 0
ARM GAS  C:\Users\claym\AppData\Local\Temp\cc2sTfd9.s 			page 9


 321              		@ sp needed	@
 322 009e 10BD     		pop	{r4, pc}
 323              	.LVL17:
 324              	.L14:
 325              	@ .\driver\src\uart_va108xx.c:119:    	{return VOR_DRIVER_ERROR_PARAMETER;}
 119:.\driver\src/uart_va108xx.c **** 	
 326              		.loc 1 119 0
 327 00a0 0520     		movs	r0, #5	@ <retval>,
 328              	.LVL18:
 329 00a2 4042     		rsbs	r0, r0, #0	@ <retval>, <retval>
 330 00a4 FBE7     		b	.L11	@
 331              		.cfi_endproc
 332              	.LFE37:
 333              		.size	UART_Uninitialize, .-UART_Uninitialize
 334              		.align	1
 335              		.global	UART_Send
 336              		.syntax unified
 337              		.code	16
 338              		.thumb_func
 339              		.fpu softvfp
 340              		.type	UART_Send, %function
 341              	UART_Send:
 342              	.LFB38:
 129:.\driver\src/uart_va108xx.c **** 
 130:.\driver\src/uart_va108xx.c **** /**
 131:.\driver\src/uart_va108xx.c ****   function:    int32_t UART_Send (const void            *data,
 132:.\driver\src/uart_va108xx.c ****                                          uint32_t         num,
 133:.\driver\src/uart_va108xx.c ****                                          UART_RESOURCES *UART)
 134:.\driver\src/uart_va108xx.c ****   brief:       Start sending data to UART transmitter.
 135:.\driver\src/uart_va108xx.c ****   Input:       data  Pointer to buffer with data to send to UART transmitter
 136:.\driver\src/uart_va108xx.c ****   Input:       num   Number of data items to send
 137:.\driver\src/uart_va108xx.c ****   Input:       UART Pointer to UART resources
 138:.\driver\src/uart_va108xx.c ****   return:      execution_status
 139:.\driver\src/uart_va108xx.c **** */
 140:.\driver\src/uart_va108xx.c **** int32_t UART_Send (uint8_t *data, uint32_t num, UART_RESOURCES *UART)
 141:.\driver\src/uart_va108xx.c **** {	
 343              		.loc 1 141 0
 344              		.cfi_startproc
 345              		@ args = 0, pretend = 0, frame = 0
 346              		@ frame_needed = 0, uses_anonymous_args = 0
 347              	.LVL19:
 348 00a6 F8B5     		push	{r3, r4, r5, r6, r7, lr}	@
 349              	.LCFI4:
 350              		.cfi_def_cfa_offset 24
 351              		.cfi_offset 3, -24
 352              		.cfi_offset 4, -20
 353              		.cfi_offset 5, -16
 354              		.cfi_offset 6, -12
 355              		.cfi_offset 7, -8
 356              		.cfi_offset 14, -4
 357              	@ .\driver\src\uart_va108xx.c:141: {	
 358              		.loc 1 141 0
 359 00a8 0700     		movs	r7, r0	@ data, data
 360 00aa 0E00     		movs	r6, r1	@ num, num
 361 00ac 1500     		movs	r5, r2	@ UART, UART
 362              	@ .\driver\src\uart_va108xx.c:145:  		if (!data || (num > UART_MAX_TXDATA)) {
 142:.\driver\src/uart_va108xx.c **** 		uint32_t count;
ARM GAS  C:\Users\claym\AppData\Local\Temp\cc2sTfd9.s 			page 10


 143:.\driver\src/uart_va108xx.c **** 		// uint32_t poll_time, start_time;
 144:.\driver\src/uart_va108xx.c **** 		uint32_t txsts;
 145:.\driver\src/uart_va108xx.c ****  		if (!data || (num > UART_MAX_TXDATA)) {
 363              		.loc 1 145 0
 364 00ae 0028     		cmp	r0, #0	@ data,
 365 00b0 51D0     		beq	.L24	@,
 366              	@ .\driver\src\uart_va108xx.c:145:  		if (!data || (num > UART_MAX_TXDATA)) {
 367              		.loc 1 145 0 is_stmt 0 discriminator 1
 368 00b2 8029     		cmp	r1, #128	@ num,
 369 00b4 4FD8     		bhi	.L24	@,
 370              	@ .\driver\src\uart_va108xx.c:150: 		if (!(UART->info.flags & UART_FLAG_INIT)) {
 146:.\driver\src/uart_va108xx.c **** 			/* Invalid parameters */
 147:.\driver\src/uart_va108xx.c **** 			return VOR_DRIVER_ERROR_PARAMETER;
 148:.\driver\src/uart_va108xx.c **** 		}
 149:.\driver\src/uart_va108xx.c **** 
 150:.\driver\src/uart_va108xx.c **** 		if (!(UART->info.flags & UART_FLAG_INIT)) {
 371              		.loc 1 150 0 is_stmt 1
 372 00b6 0124     		movs	r4, #1	@ tmp177,
 373 00b8 5369     		ldr	r3, [r2, #20]	@ tmp176, UART_39(D)->info.flags
 374 00ba 2342     		tst	r3, r4	@ tmp176, tmp177
 375 00bc 4ED0     		beq	.L25	@,
 376              	@ .\driver\src\uart_va108xx.c:155: 		VOR_Disable_Irq(VOR_IRQ_UART, UART->uart_id);
 151:.\driver\src/uart_va108xx.c **** 			/* Driver not yet configured */
 152:.\driver\src/uart_va108xx.c **** 			return VOR_DRIVER_ERROR;
 153:.\driver\src/uart_va108xx.c **** 		}
 154:.\driver\src/uart_va108xx.c **** 
 155:.\driver\src/uart_va108xx.c **** 		VOR_Disable_Irq(VOR_IRQ_UART, UART->uart_id);
 377              		.loc 1 155 0
 378 00be 1168     		ldr	r1, [r2]	@, UART_39(D)->uart_id
 379              	.LVL20:
 380 00c0 0320     		movs	r0, #3	@,
 381              	.LVL21:
 382 00c2 FFF7FEFF 		bl	VOR_Disable_Irq	@
 383              	.LVL22:
 384              	@ .\driver\src\uart_va108xx.c:156: 		UART->reg->IRQ_ENB = 0;
 156:.\driver\src/uart_va108xx.c **** 		UART->reg->IRQ_ENB = 0;
 385              		.loc 1 156 0
 386 00c6 0022     		movs	r2, #0	@ tmp145,
 387              	@ .\driver\src\uart_va108xx.c:158: 	  UART->reg->ENABLE |= UART_PERIPHERAL_ENABLE_TXENABLE_Msk;
 157:.\driver\src/uart_va108xx.c ****     UART->info.txidx = 0;
 158:.\driver\src/uart_va108xx.c **** 	  UART->reg->ENABLE |= UART_PERIPHERAL_ENABLE_TXENABLE_Msk;
 388              		.loc 1 158 0
 389 00c8 0221     		movs	r1, #2	@ tmp147,
 390              	@ .\driver\src\uart_va108xx.c:156: 		UART->reg->IRQ_ENB = 0;
 156:.\driver\src/uart_va108xx.c **** 		UART->reg->IRQ_ENB = 0;
 391              		.loc 1 156 0
 392 00ca 6B68     		ldr	r3, [r5, #4]	@ _4, UART_39(D)->reg
 393 00cc 9A62     		str	r2, [r3, #40]	@ tmp145, _4->IRQ_ENB
 394              	@ .\driver\src\uart_va108xx.c:158: 	  UART->reg->ENABLE |= UART_PERIPHERAL_ENABLE_TXENABLE_Msk;
 395              		.loc 1 158 0
 396 00ce 5868     		ldr	r0, [r3, #4]	@ _5, _4->ENABLE
 397              	@ .\driver\src\uart_va108xx.c:157:     UART->info.txidx = 0;
 157:.\driver\src/uart_va108xx.c ****     UART->info.txidx = 0;
 398              		.loc 1 157 0
 399 00d0 EA62     		str	r2, [r5, #44]	@ tmp145, UART_39(D)->info.txidx
 400              	@ .\driver\src\uart_va108xx.c:158: 	  UART->reg->ENABLE |= UART_PERIPHERAL_ENABLE_TXENABLE_Msk;
 401              		.loc 1 158 0
ARM GAS  C:\Users\claym\AppData\Local\Temp\cc2sTfd9.s 			page 11


 402 00d2 0143     		orrs	r1, r0	@ _6, _5
 403 00d4 5960     		str	r1, [r3, #4]	@ _6, _4->ENABLE
 404              	@ .\driver\src\uart_va108xx.c:159: 	  UART->reg->ENABLE &= ~UART_PERIPHERAL_ENABLE_RXENABLE_Msk;
 159:.\driver\src/uart_va108xx.c **** 	  UART->reg->ENABLE &= ~UART_PERIPHERAL_ENABLE_RXENABLE_Msk;
 405              		.loc 1 159 0
 406 00d6 5968     		ldr	r1, [r3, #4]	@ _7, _4->ENABLE
 407 00d8 A143     		bics	r1, r4	@ _8, tmp178
 408              	@ .\driver\src\uart_va108xx.c:160: 		if(UART->info.poll_mode){
 160:.\driver\src/uart_va108xx.c **** 		if(UART->info.poll_mode){
 409              		.loc 1 160 0
 410 00da AC69     		ldr	r4, [r5, #24]	@ UART_39(D)->info.poll_mode, UART_39(D)->info.poll_mode
 411              	@ .\driver\src\uart_va108xx.c:159: 	  UART->reg->ENABLE &= ~UART_PERIPHERAL_ENABLE_RXENABLE_Msk;
 159:.\driver\src/uart_va108xx.c **** 	  UART->reg->ENABLE &= ~UART_PERIPHERAL_ENABLE_RXENABLE_Msk;
 412              		.loc 1 159 0
 413 00dc 5960     		str	r1, [r3, #4]	@ _8, _4->ENABLE
 414              	@ .\driver\src\uart_va108xx.c:169: 			  if((txsts & UART_PERIPHERAL_TXSTATUS_WRRDY_Msk) && (~(txsts
 161:.\driver\src/uart_va108xx.c **** 			
 162:.\driver\src/uart_va108xx.c **** 	  	/* start_time = VOR_Get_SysTime();
 163:.\driver\src/uart_va108xx.c **** 		  poll_time  = start_time - UART->info.poll_tout;*/ 
 164:.\driver\src/uart_va108xx.c **** 			count = 0;
 165:.\driver\src/uart_va108xx.c **** 		  while((num !=0) /*&& (poll_time <= VOR_Get_SysTime()) */ ) {
 166:.\driver\src/uart_va108xx.c **** 			  __NOP( ); 
 167:.\driver\src/uart_va108xx.c **** 			  __NOP( ); 
 168:.\driver\src/uart_va108xx.c **** 			  txsts = UART->reg->TXSTATUS;
 169:.\driver\src/uart_va108xx.c **** 			  if((txsts & UART_PERIPHERAL_TXSTATUS_WRRDY_Msk) && (~(txsts & UART_PERIPHERAL_TXSTATUS_TXBUSY_
 415              		.loc 1 169 0
 416 00de 0121     		movs	r1, #1	@ tmp171,
 417              	@ .\driver\src\uart_va108xx.c:160: 		if(UART->info.poll_mode){
 160:.\driver\src/uart_va108xx.c **** 		if(UART->info.poll_mode){
 418              		.loc 1 160 0
 419 00e0 9442     		cmp	r4, r2	@ UART_39(D)->info.poll_mode,
 420 00e2 28D1     		bne	.L17	@,
 421              	@ .\driver\src\uart_va108xx.c:194: 		  UART->reg->IRQ_CLR = 0xffffffff;
 170:.\driver\src/uart_va108xx.c **** 			       __NOP( ); 
 171:.\driver\src/uart_va108xx.c **** 			       __NOP( ); 
 172:.\driver\src/uart_va108xx.c ****   			       UART->reg->DATA = data[count++];
 173:.\driver\src/uart_va108xx.c **** 					   UART->info.txidx++;
 174:.\driver\src/uart_va108xx.c **** 				     num--;
 175:.\driver\src/uart_va108xx.c **** 			  }
 176:.\driver\src/uart_va108xx.c **** 			  __NOP( ); 
 177:.\driver\src/uart_va108xx.c **** 			  __NOP( ); 
 178:.\driver\src/uart_va108xx.c **** 		  }
 179:.\driver\src/uart_va108xx.c **** 		  if(num!=0) {
 180:.\driver\src/uart_va108xx.c **** 		    UART->reg->ENABLE &= ~UART_PERIPHERAL_ENABLE_TXENABLE_Msk;
 181:.\driver\src/uart_va108xx.c **** 			  return VOR_UART_ERROR_POLL_TOUT;
 182:.\driver\src/uart_va108xx.c **** 		  }
 183:.\driver\src/uart_va108xx.c **** 	    // Wait for transaction to complete
 184:.\driver\src/uart_va108xx.c **** 	    while((UART->reg->TXSTATUS & UART_PERIPHERAL_TXSTATUS_WRBUSY_Msk) /*&& (poll_time <= VOR_Get_S
 185:.\driver\src/uart_va108xx.c **** 	      __NOP( ); 
 186:.\driver\src/uart_va108xx.c **** 	      __NOP( ); 
 187:.\driver\src/uart_va108xx.c **** 			  __NOP( ); 
 188:.\driver\src/uart_va108xx.c **** 			  __NOP( ); 
 189:.\driver\src/uart_va108xx.c **** 	     }			
 190:.\driver\src/uart_va108xx.c **** 			 // Stop Tranmiter
 191:.\driver\src/uart_va108xx.c **** 		   UART->reg->ENABLE &= ~UART_PERIPHERAL_ENABLE_TXENABLE_Msk;
 192:.\driver\src/uart_va108xx.c **** 		}
 193:.\driver\src/uart_va108xx.c **** 		else {   // Interrupt Mode
ARM GAS  C:\Users\claym\AppData\Local\Temp\cc2sTfd9.s 			page 12


 194:.\driver\src/uart_va108xx.c **** 		  UART->reg->IRQ_CLR = 0xffffffff;
 422              		.loc 1 194 0
 423 00e4 0122     		movs	r2, #1	@ tmp157,
 424              	@ .\driver\src\uart_va108xx.c:197: 		  memcpy(UART->info.txdata,data,num);
 195:.\driver\src/uart_va108xx.c **** 		  UART->reg->IRQ_CLR = 0;
 196:.\driver\src/uart_va108xx.c **** 
 197:.\driver\src/uart_va108xx.c **** 		  memcpy(UART->info.txdata,data,num);
 425              		.loc 1 197 0
 426 00e6 2800     		movs	r0, r5	@ tmp159, UART
 427              	@ .\driver\src\uart_va108xx.c:194: 		  UART->reg->IRQ_CLR = 0xffffffff;
 194:.\driver\src/uart_va108xx.c **** 		  UART->reg->IRQ_CLR = 0;
 428              		.loc 1 194 0
 429 00e8 5242     		rsbs	r2, r2, #0	@ tmp157, tmp157
 430 00ea 5A63     		str	r2, [r3, #52]	@ tmp157, _4->IRQ_CLR
 431              	@ .\driver\src\uart_va108xx.c:197: 		  memcpy(UART->info.txdata,data,num);
 432              		.loc 1 197 0
 433 00ec 3900     		movs	r1, r7	@, data
 434              	@ .\driver\src\uart_va108xx.c:195: 		  UART->reg->IRQ_CLR = 0;
 195:.\driver\src/uart_va108xx.c **** 		  UART->reg->IRQ_CLR = 0;
 435              		.loc 1 195 0
 436 00ee 5C63     		str	r4, [r3, #52]	@ UART_39(D)->info.poll_mode, _4->IRQ_CLR
 437              	@ .\driver\src\uart_va108xx.c:197: 		  memcpy(UART->info.txdata,data,num);
 438              		.loc 1 197 0
 439 00f0 3200     		movs	r2, r6	@, num
 440 00f2 3430     		adds	r0, r0, #52	@ tmp159,
 441 00f4 FFF7FEFF 		bl	memcpy	@
 442              	.LVL23:
 443              	@ .\driver\src\uart_va108xx.c:198: 		  UART->info.txidx = 0;
 198:.\driver\src/uart_va108xx.c **** 		  UART->info.txidx = 0;
 444              		.loc 1 198 0
 445 00f8 EC62     		str	r4, [r5, #44]	@ UART_39(D)->info.poll_mode, UART_39(D)->info.txidx
 446              	@ .\driver\src\uart_va108xx.c:199: 		  UART->info.txcnt = num;
 199:.\driver\src/uart_va108xx.c **** 		  UART->info.txcnt = num;
 447              		.loc 1 199 0
 448 00fa 6E62     		str	r6, [r5, #36]	@ num, UART_39(D)->info.txcnt
 449              	@ .\driver\src\uart_va108xx.c:200: 		  UART->info.rxidx = 0;
 200:.\driver\src/uart_va108xx.c **** 		  UART->info.rxidx = 0;
 450              		.loc 1 200 0
 451 00fc 2C63     		str	r4, [r5, #48]	@ UART_39(D)->info.poll_mode, UART_39(D)->info.rxidx
 452              	@ .\driver\src\uart_va108xx.c:201: 		  UART->info.rxcnt = 0;
 201:.\driver\src/uart_va108xx.c **** 		  UART->info.rxcnt = 0;
 453              		.loc 1 201 0
 454 00fe AC62     		str	r4, [r5, #40]	@ UART_39(D)->info.poll_mode, UART_39(D)->info.rxcnt
 455              	@ .\driver\src\uart_va108xx.c:203: 		  VOR_Enable_Irq(VOR_IRQ_UART, UART->uart_id);
 202:.\driver\src/uart_va108xx.c **** 		
 203:.\driver\src/uart_va108xx.c **** 		  VOR_Enable_Irq(VOR_IRQ_UART, UART->uart_id);
 456              		.loc 1 203 0
 457 0100 2968     		ldr	r1, [r5]	@, UART_39(D)->uart_id
 458 0102 0320     		movs	r0, #3	@,
 459 0104 FFF7FEFF 		bl	VOR_Enable_Irq	@
 460              	.LVL24:
 461              	@ .\driver\src\uart_va108xx.c:204: 	    UART->reg->IRQ_ENB = (UART_PERIPHERAL_IRQ_ENB_IRQ_TX_Msk | 
 204:.\driver\src/uart_va108xx.c **** 	    UART->reg->IRQ_ENB = (UART_PERIPHERAL_IRQ_ENB_IRQ_TX_Msk | \
 462              		.loc 1 204 0
 463 0108 F022     		movs	r2, #240	@ tmp168,
 464 010a 6B68     		ldr	r3, [r5, #4]	@ _26, UART_39(D)->reg
 465              	@ .\driver\src\uart_va108xx.c:209: 	return VOR_DRIVER_OK;
ARM GAS  C:\Users\claym\AppData\Local\Temp\cc2sTfd9.s 			page 13


 205:.\driver\src/uart_va108xx.c **** 				 							 UART_PERIPHERAL_IRQ_ENB_IRQ_TX_STATUS_Msk | \
 206:.\driver\src/uart_va108xx.c **** 								        UART_PERIPHERAL_IRQ_ENB_IRQ_TX_EMPTY_Msk | \
 207:.\driver\src/uart_va108xx.c **** 										      UART_PERIPHERAL_IRQ_ENB_IRQ_TX_CTS_Msk );
 208:.\driver\src/uart_va108xx.c **** 	}
 209:.\driver\src/uart_va108xx.c **** 	return VOR_DRIVER_OK;
 466              		.loc 1 209 0
 467 010c 2000     		movs	r0, r4	@ <retval>, UART_39(D)->info.poll_mode
 468              	@ .\driver\src\uart_va108xx.c:204: 	    UART->reg->IRQ_ENB = (UART_PERIPHERAL_IRQ_ENB_IRQ_TX_Msk | 
 204:.\driver\src/uart_va108xx.c **** 	    UART->reg->IRQ_ENB = (UART_PERIPHERAL_IRQ_ENB_IRQ_TX_Msk | \
 469              		.loc 1 204 0
 470 010e 9A62     		str	r2, [r3, #40]	@ tmp168, _26->IRQ_ENB
 471 0110 1BE0     		b	.L15	@
 472              	.LVL25:
 473              	.L20:
 474              	.LBB30:
 475              	.LBB31:
 476              	@ .\inc/cmsis_gcc.h:375:   __ASM volatile ("nop");
 477              		.file 2 ".\\inc/cmsis_gcc.h"
   1:.\inc/cmsis_gcc.h **** /**************************************************************************//**
   2:.\inc/cmsis_gcc.h ****  * @file     cmsis_gcc.h
   3:.\inc/cmsis_gcc.h ****  * @brief    CMSIS Cortex-M Core Function/Instruction Header File
   4:.\inc/cmsis_gcc.h ****  * @version  V4.30
   5:.\inc/cmsis_gcc.h ****  * @date     20. October 2015
   6:.\inc/cmsis_gcc.h ****  ******************************************************************************/
   7:.\inc/cmsis_gcc.h **** /* Copyright (c) 2009 - 2015 ARM LIMITED
   8:.\inc/cmsis_gcc.h **** 
   9:.\inc/cmsis_gcc.h ****    All rights reserved.
  10:.\inc/cmsis_gcc.h ****    Redistribution and use in source and binary forms, with or without
  11:.\inc/cmsis_gcc.h ****    modification, are permitted provided that the following conditions are met:
  12:.\inc/cmsis_gcc.h ****    - Redistributions of source code must retain the above copyright
  13:.\inc/cmsis_gcc.h ****      notice, this list of conditions and the following disclaimer.
  14:.\inc/cmsis_gcc.h ****    - Redistributions in binary form must reproduce the above copyright
  15:.\inc/cmsis_gcc.h ****      notice, this list of conditions and the following disclaimer in the
  16:.\inc/cmsis_gcc.h ****      documentation and/or other materials provided with the distribution.
  17:.\inc/cmsis_gcc.h ****    - Neither the name of ARM nor the names of its contributors may be used
  18:.\inc/cmsis_gcc.h ****      to endorse or promote products derived from this software without
  19:.\inc/cmsis_gcc.h ****      specific prior written permission.
  20:.\inc/cmsis_gcc.h ****    *
  21:.\inc/cmsis_gcc.h ****    THIS SOFTWARE IS PROVIDED BY THE COPYRIGHT HOLDERS AND CONTRIBUTORS "AS IS"
  22:.\inc/cmsis_gcc.h ****    AND ANY EXPRESS OR IMPLIED WARRANTIES, INCLUDING, BUT NOT LIMITED TO, THE
  23:.\inc/cmsis_gcc.h ****    IMPLIED WARRANTIES OF MERCHANTABILITY AND FITNESS FOR A PARTICULAR PURPOSE
  24:.\inc/cmsis_gcc.h ****    ARE DISCLAIMED. IN NO EVENT SHALL COPYRIGHT HOLDERS AND CONTRIBUTORS BE
  25:.\inc/cmsis_gcc.h ****    LIABLE FOR ANY DIRECT, INDIRECT, INCIDENTAL, SPECIAL, EXEMPLARY, OR
  26:.\inc/cmsis_gcc.h ****    CONSEQUENTIAL DAMAGES (INCLUDING, BUT NOT LIMITED TO, PROCUREMENT OF
  27:.\inc/cmsis_gcc.h ****    SUBSTITUTE GOODS OR SERVICES; LOSS OF USE, DATA, OR PROFITS; OR BUSINESS
  28:.\inc/cmsis_gcc.h ****    INTERRUPTION) HOWEVER CAUSED AND ON ANY THEORY OF LIABILITY, WHETHER IN
  29:.\inc/cmsis_gcc.h ****    CONTRACT, STRICT LIABILITY, OR TORT (INCLUDING NEGLIGENCE OR OTHERWISE)
  30:.\inc/cmsis_gcc.h ****    ARISING IN ANY WAY OUT OF THE USE OF THIS SOFTWARE, EVEN IF ADVISED OF THE
  31:.\inc/cmsis_gcc.h ****    POSSIBILITY OF SUCH DAMAGE.
  32:.\inc/cmsis_gcc.h ****    ---------------------------------------------------------------------------*/
  33:.\inc/cmsis_gcc.h **** 
  34:.\inc/cmsis_gcc.h **** 
  35:.\inc/cmsis_gcc.h **** #ifndef __CMSIS_GCC_H
  36:.\inc/cmsis_gcc.h **** #define __CMSIS_GCC_H
  37:.\inc/cmsis_gcc.h **** 
  38:.\inc/cmsis_gcc.h **** /* ignore some GCC warnings */
  39:.\inc/cmsis_gcc.h **** #if defined ( __GNUC__ )
ARM GAS  C:\Users\claym\AppData\Local\Temp\cc2sTfd9.s 			page 14


  40:.\inc/cmsis_gcc.h **** #pragma GCC diagnostic push
  41:.\inc/cmsis_gcc.h **** #pragma GCC diagnostic ignored "-Wsign-conversion"
  42:.\inc/cmsis_gcc.h **** #pragma GCC diagnostic ignored "-Wconversion"
  43:.\inc/cmsis_gcc.h **** #pragma GCC diagnostic ignored "-Wunused-parameter"
  44:.\inc/cmsis_gcc.h **** #endif
  45:.\inc/cmsis_gcc.h **** 
  46:.\inc/cmsis_gcc.h **** 
  47:.\inc/cmsis_gcc.h **** /* ###########################  Core Function Access  ########################### */
  48:.\inc/cmsis_gcc.h **** /** \ingroup  CMSIS_Core_FunctionInterface
  49:.\inc/cmsis_gcc.h ****     \defgroup CMSIS_Core_RegAccFunctions CMSIS Core Register Access Functions
  50:.\inc/cmsis_gcc.h ****   @{
  51:.\inc/cmsis_gcc.h ****  */
  52:.\inc/cmsis_gcc.h **** 
  53:.\inc/cmsis_gcc.h **** /**
  54:.\inc/cmsis_gcc.h ****   \brief   Enable IRQ Interrupts
  55:.\inc/cmsis_gcc.h ****   \details Enables IRQ interrupts by clearing the I-bit in the CPSR.
  56:.\inc/cmsis_gcc.h ****            Can only be executed in Privileged modes.
  57:.\inc/cmsis_gcc.h ****  */
  58:.\inc/cmsis_gcc.h **** __attribute__( ( always_inline ) ) __STATIC_INLINE void __enable_irq(void)
  59:.\inc/cmsis_gcc.h **** {
  60:.\inc/cmsis_gcc.h ****   __ASM volatile ("cpsie i" : : : "memory");
  61:.\inc/cmsis_gcc.h **** }
  62:.\inc/cmsis_gcc.h **** 
  63:.\inc/cmsis_gcc.h **** 
  64:.\inc/cmsis_gcc.h **** /**
  65:.\inc/cmsis_gcc.h ****   \brief   Disable IRQ Interrupts
  66:.\inc/cmsis_gcc.h ****   \details Disables IRQ interrupts by setting the I-bit in the CPSR.
  67:.\inc/cmsis_gcc.h ****   Can only be executed in Privileged modes.
  68:.\inc/cmsis_gcc.h ****  */
  69:.\inc/cmsis_gcc.h **** __attribute__( ( always_inline ) ) __STATIC_INLINE void __disable_irq(void)
  70:.\inc/cmsis_gcc.h **** {
  71:.\inc/cmsis_gcc.h ****   __ASM volatile ("cpsid i" : : : "memory");
  72:.\inc/cmsis_gcc.h **** }
  73:.\inc/cmsis_gcc.h **** 
  74:.\inc/cmsis_gcc.h **** 
  75:.\inc/cmsis_gcc.h **** /**
  76:.\inc/cmsis_gcc.h ****   \brief   Get Control Register
  77:.\inc/cmsis_gcc.h ****   \details Returns the content of the Control Register.
  78:.\inc/cmsis_gcc.h ****   \return               Control Register value
  79:.\inc/cmsis_gcc.h ****  */
  80:.\inc/cmsis_gcc.h **** __attribute__( ( always_inline ) ) __STATIC_INLINE uint32_t __get_CONTROL(void)
  81:.\inc/cmsis_gcc.h **** {
  82:.\inc/cmsis_gcc.h ****   uint32_t result;
  83:.\inc/cmsis_gcc.h **** 
  84:.\inc/cmsis_gcc.h ****   __ASM volatile ("MRS %0, control" : "=r" (result) );
  85:.\inc/cmsis_gcc.h ****   return(result);
  86:.\inc/cmsis_gcc.h **** }
  87:.\inc/cmsis_gcc.h **** 
  88:.\inc/cmsis_gcc.h **** 
  89:.\inc/cmsis_gcc.h **** /**
  90:.\inc/cmsis_gcc.h ****   \brief   Set Control Register
  91:.\inc/cmsis_gcc.h ****   \details Writes the given value to the Control Register.
  92:.\inc/cmsis_gcc.h ****   \param [in]    control  Control Register value to set
  93:.\inc/cmsis_gcc.h ****  */
  94:.\inc/cmsis_gcc.h **** __attribute__( ( always_inline ) ) __STATIC_INLINE void __set_CONTROL(uint32_t control)
  95:.\inc/cmsis_gcc.h **** {
  96:.\inc/cmsis_gcc.h ****   __ASM volatile ("MSR control, %0" : : "r" (control) : "memory");
ARM GAS  C:\Users\claym\AppData\Local\Temp\cc2sTfd9.s 			page 15


  97:.\inc/cmsis_gcc.h **** }
  98:.\inc/cmsis_gcc.h **** 
  99:.\inc/cmsis_gcc.h **** 
 100:.\inc/cmsis_gcc.h **** /**
 101:.\inc/cmsis_gcc.h ****   \brief   Get IPSR Register
 102:.\inc/cmsis_gcc.h ****   \details Returns the content of the IPSR Register.
 103:.\inc/cmsis_gcc.h ****   \return               IPSR Register value
 104:.\inc/cmsis_gcc.h ****  */
 105:.\inc/cmsis_gcc.h **** __attribute__( ( always_inline ) ) __STATIC_INLINE uint32_t __get_IPSR(void)
 106:.\inc/cmsis_gcc.h **** {
 107:.\inc/cmsis_gcc.h ****   uint32_t result;
 108:.\inc/cmsis_gcc.h **** 
 109:.\inc/cmsis_gcc.h ****   __ASM volatile ("MRS %0, ipsr" : "=r" (result) );
 110:.\inc/cmsis_gcc.h ****   return(result);
 111:.\inc/cmsis_gcc.h **** }
 112:.\inc/cmsis_gcc.h **** 
 113:.\inc/cmsis_gcc.h **** 
 114:.\inc/cmsis_gcc.h **** /**
 115:.\inc/cmsis_gcc.h ****   \brief   Get APSR Register
 116:.\inc/cmsis_gcc.h ****   \details Returns the content of the APSR Register.
 117:.\inc/cmsis_gcc.h ****   \return               APSR Register value
 118:.\inc/cmsis_gcc.h ****  */
 119:.\inc/cmsis_gcc.h **** __attribute__( ( always_inline ) ) __STATIC_INLINE uint32_t __get_APSR(void)
 120:.\inc/cmsis_gcc.h **** {
 121:.\inc/cmsis_gcc.h ****   uint32_t result;
 122:.\inc/cmsis_gcc.h **** 
 123:.\inc/cmsis_gcc.h ****   __ASM volatile ("MRS %0, apsr" : "=r" (result) );
 124:.\inc/cmsis_gcc.h ****   return(result);
 125:.\inc/cmsis_gcc.h **** }
 126:.\inc/cmsis_gcc.h **** 
 127:.\inc/cmsis_gcc.h **** 
 128:.\inc/cmsis_gcc.h **** /**
 129:.\inc/cmsis_gcc.h ****   \brief   Get xPSR Register
 130:.\inc/cmsis_gcc.h ****   \details Returns the content of the xPSR Register.
 131:.\inc/cmsis_gcc.h **** 
 132:.\inc/cmsis_gcc.h ****     \return               xPSR Register value
 133:.\inc/cmsis_gcc.h ****  */
 134:.\inc/cmsis_gcc.h **** __attribute__( ( always_inline ) ) __STATIC_INLINE uint32_t __get_xPSR(void)
 135:.\inc/cmsis_gcc.h **** {
 136:.\inc/cmsis_gcc.h ****   uint32_t result;
 137:.\inc/cmsis_gcc.h **** 
 138:.\inc/cmsis_gcc.h ****   __ASM volatile ("MRS %0, xpsr" : "=r" (result) );
 139:.\inc/cmsis_gcc.h ****   return(result);
 140:.\inc/cmsis_gcc.h **** }
 141:.\inc/cmsis_gcc.h **** 
 142:.\inc/cmsis_gcc.h **** 
 143:.\inc/cmsis_gcc.h **** /**
 144:.\inc/cmsis_gcc.h ****   \brief   Get Process Stack Pointer
 145:.\inc/cmsis_gcc.h ****   \details Returns the current value of the Process Stack Pointer (PSP).
 146:.\inc/cmsis_gcc.h ****   \return               PSP Register value
 147:.\inc/cmsis_gcc.h ****  */
 148:.\inc/cmsis_gcc.h **** __attribute__( ( always_inline ) ) __STATIC_INLINE uint32_t __get_PSP(void)
 149:.\inc/cmsis_gcc.h **** {
 150:.\inc/cmsis_gcc.h ****   register uint32_t result;
 151:.\inc/cmsis_gcc.h **** 
 152:.\inc/cmsis_gcc.h ****   __ASM volatile ("MRS %0, psp\n"  : "=r" (result) );
 153:.\inc/cmsis_gcc.h ****   return(result);
ARM GAS  C:\Users\claym\AppData\Local\Temp\cc2sTfd9.s 			page 16


 154:.\inc/cmsis_gcc.h **** }
 155:.\inc/cmsis_gcc.h **** 
 156:.\inc/cmsis_gcc.h **** 
 157:.\inc/cmsis_gcc.h **** /**
 158:.\inc/cmsis_gcc.h ****   \brief   Set Process Stack Pointer
 159:.\inc/cmsis_gcc.h ****   \details Assigns the given value to the Process Stack Pointer (PSP).
 160:.\inc/cmsis_gcc.h ****   \param [in]    topOfProcStack  Process Stack Pointer value to set
 161:.\inc/cmsis_gcc.h ****  */
 162:.\inc/cmsis_gcc.h **** __attribute__( ( always_inline ) ) __STATIC_INLINE void __set_PSP(uint32_t topOfProcStack)
 163:.\inc/cmsis_gcc.h **** {
 164:.\inc/cmsis_gcc.h ****   __ASM volatile ("MSR psp, %0\n" : : "r" (topOfProcStack) : "sp");
 165:.\inc/cmsis_gcc.h **** }
 166:.\inc/cmsis_gcc.h **** 
 167:.\inc/cmsis_gcc.h **** 
 168:.\inc/cmsis_gcc.h **** /**
 169:.\inc/cmsis_gcc.h ****   \brief   Get Main Stack Pointer
 170:.\inc/cmsis_gcc.h ****   \details Returns the current value of the Main Stack Pointer (MSP).
 171:.\inc/cmsis_gcc.h ****   \return               MSP Register value
 172:.\inc/cmsis_gcc.h ****  */
 173:.\inc/cmsis_gcc.h **** __attribute__( ( always_inline ) ) __STATIC_INLINE uint32_t __get_MSP(void)
 174:.\inc/cmsis_gcc.h **** {
 175:.\inc/cmsis_gcc.h ****   register uint32_t result;
 176:.\inc/cmsis_gcc.h **** 
 177:.\inc/cmsis_gcc.h ****   __ASM volatile ("MRS %0, msp\n" : "=r" (result) );
 178:.\inc/cmsis_gcc.h ****   return(result);
 179:.\inc/cmsis_gcc.h **** }
 180:.\inc/cmsis_gcc.h **** 
 181:.\inc/cmsis_gcc.h **** 
 182:.\inc/cmsis_gcc.h **** /**
 183:.\inc/cmsis_gcc.h ****   \brief   Set Main Stack Pointer
 184:.\inc/cmsis_gcc.h ****   \details Assigns the given value to the Main Stack Pointer (MSP).
 185:.\inc/cmsis_gcc.h **** 
 186:.\inc/cmsis_gcc.h ****     \param [in]    topOfMainStack  Main Stack Pointer value to set
 187:.\inc/cmsis_gcc.h ****  */
 188:.\inc/cmsis_gcc.h **** __attribute__( ( always_inline ) ) __STATIC_INLINE void __set_MSP(uint32_t topOfMainStack)
 189:.\inc/cmsis_gcc.h **** {
 190:.\inc/cmsis_gcc.h ****   __ASM volatile ("MSR msp, %0\n" : : "r" (topOfMainStack) : "sp");
 191:.\inc/cmsis_gcc.h **** }
 192:.\inc/cmsis_gcc.h **** 
 193:.\inc/cmsis_gcc.h **** 
 194:.\inc/cmsis_gcc.h **** /**
 195:.\inc/cmsis_gcc.h ****   \brief   Get Priority Mask
 196:.\inc/cmsis_gcc.h ****   \details Returns the current state of the priority mask bit from the Priority Mask Register.
 197:.\inc/cmsis_gcc.h ****   \return               Priority Mask value
 198:.\inc/cmsis_gcc.h ****  */
 199:.\inc/cmsis_gcc.h **** __attribute__( ( always_inline ) ) __STATIC_INLINE uint32_t __get_PRIMASK(void)
 200:.\inc/cmsis_gcc.h **** {
 201:.\inc/cmsis_gcc.h ****   uint32_t result;
 202:.\inc/cmsis_gcc.h **** 
 203:.\inc/cmsis_gcc.h ****   __ASM volatile ("MRS %0, primask" : "=r" (result) );
 204:.\inc/cmsis_gcc.h ****   return(result);
 205:.\inc/cmsis_gcc.h **** }
 206:.\inc/cmsis_gcc.h **** 
 207:.\inc/cmsis_gcc.h **** 
 208:.\inc/cmsis_gcc.h **** /**
 209:.\inc/cmsis_gcc.h ****   \brief   Set Priority Mask
 210:.\inc/cmsis_gcc.h ****   \details Assigns the given value to the Priority Mask Register.
ARM GAS  C:\Users\claym\AppData\Local\Temp\cc2sTfd9.s 			page 17


 211:.\inc/cmsis_gcc.h ****   \param [in]    priMask  Priority Mask
 212:.\inc/cmsis_gcc.h ****  */
 213:.\inc/cmsis_gcc.h **** __attribute__( ( always_inline ) ) __STATIC_INLINE void __set_PRIMASK(uint32_t priMask)
 214:.\inc/cmsis_gcc.h **** {
 215:.\inc/cmsis_gcc.h ****   __ASM volatile ("MSR primask, %0" : : "r" (priMask) : "memory");
 216:.\inc/cmsis_gcc.h **** }
 217:.\inc/cmsis_gcc.h **** 
 218:.\inc/cmsis_gcc.h **** 
 219:.\inc/cmsis_gcc.h **** #if       (__CORTEX_M >= 0x03U)
 220:.\inc/cmsis_gcc.h **** 
 221:.\inc/cmsis_gcc.h **** /**
 222:.\inc/cmsis_gcc.h ****   \brief   Enable FIQ
 223:.\inc/cmsis_gcc.h ****   \details Enables FIQ interrupts by clearing the F-bit in the CPSR.
 224:.\inc/cmsis_gcc.h ****            Can only be executed in Privileged modes.
 225:.\inc/cmsis_gcc.h ****  */
 226:.\inc/cmsis_gcc.h **** __attribute__( ( always_inline ) ) __STATIC_INLINE void __enable_fault_irq(void)
 227:.\inc/cmsis_gcc.h **** {
 228:.\inc/cmsis_gcc.h ****   __ASM volatile ("cpsie f" : : : "memory");
 229:.\inc/cmsis_gcc.h **** }
 230:.\inc/cmsis_gcc.h **** 
 231:.\inc/cmsis_gcc.h **** 
 232:.\inc/cmsis_gcc.h **** /**
 233:.\inc/cmsis_gcc.h ****   \brief   Disable FIQ
 234:.\inc/cmsis_gcc.h ****   \details Disables FIQ interrupts by setting the F-bit in the CPSR.
 235:.\inc/cmsis_gcc.h ****            Can only be executed in Privileged modes.
 236:.\inc/cmsis_gcc.h ****  */
 237:.\inc/cmsis_gcc.h **** __attribute__( ( always_inline ) ) __STATIC_INLINE void __disable_fault_irq(void)
 238:.\inc/cmsis_gcc.h **** {
 239:.\inc/cmsis_gcc.h ****   __ASM volatile ("cpsid f" : : : "memory");
 240:.\inc/cmsis_gcc.h **** }
 241:.\inc/cmsis_gcc.h **** 
 242:.\inc/cmsis_gcc.h **** 
 243:.\inc/cmsis_gcc.h **** /**
 244:.\inc/cmsis_gcc.h ****   \brief   Get Base Priority
 245:.\inc/cmsis_gcc.h ****   \details Returns the current value of the Base Priority register.
 246:.\inc/cmsis_gcc.h ****   \return               Base Priority register value
 247:.\inc/cmsis_gcc.h ****  */
 248:.\inc/cmsis_gcc.h **** __attribute__( ( always_inline ) ) __STATIC_INLINE uint32_t __get_BASEPRI(void)
 249:.\inc/cmsis_gcc.h **** {
 250:.\inc/cmsis_gcc.h ****   uint32_t result;
 251:.\inc/cmsis_gcc.h **** 
 252:.\inc/cmsis_gcc.h ****   __ASM volatile ("MRS %0, basepri" : "=r" (result) );
 253:.\inc/cmsis_gcc.h ****   return(result);
 254:.\inc/cmsis_gcc.h **** }
 255:.\inc/cmsis_gcc.h **** 
 256:.\inc/cmsis_gcc.h **** 
 257:.\inc/cmsis_gcc.h **** /**
 258:.\inc/cmsis_gcc.h ****   \brief   Set Base Priority
 259:.\inc/cmsis_gcc.h ****   \details Assigns the given value to the Base Priority register.
 260:.\inc/cmsis_gcc.h ****   \param [in]    basePri  Base Priority value to set
 261:.\inc/cmsis_gcc.h ****  */
 262:.\inc/cmsis_gcc.h **** __attribute__( ( always_inline ) ) __STATIC_INLINE void __set_BASEPRI(uint32_t value)
 263:.\inc/cmsis_gcc.h **** {
 264:.\inc/cmsis_gcc.h ****   __ASM volatile ("MSR basepri, %0" : : "r" (value) : "memory");
 265:.\inc/cmsis_gcc.h **** }
 266:.\inc/cmsis_gcc.h **** 
 267:.\inc/cmsis_gcc.h **** 
ARM GAS  C:\Users\claym\AppData\Local\Temp\cc2sTfd9.s 			page 18


 268:.\inc/cmsis_gcc.h **** /**
 269:.\inc/cmsis_gcc.h ****   \brief   Set Base Priority with condition
 270:.\inc/cmsis_gcc.h ****   \details Assigns the given value to the Base Priority register only if BASEPRI masking is disable
 271:.\inc/cmsis_gcc.h ****            or the new value increases the BASEPRI priority level.
 272:.\inc/cmsis_gcc.h ****   \param [in]    basePri  Base Priority value to set
 273:.\inc/cmsis_gcc.h ****  */
 274:.\inc/cmsis_gcc.h **** __attribute__( ( always_inline ) ) __STATIC_INLINE void __set_BASEPRI_MAX(uint32_t value)
 275:.\inc/cmsis_gcc.h **** {
 276:.\inc/cmsis_gcc.h ****   __ASM volatile ("MSR basepri_max, %0" : : "r" (value) : "memory");
 277:.\inc/cmsis_gcc.h **** }
 278:.\inc/cmsis_gcc.h **** 
 279:.\inc/cmsis_gcc.h **** 
 280:.\inc/cmsis_gcc.h **** /**
 281:.\inc/cmsis_gcc.h ****   \brief   Get Fault Mask
 282:.\inc/cmsis_gcc.h ****   \details Returns the current value of the Fault Mask register.
 283:.\inc/cmsis_gcc.h ****   \return               Fault Mask register value
 284:.\inc/cmsis_gcc.h ****  */
 285:.\inc/cmsis_gcc.h **** __attribute__( ( always_inline ) ) __STATIC_INLINE uint32_t __get_FAULTMASK(void)
 286:.\inc/cmsis_gcc.h **** {
 287:.\inc/cmsis_gcc.h ****   uint32_t result;
 288:.\inc/cmsis_gcc.h **** 
 289:.\inc/cmsis_gcc.h ****   __ASM volatile ("MRS %0, faultmask" : "=r" (result) );
 290:.\inc/cmsis_gcc.h ****   return(result);
 291:.\inc/cmsis_gcc.h **** }
 292:.\inc/cmsis_gcc.h **** 
 293:.\inc/cmsis_gcc.h **** 
 294:.\inc/cmsis_gcc.h **** /**
 295:.\inc/cmsis_gcc.h ****   \brief   Set Fault Mask
 296:.\inc/cmsis_gcc.h ****   \details Assigns the given value to the Fault Mask register.
 297:.\inc/cmsis_gcc.h ****   \param [in]    faultMask  Fault Mask value to set
 298:.\inc/cmsis_gcc.h ****  */
 299:.\inc/cmsis_gcc.h **** __attribute__( ( always_inline ) ) __STATIC_INLINE void __set_FAULTMASK(uint32_t faultMask)
 300:.\inc/cmsis_gcc.h **** {
 301:.\inc/cmsis_gcc.h ****   __ASM volatile ("MSR faultmask, %0" : : "r" (faultMask) : "memory");
 302:.\inc/cmsis_gcc.h **** }
 303:.\inc/cmsis_gcc.h **** 
 304:.\inc/cmsis_gcc.h **** #endif /* (__CORTEX_M >= 0x03U) */
 305:.\inc/cmsis_gcc.h **** 
 306:.\inc/cmsis_gcc.h **** 
 307:.\inc/cmsis_gcc.h **** #if       (__CORTEX_M == 0x04U) || (__CORTEX_M == 0x07U)
 308:.\inc/cmsis_gcc.h **** 
 309:.\inc/cmsis_gcc.h **** /**
 310:.\inc/cmsis_gcc.h ****   \brief   Get FPSCR
 311:.\inc/cmsis_gcc.h ****   \details Returns the current value of the Floating Point Status/Control register.
 312:.\inc/cmsis_gcc.h ****   \return               Floating Point Status/Control register value
 313:.\inc/cmsis_gcc.h ****  */
 314:.\inc/cmsis_gcc.h **** __attribute__( ( always_inline ) ) __STATIC_INLINE uint32_t __get_FPSCR(void)
 315:.\inc/cmsis_gcc.h **** {
 316:.\inc/cmsis_gcc.h **** #if (__FPU_PRESENT == 1U) && (__FPU_USED == 1U)
 317:.\inc/cmsis_gcc.h ****   uint32_t result;
 318:.\inc/cmsis_gcc.h **** 
 319:.\inc/cmsis_gcc.h ****   /* Empty asm statement works as a scheduling barrier */
 320:.\inc/cmsis_gcc.h ****   __ASM volatile ("");
 321:.\inc/cmsis_gcc.h ****   __ASM volatile ("VMRS %0, fpscr" : "=r" (result) );
 322:.\inc/cmsis_gcc.h ****   __ASM volatile ("");
 323:.\inc/cmsis_gcc.h ****   return(result);
 324:.\inc/cmsis_gcc.h **** #else
ARM GAS  C:\Users\claym\AppData\Local\Temp\cc2sTfd9.s 			page 19


 325:.\inc/cmsis_gcc.h ****    return(0);
 326:.\inc/cmsis_gcc.h **** #endif
 327:.\inc/cmsis_gcc.h **** }
 328:.\inc/cmsis_gcc.h **** 
 329:.\inc/cmsis_gcc.h **** 
 330:.\inc/cmsis_gcc.h **** /**
 331:.\inc/cmsis_gcc.h ****   \brief   Set FPSCR
 332:.\inc/cmsis_gcc.h ****   \details Assigns the given value to the Floating Point Status/Control register.
 333:.\inc/cmsis_gcc.h ****   \param [in]    fpscr  Floating Point Status/Control value to set
 334:.\inc/cmsis_gcc.h ****  */
 335:.\inc/cmsis_gcc.h **** __attribute__( ( always_inline ) ) __STATIC_INLINE void __set_FPSCR(uint32_t fpscr)
 336:.\inc/cmsis_gcc.h **** {
 337:.\inc/cmsis_gcc.h **** #if (__FPU_PRESENT == 1U) && (__FPU_USED == 1U)
 338:.\inc/cmsis_gcc.h ****   /* Empty asm statement works as a scheduling barrier */
 339:.\inc/cmsis_gcc.h ****   __ASM volatile ("");
 340:.\inc/cmsis_gcc.h ****   __ASM volatile ("VMSR fpscr, %0" : : "r" (fpscr) : "vfpcc");
 341:.\inc/cmsis_gcc.h ****   __ASM volatile ("");
 342:.\inc/cmsis_gcc.h **** #endif
 343:.\inc/cmsis_gcc.h **** }
 344:.\inc/cmsis_gcc.h **** 
 345:.\inc/cmsis_gcc.h **** #endif /* (__CORTEX_M == 0x04U) || (__CORTEX_M == 0x07U) */
 346:.\inc/cmsis_gcc.h **** 
 347:.\inc/cmsis_gcc.h **** 
 348:.\inc/cmsis_gcc.h **** 
 349:.\inc/cmsis_gcc.h **** /*@} end of CMSIS_Core_RegAccFunctions */
 350:.\inc/cmsis_gcc.h **** 
 351:.\inc/cmsis_gcc.h **** 
 352:.\inc/cmsis_gcc.h **** /* ##########################  Core Instruction Access  ######################### */
 353:.\inc/cmsis_gcc.h **** /** \defgroup CMSIS_Core_InstructionInterface CMSIS Core Instruction Interface
 354:.\inc/cmsis_gcc.h ****   Access to dedicated instructions
 355:.\inc/cmsis_gcc.h ****   @{
 356:.\inc/cmsis_gcc.h **** */
 357:.\inc/cmsis_gcc.h **** 
 358:.\inc/cmsis_gcc.h **** /* Define macros for porting to both thumb1 and thumb2.
 359:.\inc/cmsis_gcc.h ****  * For thumb1, use low register (r0-r7), specified by constraint "l"
 360:.\inc/cmsis_gcc.h ****  * Otherwise, use general registers, specified by constraint "r" */
 361:.\inc/cmsis_gcc.h **** #if defined (__thumb__) && !defined (__thumb2__)
 362:.\inc/cmsis_gcc.h **** #define __CMSIS_GCC_OUT_REG(r) "=l" (r)
 363:.\inc/cmsis_gcc.h **** #define __CMSIS_GCC_USE_REG(r) "l" (r)
 364:.\inc/cmsis_gcc.h **** #else
 365:.\inc/cmsis_gcc.h **** #define __CMSIS_GCC_OUT_REG(r) "=r" (r)
 366:.\inc/cmsis_gcc.h **** #define __CMSIS_GCC_USE_REG(r) "r" (r)
 367:.\inc/cmsis_gcc.h **** #endif
 368:.\inc/cmsis_gcc.h **** 
 369:.\inc/cmsis_gcc.h **** /**
 370:.\inc/cmsis_gcc.h ****   \brief   No Operation
 371:.\inc/cmsis_gcc.h ****   \details No Operation does nothing. This instruction can be used for code alignment purposes.
 372:.\inc/cmsis_gcc.h ****  */
 373:.\inc/cmsis_gcc.h **** __attribute__((always_inline)) __STATIC_INLINE void __NOP(void)
 374:.\inc/cmsis_gcc.h **** {
 375:.\inc/cmsis_gcc.h ****   __ASM volatile ("nop");
 478              		.loc 2 375 0
 479              		.syntax divided
 480              	@ 375 ".\inc/cmsis_gcc.h" 1
 481 0112 C046     		nop
 482              	@ 0 "" 2
 483              		.thumb
ARM GAS  C:\Users\claym\AppData\Local\Temp\cc2sTfd9.s 			page 20


 484              		.syntax unified
 485              	.LBE31:
 486              	.LBE30:
 487              	.LBB32:
 488              	.LBB33:
 489              		.syntax divided
 490              	@ 375 ".\inc/cmsis_gcc.h" 1
 491 0114 C046     		nop
 492              	@ 0 "" 2
 493              		.thumb
 494              		.syntax unified
 495              	.LBE33:
 496              	.LBE32:
 497              	@ .\driver\src\uart_va108xx.c:168: 			  txsts = UART->reg->TXSTATUS;
 168:.\driver\src/uart_va108xx.c **** 			  if((txsts & UART_PERIPHERAL_TXSTATUS_WRRDY_Msk) && (~(txsts & UART_PERIPHERAL_TXSTATUS_TXBUSY_
 498              		.loc 1 168 0
 499 0116 6B68     		ldr	r3, [r5, #4]	@ _10, UART_39(D)->reg
 500 0118 5B69     		ldr	r3, [r3, #20]	@ txsts, _10->TXSTATUS
 501              	.LVL26:
 502              	@ .\driver\src\uart_va108xx.c:169: 			  if((txsts & UART_PERIPHERAL_TXSTATUS_WRRDY_Msk) && (~(txsts
 169:.\driver\src/uart_va108xx.c **** 			       __NOP( ); 
 503              		.loc 1 169 0
 504 011a 0B42     		tst	r3, r1	@ txsts, tmp171
 505 011c 09D0     		beq	.L19	@,
 506              	.LBB34:
 507              	.LBB35:
 508              	@ .\inc/cmsis_gcc.h:375:   __ASM volatile ("nop");
 509              		.loc 2 375 0
 510              		.syntax divided
 511              	@ 375 ".\inc/cmsis_gcc.h" 1
 512 011e C046     		nop
 513              	@ 0 "" 2
 514              		.thumb
 515              		.syntax unified
 516              	.LBE35:
 517              	.LBE34:
 518              	.LBB36:
 519              	.LBB37:
 520              		.syntax divided
 521              	@ 375 ".\inc/cmsis_gcc.h" 1
 522 0120 C046     		nop
 523              	@ 0 "" 2
 524              	.LVL27:
 525              		.thumb
 526              		.syntax unified
 527              	.LBE37:
 528              	.LBE36:
 529              	@ .\driver\src\uart_va108xx.c:172:   			       UART->reg->DATA = data[count++];
 172:.\driver\src/uart_va108xx.c **** 					   UART->info.txidx++;
 530              		.loc 1 172 0
 531 0122 B85C     		ldrb	r0, [r7, r2]	@ _15, *_12
 532 0124 6B68     		ldr	r3, [r5, #4]	@ _14, UART_39(D)->reg
 533              	.LVL28:
 534              	@ .\driver\src\uart_va108xx.c:174: 				     num--;
 174:.\driver\src/uart_va108xx.c **** 			  }
 535              		.loc 1 174 0
 536 0126 013E     		subs	r6, r6, #1	@ num,
ARM GAS  C:\Users\claym\AppData\Local\Temp\cc2sTfd9.s 			page 21


 537              	.LVL29:
 538              	@ .\driver\src\uart_va108xx.c:172:   			       UART->reg->DATA = data[count++];
 172:.\driver\src/uart_va108xx.c **** 					   UART->info.txidx++;
 539              		.loc 1 172 0
 540 0128 1860     		str	r0, [r3]	@ _15, _14->DATA
 541              	@ .\driver\src\uart_va108xx.c:173: 					   UART->info.txidx++;
 173:.\driver\src/uart_va108xx.c **** 				     num--;
 542              		.loc 1 173 0
 543 012a EB6A     		ldr	r3, [r5, #44]	@ tmp179, UART_39(D)->info.txidx
 544              	@ .\driver\src\uart_va108xx.c:172:   			       UART->reg->DATA = data[count++];
 172:.\driver\src/uart_va108xx.c **** 					   UART->info.txidx++;
 545              		.loc 1 172 0
 546 012c 0132     		adds	r2, r2, #1	@ count,
 547              	.LVL30:
 548              	@ .\driver\src\uart_va108xx.c:173: 					   UART->info.txidx++;
 173:.\driver\src/uart_va108xx.c **** 				     num--;
 549              		.loc 1 173 0
 550 012e 0133     		adds	r3, r3, #1	@ tmp152,
 551 0130 EB62     		str	r3, [r5, #44]	@ tmp152, UART_39(D)->info.txidx
 552              	.L19:
 553              	.LBB38:
 554              	.LBB39:
 555              	@ .\inc/cmsis_gcc.h:375:   __ASM volatile ("nop");
 556              		.loc 2 375 0
 557              		.syntax divided
 558              	@ 375 ".\inc/cmsis_gcc.h" 1
 559 0132 C046     		nop
 560              	@ 0 "" 2
 561              		.thumb
 562              		.syntax unified
 563              	.LBE39:
 564              	.LBE38:
 565              	.LBB40:
 566              	.LBB41:
 567              		.syntax divided
 568              	@ 375 ".\inc/cmsis_gcc.h" 1
 569 0134 C046     		nop
 570              	@ 0 "" 2
 571              	.LVL31:
 572              		.thumb
 573              		.syntax unified
 574              	.L17:
 575              	.LBE41:
 576              	.LBE40:
 577              	@ .\driver\src\uart_va108xx.c:165: 		  while((num !=0) /*&& (poll_time <= VOR_Get_SysTime()) */ ) {
 165:.\driver\src/uart_va108xx.c **** 			  __NOP( ); 
 578              		.loc 1 165 0
 579 0136 002E     		cmp	r6, #0	@ num,
 580 0138 EBD1     		bne	.L20	@,
 581              	@ .\driver\src\uart_va108xx.c:184: 	    while((UART->reg->TXSTATUS & UART_PERIPHERAL_TXSTATUS_WRBUS
 184:.\driver\src/uart_va108xx.c **** 	      __NOP( ); 
 582              		.loc 1 184 0
 583 013a 0221     		movs	r1, #2	@ tmp155,
 584              	.L21:
 585 013c 6B68     		ldr	r3, [r5, #4]	@ _19, UART_39(D)->reg
 586 013e 5869     		ldr	r0, [r3, #20]	@ _20, _19->TXSTATUS
 587 0140 0840     		ands	r0, r1	@ tmp154, tmp155
ARM GAS  C:\Users\claym\AppData\Local\Temp\cc2sTfd9.s 			page 22


 588 0142 03D1     		bne	.L22	@,
 589              	@ .\driver\src\uart_va108xx.c:191: 		   UART->reg->ENABLE &= ~UART_PERIPHERAL_ENABLE_TXENABLE_Msk;
 191:.\driver\src/uart_va108xx.c **** 		}
 590              		.loc 1 191 0
 591 0144 5A68     		ldr	r2, [r3, #4]	@ _22, _19->ENABLE
 592              	.LVL32:
 593 0146 8A43     		bics	r2, r1	@ _23, tmp155
 594 0148 5A60     		str	r2, [r3, #4]	@ _23, _19->ENABLE
 595              	.L15:
 596              	@ .\driver\src\uart_va108xx.c:210: }
 210:.\driver\src/uart_va108xx.c **** }
 597              		.loc 1 210 0
 598              		@ sp needed	@
 599              	.LVL33:
 600              	.LVL34:
 601              	.LVL35:
 602 014a F8BD     		pop	{r3, r4, r5, r6, r7, pc}
 603              	.LVL36:
 604              	.L22:
 605              	.LBB42:
 606              	.LBB43:
 607              	@ .\inc/cmsis_gcc.h:375:   __ASM volatile ("nop");
 608              		.loc 2 375 0
 609              		.syntax divided
 610              	@ 375 ".\inc/cmsis_gcc.h" 1
 611 014c C046     		nop
 612              	@ 0 "" 2
 613              		.thumb
 614              		.syntax unified
 615              	.LBE43:
 616              	.LBE42:
 617              	.LBB44:
 618              	.LBB45:
 619              		.syntax divided
 620              	@ 375 ".\inc/cmsis_gcc.h" 1
 621 014e C046     		nop
 622              	@ 0 "" 2
 623              		.thumb
 624              		.syntax unified
 625              	.LBE45:
 626              	.LBE44:
 627              	.LBB46:
 628              	.LBB47:
 629              		.syntax divided
 630              	@ 375 ".\inc/cmsis_gcc.h" 1
 631 0150 C046     		nop
 632              	@ 0 "" 2
 633              		.thumb
 634              		.syntax unified
 635              	.LBE47:
 636              	.LBE46:
 637              	.LBB48:
 638              	.LBB49:
 639              		.syntax divided
 640              	@ 375 ".\inc/cmsis_gcc.h" 1
 641 0152 C046     		nop
 642              	@ 0 "" 2
ARM GAS  C:\Users\claym\AppData\Local\Temp\cc2sTfd9.s 			page 23


 643              		.thumb
 644              		.syntax unified
 645 0154 F2E7     		b	.L21	@
 646              	.LVL37:
 647              	.L24:
 648              	.LBE49:
 649              	.LBE48:
 650              	@ .\driver\src\uart_va108xx.c:147: 			return VOR_DRIVER_ERROR_PARAMETER;
 147:.\driver\src/uart_va108xx.c **** 		}
 651              		.loc 1 147 0
 652 0156 0520     		movs	r0, #5	@ <retval>,
 653              	.LVL38:
 654              	.L32:
 655              	@ .\driver\src\uart_va108xx.c:152: 			return VOR_DRIVER_ERROR;
 152:.\driver\src/uart_va108xx.c **** 		}
 656              		.loc 1 152 0
 657 0158 4042     		rsbs	r0, r0, #0	@ <retval>, <retval>
 658 015a F6E7     		b	.L15	@
 659              	.LVL39:
 660              	.L25:
 661 015c 0120     		movs	r0, #1	@ <retval>,
 662              	.LVL40:
 663 015e FBE7     		b	.L32	@
 664              		.cfi_endproc
 665              	.LFE38:
 666              		.size	UART_Send, .-UART_Send
 667              		.align	1
 668              		.global	UART_Receive
 669              		.syntax unified
 670              		.code	16
 671              		.thumb_func
 672              		.fpu softvfp
 673              		.type	UART_Receive, %function
 674              	UART_Receive:
 675              	.LFB39:
 211:.\driver\src/uart_va108xx.c **** 
 212:.\driver\src/uart_va108xx.c **** /**
 213:.\driver\src/uart_va108xx.c ****   function:    int32_t UART_Receive (void            *data,
 214:.\driver\src/uart_va108xx.c ****                                       uint32_t         num,
 215:.\driver\src/uart_va108xx.c ****                                       UART_RESOURCES *UART)
 216:.\driver\src/uart_va108xx.c ****   brief:       Start receiving data from UART receiver.
 217:.\driver\src/uart_va108xx.c ****   Output:      data  Pointer to buffer for data to receive from UART receiver
 218:.\driver\src/uart_va108xx.c ****   Input:       num   Number of data items to receive
 219:.\driver\src/uart_va108xx.c ****   Input:       UART Pointer to UART resources
 220:.\driver\src/uart_va108xx.c ****   return:      execution_status
 221:.\driver\src/uart_va108xx.c **** */
 222:.\driver\src/uart_va108xx.c **** int32_t UART_Receive (uint8_t *data, uint32_t num, UART_RESOURCES *UART) 
 223:.\driver\src/uart_va108xx.c **** {
 676              		.loc 1 223 0
 677              		.cfi_startproc
 678              		@ args = 0, pretend = 0, frame = 16
 679              		@ frame_needed = 0, uses_anonymous_args = 0
 680              	.LVL41:
 681 0160 F0B5     		push	{r4, r5, r6, r7, lr}	@
 682              	.LCFI5:
 683              		.cfi_def_cfa_offset 20
 684              		.cfi_offset 4, -20
ARM GAS  C:\Users\claym\AppData\Local\Temp\cc2sTfd9.s 			page 24


 685              		.cfi_offset 5, -16
 686              		.cfi_offset 6, -12
 687              		.cfi_offset 7, -8
 688              		.cfi_offset 14, -4
 689 0162 85B0     		sub	sp, sp, #20	@,,
 690              	.LCFI6:
 691              		.cfi_def_cfa_offset 40
 692              	@ .\driver\src\uart_va108xx.c:223: {
 693              		.loc 1 223 0
 694 0164 0190     		str	r0, [sp, #4]	@ data, %sfp
 695 0166 0091     		str	r1, [sp]	@ num, %sfp
 696 0168 1400     		movs	r4, r2	@ UART, UART
 697              	@ .\driver\src\uart_va108xx.c:226:   if (!data || !num ) {
 224:.\driver\src/uart_va108xx.c ****   int32_t count;
 225:.\driver\src/uart_va108xx.c ****   uint32_t poll_time, start_time;
 226:.\driver\src/uart_va108xx.c ****   if (!data || !num ) {
 698              		.loc 1 226 0
 699 016a 0028     		cmp	r0, #0	@ data,
 700 016c 65D0     		beq	.L43	@,
 701              	@ .\driver\src\uart_va108xx.c:226:   if (!data || !num ) {
 702              		.loc 1 226 0 is_stmt 0 discriminator 1
 703 016e 0029     		cmp	r1, #0	@ num,
 704 0170 63D0     		beq	.L43	@,
 705              	@ .\driver\src\uart_va108xx.c:231:   if (!(UART->info.flags & UART_FLAG_INIT)) {
 227:.\driver\src/uart_va108xx.c ****     /* Invalid parameters */
 228:.\driver\src/uart_va108xx.c ****     return VOR_DRIVER_ERROR_PARAMETER;
 229:.\driver\src/uart_va108xx.c ****   }
 230:.\driver\src/uart_va108xx.c **** 
 231:.\driver\src/uart_va108xx.c ****   if (!(UART->info.flags & UART_FLAG_INIT)) {
 706              		.loc 1 231 0 is_stmt 1
 707 0172 0127     		movs	r7, #1	@ tmp151,
 708 0174 5369     		ldr	r3, [r2, #20]	@ tmp198, UART_46(D)->info.flags
 709 0176 3B42     		tst	r3, r7	@ tmp198, tmp151
 710 0178 61D0     		beq	.L44	@,
 711              	@ .\driver\src\uart_va108xx.c:237:   UART->reg->IRQ_ENB = 0;
 232:.\driver\src/uart_va108xx.c ****     /* Driver not yet configured */
 233:.\driver\src/uart_va108xx.c ****     return VOR_DRIVER_ERROR;
 234:.\driver\src/uart_va108xx.c ****   }
 235:.\driver\src/uart_va108xx.c **** 
 236:.\driver\src/uart_va108xx.c ****   VOR_Disable_Irq(VOR_IRQ_UART, UART->uart_id);
 237:.\driver\src/uart_va108xx.c ****   UART->reg->IRQ_ENB = 0;
 712              		.loc 1 237 0
 713 017a 0026     		movs	r6, #0	@ tmp152,
 714              	@ .\driver\src\uart_va108xx.c:236:   VOR_Disable_Irq(VOR_IRQ_UART, UART->uart_id);
 236:.\driver\src/uart_va108xx.c ****   UART->reg->IRQ_ENB = 0;
 715              		.loc 1 236 0
 716 017c 1168     		ldr	r1, [r2]	@, UART_46(D)->uart_id
 717              	.LVL42:
 718 017e 0320     		movs	r0, #3	@,
 719              	.LVL43:
 720 0180 FFF7FEFF 		bl	VOR_Disable_Irq	@
 721              	.LVL44:
 722              	@ .\driver\src\uart_va108xx.c:240:   UART->reg->ENABLE &= ~UART_PERIPHERAL_ENABLE_TXENABLE_Msk;
 238:.\driver\src/uart_va108xx.c **** 
 239:.\driver\src/uart_va108xx.c ****   UART->reg->ENABLE |= UART_PERIPHERAL_ENABLE_RXENABLE_Msk;
 240:.\driver\src/uart_va108xx.c ****   UART->reg->ENABLE &= ~UART_PERIPHERAL_ENABLE_TXENABLE_Msk;
 723              		.loc 1 240 0
ARM GAS  C:\Users\claym\AppData\Local\Temp\cc2sTfd9.s 			page 25


 724 0184 0221     		movs	r1, #2	@ tmp154,
 725              	@ .\driver\src\uart_va108xx.c:237:   UART->reg->IRQ_ENB = 0;
 237:.\driver\src/uart_va108xx.c **** 
 726              		.loc 1 237 0
 727 0186 6368     		ldr	r3, [r4, #4]	@ _4, UART_46(D)->reg
 728              	@ .\driver\src\uart_va108xx.c:242:   if(UART->info.poll_mode) {
 241:.\driver\src/uart_va108xx.c **** 	UART->info.rxidx = 0;
 242:.\driver\src/uart_va108xx.c ****   if(UART->info.poll_mode) {
 729              		.loc 1 242 0
 730 0188 A569     		ldr	r5, [r4, #24]	@ UART_46(D)->info.poll_mode, UART_46(D)->info.poll_mode
 731              	@ .\driver\src\uart_va108xx.c:237:   UART->reg->IRQ_ENB = 0;
 237:.\driver\src/uart_va108xx.c **** 
 732              		.loc 1 237 0
 733 018a 9E62     		str	r6, [r3, #40]	@ tmp152, _4->IRQ_ENB
 734              	@ .\driver\src\uart_va108xx.c:239:   UART->reg->ENABLE |= UART_PERIPHERAL_ENABLE_RXENABLE_Msk;
 239:.\driver\src/uart_va108xx.c ****   UART->reg->ENABLE &= ~UART_PERIPHERAL_ENABLE_TXENABLE_Msk;
 735              		.loc 1 239 0
 736 018c 5A68     		ldr	r2, [r3, #4]	@ _6, _4->ENABLE
 737 018e 3A43     		orrs	r2, r7	@ _8, tmp151
 738 0190 5A60     		str	r2, [r3, #4]	@ _8, _4->ENABLE
 739              	@ .\driver\src\uart_va108xx.c:240:   UART->reg->ENABLE &= ~UART_PERIPHERAL_ENABLE_TXENABLE_Msk;
 240:.\driver\src/uart_va108xx.c **** 	UART->info.rxidx = 0;
 740              		.loc 1 240 0
 741 0192 5A68     		ldr	r2, [r3, #4]	@ _10, _4->ENABLE
 742 0194 8A43     		bics	r2, r1	@ _11, tmp154
 743 0196 5A60     		str	r2, [r3, #4]	@ _11, _4->ENABLE
 744              	@ .\driver\src\uart_va108xx.c:241: 	UART->info.rxidx = 0;
 241:.\driver\src/uart_va108xx.c **** 	UART->info.rxidx = 0;
 745              		.loc 1 241 0
 746 0198 2663     		str	r6, [r4, #48]	@ tmp152, UART_46(D)->info.rxidx
 747              	@ .\driver\src\uart_va108xx.c:242:   if(UART->info.poll_mode) {
 748              		.loc 1 242 0
 749 019a B542     		cmp	r5, r6	@ UART_46(D)->info.poll_mode,
 750 019c 38D0     		beq	.L35	@,
 751              	@ .\driver\src\uart_va108xx.c:245: 	  start_time = VOR_Get_SysTime();
 243:.\driver\src/uart_va108xx.c **** 	  
 244:.\driver\src/uart_va108xx.c **** 	  // Get Current Time
 245:.\driver\src/uart_va108xx.c **** 	  start_time = VOR_Get_SysTime();
 752              		.loc 1 245 0
 753 019e FFF7FEFF 		bl	VOR_Get_SysTime	@
 754              	.LVL45:
 755              	@ .\driver\src\uart_va108xx.c:255: 			if(UART->reg->RXSTATUS & UART_PERIPHERAL_RXSTATUS_RXPAR_Msk) 
 246:.\driver\src/uart_va108xx.c **** 	  poll_time  = start_time - UART->info.poll_tout;
 247:.\driver\src/uart_va108xx.c **** 	  count = 0;
 248:.\driver\src/uart_va108xx.c **** 	  while((count<num) && (poll_time <= VOR_Get_SysTime())) {
 249:.\driver\src/uart_va108xx.c **** 		  __NOP( ); 
 250:.\driver\src/uart_va108xx.c **** 		  __NOP( ); 
 251:.\driver\src/uart_va108xx.c **** 		  if((UART->reg->RXSTATUS & UART_PERIPHERAL_RXSTATUS_RDAVL_Msk) ) {
 252:.\driver\src/uart_va108xx.c **** 		    data[count++] = UART->reg->DATA;
 253:.\driver\src/uart_va108xx.c **** 		  } 
 254:.\driver\src/uart_va108xx.c **** 			
 255:.\driver\src/uart_va108xx.c **** 			if(UART->reg->RXSTATUS & UART_PERIPHERAL_RXSTATUS_RXPAR_Msk) {
 756              		.loc 1 255 0
 757 01a2 4025     		movs	r5, #64	@ tmp183,
 758              	@ .\driver\src\uart_va108xx.c:246: 	  poll_time  = start_time - UART->info.poll_tout;
 246:.\driver\src/uart_va108xx.c **** 	  poll_time  = start_time - UART->info.poll_tout;
 759              		.loc 1 246 0
ARM GAS  C:\Users\claym\AppData\Local\Temp\cc2sTfd9.s 			page 26


 760 01a4 E369     		ldr	r3, [r4, #28]	@ tmp200, UART_46(D)->info.poll_tout
 761 01a6 C31A     		subs	r3, r0, r3	@ poll_time, start_time, tmp200
 762 01a8 0393     		str	r3, [sp, #12]	@ poll_time, %sfp
 763              	.LVL46:
 764              	.L36:
 765              	@ .\driver\src\uart_va108xx.c:248: 	  while((count<num) && (poll_time <= VOR_Get_SysTime())) {
 248:.\driver\src/uart_va108xx.c **** 		  __NOP( ); 
 766              		.loc 1 248 0
 767 01aa 009B     		ldr	r3, [sp]	@ num, %sfp
 768 01ac 0296     		str	r6, [sp, #8]	@ count, %sfp
 769 01ae 9E42     		cmp	r6, r3	@ count, num
 770 01b0 13D3     		bcc	.L39	@,
 771              	.L41:
 772              	@ .\driver\src\uart_va108xx.c:266:     UART->reg->ENABLE &= ~UART_PERIPHERAL_ENABLE_RXENABLE_Msk;
 256:.\driver\src/uart_va108xx.c ****         UART->reg->ENABLE &= ~UART_PERIPHERAL_ENABLE_RXENABLE_Msk;
 257:.\driver\src/uart_va108xx.c **** 		    return VOR_UART_ERROR_PARITY;
 258:.\driver\src/uart_va108xx.c **** 			}
 259:.\driver\src/uart_va108xx.c **** 
 260:.\driver\src/uart_va108xx.c **** 			if(UART->reg->RXSTATUS & UART_PERIPHERAL_RXSTATUS_RXFRM_Msk) {
 261:.\driver\src/uart_va108xx.c ****         UART->reg->ENABLE &= ~UART_PERIPHERAL_ENABLE_RXENABLE_Msk;
 262:.\driver\src/uart_va108xx.c **** 		    return VOR_UART_ERROR_FRAME;
 263:.\driver\src/uart_va108xx.c **** 			}
 264:.\driver\src/uart_va108xx.c **** 			
 265:.\driver\src/uart_va108xx.c **** 	  }
 266:.\driver\src/uart_va108xx.c ****     UART->reg->ENABLE &= ~UART_PERIPHERAL_ENABLE_RXENABLE_Msk;
 773              		.loc 1 266 0
 774 01b2 0121     		movs	r1, #1	@ tmp167,
 775 01b4 6268     		ldr	r2, [r4, #4]	@ _31, UART_46(D)->reg
 776 01b6 5368     		ldr	r3, [r2, #4]	@ _32, _31->ENABLE
 777 01b8 8B43     		bics	r3, r1	@ _33, tmp167
 778 01ba 5360     		str	r3, [r2, #4]	@ _33, _31->ENABLE
 779              	@ .\driver\src\uart_va108xx.c:267: 		if(count<num){
 267:.\driver\src/uart_va108xx.c **** 		if(count<num){
 780              		.loc 1 267 0
 781 01bc 009B     		ldr	r3, [sp]	@ num, %sfp
 782 01be 9E42     		cmp	r6, r3	@ count, num
 783 01c0 3FD3     		bcc	.L45	@,
 784              	.LVL47:
 785              	.L52:
 786              	@ .\driver\src\uart_va108xx.c:285:   return VOR_DRIVER_OK;
 268:.\driver\src/uart_va108xx.c **** 		  return VOR_UART_ERROR_POLL_TOUT;
 269:.\driver\src/uart_va108xx.c **** 	  }
 270:.\driver\src/uart_va108xx.c ****   } else {   // Interrupt Mode
 271:.\driver\src/uart_va108xx.c **** 		UART->reg->IRQ_CLR = 0xffffffff;
 272:.\driver\src/uart_va108xx.c **** 		UART->reg->IRQ_CLR = 0;
 273:.\driver\src/uart_va108xx.c **** 
 274:.\driver\src/uart_va108xx.c **** 		UART->info.rxdata = data;
 275:.\driver\src/uart_va108xx.c **** 		UART->info.rxidx = 0;
 276:.\driver\src/uart_va108xx.c **** 		UART->info.rxcnt = num; 
 277:.\driver\src/uart_va108xx.c **** 	  UART->info.txidx = 0;
 278:.\driver\src/uart_va108xx.c **** 	  UART->info.txcnt = 0;
 279:.\driver\src/uart_va108xx.c **** 		 
 280:.\driver\src/uart_va108xx.c **** 		VOR_Enable_Irq(VOR_IRQ_UART, UART->uart_id);
 281:.\driver\src/uart_va108xx.c **** 		UART->reg->IRQ_ENB = (UART_PERIPHERAL_IRQ_ENB_IRQ_RX_Msk | \
 282:.\driver\src/uart_va108xx.c **** 												UART_PERIPHERAL_IRQ_ENB_IRQ_RX_STATUS_Msk | \
 283:.\driver\src/uart_va108xx.c **** 												UART_PERIPHERAL_IRQ_ENB_IRQ_RX_TO_Msk );
 284:.\driver\src/uart_va108xx.c ****    }		
ARM GAS  C:\Users\claym\AppData\Local\Temp\cc2sTfd9.s 			page 27


 285:.\driver\src/uart_va108xx.c ****   return VOR_DRIVER_OK;
 787              		.loc 1 285 0
 788 01c2 0020     		movs	r0, #0	@ <retval>,
 789              	.L33:
 790              	@ .\driver\src\uart_va108xx.c:286: }
 286:.\driver\src/uart_va108xx.c **** }
 791              		.loc 1 286 0
 792 01c4 05B0     		add	sp, sp, #20	@,,
 793              	.LVL48:
 794              		@ sp needed	@
 795              	.LVL49:
 796 01c6 F0BD     		pop	{r4, r5, r6, r7, pc}
 797              	.LVL50:
 798              	.L38:
 799              	@ .\driver\src\uart_va108xx.c:260: 			if(UART->reg->RXSTATUS & UART_PERIPHERAL_RXSTATUS_RXFRM_Msk) 
 260:.\driver\src/uart_va108xx.c ****         UART->reg->ENABLE &= ~UART_PERIPHERAL_ENABLE_RXENABLE_Msk;
 800              		.loc 1 260 0
 801 01c8 1A69     		ldr	r2, [r3, #16]	@ _25, _20->RXSTATUS
 802 01ca 9206     		lsls	r2, r2, #26	@ tmp195, _25,
 803 01cc EDD5     		bpl	.L36	@,
 804              	@ .\driver\src\uart_va108xx.c:261:         UART->reg->ENABLE &= ~UART_PERIPHERAL_ENABLE_RXENABLE_Ms
 261:.\driver\src/uart_va108xx.c **** 		    return VOR_UART_ERROR_FRAME;
 805              		.loc 1 261 0
 806 01ce 0121     		movs	r1, #1	@ tmp166,
 807 01d0 5A68     		ldr	r2, [r3, #4]	@ _27, _20->ENABLE
 808              	@ .\driver\src\uart_va108xx.c:262: 		    return VOR_UART_ERROR_FRAME;
 262:.\driver\src/uart_va108xx.c **** 			}
 809              		.loc 1 262 0
 810 01d2 0F20     		movs	r0, #15	@ <retval>,
 811              	@ .\driver\src\uart_va108xx.c:261:         UART->reg->ENABLE &= ~UART_PERIPHERAL_ENABLE_RXENABLE_Ms
 261:.\driver\src/uart_va108xx.c **** 		    return VOR_UART_ERROR_FRAME;
 812              		.loc 1 261 0
 813 01d4 8A43     		bics	r2, r1	@ _28, tmp166
 814 01d6 5A60     		str	r2, [r3, #4]	@ _28, _20->ENABLE
 815 01d8 18E0     		b	.L51	@
 816              	.L39:
 817              	@ .\driver\src\uart_va108xx.c:248: 	  while((count<num) && (poll_time <= VOR_Get_SysTime())) {
 248:.\driver\src/uart_va108xx.c **** 		  __NOP( ); 
 818              		.loc 1 248 0 discriminator 1
 819 01da FFF7FEFF 		bl	VOR_Get_SysTime	@
 820              	.LVL51:
 821 01de 039B     		ldr	r3, [sp, #12]	@ poll_time, %sfp
 822 01e0 9842     		cmp	r0, r3	@ _30, poll_time
 823 01e2 E6D3     		bcc	.L41	@,
 824              	.LBB50:
 825              	.LBB51:
 826              	@ .\inc/cmsis_gcc.h:375:   __ASM volatile ("nop");
 827              		.loc 2 375 0
 828              		.syntax divided
 829              	@ 375 ".\inc/cmsis_gcc.h" 1
 830 01e4 C046     		nop
 831              	@ 0 "" 2
 832              		.thumb
 833              		.syntax unified
 834              	.LBE51:
 835              	.LBE50:
 836              	.LBB52:
ARM GAS  C:\Users\claym\AppData\Local\Temp\cc2sTfd9.s 			page 28


 837              	.LBB53:
 838              		.syntax divided
 839              	@ 375 ".\inc/cmsis_gcc.h" 1
 840 01e6 C046     		nop
 841              	@ 0 "" 2
 842              		.thumb
 843              		.syntax unified
 844              	.LBE53:
 845              	.LBE52:
 846              	@ .\driver\src\uart_va108xx.c:251: 		  if((UART->reg->RXSTATUS & UART_PERIPHERAL_RXSTATUS_RDAVL_Msk
 251:.\driver\src/uart_va108xx.c **** 		    data[count++] = UART->reg->DATA;
 847              		.loc 1 251 0
 848 01e8 6368     		ldr	r3, [r4, #4]	@ _14, UART_46(D)->reg
 849 01ea 1A69     		ldr	r2, [r3, #16]	@ _15, _14->RXSTATUS
 850 01ec 3A42     		tst	r2, r7	@ _15, tmp182
 851 01ee 04D0     		beq	.L37	@,
 852              	@ .\driver\src\uart_va108xx.c:252: 		    data[count++] = UART->reg->DATA;
 252:.\driver\src/uart_va108xx.c **** 		  } 
 853              		.loc 1 252 0
 854 01f0 1B68     		ldr	r3, [r3]	@ _17, _14->DATA
 855 01f2 019A     		ldr	r2, [sp, #4]	@ data, %sfp
 856 01f4 0299     		ldr	r1, [sp, #8]	@ count.3_29, %sfp
 857 01f6 0136     		adds	r6, r6, #1	@ count,
 858              	.LVL52:
 859 01f8 5354     		strb	r3, [r2, r1]	@ _17, *_18
 860              	.L37:
 861              	@ .\driver\src\uart_va108xx.c:255: 			if(UART->reg->RXSTATUS & UART_PERIPHERAL_RXSTATUS_RXPAR_Msk) 
 255:.\driver\src/uart_va108xx.c ****         UART->reg->ENABLE &= ~UART_PERIPHERAL_ENABLE_RXENABLE_Msk;
 862              		.loc 1 255 0
 863 01fa 6368     		ldr	r3, [r4, #4]	@ _20, UART_46(D)->reg
 864 01fc 1A69     		ldr	r2, [r3, #16]	@ _21, _20->RXSTATUS
 865 01fe 2A42     		tst	r2, r5	@ _21, tmp183
 866 0200 E2D0     		beq	.L38	@,
 867              	@ .\driver\src\uart_va108xx.c:256:         UART->reg->ENABLE &= ~UART_PERIPHERAL_ENABLE_RXENABLE_Ms
 256:.\driver\src/uart_va108xx.c **** 		    return VOR_UART_ERROR_PARITY;
 868              		.loc 1 256 0
 869 0202 0121     		movs	r1, #1	@ tmp163,
 870              	@ .\driver\src\uart_va108xx.c:257: 		    return VOR_UART_ERROR_PARITY;
 257:.\driver\src/uart_va108xx.c **** 			}
 871              		.loc 1 257 0
 872 0204 0A20     		movs	r0, #10	@ <retval>,
 873              	@ .\driver\src\uart_va108xx.c:256:         UART->reg->ENABLE &= ~UART_PERIPHERAL_ENABLE_RXENABLE_Ms
 256:.\driver\src/uart_va108xx.c **** 		    return VOR_UART_ERROR_PARITY;
 874              		.loc 1 256 0
 875 0206 5A68     		ldr	r2, [r3, #4]	@ _23, _20->ENABLE
 876 0208 8A43     		bics	r2, r1	@ _24, tmp163
 877 020a 5A60     		str	r2, [r3, #4]	@ _24, _20->ENABLE
 878              	.LVL53:
 879              	.L51:
 880              	@ .\driver\src\uart_va108xx.c:268: 		  return VOR_UART_ERROR_POLL_TOUT;
 268:.\driver\src/uart_va108xx.c **** 	  }
 881              		.loc 1 268 0
 882 020c 4042     		rsbs	r0, r0, #0	@ <retval>, <retval>
 883 020e D9E7     		b	.L33	@
 884              	.L35:
 885              	@ .\driver\src\uart_va108xx.c:271: 		UART->reg->IRQ_CLR = 0xffffffff;
 271:.\driver\src/uart_va108xx.c **** 		UART->reg->IRQ_CLR = 0;
ARM GAS  C:\Users\claym\AppData\Local\Temp\cc2sTfd9.s 			page 29


 886              		.loc 1 271 0
 887 0210 0122     		movs	r2, #1	@ tmp168,
 888 0212 5242     		rsbs	r2, r2, #0	@ tmp168, tmp168
 889 0214 5A63     		str	r2, [r3, #52]	@ tmp168, _4->IRQ_CLR
 890              	@ .\driver\src\uart_va108xx.c:272: 		UART->reg->IRQ_CLR = 0;
 272:.\driver\src/uart_va108xx.c **** 
 891              		.loc 1 272 0
 892 0216 5D63     		str	r5, [r3, #52]	@ UART_46(D)->info.poll_mode, _4->IRQ_CLR
 893              	@ .\driver\src\uart_va108xx.c:274: 		UART->info.rxdata = data;
 274:.\driver\src/uart_va108xx.c **** 		UART->info.rxidx = 0;
 894              		.loc 1 274 0
 895 0218 2300     		movs	r3, r4	@ tmp172, UART
 896 021a 019A     		ldr	r2, [sp, #4]	@ data, %sfp
 897 021c B433     		adds	r3, r3, #180	@ tmp172,
 898 021e 1A60     		str	r2, [r3]	@ data, UART_46(D)->info.rxdata
 899              	@ .\driver\src\uart_va108xx.c:276: 		UART->info.rxcnt = num; 
 276:.\driver\src/uart_va108xx.c **** 	  UART->info.txidx = 0;
 900              		.loc 1 276 0
 901 0220 009B     		ldr	r3, [sp]	@ num, %sfp
 902              	@ .\driver\src\uart_va108xx.c:275: 		UART->info.rxidx = 0;
 275:.\driver\src/uart_va108xx.c **** 		UART->info.rxcnt = num; 
 903              		.loc 1 275 0
 904 0222 2563     		str	r5, [r4, #48]	@ UART_46(D)->info.poll_mode, UART_46(D)->info.rxidx
 905              	@ .\driver\src\uart_va108xx.c:276: 		UART->info.rxcnt = num; 
 276:.\driver\src/uart_va108xx.c **** 	  UART->info.txidx = 0;
 906              		.loc 1 276 0
 907 0224 A362     		str	r3, [r4, #40]	@ num, UART_46(D)->info.rxcnt
 908              	@ .\driver\src\uart_va108xx.c:277: 	  UART->info.txidx = 0;
 277:.\driver\src/uart_va108xx.c **** 	  UART->info.txcnt = 0;
 909              		.loc 1 277 0
 910 0226 E562     		str	r5, [r4, #44]	@ UART_46(D)->info.poll_mode, UART_46(D)->info.txidx
 911              	@ .\driver\src\uart_va108xx.c:278: 	  UART->info.txcnt = 0;
 278:.\driver\src/uart_va108xx.c **** 		 
 912              		.loc 1 278 0
 913 0228 6562     		str	r5, [r4, #36]	@ UART_46(D)->info.poll_mode, UART_46(D)->info.txcnt
 914              	@ .\driver\src\uart_va108xx.c:280: 		VOR_Enable_Irq(VOR_IRQ_UART, UART->uart_id);
 280:.\driver\src/uart_va108xx.c **** 		UART->reg->IRQ_ENB = (UART_PERIPHERAL_IRQ_ENB_IRQ_RX_Msk | \
 915              		.loc 1 280 0
 916 022a 2168     		ldr	r1, [r4]	@, UART_46(D)->uart_id
 917 022c 0320     		movs	r0, #3	@,
 918 022e FFF7FEFF 		bl	VOR_Enable_Irq	@
 919              	.LVL54:
 920              	@ .\driver\src\uart_va108xx.c:281: 		UART->reg->IRQ_ENB = (UART_PERIPHERAL_IRQ_ENB_IRQ_RX_Msk | \
 281:.\driver\src/uart_va108xx.c **** 												UART_PERIPHERAL_IRQ_ENB_IRQ_RX_STATUS_Msk | \
 921              		.loc 1 281 0
 922 0232 0722     		movs	r2, #7	@ tmp176,
 923 0234 6368     		ldr	r3, [r4, #4]	@ _35, UART_46(D)->reg
 924 0236 9A62     		str	r2, [r3, #40]	@ tmp176, _35->IRQ_ENB
 925 0238 C3E7     		b	.L52	@
 926              	.LVL55:
 927              	.L43:
 928              	@ .\driver\src\uart_va108xx.c:228:     return VOR_DRIVER_ERROR_PARAMETER;
 228:.\driver\src/uart_va108xx.c ****   }
 929              		.loc 1 228 0
 930 023a 0520     		movs	r0, #5	@ <retval>,
 931              	.LVL56:
 932 023c E6E7     		b	.L51	@
ARM GAS  C:\Users\claym\AppData\Local\Temp\cc2sTfd9.s 			page 30


 933              	.LVL57:
 934              	.L44:
 935              	@ .\driver\src\uart_va108xx.c:233:     return VOR_DRIVER_ERROR;
 233:.\driver\src/uart_va108xx.c ****   }
 936              		.loc 1 233 0
 937 023e 0120     		movs	r0, #1	@ <retval>,
 938              	.LVL58:
 939 0240 E4E7     		b	.L51	@
 940              	.LVL59:
 941              	.L45:
 942              	@ .\driver\src\uart_va108xx.c:268: 		  return VOR_UART_ERROR_POLL_TOUT;
 268:.\driver\src/uart_va108xx.c **** 	  }
 943              		.loc 1 268 0
 944 0242 0E20     		movs	r0, #14	@ <retval>,
 945 0244 E2E7     		b	.L51	@
 946              		.cfi_endproc
 947              	.LFE39:
 948              		.size	UART_Receive, .-UART_Receive
 949              		.align	1
 950              		.global	VOR_UART_SetParity
 951              		.syntax unified
 952              		.code	16
 953              		.thumb_func
 954              		.fpu softvfp
 955              		.type	VOR_UART_SetParity, %function
 956              	VOR_UART_SetParity:
 957              	.LFB40:
 287:.\driver\src/uart_va108xx.c **** 
 288:.\driver\src/uart_va108xx.c **** /**
 289:.\driver\src/uart_va108xx.c ****   function:    int32_t VOR_UART_SetParity(uint32_t arg,UART_RESOURCES *UART)
 290:.\driver\src/uart_va108xx.c ****   brief:       Set or clear the parity bit of UART. 
 291:.\driver\src/uart_va108xx.c ****   Input:       arg   enable or disable of parity bit 
 292:.\driver\src/uart_va108xx.c ****   Input:       UART Pointer to UART resources
 293:.\driver\src/uart_va108xx.c ****   return:      execution_status
 294:.\driver\src/uart_va108xx.c **** */
 295:.\driver\src/uart_va108xx.c **** int32_t VOR_UART_SetParity(uint32_t arg,UART_RESOURCES *UART)
 296:.\driver\src/uart_va108xx.c **** {
 958              		.loc 1 296 0
 959              		.cfi_startproc
 960              		@ args = 0, pretend = 0, frame = 0
 961              		@ frame_needed = 0, uses_anonymous_args = 0
 962              		@ link register save eliminated.
 963              	.LVL60:
 964              	@ .\driver\src\uart_va108xx.c:297: 	if((UART == NULL) || (UART->reg ==NULL))
 297:.\driver\src/uart_va108xx.c **** 	if((UART == NULL) || (UART->reg ==NULL))
 965              		.loc 1 297 0
 966 0246 0029     		cmp	r1, #0	@ UART,
 967 0248 10D0     		beq	.L58	@,
 968              	@ .\driver\src\uart_va108xx.c:297: 	if((UART == NULL) || (UART->reg ==NULL))
 969              		.loc 1 297 0 is_stmt 0 discriminator 1
 970 024a 4B68     		ldr	r3, [r1, #4]	@ _1, UART_8(D)->reg
 971 024c 002B     		cmp	r3, #0	@ _1,
 972 024e 0DD0     		beq	.L58	@,
 973              	@ .\driver\src\uart_va108xx.c:300: 	switch(arg)
 298:.\driver\src/uart_va108xx.c **** 	 return VOR_DRIVER_ERROR_PARAMETER;
 299:.\driver\src/uart_va108xx.c **** 	
 300:.\driver\src/uart_va108xx.c **** 	switch(arg)
ARM GAS  C:\Users\claym\AppData\Local\Temp\cc2sTfd9.s 			page 31


 974              		.loc 1 300 0 is_stmt 1
 975 0250 0028     		cmp	r0, #0	@ arg,
 976 0252 06D0     		beq	.L55	@,
 977 0254 0128     		cmp	r0, #1	@ arg,
 978 0256 0CD1     		bne	.L60	@,
 979              	@ .\driver\src\uart_va108xx.c:302: 		case VOR_UART_CONTROL_PARITY_ENABLE:   UART->reg->CTRL |=  UAR
 301:.\driver\src/uart_va108xx.c **** 	{
 302:.\driver\src/uart_va108xx.c **** 		case VOR_UART_CONTROL_PARITY_ENABLE:   UART->reg->CTRL |=  UART_PERIPHERAL_CTRL_PAREN_Msk;   brea
 980              		.loc 1 302 0
 981 0258 9A68     		ldr	r2, [r3, #8]	@ _2, _1->CTRL
 982 025a 1043     		orrs	r0, r2	@ _3, _2
 983              	.LVL61:
 984 025c 9860     		str	r0, [r3, #8]	@ _3, _1->CTRL
 985              	@ .\driver\src\uart_va108xx.c:306: 	return 0;
 303:.\driver\src/uart_va108xx.c **** 		case VOR_UART_CONTROL_PARITY_DISABLE:  UART->reg->CTRL &= ~UART_PERIPHERAL_CTRL_PAREN_Msk; break;
 304:.\driver\src/uart_va108xx.c ****     default:              return -1;
 305:.\driver\src/uart_va108xx.c **** 	}
 306:.\driver\src/uart_va108xx.c **** 	return 0;
 986              		.loc 1 306 0
 987 025e 0020     		movs	r0, #0	@ <retval>,
 988              	.LVL62:
 989              	.L53:
 990              	@ .\driver\src\uart_va108xx.c:307: }
 307:.\driver\src/uart_va108xx.c **** }
 991              		.loc 1 307 0
 992              		@ sp needed	@
 993 0260 7047     		bx	lr
 994              	.LVL63:
 995              	.L55:
 996              	@ .\driver\src\uart_va108xx.c:303: 		case VOR_UART_CONTROL_PARITY_DISABLE:  UART->reg->CTRL &= ~UAR
 303:.\driver\src/uart_va108xx.c **** 		case VOR_UART_CONTROL_PARITY_DISABLE:  UART->reg->CTRL &= ~UART_PERIPHERAL_CTRL_PAREN_Msk; break;
 997              		.loc 1 303 0
 998 0262 0121     		movs	r1, #1	@ tmp119,
 999              	.LVL64:
 1000 0264 9A68     		ldr	r2, [r3, #8]	@ _4, _1->CTRL
 1001 0266 8A43     		bics	r2, r1	@ _5, tmp119
 1002 0268 9A60     		str	r2, [r3, #8]	@ _5, _1->CTRL
 1003 026a F9E7     		b	.L53	@
 1004              	.LVL65:
 1005              	.L58:
 1006              	@ .\driver\src\uart_va108xx.c:298: 	 return VOR_DRIVER_ERROR_PARAMETER;
 298:.\driver\src/uart_va108xx.c **** 	
 1007              		.loc 1 298 0
 1008 026c 0520     		movs	r0, #5	@ <retval>,
 1009              	.LVL66:
 1010              	.L61:
 1011              	@ .\driver\src\uart_va108xx.c:304:     default:              return -1;
 304:.\driver\src/uart_va108xx.c **** 	}
 1012              		.loc 1 304 0
 1013 026e 4042     		rsbs	r0, r0, #0	@ <retval>, <retval>
 1014 0270 F6E7     		b	.L53	@
 1015              	.LVL67:
 1016              	.L60:
 1017 0272 0120     		movs	r0, #1	@ <retval>,
 1018              	.LVL68:
 1019 0274 FBE7     		b	.L61	@
 1020              		.cfi_endproc
ARM GAS  C:\Users\claym\AppData\Local\Temp\cc2sTfd9.s 			page 32


 1021              	.LFE40:
 1022              		.size	VOR_UART_SetParity, .-VOR_UART_SetParity
 1023              		.align	1
 1024              		.global	VOR_UART_SelectParity
 1025              		.syntax unified
 1026              		.code	16
 1027              		.thumb_func
 1028              		.fpu softvfp
 1029              		.type	VOR_UART_SelectParity, %function
 1030              	VOR_UART_SelectParity:
 1031              	.LFB41:
 308:.\driver\src/uart_va108xx.c **** 
 309:.\driver\src/uart_va108xx.c **** /**
 310:.\driver\src/uart_va108xx.c ****   function:    int32_t VOR_UART_SelectParity(uint32_t arg,UART_RESOURCES *UART)
 311:.\driver\src/uart_va108xx.c ****   brief:       Select odd or even parity of UART. 
 312:.\driver\src/uart_va108xx.c ****   Input:       arg  Type of parity 
 313:.\driver\src/uart_va108xx.c ****   Input:       UART Pointer to UART resources
 314:.\driver\src/uart_va108xx.c ****   return:      execution_status
 315:.\driver\src/uart_va108xx.c **** */
 316:.\driver\src/uart_va108xx.c **** int32_t VOR_UART_SelectParity(uint32_t arg,UART_RESOURCES *UART)
 317:.\driver\src/uart_va108xx.c **** {
 1032              		.loc 1 317 0
 1033              		.cfi_startproc
 1034              		@ args = 0, pretend = 0, frame = 0
 1035              		@ frame_needed = 0, uses_anonymous_args = 0
 1036              		@ link register save eliminated.
 1037              	.LVL69:
 1038              	@ .\driver\src\uart_va108xx.c:318: 	if((UART == NULL) || (UART->reg ==NULL))
 318:.\driver\src/uart_va108xx.c **** 	if((UART == NULL) || (UART->reg ==NULL))
 1039              		.loc 1 318 0
 1040 0276 0029     		cmp	r1, #0	@ UART,
 1041 0278 11D0     		beq	.L67	@,
 1042              	@ .\driver\src\uart_va108xx.c:318: 	if((UART == NULL) || (UART->reg ==NULL))
 1043              		.loc 1 318 0 is_stmt 0 discriminator 1
 1044 027a 4B68     		ldr	r3, [r1, #4]	@ _1, UART_8(D)->reg
 1045 027c 002B     		cmp	r3, #0	@ _1,
 1046 027e 0ED0     		beq	.L67	@,
 1047              	@ .\driver\src\uart_va108xx.c:321: 	switch(arg)
 319:.\driver\src/uart_va108xx.c **** 	 return VOR_DRIVER_ERROR_PARAMETER;
 320:.\driver\src/uart_va108xx.c **** 	
 321:.\driver\src/uart_va108xx.c **** 	switch(arg)
 1048              		.loc 1 321 0 is_stmt 1
 1049 0280 0028     		cmp	r0, #0	@ arg,
 1050 0282 07D0     		beq	.L64	@,
 1051 0284 0128     		cmp	r0, #1	@ arg,
 1052 0286 0DD1     		bne	.L69	@,
 1053              	@ .\driver\src\uart_va108xx.c:323: 		case VOR_UART_CONTROL_PARITY_EVEN:     UART->reg->CTRL |=  UAR
 322:.\driver\src/uart_va108xx.c **** 	{
 323:.\driver\src/uart_va108xx.c **** 		case VOR_UART_CONTROL_PARITY_EVEN:     UART->reg->CTRL |=  UART_PERIPHERAL_CTRL_PAREVEN_Msk;   br
 1054              		.loc 1 323 0
 1055 0288 0222     		movs	r2, #2	@ tmp118,
 1056              	@ .\driver\src\uart_va108xx.c:327: 	return 0;
 324:.\driver\src/uart_va108xx.c **** 		case VOR_UART_CONTROL_PARITY_ODD:      UART->reg->CTRL   &= ~UART_PERIPHERAL_CTRL_PAREVEN_Msk; br
 325:.\driver\src/uart_va108xx.c ****     default:              return -1;
 326:.\driver\src/uart_va108xx.c **** 	}
 327:.\driver\src/uart_va108xx.c **** 	return 0;
 1057              		.loc 1 327 0
ARM GAS  C:\Users\claym\AppData\Local\Temp\cc2sTfd9.s 			page 33


 1058 028a 0020     		movs	r0, #0	@ <retval>,
 1059              	.LVL70:
 1060              	@ .\driver\src\uart_va108xx.c:323: 		case VOR_UART_CONTROL_PARITY_EVEN:     UART->reg->CTRL |=  UAR
 323:.\driver\src/uart_va108xx.c **** 		case VOR_UART_CONTROL_PARITY_ODD:      UART->reg->CTRL   &= ~UART_PERIPHERAL_CTRL_PAREVEN_Msk; br
 1061              		.loc 1 323 0
 1062 028c 9968     		ldr	r1, [r3, #8]	@ _2, _1->CTRL
 1063              	.LVL71:
 1064 028e 0A43     		orrs	r2, r1	@ _3, _2
 1065 0290 9A60     		str	r2, [r3, #8]	@ _3, _1->CTRL
 1066              	.L62:
 1067              	@ .\driver\src\uart_va108xx.c:328: }
 328:.\driver\src/uart_va108xx.c **** }
 1068              		.loc 1 328 0
 1069              		@ sp needed	@
 1070 0292 7047     		bx	lr
 1071              	.LVL72:
 1072              	.L64:
 1073              	@ .\driver\src\uart_va108xx.c:324: 		case VOR_UART_CONTROL_PARITY_ODD:      UART->reg->CTRL   &= ~U
 324:.\driver\src/uart_va108xx.c **** 		case VOR_UART_CONTROL_PARITY_ODD:      UART->reg->CTRL   &= ~UART_PERIPHERAL_CTRL_PAREVEN_Msk; br
 1074              		.loc 1 324 0
 1075 0294 0221     		movs	r1, #2	@ tmp119,
 1076              	.LVL73:
 1077 0296 9A68     		ldr	r2, [r3, #8]	@ _4, _1->CTRL
 1078 0298 8A43     		bics	r2, r1	@ _5, tmp119
 1079 029a 9A60     		str	r2, [r3, #8]	@ _5, _1->CTRL
 1080 029c F9E7     		b	.L62	@
 1081              	.LVL74:
 1082              	.L67:
 1083              	@ .\driver\src\uart_va108xx.c:319: 	 return VOR_DRIVER_ERROR_PARAMETER;
 319:.\driver\src/uart_va108xx.c **** 	
 1084              		.loc 1 319 0
 1085 029e 0520     		movs	r0, #5	@ <retval>,
 1086              	.LVL75:
 1087              	.L70:
 1088              	@ .\driver\src\uart_va108xx.c:325:     default:              return -1;
 325:.\driver\src/uart_va108xx.c **** 	}
 1089              		.loc 1 325 0
 1090 02a0 4042     		rsbs	r0, r0, #0	@ <retval>, <retval>
 1091 02a2 F6E7     		b	.L62	@
 1092              	.LVL76:
 1093              	.L69:
 1094 02a4 0120     		movs	r0, #1	@ <retval>,
 1095              	.LVL77:
 1096 02a6 FBE7     		b	.L70	@
 1097              		.cfi_endproc
 1098              	.LFE41:
 1099              		.size	VOR_UART_SelectParity, .-VOR_UART_SelectParity
 1100              		.align	1
 1101              		.global	VOR_UART_ManualParity
 1102              		.syntax unified
 1103              		.code	16
 1104              		.thumb_func
 1105              		.fpu softvfp
 1106              		.type	VOR_UART_ManualParity, %function
 1107              	VOR_UART_ManualParity:
 1108              	.LFB42:
 329:.\driver\src/uart_va108xx.c **** 
ARM GAS  C:\Users\claym\AppData\Local\Temp\cc2sTfd9.s 			page 34


 330:.\driver\src/uart_va108xx.c **** /**
 331:.\driver\src/uart_va108xx.c ****   function:    int32_t VOR_UART_ManualParity(uint32_t arg,UART_RESOURCES *UART)
 332:.\driver\src/uart_va108xx.c ****   brief:       Enable or Disable Manual parity of UART. 
 333:.\driver\src/uart_va108xx.c ****   Input:       arg  Manual parity set or clear
 334:.\driver\src/uart_va108xx.c ****   Input:       UART Pointer to UART resources
 335:.\driver\src/uart_va108xx.c ****   return:      execution_status
 336:.\driver\src/uart_va108xx.c **** */
 337:.\driver\src/uart_va108xx.c **** int32_t VOR_UART_ManualParity(uint32_t arg,UART_RESOURCES *UART)
 338:.\driver\src/uart_va108xx.c **** {
 1109              		.loc 1 338 0
 1110              		.cfi_startproc
 1111              		@ args = 0, pretend = 0, frame = 0
 1112              		@ frame_needed = 0, uses_anonymous_args = 0
 1113              		@ link register save eliminated.
 1114              	.LVL78:
 1115              	@ .\driver\src\uart_va108xx.c:339:   if((UART == NULL) || (UART->reg ==NULL))
 339:.\driver\src/uart_va108xx.c ****   if((UART == NULL) || (UART->reg ==NULL))
 1116              		.loc 1 339 0
 1117 02a8 0029     		cmp	r1, #0	@ UART,
 1118 02aa 11D0     		beq	.L76	@,
 1119              	@ .\driver\src\uart_va108xx.c:339:   if((UART == NULL) || (UART->reg ==NULL))
 1120              		.loc 1 339 0 is_stmt 0 discriminator 1
 1121 02ac 4B68     		ldr	r3, [r1, #4]	@ _1, UART_8(D)->reg
 1122 02ae 002B     		cmp	r3, #0	@ _1,
 1123 02b0 0ED0     		beq	.L76	@,
 1124              	@ .\driver\src\uart_va108xx.c:342: 	switch(arg)
 340:.\driver\src/uart_va108xx.c **** 	 return VOR_DRIVER_ERROR_PARAMETER;
 341:.\driver\src/uart_va108xx.c **** 	
 342:.\driver\src/uart_va108xx.c **** 	switch(arg)
 1125              		.loc 1 342 0 is_stmt 1
 1126 02b2 0028     		cmp	r0, #0	@ arg,
 1127 02b4 07D0     		beq	.L73	@,
 1128 02b6 0128     		cmp	r0, #1	@ arg,
 1129 02b8 0DD1     		bne	.L78	@,
 1130              	@ .\driver\src\uart_va108xx.c:344: 		case VOR_UART_CONTROL_MAN_PARITY_ENABLE:   UART->reg->CTRL |= 
 343:.\driver\src/uart_va108xx.c **** 	{
 344:.\driver\src/uart_va108xx.c **** 		case VOR_UART_CONTROL_MAN_PARITY_ENABLE:   UART->reg->CTRL |= UART_PERIPHERAL_CTRL_PARSTK_Msk; br
 1131              		.loc 1 344 0
 1132 02ba 0422     		movs	r2, #4	@ tmp118,
 1133              	@ .\driver\src\uart_va108xx.c:348: 	return 0;
 345:.\driver\src/uart_va108xx.c **** 		case VOR_UART_CONTROL_MAN_PARITY_DISABLE:  UART->reg->CTRL &= ~UART_PERIPHERAL_CTRL_PARSTK_Msk; b
 346:.\driver\src/uart_va108xx.c ****     default:                  return -1;
 347:.\driver\src/uart_va108xx.c **** 	}
 348:.\driver\src/uart_va108xx.c **** 	return 0;
 1134              		.loc 1 348 0
 1135 02bc 0020     		movs	r0, #0	@ <retval>,
 1136              	.LVL79:
 1137              	@ .\driver\src\uart_va108xx.c:344: 		case VOR_UART_CONTROL_MAN_PARITY_ENABLE:   UART->reg->CTRL |= 
 344:.\driver\src/uart_va108xx.c **** 		case VOR_UART_CONTROL_MAN_PARITY_DISABLE:  UART->reg->CTRL &= ~UART_PERIPHERAL_CTRL_PARSTK_Msk; b
 1138              		.loc 1 344 0
 1139 02be 9968     		ldr	r1, [r3, #8]	@ _2, _1->CTRL
 1140              	.LVL80:
 1141 02c0 0A43     		orrs	r2, r1	@ _3, _2
 1142 02c2 9A60     		str	r2, [r3, #8]	@ _3, _1->CTRL
 1143              	.L71:
 1144              	@ .\driver\src\uart_va108xx.c:349: }
 349:.\driver\src/uart_va108xx.c **** }
ARM GAS  C:\Users\claym\AppData\Local\Temp\cc2sTfd9.s 			page 35


 1145              		.loc 1 349 0
 1146              		@ sp needed	@
 1147 02c4 7047     		bx	lr
 1148              	.LVL81:
 1149              	.L73:
 1150              	@ .\driver\src\uart_va108xx.c:345: 		case VOR_UART_CONTROL_MAN_PARITY_DISABLE:  UART->reg->CTRL &= 
 345:.\driver\src/uart_va108xx.c **** 		case VOR_UART_CONTROL_MAN_PARITY_DISABLE:  UART->reg->CTRL &= ~UART_PERIPHERAL_CTRL_PARSTK_Msk; b
 1151              		.loc 1 345 0
 1152 02c6 0421     		movs	r1, #4	@ tmp119,
 1153              	.LVL82:
 1154 02c8 9A68     		ldr	r2, [r3, #8]	@ _4, _1->CTRL
 1155 02ca 8A43     		bics	r2, r1	@ _5, tmp119
 1156 02cc 9A60     		str	r2, [r3, #8]	@ _5, _1->CTRL
 1157 02ce F9E7     		b	.L71	@
 1158              	.LVL83:
 1159              	.L76:
 1160              	@ .\driver\src\uart_va108xx.c:340: 	 return VOR_DRIVER_ERROR_PARAMETER;
 340:.\driver\src/uart_va108xx.c **** 	
 1161              		.loc 1 340 0
 1162 02d0 0520     		movs	r0, #5	@ <retval>,
 1163              	.LVL84:
 1164              	.L79:
 1165              	@ .\driver\src\uart_va108xx.c:346:     default:                  return -1;
 346:.\driver\src/uart_va108xx.c **** 	}
 1166              		.loc 1 346 0
 1167 02d2 4042     		rsbs	r0, r0, #0	@ <retval>, <retval>
 1168 02d4 F6E7     		b	.L71	@
 1169              	.LVL85:
 1170              	.L78:
 1171 02d6 0120     		movs	r0, #1	@ <retval>,
 1172              	.LVL86:
 1173 02d8 FBE7     		b	.L79	@
 1174              		.cfi_endproc
 1175              	.LFE42:
 1176              		.size	VOR_UART_ManualParity, .-VOR_UART_ManualParity
 1177              		.align	1
 1178              		.global	VOR_UART_StopBit
 1179              		.syntax unified
 1180              		.code	16
 1181              		.thumb_func
 1182              		.fpu softvfp
 1183              		.type	VOR_UART_StopBit, %function
 1184              	VOR_UART_StopBit:
 1185              	.LFB43:
 350:.\driver\src/uart_va108xx.c **** 
 351:.\driver\src/uart_va108xx.c **** /**
 352:.\driver\src/uart_va108xx.c ****   function:    int32_t VOR_UART_StopBit(uint32_t arg,UART_RESOURCES *UART)
 353:.\driver\src/uart_va108xx.c ****   brief:       Select number of stop bits  
 354:.\driver\src/uart_va108xx.c ****   Input:       arg  number of stop bits
 355:.\driver\src/uart_va108xx.c ****   Input:       UART Pointer to UART resources
 356:.\driver\src/uart_va108xx.c ****   return:      execution_status
 357:.\driver\src/uart_va108xx.c **** */
 358:.\driver\src/uart_va108xx.c **** int32_t VOR_UART_StopBit(uint32_t arg,UART_RESOURCES *UART)
 359:.\driver\src/uart_va108xx.c **** {
 1186              		.loc 1 359 0
 1187              		.cfi_startproc
 1188              		@ args = 0, pretend = 0, frame = 0
ARM GAS  C:\Users\claym\AppData\Local\Temp\cc2sTfd9.s 			page 36


 1189              		@ frame_needed = 0, uses_anonymous_args = 0
 1190              		@ link register save eliminated.
 1191              	.LVL87:
 1192              	@ .\driver\src\uart_va108xx.c:360: 	if((UART == NULL) || (UART->reg ==NULL))
 360:.\driver\src/uart_va108xx.c **** 	if((UART == NULL) || (UART->reg ==NULL))
 1193              		.loc 1 360 0
 1194 02da 0029     		cmp	r1, #0	@ UART,
 1195 02dc 11D0     		beq	.L85	@,
 1196              	@ .\driver\src\uart_va108xx.c:360: 	if((UART == NULL) || (UART->reg ==NULL))
 1197              		.loc 1 360 0 is_stmt 0 discriminator 1
 1198 02de 4B68     		ldr	r3, [r1, #4]	@ _1, UART_8(D)->reg
 1199 02e0 002B     		cmp	r3, #0	@ _1,
 1200 02e2 0ED0     		beq	.L85	@,
 1201              	@ .\driver\src\uart_va108xx.c:363: 	switch(arg)
 361:.\driver\src/uart_va108xx.c **** 	  return VOR_DRIVER_ERROR_PARAMETER;
 362:.\driver\src/uart_va108xx.c **** 	
 363:.\driver\src/uart_va108xx.c **** 	switch(arg)
 1202              		.loc 1 363 0 is_stmt 1
 1203 02e4 0028     		cmp	r0, #0	@ arg,
 1204 02e6 07D0     		beq	.L82	@,
 1205 02e8 0128     		cmp	r0, #1	@ arg,
 1206 02ea 0DD1     		bne	.L87	@,
 1207              	@ .\driver\src\uart_va108xx.c:365: 		case VOR_UART_CONTROL_STOP_BIT_2:      UART->reg->CTRL |= UART
 364:.\driver\src/uart_va108xx.c **** 	{ 
 365:.\driver\src/uart_va108xx.c **** 		case VOR_UART_CONTROL_STOP_BIT_2:      UART->reg->CTRL |= UART_PERIPHERAL_CTRL_STOPBITS_Msk;   br
 1208              		.loc 1 365 0
 1209 02ec 0822     		movs	r2, #8	@ tmp118,
 1210              	@ .\driver\src\uart_va108xx.c:369: 	return 0;
 366:.\driver\src/uart_va108xx.c ****     case VOR_UART_CONTROL_STOP_BIT_1:      UART->reg->CTRL &= ~UART_PERIPHERAL_CTRL_STOPBITS_Msk;	b
 367:.\driver\src/uart_va108xx.c ****     default:              return -1;
 368:.\driver\src/uart_va108xx.c **** 	}
 369:.\driver\src/uart_va108xx.c **** 	return 0;
 1211              		.loc 1 369 0
 1212 02ee 0020     		movs	r0, #0	@ <retval>,
 1213              	.LVL88:
 1214              	@ .\driver\src\uart_va108xx.c:365: 		case VOR_UART_CONTROL_STOP_BIT_2:      UART->reg->CTRL |= UART
 365:.\driver\src/uart_va108xx.c ****     case VOR_UART_CONTROL_STOP_BIT_1:      UART->reg->CTRL &= ~UART_PERIPHERAL_CTRL_STOPBITS_Msk;	b
 1215              		.loc 1 365 0
 1216 02f0 9968     		ldr	r1, [r3, #8]	@ _2, _1->CTRL
 1217              	.LVL89:
 1218 02f2 0A43     		orrs	r2, r1	@ _3, _2
 1219 02f4 9A60     		str	r2, [r3, #8]	@ _3, _1->CTRL
 1220              	.L80:
 1221              	@ .\driver\src\uart_va108xx.c:370: }
 370:.\driver\src/uart_va108xx.c **** }
 1222              		.loc 1 370 0
 1223              		@ sp needed	@
 1224 02f6 7047     		bx	lr
 1225              	.LVL90:
 1226              	.L82:
 1227              	@ .\driver\src\uart_va108xx.c:366:     case VOR_UART_CONTROL_STOP_BIT_1:      UART->reg->CTRL &= ~U
 366:.\driver\src/uart_va108xx.c ****     case VOR_UART_CONTROL_STOP_BIT_1:      UART->reg->CTRL &= ~UART_PERIPHERAL_CTRL_STOPBITS_Msk;	b
 1228              		.loc 1 366 0
 1229 02f8 0821     		movs	r1, #8	@ tmp119,
 1230              	.LVL91:
 1231 02fa 9A68     		ldr	r2, [r3, #8]	@ _4, _1->CTRL
 1232 02fc 8A43     		bics	r2, r1	@ _5, tmp119
ARM GAS  C:\Users\claym\AppData\Local\Temp\cc2sTfd9.s 			page 37


 1233 02fe 9A60     		str	r2, [r3, #8]	@ _5, _1->CTRL
 1234 0300 F9E7     		b	.L80	@
 1235              	.LVL92:
 1236              	.L85:
 1237              	@ .\driver\src\uart_va108xx.c:361: 	  return VOR_DRIVER_ERROR_PARAMETER;
 361:.\driver\src/uart_va108xx.c **** 	
 1238              		.loc 1 361 0
 1239 0302 0520     		movs	r0, #5	@ <retval>,
 1240              	.LVL93:
 1241              	.L88:
 1242              	@ .\driver\src\uart_va108xx.c:367:     default:              return -1;
 367:.\driver\src/uart_va108xx.c **** 	}
 1243              		.loc 1 367 0
 1244 0304 4042     		rsbs	r0, r0, #0	@ <retval>, <retval>
 1245 0306 F6E7     		b	.L80	@
 1246              	.LVL94:
 1247              	.L87:
 1248 0308 0120     		movs	r0, #1	@ <retval>,
 1249              	.LVL95:
 1250 030a FBE7     		b	.L88	@
 1251              		.cfi_endproc
 1252              	.LFE43:
 1253              		.size	VOR_UART_StopBit, .-VOR_UART_StopBit
 1254              		.align	1
 1255              		.global	VOR_UART_DataBits
 1256              		.syntax unified
 1257              		.code	16
 1258              		.thumb_func
 1259              		.fpu softvfp
 1260              		.type	VOR_UART_DataBits, %function
 1261              	VOR_UART_DataBits:
 1262              	.LFB44:
 371:.\driver\src/uart_va108xx.c **** 
 372:.\driver\src/uart_va108xx.c **** /**
 373:.\driver\src/uart_va108xx.c ****   function:    int32_t VOR_UART_DataBits(uint32_t arg,UART_RESOURCES *UART)
 374:.\driver\src/uart_va108xx.c ****   brief:       Select word size in UART frame
 375:.\driver\src/uart_va108xx.c ****   Input:       arg  word size
 376:.\driver\src/uart_va108xx.c ****   Input:       UART Pointer to UART resources
 377:.\driver\src/uart_va108xx.c ****   return:      execution_status
 378:.\driver\src/uart_va108xx.c **** */
 379:.\driver\src/uart_va108xx.c **** int32_t VOR_UART_DataBits(uint32_t arg,UART_RESOURCES *UART)
 380:.\driver\src/uart_va108xx.c **** {
 1263              		.loc 1 380 0
 1264              		.cfi_startproc
 1265              		@ args = 0, pretend = 0, frame = 0
 1266              		@ frame_needed = 0, uses_anonymous_args = 0
 1267              	.LVL96:
 1268 030c 00B5     		push	{lr}	@
 1269              	.LCFI7:
 1270              		.cfi_def_cfa_offset 4
 1271              		.cfi_offset 14, -4
 1272              	@ .\driver\src\uart_va108xx.c:381: 	if((UART == NULL) || (UART->reg ==NULL))
 381:.\driver\src/uart_va108xx.c **** 	if((UART == NULL) || (UART->reg ==NULL))
 1273              		.loc 1 381 0
 1274 030e 0029     		cmp	r1, #0	@ UART,
 1275 0310 19D0     		beq	.L97	@,
 1276              	@ .\driver\src\uart_va108xx.c:381: 	if((UART == NULL) || (UART->reg ==NULL))
ARM GAS  C:\Users\claym\AppData\Local\Temp\cc2sTfd9.s 			page 38


 1277              		.loc 1 381 0 is_stmt 0 discriminator 1
 1278 0312 4B68     		ldr	r3, [r1, #4]	@ _1, UART_13(D)->reg
 1279 0314 002B     		cmp	r3, #0	@ _1,
 1280 0316 16D0     		beq	.L97	@,
 1281              	@ .\driver\src\uart_va108xx.c:383: 	UART->reg->CTRL &= ~UART_PERIPHERAL_CTRL_WORDSIZE_Msk;
 382:.\driver\src/uart_va108xx.c **** 	  return VOR_DRIVER_ERROR_PARAMETER;
 383:.\driver\src/uart_va108xx.c **** 	UART->reg->CTRL &= ~UART_PERIPHERAL_CTRL_WORDSIZE_Msk;
 1282              		.loc 1 383 0 is_stmt 1
 1283 0318 3022     		movs	r2, #48	@ tmp123,
 1284 031a 9968     		ldr	r1, [r3, #8]	@ _2, _1->CTRL
 1285              	.LVL97:
 1286 031c 9143     		bics	r1, r2	@ _3, tmp123
 1287 031e 9960     		str	r1, [r3, #8]	@ _3, _1->CTRL
 1288              	@ .\driver\src\uart_va108xx.c:385: 	switch(arg)
 384:.\driver\src/uart_va108xx.c **** 	
 385:.\driver\src/uart_va108xx.c **** 	switch(arg)
 1289              		.loc 1 385 0
 1290 0320 0328     		cmp	r0, #3	@ arg,
 1291 0322 13D8     		bhi	.L98	@,
 1292 0324 FFF7FEFF 		bl	__gnu_thumb1_case_uqi
 1293              	.L92:
 1294 0328 02       		.byte	(.L91-.L92)/2
 1295 0329 06       		.byte	(.L93-.L92)/2
 1296 032a 0A       		.byte	(.L94-.L92)/2
 1297 032b 0D       		.byte	(.L95-.L92)/2
 1298              		.p2align 1
 1299              	.L91:
 1300              	@ .\driver\src\uart_va108xx.c:387: 		case VOR_UART_CONTROL_DATA_BITS_5: UART->reg->CTRL |= (0<<UART
 386:.\driver\src/uart_va108xx.c **** 	{
 387:.\driver\src/uart_va108xx.c **** 		case VOR_UART_CONTROL_DATA_BITS_5: UART->reg->CTRL |= (0<<UART_PERIPHERAL_CTRL_WORDSIZE_Pos); bre
 1301              		.loc 1 387 0
 1302 032c 9A68     		ldr	r2, [r3, #8]	@ _4, _1->CTRL
 1303              	.L100:
 1304              	@ .\driver\src\uart_va108xx.c:393: 	return 0;
 388:.\driver\src/uart_va108xx.c **** 		case VOR_UART_CONTROL_DATA_BITS_6: UART->reg->CTRL |= (1<<UART_PERIPHERAL_CTRL_WORDSIZE_Pos); bre
 389:.\driver\src/uart_va108xx.c **** 		case VOR_UART_CONTROL_DATA_BITS_7: UART->reg->CTRL |= (2<<UART_PERIPHERAL_CTRL_WORDSIZE_Pos); bre
 390:.\driver\src/uart_va108xx.c **** 		case VOR_UART_CONTROL_DATA_BITS_8: UART->reg->CTRL |= (3<<UART_PERIPHERAL_CTRL_WORDSIZE_Pos); bre
 391:.\driver\src/uart_va108xx.c ****     default:              return -1;
 392:.\driver\src/uart_va108xx.c **** 	}
 393:.\driver\src/uart_va108xx.c **** 	return 0;
 1305              		.loc 1 393 0
 1306 032e 0020     		movs	r0, #0	@ <retval>,
 1307              	.LVL98:
 1308              	@ .\driver\src\uart_va108xx.c:390: 		case VOR_UART_CONTROL_DATA_BITS_8: UART->reg->CTRL |= (3<<UART
 390:.\driver\src/uart_va108xx.c ****     default:              return -1;
 1309              		.loc 1 390 0
 1310 0330 9A60     		str	r2, [r3, #8]	@ _10,
 1311              	.L89:
 1312              	@ .\driver\src\uart_va108xx.c:394: }
 394:.\driver\src/uart_va108xx.c **** }
 1313              		.loc 1 394 0
 1314              		@ sp needed	@
 1315 0332 00BD     		pop	{pc}
 1316              	.LVL99:
 1317              	.L93:
 1318              	@ .\driver\src\uart_va108xx.c:388: 		case VOR_UART_CONTROL_DATA_BITS_6: UART->reg->CTRL |= (1<<UART
 388:.\driver\src/uart_va108xx.c **** 		case VOR_UART_CONTROL_DATA_BITS_6: UART->reg->CTRL |= (1<<UART_PERIPHERAL_CTRL_WORDSIZE_Pos); bre
ARM GAS  C:\Users\claym\AppData\Local\Temp\cc2sTfd9.s 			page 39


 1319              		.loc 1 388 0
 1320 0334 1022     		movs	r2, #16	@ tmp124,
 1321 0336 9968     		ldr	r1, [r3, #8]	@ _5, _1->CTRL
 1322              	.L101:
 1323              	@ .\driver\src\uart_va108xx.c:390: 		case VOR_UART_CONTROL_DATA_BITS_8: UART->reg->CTRL |= (3<<UART
 390:.\driver\src/uart_va108xx.c ****     default:              return -1;
 1324              		.loc 1 390 0
 1325 0338 0A43     		orrs	r2, r1	@ _10, _9
 1326 033a F8E7     		b	.L100	@
 1327              	.L94:
 1328              	@ .\driver\src\uart_va108xx.c:389: 		case VOR_UART_CONTROL_DATA_BITS_7: UART->reg->CTRL |= (2<<UART
 389:.\driver\src/uart_va108xx.c **** 		case VOR_UART_CONTROL_DATA_BITS_8: UART->reg->CTRL |= (3<<UART_PERIPHERAL_CTRL_WORDSIZE_Pos); bre
 1329              		.loc 1 389 0
 1330 033c 9968     		ldr	r1, [r3, #8]	@ _7, _1->CTRL
 1331 033e 2022     		movs	r2, #32	@ tmp125,
 1332 0340 FAE7     		b	.L101	@
 1333              	.L95:
 1334              	@ .\driver\src\uart_va108xx.c:390: 		case VOR_UART_CONTROL_DATA_BITS_8: UART->reg->CTRL |= (3<<UART
 390:.\driver\src/uart_va108xx.c ****     default:              return -1;
 1335              		.loc 1 390 0
 1336 0342 9968     		ldr	r1, [r3, #8]	@ _9, _1->CTRL
 1337 0344 F8E7     		b	.L101	@
 1338              	.LVL100:
 1339              	.L97:
 1340              	@ .\driver\src\uart_va108xx.c:382: 	  return VOR_DRIVER_ERROR_PARAMETER;
 382:.\driver\src/uart_va108xx.c **** 	UART->reg->CTRL &= ~UART_PERIPHERAL_CTRL_WORDSIZE_Msk;
 1341              		.loc 1 382 0
 1342 0346 0520     		movs	r0, #5	@ <retval>,
 1343              	.LVL101:
 1344              	.L99:
 1345              	@ .\driver\src\uart_va108xx.c:391:     default:              return -1;
 391:.\driver\src/uart_va108xx.c **** 	}
 1346              		.loc 1 391 0
 1347 0348 4042     		rsbs	r0, r0, #0	@ <retval>, <retval>
 1348 034a F2E7     		b	.L89	@
 1349              	.LVL102:
 1350              	.L98:
 1351 034c 0120     		movs	r0, #1	@ <retval>,
 1352              	.LVL103:
 1353 034e FBE7     		b	.L99	@
 1354              		.cfi_endproc
 1355              	.LFE44:
 1356              		.size	VOR_UART_DataBits, .-VOR_UART_DataBits
 1357              		.align	1
 1358              		.global	VOR_UART_LoopBack
 1359              		.syntax unified
 1360              		.code	16
 1361              		.thumb_func
 1362              		.fpu softvfp
 1363              		.type	VOR_UART_LoopBack, %function
 1364              	VOR_UART_LoopBack:
 1365              	.LFB45:
 395:.\driver\src/uart_va108xx.c **** 
 396:.\driver\src/uart_va108xx.c **** /**
 397:.\driver\src/uart_va108xx.c ****   function:    int32_t VOR_UART_LoopBack(uint32_t arg,UART_RESOURCES *UART)
 398:.\driver\src/uart_va108xx.c ****   brief:       Loopback mode. When 1, then the Receiver input is
 399:.\driver\src/uart_va108xx.c ****                connected to the Transmitter output and CTSn input is
ARM GAS  C:\Users\claym\AppData\Local\Temp\cc2sTfd9.s 			page 40


 400:.\driver\src/uart_va108xx.c ****                connected to RTSn output.
 401:.\driver\src/uart_va108xx.c ****   Input:       arg  set or clear loop back
 402:.\driver\src/uart_va108xx.c ****   Input:       UART Pointer to UART resources
 403:.\driver\src/uart_va108xx.c ****   return:      execution_status
 404:.\driver\src/uart_va108xx.c **** */
 405:.\driver\src/uart_va108xx.c **** int32_t VOR_UART_LoopBack(uint32_t arg,UART_RESOURCES *UART)
 406:.\driver\src/uart_va108xx.c **** {
 1366              		.loc 1 406 0
 1367              		.cfi_startproc
 1368              		@ args = 0, pretend = 0, frame = 0
 1369              		@ frame_needed = 0, uses_anonymous_args = 0
 1370              		@ link register save eliminated.
 1371              	.LVL104:
 1372              	@ .\driver\src\uart_va108xx.c:407: 	if((UART == NULL) || (UART->reg ==NULL))
 407:.\driver\src/uart_va108xx.c **** 	if((UART == NULL) || (UART->reg ==NULL))
 1373              		.loc 1 407 0
 1374 0350 0029     		cmp	r1, #0	@ UART,
 1375 0352 11D0     		beq	.L107	@,
 1376              	@ .\driver\src\uart_va108xx.c:407: 	if((UART == NULL) || (UART->reg ==NULL))
 1377              		.loc 1 407 0 is_stmt 0 discriminator 1
 1378 0354 4B68     		ldr	r3, [r1, #4]	@ _1, UART_8(D)->reg
 1379 0356 002B     		cmp	r3, #0	@ _1,
 1380 0358 0ED0     		beq	.L107	@,
 1381              	@ .\driver\src\uart_va108xx.c:410: 	switch(arg)
 408:.\driver\src/uart_va108xx.c **** 	  return VOR_DRIVER_ERROR_PARAMETER;
 409:.\driver\src/uart_va108xx.c **** 	
 410:.\driver\src/uart_va108xx.c **** 	switch(arg)
 1382              		.loc 1 410 0 is_stmt 1
 1383 035a 0028     		cmp	r0, #0	@ arg,
 1384 035c 07D0     		beq	.L104	@,
 1385 035e 0128     		cmp	r0, #1	@ arg,
 1386 0360 0DD1     		bne	.L109	@,
 1387              	@ .\driver\src\uart_va108xx.c:412: 		case VOR_UART_CONTROL_LOOP_BACK_ENABLE:		 UART->reg->CTRL |= U
 411:.\driver\src/uart_va108xx.c **** 	{
 412:.\driver\src/uart_va108xx.c **** 		case VOR_UART_CONTROL_LOOP_BACK_ENABLE:		 UART->reg->CTRL |= UART_PERIPHERAL_CTRL_LOOPBACK_Msk; b
 1388              		.loc 1 412 0
 1389 0362 4022     		movs	r2, #64	@ tmp118,
 1390              	@ .\driver\src\uart_va108xx.c:416: 	return 0;
 413:.\driver\src/uart_va108xx.c **** 		case VOR_UART_CONTROL_LOOP_BACK_DISABLE:		 UART->reg->CTRL &= ~UART_PERIPHERAL_CTRL_LOOPBACK_Msk;
 414:.\driver\src/uart_va108xx.c ****     default:              		 return -1;
 415:.\driver\src/uart_va108xx.c **** 	}
 416:.\driver\src/uart_va108xx.c **** 	return 0;
 1391              		.loc 1 416 0
 1392 0364 0020     		movs	r0, #0	@ <retval>,
 1393              	.LVL105:
 1394              	@ .\driver\src\uart_va108xx.c:412: 		case VOR_UART_CONTROL_LOOP_BACK_ENABLE:		 UART->reg->CTRL |= U
 412:.\driver\src/uart_va108xx.c **** 		case VOR_UART_CONTROL_LOOP_BACK_DISABLE:		 UART->reg->CTRL &= ~UART_PERIPHERAL_CTRL_LOOPBACK_Msk;
 1395              		.loc 1 412 0
 1396 0366 9968     		ldr	r1, [r3, #8]	@ _2, _1->CTRL
 1397              	.LVL106:
 1398 0368 0A43     		orrs	r2, r1	@ _3, _2
 1399 036a 9A60     		str	r2, [r3, #8]	@ _3, _1->CTRL
 1400              	.L102:
 1401              	@ .\driver\src\uart_va108xx.c:417: }
 417:.\driver\src/uart_va108xx.c **** }
 1402              		.loc 1 417 0
 1403              		@ sp needed	@
ARM GAS  C:\Users\claym\AppData\Local\Temp\cc2sTfd9.s 			page 41


 1404 036c 7047     		bx	lr
 1405              	.LVL107:
 1406              	.L104:
 1407              	@ .\driver\src\uart_va108xx.c:413: 		case VOR_UART_CONTROL_LOOP_BACK_DISABLE:		 UART->reg->CTRL &= 
 413:.\driver\src/uart_va108xx.c **** 		case VOR_UART_CONTROL_LOOP_BACK_DISABLE:		 UART->reg->CTRL &= ~UART_PERIPHERAL_CTRL_LOOPBACK_Msk;
 1408              		.loc 1 413 0
 1409 036e 4021     		movs	r1, #64	@ tmp119,
 1410              	.LVL108:
 1411 0370 9A68     		ldr	r2, [r3, #8]	@ _4, _1->CTRL
 1412 0372 8A43     		bics	r2, r1	@ _5, tmp119
 1413 0374 9A60     		str	r2, [r3, #8]	@ _5, _1->CTRL
 1414 0376 F9E7     		b	.L102	@
 1415              	.LVL109:
 1416              	.L107:
 1417              	@ .\driver\src\uart_va108xx.c:408: 	  return VOR_DRIVER_ERROR_PARAMETER;
 408:.\driver\src/uart_va108xx.c **** 	
 1418              		.loc 1 408 0
 1419 0378 0520     		movs	r0, #5	@ <retval>,
 1420              	.LVL110:
 1421              	.L110:
 1422              	@ .\driver\src\uart_va108xx.c:414:     default:              		 return -1;
 414:.\driver\src/uart_va108xx.c **** 	}
 1423              		.loc 1 414 0
 1424 037a 4042     		rsbs	r0, r0, #0	@ <retval>, <retval>
 1425 037c F6E7     		b	.L102	@
 1426              	.LVL111:
 1427              	.L109:
 1428 037e 0120     		movs	r0, #1	@ <retval>,
 1429              	.LVL112:
 1430 0380 FBE7     		b	.L110	@
 1431              		.cfi_endproc
 1432              	.LFE45:
 1433              		.size	VOR_UART_LoopBack, .-VOR_UART_LoopBack
 1434              		.align	1
 1435              		.global	VOR_UART_AutoCTS
 1436              		.syntax unified
 1437              		.code	16
 1438              		.thumb_func
 1439              		.fpu softvfp
 1440              		.type	VOR_UART_AutoCTS, %function
 1441              	VOR_UART_AutoCTS:
 1442              	.LFB46:
 418:.\driver\src/uart_va108xx.c **** 
 419:.\driver\src/uart_va108xx.c **** /**
 420:.\driver\src/uart_va108xx.c ****   function:    int32_t VOR_UART_AutoCTS(uint32_t arg,UART_RESOURCES *UART)
 421:.\driver\src/uart_va108xx.c ****   brief:       Enable auto CTS Mode. When enabled the Transmitter
 422:.\driver\src/uart_va108xx.c ****                is paused if CTSn is high, and a transmit would
 423:.\driver\src/uart_va108xx.c ****                normally start
 424:.\driver\src/uart_va108xx.c ****   Input:       arg  select AutoCTS
 425:.\driver\src/uart_va108xx.c ****   Input:       UART Pointer to UART resources
 426:.\driver\src/uart_va108xx.c ****   return:      execution_status
 427:.\driver\src/uart_va108xx.c **** */
 428:.\driver\src/uart_va108xx.c **** int32_t VOR_UART_AutoCTS(uint32_t arg,UART_RESOURCES *UART)
 429:.\driver\src/uart_va108xx.c **** {
 1443              		.loc 1 429 0
 1444              		.cfi_startproc
 1445              		@ args = 0, pretend = 0, frame = 0
ARM GAS  C:\Users\claym\AppData\Local\Temp\cc2sTfd9.s 			page 42


 1446              		@ frame_needed = 0, uses_anonymous_args = 0
 1447              		@ link register save eliminated.
 1448              	.LVL113:
 1449              	@ .\driver\src\uart_va108xx.c:430: 	if((UART == NULL) || (UART->reg ==NULL))
 430:.\driver\src/uart_va108xx.c **** 	if((UART == NULL) || (UART->reg ==NULL))
 1450              		.loc 1 430 0
 1451 0382 0029     		cmp	r1, #0	@ UART,
 1452 0384 12D0     		beq	.L116	@,
 1453              	@ .\driver\src\uart_va108xx.c:430: 	if((UART == NULL) || (UART->reg ==NULL))
 1454              		.loc 1 430 0 is_stmt 0 discriminator 1
 1455 0386 4B68     		ldr	r3, [r1, #4]	@ _1, UART_8(D)->reg
 1456 0388 002B     		cmp	r3, #0	@ _1,
 1457 038a 0FD0     		beq	.L116	@,
 1458              	@ .\driver\src\uart_va108xx.c:433: 	switch(arg)
 431:.\driver\src/uart_va108xx.c **** 	  return VOR_DRIVER_ERROR_PARAMETER;
 432:.\driver\src/uart_va108xx.c **** 	
 433:.\driver\src/uart_va108xx.c **** 	switch(arg)
 1459              		.loc 1 433 0 is_stmt 1
 1460 038c 0028     		cmp	r0, #0	@ arg,
 1461 038e 08D0     		beq	.L113	@,
 1462 0390 0128     		cmp	r0, #1	@ arg,
 1463 0392 0ED1     		bne	.L118	@,
 1464              	@ .\driver\src\uart_va108xx.c:435: 		case VOR_UART_CONTROL_AUTO_CTS_ENABLE: 		UART->reg->CTRL |= UA
 434:.\driver\src/uart_va108xx.c **** 	{
 435:.\driver\src/uart_va108xx.c **** 		case VOR_UART_CONTROL_AUTO_CTS_ENABLE: 		UART->reg->CTRL |= UART_PERIPHERAL_CTRL_AUTOCTS_Msk; bre
 1465              		.loc 1 435 0
 1466 0394 8022     		movs	r2, #128	@ tmp118,
 1467              	@ .\driver\src\uart_va108xx.c:439: 	return 0;
 436:.\driver\src/uart_va108xx.c **** 		case VOR_UART_CONTROL_AUTO_CTS_DISABLE:	  UART->reg->CTRL &= ~UART_PERIPHERAL_CTRL_AUTOCTS_Msk; b
 437:.\driver\src/uart_va108xx.c ****     default:              	  return -1;
 438:.\driver\src/uart_va108xx.c **** 	}
 439:.\driver\src/uart_va108xx.c **** 	return 0;
 1468              		.loc 1 439 0
 1469 0396 0020     		movs	r0, #0	@ <retval>,
 1470              	.LVL114:
 1471              	@ .\driver\src\uart_va108xx.c:435: 		case VOR_UART_CONTROL_AUTO_CTS_ENABLE: 		UART->reg->CTRL |= UA
 435:.\driver\src/uart_va108xx.c **** 		case VOR_UART_CONTROL_AUTO_CTS_DISABLE:	  UART->reg->CTRL &= ~UART_PERIPHERAL_CTRL_AUTOCTS_Msk; b
 1472              		.loc 1 435 0
 1473 0398 9968     		ldr	r1, [r3, #8]	@ _2, _1->CTRL
 1474              	.LVL115:
 1475 039a 5200     		lsls	r2, r2, #1	@ tmp118, tmp118,
 1476 039c 0A43     		orrs	r2, r1	@ _3, _2
 1477 039e 9A60     		str	r2, [r3, #8]	@ _3, _1->CTRL
 1478              	.L111:
 1479              	@ .\driver\src\uart_va108xx.c:440: }
 440:.\driver\src/uart_va108xx.c **** }
 1480              		.loc 1 440 0
 1481              		@ sp needed	@
 1482 03a0 7047     		bx	lr
 1483              	.LVL116:
 1484              	.L113:
 1485              	@ .\driver\src\uart_va108xx.c:436: 		case VOR_UART_CONTROL_AUTO_CTS_DISABLE:	  UART->reg->CTRL &= ~
 436:.\driver\src/uart_va108xx.c **** 		case VOR_UART_CONTROL_AUTO_CTS_DISABLE:	  UART->reg->CTRL &= ~UART_PERIPHERAL_CTRL_AUTOCTS_Msk; b
 1486              		.loc 1 436 0
 1487 03a2 9A68     		ldr	r2, [r3, #8]	@ _4, _1->CTRL
 1488 03a4 0449     		ldr	r1, .L120	@ tmp119,
 1489              	.LVL117:
ARM GAS  C:\Users\claym\AppData\Local\Temp\cc2sTfd9.s 			page 43


 1490 03a6 0A40     		ands	r2, r1	@ _5, tmp119
 1491 03a8 9A60     		str	r2, [r3, #8]	@ _5, _1->CTRL
 1492 03aa F9E7     		b	.L111	@
 1493              	.LVL118:
 1494              	.L116:
 1495              	@ .\driver\src\uart_va108xx.c:431: 	  return VOR_DRIVER_ERROR_PARAMETER;
 431:.\driver\src/uart_va108xx.c **** 	
 1496              		.loc 1 431 0
 1497 03ac 0520     		movs	r0, #5	@ <retval>,
 1498              	.LVL119:
 1499              	.L119:
 1500              	@ .\driver\src\uart_va108xx.c:437:     default:              	  return -1;
 437:.\driver\src/uart_va108xx.c **** 	}
 1501              		.loc 1 437 0
 1502 03ae 4042     		rsbs	r0, r0, #0	@ <retval>, <retval>
 1503 03b0 F6E7     		b	.L111	@
 1504              	.LVL120:
 1505              	.L118:
 1506 03b2 0120     		movs	r0, #1	@ <retval>,
 1507              	.LVL121:
 1508 03b4 FBE7     		b	.L119	@
 1509              	.L121:
 1510 03b6 C046     		.align	2
 1511              	.L120:
 1512 03b8 FFFEFFFF 		.word	-257
 1513              		.cfi_endproc
 1514              	.LFE46:
 1515              		.size	VOR_UART_AutoCTS, .-VOR_UART_AutoCTS
 1516              		.align	1
 1517              		.global	VOR_UART_DEFRTS
 1518              		.syntax unified
 1519              		.code	16
 1520              		.thumb_func
 1521              		.fpu softvfp
 1522              		.type	VOR_UART_DEFRTS, %function
 1523              	VOR_UART_DEFRTS:
 1524              	.LFB47:
 441:.\driver\src/uart_va108xx.c **** 
 442:.\driver\src/uart_va108xx.c **** /**
 443:.\driver\src/uart_va108xx.c ****   function:    int32_t VOR_UART_DEFRTS(uint32_t arg,UART_RESOURCES *UART)
 444:.\driver\src/uart_va108xx.c ****   brief:       This specifies the value for the RTSn signal when AUTORTS is not enabled or when the
 445:.\driver\src/uart_va108xx.c ****   Input:       arg  select DEFRTS
 446:.\driver\src/uart_va108xx.c ****   Input:       UART Pointer to UART resources
 447:.\driver\src/uart_va108xx.c ****   return:      execution_status
 448:.\driver\src/uart_va108xx.c **** */
 449:.\driver\src/uart_va108xx.c **** int32_t VOR_UART_DEFRTS(uint32_t arg,UART_RESOURCES *UART)
 450:.\driver\src/uart_va108xx.c **** {
 1525              		.loc 1 450 0
 1526              		.cfi_startproc
 1527              		@ args = 0, pretend = 0, frame = 0
 1528              		@ frame_needed = 0, uses_anonymous_args = 0
 1529              		@ link register save eliminated.
 1530              	.LVL122:
 1531              	@ .\driver\src\uart_va108xx.c:451: 	if((UART == NULL) || (UART->reg ==NULL))
 451:.\driver\src/uart_va108xx.c **** 	if((UART == NULL) || (UART->reg ==NULL))
 1532              		.loc 1 451 0
 1533 03bc 0029     		cmp	r1, #0	@ UART,
ARM GAS  C:\Users\claym\AppData\Local\Temp\cc2sTfd9.s 			page 44


 1534 03be 12D0     		beq	.L127	@,
 1535              	@ .\driver\src\uart_va108xx.c:451: 	if((UART == NULL) || (UART->reg ==NULL))
 1536              		.loc 1 451 0 is_stmt 0 discriminator 1
 1537 03c0 4B68     		ldr	r3, [r1, #4]	@ _1, UART_8(D)->reg
 1538 03c2 002B     		cmp	r3, #0	@ _1,
 1539 03c4 0FD0     		beq	.L127	@,
 1540              	@ .\driver\src\uart_va108xx.c:454: 	switch(arg)
 452:.\driver\src/uart_va108xx.c **** 	  return VOR_DRIVER_ERROR_PARAMETER;
 453:.\driver\src/uart_va108xx.c **** 	
 454:.\driver\src/uart_va108xx.c **** 	switch(arg)
 1541              		.loc 1 454 0 is_stmt 1
 1542 03c6 0028     		cmp	r0, #0	@ arg,
 1543 03c8 08D0     		beq	.L124	@,
 1544 03ca 0128     		cmp	r0, #1	@ arg,
 1545 03cc 0ED1     		bne	.L129	@,
 1546              	@ .\driver\src\uart_va108xx.c:456: 		case VOR_UART_CONTROL_DEFRTS_ENABLE:   UART->reg->CTRL |= UART
 455:.\driver\src/uart_va108xx.c **** 	{
 456:.\driver\src/uart_va108xx.c **** 		case VOR_UART_CONTROL_DEFRTS_ENABLE:   UART->reg->CTRL |= UART_PERIPHERAL_CTRL_DEFRTS_Msk; break;
 1547              		.loc 1 456 0
 1548 03ce 8022     		movs	r2, #128	@ tmp118,
 1549              	@ .\driver\src\uart_va108xx.c:460: 	return 0;
 457:.\driver\src/uart_va108xx.c **** 		case VOR_UART_CONTROL_DEFRTS_DISABLE:  UART->reg->CTRL &= ~UART_PERIPHERAL_CTRL_DEFRTS_Msk; break
 458:.\driver\src/uart_va108xx.c **** 		default:              return -1;
 459:.\driver\src/uart_va108xx.c **** 	}
 460:.\driver\src/uart_va108xx.c **** 	return 0;
 1550              		.loc 1 460 0
 1551 03d0 0020     		movs	r0, #0	@ <retval>,
 1552              	.LVL123:
 1553              	@ .\driver\src\uart_va108xx.c:456: 		case VOR_UART_CONTROL_DEFRTS_ENABLE:   UART->reg->CTRL |= UART
 456:.\driver\src/uart_va108xx.c **** 		case VOR_UART_CONTROL_DEFRTS_DISABLE:  UART->reg->CTRL &= ~UART_PERIPHERAL_CTRL_DEFRTS_Msk; break
 1554              		.loc 1 456 0
 1555 03d2 9968     		ldr	r1, [r3, #8]	@ _2, _1->CTRL
 1556              	.LVL124:
 1557 03d4 9200     		lsls	r2, r2, #2	@ tmp118, tmp118,
 1558 03d6 0A43     		orrs	r2, r1	@ _3, _2
 1559 03d8 9A60     		str	r2, [r3, #8]	@ _3, _1->CTRL
 1560              	.L122:
 1561              	@ .\driver\src\uart_va108xx.c:461: }
 461:.\driver\src/uart_va108xx.c **** }
 1562              		.loc 1 461 0
 1563              		@ sp needed	@
 1564 03da 7047     		bx	lr
 1565              	.LVL125:
 1566              	.L124:
 1567              	@ .\driver\src\uart_va108xx.c:457: 		case VOR_UART_CONTROL_DEFRTS_DISABLE:  UART->reg->CTRL &= ~UAR
 457:.\driver\src/uart_va108xx.c **** 		case VOR_UART_CONTROL_DEFRTS_DISABLE:  UART->reg->CTRL &= ~UART_PERIPHERAL_CTRL_DEFRTS_Msk; break
 1568              		.loc 1 457 0
 1569 03dc 9A68     		ldr	r2, [r3, #8]	@ _4, _1->CTRL
 1570 03de 0449     		ldr	r1, .L131	@ tmp119,
 1571              	.LVL126:
 1572 03e0 0A40     		ands	r2, r1	@ _5, tmp119
 1573 03e2 9A60     		str	r2, [r3, #8]	@ _5, _1->CTRL
 1574 03e4 F9E7     		b	.L122	@
 1575              	.LVL127:
 1576              	.L127:
 1577              	@ .\driver\src\uart_va108xx.c:452: 	  return VOR_DRIVER_ERROR_PARAMETER;
 452:.\driver\src/uart_va108xx.c **** 	
ARM GAS  C:\Users\claym\AppData\Local\Temp\cc2sTfd9.s 			page 45


 1578              		.loc 1 452 0
 1579 03e6 0520     		movs	r0, #5	@ <retval>,
 1580              	.LVL128:
 1581              	.L130:
 1582              	@ .\driver\src\uart_va108xx.c:458: 		default:              return -1;
 458:.\driver\src/uart_va108xx.c **** 	}
 1583              		.loc 1 458 0
 1584 03e8 4042     		rsbs	r0, r0, #0	@ <retval>, <retval>
 1585 03ea F6E7     		b	.L122	@
 1586              	.LVL129:
 1587              	.L129:
 1588 03ec 0120     		movs	r0, #1	@ <retval>,
 1589              	.LVL130:
 1590 03ee FBE7     		b	.L130	@
 1591              	.L132:
 1592              		.align	2
 1593              	.L131:
 1594 03f0 FFFDFFFF 		.word	-513
 1595              		.cfi_endproc
 1596              	.LFE47:
 1597              		.size	VOR_UART_DEFRTS, .-VOR_UART_DEFRTS
 1598              		.align	1
 1599              		.global	VOR_UART_AutoRTS
 1600              		.syntax unified
 1601              		.code	16
 1602              		.thumb_func
 1603              		.fpu softvfp
 1604              		.type	VOR_UART_AutoRTS, %function
 1605              	VOR_UART_AutoRTS:
 1606              	.LFB48:
 462:.\driver\src/uart_va108xx.c **** 
 463:.\driver\src/uart_va108xx.c **** /**
 464:.\driver\src/uart_va108xx.c ****   function:    int32_t VOR_UART_AutoRTS(uint32_t arg,UART_RESOURCES *UART)
 465:.\driver\src/uart_va108xx.c ****   brief:       Enable or disable AutoRTS mode
 466:.\driver\src/uart_va108xx.c ****   Input:       arg  select AutoRTS
 467:.\driver\src/uart_va108xx.c ****   Input:       UART Pointer to UART resources
 468:.\driver\src/uart_va108xx.c ****   return:      execution_status
 469:.\driver\src/uart_va108xx.c **** */
 470:.\driver\src/uart_va108xx.c **** int32_t VOR_UART_AutoRTS(uint32_t arg,UART_RESOURCES *UART)
 471:.\driver\src/uart_va108xx.c **** {
 1607              		.loc 1 471 0
 1608              		.cfi_startproc
 1609              		@ args = 0, pretend = 0, frame = 0
 1610              		@ frame_needed = 0, uses_anonymous_args = 0
 1611              		@ link register save eliminated.
 1612              	.LVL131:
 1613              	@ .\driver\src\uart_va108xx.c:472: 	if((UART == NULL) || (UART->reg ==NULL))
 472:.\driver\src/uart_va108xx.c **** 	if((UART == NULL) || (UART->reg ==NULL))
 1614              		.loc 1 472 0
 1615 03f4 0029     		cmp	r1, #0	@ UART,
 1616 03f6 12D0     		beq	.L138	@,
 1617              	@ .\driver\src\uart_va108xx.c:472: 	if((UART == NULL) || (UART->reg ==NULL))
 1618              		.loc 1 472 0 is_stmt 0 discriminator 1
 1619 03f8 4B68     		ldr	r3, [r1, #4]	@ _1, UART_8(D)->reg
 1620 03fa 002B     		cmp	r3, #0	@ _1,
 1621 03fc 0FD0     		beq	.L138	@,
 1622              	@ .\driver\src\uart_va108xx.c:475: 	switch(arg)
ARM GAS  C:\Users\claym\AppData\Local\Temp\cc2sTfd9.s 			page 46


 473:.\driver\src/uart_va108xx.c **** 	  return VOR_DRIVER_ERROR_PARAMETER;
 474:.\driver\src/uart_va108xx.c **** 	
 475:.\driver\src/uart_va108xx.c **** 	switch(arg)
 1623              		.loc 1 475 0 is_stmt 1
 1624 03fe 0028     		cmp	r0, #0	@ arg,
 1625 0400 08D0     		beq	.L135	@,
 1626 0402 0128     		cmp	r0, #1	@ arg,
 1627 0404 0ED1     		bne	.L140	@,
 1628              	@ .\driver\src\uart_va108xx.c:477: 		case VOR_UART_CONTROL_AUTORTS_ENABLE:  UART->reg->CTRL |= UART
 476:.\driver\src/uart_va108xx.c **** 	{
 477:.\driver\src/uart_va108xx.c **** 		case VOR_UART_CONTROL_AUTORTS_ENABLE:  UART->reg->CTRL |= UART_PERIPHERAL_CTRL_AUTORTS_Msk; break
 1629              		.loc 1 477 0
 1630 0406 8022     		movs	r2, #128	@ tmp118,
 1631              	@ .\driver\src\uart_va108xx.c:481: 	return 0;
 478:.\driver\src/uart_va108xx.c **** 		case VOR_UART_CONTROL_AUTORTS_DISABLE: UART->reg->CTRL &= ~UART_PERIPHERAL_CTRL_AUTORTS_Msk; brea
 479:.\driver\src/uart_va108xx.c ****     default:              return -1;
 480:.\driver\src/uart_va108xx.c **** 	}
 481:.\driver\src/uart_va108xx.c **** 	return 0;
 1632              		.loc 1 481 0
 1633 0408 0020     		movs	r0, #0	@ <retval>,
 1634              	.LVL132:
 1635              	@ .\driver\src\uart_va108xx.c:477: 		case VOR_UART_CONTROL_AUTORTS_ENABLE:  UART->reg->CTRL |= UART
 477:.\driver\src/uart_va108xx.c **** 		case VOR_UART_CONTROL_AUTORTS_DISABLE: UART->reg->CTRL &= ~UART_PERIPHERAL_CTRL_AUTORTS_Msk; brea
 1636              		.loc 1 477 0
 1637 040a 9968     		ldr	r1, [r3, #8]	@ _2, _1->CTRL
 1638              	.LVL133:
 1639 040c D200     		lsls	r2, r2, #3	@ tmp118, tmp118,
 1640 040e 0A43     		orrs	r2, r1	@ _3, _2
 1641 0410 9A60     		str	r2, [r3, #8]	@ _3, _1->CTRL
 1642              	.L133:
 1643              	@ .\driver\src\uart_va108xx.c:482: }
 482:.\driver\src/uart_va108xx.c **** }
 1644              		.loc 1 482 0
 1645              		@ sp needed	@
 1646 0412 7047     		bx	lr
 1647              	.LVL134:
 1648              	.L135:
 1649              	@ .\driver\src\uart_va108xx.c:478: 		case VOR_UART_CONTROL_AUTORTS_DISABLE: UART->reg->CTRL &= ~UAR
 478:.\driver\src/uart_va108xx.c **** 		case VOR_UART_CONTROL_AUTORTS_DISABLE: UART->reg->CTRL &= ~UART_PERIPHERAL_CTRL_AUTORTS_Msk; brea
 1650              		.loc 1 478 0
 1651 0414 9A68     		ldr	r2, [r3, #8]	@ _4, _1->CTRL
 1652 0416 0449     		ldr	r1, .L142	@ tmp119,
 1653              	.LVL135:
 1654 0418 0A40     		ands	r2, r1	@ _5, tmp119
 1655 041a 9A60     		str	r2, [r3, #8]	@ _5, _1->CTRL
 1656 041c F9E7     		b	.L133	@
 1657              	.LVL136:
 1658              	.L138:
 1659              	@ .\driver\src\uart_va108xx.c:473: 	  return VOR_DRIVER_ERROR_PARAMETER;
 473:.\driver\src/uart_va108xx.c **** 	
 1660              		.loc 1 473 0
 1661 041e 0520     		movs	r0, #5	@ <retval>,
 1662              	.LVL137:
 1663              	.L141:
 1664              	@ .\driver\src\uart_va108xx.c:479:     default:              return -1;
 479:.\driver\src/uart_va108xx.c **** 	}
 1665              		.loc 1 479 0
ARM GAS  C:\Users\claym\AppData\Local\Temp\cc2sTfd9.s 			page 47


 1666 0420 4042     		rsbs	r0, r0, #0	@ <retval>, <retval>
 1667 0422 F6E7     		b	.L133	@
 1668              	.LVL138:
 1669              	.L140:
 1670 0424 0120     		movs	r0, #1	@ <retval>,
 1671              	.LVL139:
 1672 0426 FBE7     		b	.L141	@
 1673              	.L143:
 1674              		.align	2
 1675              	.L142:
 1676 0428 FFFBFFFF 		.word	-1025
 1677              		.cfi_endproc
 1678              	.LFE48:
 1679              		.size	VOR_UART_AutoRTS, .-VOR_UART_AutoRTS
 1680              		.align	1
 1681              		.global	VOR_UART_TX
 1682              		.syntax unified
 1683              		.code	16
 1684              		.thumb_func
 1685              		.fpu softvfp
 1686              		.type	VOR_UART_TX, %function
 1687              	VOR_UART_TX:
 1688              	.LFB49:
 483:.\driver\src/uart_va108xx.c **** 
 484:.\driver\src/uart_va108xx.c **** /**
 485:.\driver\src/uart_va108xx.c ****   function:    int32_t VOR_UART_TX(uint32_t arg,UART_RESOURCES *UART)
 486:.\driver\src/uart_va108xx.c ****   brief:       Enable or disable UART transmission
 487:.\driver\src/uart_va108xx.c ****   Input:       arg  set or clear TX of UART
 488:.\driver\src/uart_va108xx.c ****   Input:       UART Pointer to UART resources
 489:.\driver\src/uart_va108xx.c ****   return:      execution_status
 490:.\driver\src/uart_va108xx.c **** */
 491:.\driver\src/uart_va108xx.c **** int32_t VOR_UART_TX(uint32_t arg,UART_RESOURCES *UART)
 492:.\driver\src/uart_va108xx.c **** {
 1689              		.loc 1 492 0
 1690              		.cfi_startproc
 1691              		@ args = 0, pretend = 0, frame = 0
 1692              		@ frame_needed = 0, uses_anonymous_args = 0
 1693              		@ link register save eliminated.
 1694              	.LVL140:
 1695              	@ .\driver\src\uart_va108xx.c:493: 	if((UART == NULL) || (UART->reg ==NULL))
 493:.\driver\src/uart_va108xx.c **** 	if((UART == NULL) || (UART->reg ==NULL))
 1696              		.loc 1 493 0
 1697 042c 0029     		cmp	r1, #0	@ UART,
 1698 042e 11D0     		beq	.L149	@,
 1699              	@ .\driver\src\uart_va108xx.c:493: 	if((UART == NULL) || (UART->reg ==NULL))
 1700              		.loc 1 493 0 is_stmt 0 discriminator 1
 1701 0430 4B68     		ldr	r3, [r1, #4]	@ _1, UART_8(D)->reg
 1702 0432 002B     		cmp	r3, #0	@ _1,
 1703 0434 0ED0     		beq	.L149	@,
 1704              	@ .\driver\src\uart_va108xx.c:496: 	switch(arg)
 494:.\driver\src/uart_va108xx.c **** 	  return VOR_DRIVER_ERROR_PARAMETER;
 495:.\driver\src/uart_va108xx.c **** 	
 496:.\driver\src/uart_va108xx.c **** 	switch(arg)
 1705              		.loc 1 496 0 is_stmt 1
 1706 0436 0028     		cmp	r0, #0	@ arg,
 1707 0438 07D0     		beq	.L146	@,
 1708 043a 0128     		cmp	r0, #1	@ arg,
ARM GAS  C:\Users\claym\AppData\Local\Temp\cc2sTfd9.s 			page 48


 1709 043c 0DD1     		bne	.L151	@,
 1710              	@ .\driver\src\uart_va108xx.c:498: 		case VOR_UART_CONTROL_TX_ENABLE:       UART->reg->ENABLE |= UA
 497:.\driver\src/uart_va108xx.c **** 	{
 498:.\driver\src/uart_va108xx.c **** 		case VOR_UART_CONTROL_TX_ENABLE:       UART->reg->ENABLE |= UART_PERIPHERAL_ENABLE_TXENABLE_Msk; 
 1711              		.loc 1 498 0
 1712 043e 0222     		movs	r2, #2	@ tmp118,
 1713              	@ .\driver\src\uart_va108xx.c:502: 	return 0;
 499:.\driver\src/uart_va108xx.c **** 		case VOR_UART_CONTROL_TX_DISABLE:      UART->reg->ENABLE &= ~UART_PERIPHERAL_ENABLE_TXENABLE_Msk;
 500:.\driver\src/uart_va108xx.c ****     default:              return -1;
 501:.\driver\src/uart_va108xx.c **** 	}
 502:.\driver\src/uart_va108xx.c **** 	return 0;
 1714              		.loc 1 502 0
 1715 0440 0020     		movs	r0, #0	@ <retval>,
 1716              	.LVL141:
 1717              	@ .\driver\src\uart_va108xx.c:498: 		case VOR_UART_CONTROL_TX_ENABLE:       UART->reg->ENABLE |= UA
 498:.\driver\src/uart_va108xx.c **** 		case VOR_UART_CONTROL_TX_DISABLE:      UART->reg->ENABLE &= ~UART_PERIPHERAL_ENABLE_TXENABLE_Msk;
 1718              		.loc 1 498 0
 1719 0442 5968     		ldr	r1, [r3, #4]	@ _2, _1->ENABLE
 1720              	.LVL142:
 1721 0444 0A43     		orrs	r2, r1	@ _3, _2
 1722 0446 5A60     		str	r2, [r3, #4]	@ _3, _1->ENABLE
 1723              	.L144:
 1724              	@ .\driver\src\uart_va108xx.c:503: }
 503:.\driver\src/uart_va108xx.c **** }
 1725              		.loc 1 503 0
 1726              		@ sp needed	@
 1727 0448 7047     		bx	lr
 1728              	.LVL143:
 1729              	.L146:
 1730              	@ .\driver\src\uart_va108xx.c:499: 		case VOR_UART_CONTROL_TX_DISABLE:      UART->reg->ENABLE &= ~U
 499:.\driver\src/uart_va108xx.c **** 		case VOR_UART_CONTROL_TX_DISABLE:      UART->reg->ENABLE &= ~UART_PERIPHERAL_ENABLE_TXENABLE_Msk;
 1731              		.loc 1 499 0
 1732 044a 0221     		movs	r1, #2	@ tmp119,
 1733              	.LVL144:
 1734 044c 5A68     		ldr	r2, [r3, #4]	@ _4, _1->ENABLE
 1735 044e 8A43     		bics	r2, r1	@ _5, tmp119
 1736 0450 5A60     		str	r2, [r3, #4]	@ _5, _1->ENABLE
 1737 0452 F9E7     		b	.L144	@
 1738              	.LVL145:
 1739              	.L149:
 1740              	@ .\driver\src\uart_va108xx.c:494: 	  return VOR_DRIVER_ERROR_PARAMETER;
 494:.\driver\src/uart_va108xx.c **** 	
 1741              		.loc 1 494 0
 1742 0454 0520     		movs	r0, #5	@ <retval>,
 1743              	.LVL146:
 1744              	.L152:
 1745              	@ .\driver\src\uart_va108xx.c:500:     default:              return -1;
 500:.\driver\src/uart_va108xx.c **** 	}
 1746              		.loc 1 500 0
 1747 0456 4042     		rsbs	r0, r0, #0	@ <retval>, <retval>
 1748 0458 F6E7     		b	.L144	@
 1749              	.LVL147:
 1750              	.L151:
 1751 045a 0120     		movs	r0, #1	@ <retval>,
 1752              	.LVL148:
 1753 045c FBE7     		b	.L152	@
 1754              		.cfi_endproc
ARM GAS  C:\Users\claym\AppData\Local\Temp\cc2sTfd9.s 			page 49


 1755              	.LFE49:
 1756              		.size	VOR_UART_TX, .-VOR_UART_TX
 1757              		.align	1
 1758              		.global	VOR_UART_RX
 1759              		.syntax unified
 1760              		.code	16
 1761              		.thumb_func
 1762              		.fpu softvfp
 1763              		.type	VOR_UART_RX, %function
 1764              	VOR_UART_RX:
 1765              	.LFB50:
 504:.\driver\src/uart_va108xx.c **** 
 505:.\driver\src/uart_va108xx.c **** /**
 506:.\driver\src/uart_va108xx.c ****   function:    int32_t VOR_UART_RX(uint32_t arg,UART_RESOURCES *UART)
 507:.\driver\src/uart_va108xx.c ****   brief:       Enable or disable UART receiver
 508:.\driver\src/uart_va108xx.c ****   Input:       arg  set or clear RX of UART
 509:.\driver\src/uart_va108xx.c ****   Input:       UART Pointer to UART resources
 510:.\driver\src/uart_va108xx.c ****   return:      execution_status
 511:.\driver\src/uart_va108xx.c **** */
 512:.\driver\src/uart_va108xx.c **** int32_t VOR_UART_RX(uint32_t arg,UART_RESOURCES *UART)
 513:.\driver\src/uart_va108xx.c **** {
 1766              		.loc 1 513 0
 1767              		.cfi_startproc
 1768              		@ args = 0, pretend = 0, frame = 0
 1769              		@ frame_needed = 0, uses_anonymous_args = 0
 1770              		@ link register save eliminated.
 1771              	.LVL149:
 1772              	@ .\driver\src\uart_va108xx.c:514: 	if((UART == NULL) || (UART->reg ==NULL))
 514:.\driver\src/uart_va108xx.c **** 	if((UART == NULL) || (UART->reg ==NULL))
 1773              		.loc 1 514 0
 1774 045e 0029     		cmp	r1, #0	@ UART,
 1775 0460 10D0     		beq	.L158	@,
 1776              	@ .\driver\src\uart_va108xx.c:514: 	if((UART == NULL) || (UART->reg ==NULL))
 1777              		.loc 1 514 0 is_stmt 0 discriminator 1
 1778 0462 4B68     		ldr	r3, [r1, #4]	@ _1, UART_8(D)->reg
 1779 0464 002B     		cmp	r3, #0	@ _1,
 1780 0466 0DD0     		beq	.L158	@,
 1781              	@ .\driver\src\uart_va108xx.c:517: 	switch(arg)
 515:.\driver\src/uart_va108xx.c **** 	  return VOR_DRIVER_ERROR_PARAMETER;
 516:.\driver\src/uart_va108xx.c **** 	
 517:.\driver\src/uart_va108xx.c **** 	switch(arg)
 1782              		.loc 1 517 0 is_stmt 1
 1783 0468 0028     		cmp	r0, #0	@ arg,
 1784 046a 06D0     		beq	.L155	@,
 1785 046c 0128     		cmp	r0, #1	@ arg,
 1786 046e 0CD1     		bne	.L160	@,
 1787              	@ .\driver\src\uart_va108xx.c:519: 		case VOR_UART_CONTROL_RX_ENABLE: 			UART->reg->ENABLE |= UART_
 518:.\driver\src/uart_va108xx.c **** 	{
 519:.\driver\src/uart_va108xx.c **** 		case VOR_UART_CONTROL_RX_ENABLE: 			UART->reg->ENABLE |= UART_PERIPHERAL_ENABLE_RXENABLE_Msk; bre
 1788              		.loc 1 519 0
 1789 0470 5A68     		ldr	r2, [r3, #4]	@ _2, _1->ENABLE
 1790 0472 1043     		orrs	r0, r2	@ _3, _2
 1791              	.LVL150:
 1792 0474 5860     		str	r0, [r3, #4]	@ _3, _1->ENABLE
 1793              	@ .\driver\src\uart_va108xx.c:523: 	return 0;
 520:.\driver\src/uart_va108xx.c **** 		case VOR_UART_CONTROL_RX_DISABLE:			UART->reg->ENABLE &= ~UART_PERIPHERAL_ENABLE_RXENABLE_Msk; br
 521:.\driver\src/uart_va108xx.c **** 	  default:              return -1;
ARM GAS  C:\Users\claym\AppData\Local\Temp\cc2sTfd9.s 			page 50


 522:.\driver\src/uart_va108xx.c **** 	}
 523:.\driver\src/uart_va108xx.c **** 	return 0;
 1794              		.loc 1 523 0
 1795 0476 0020     		movs	r0, #0	@ <retval>,
 1796              	.LVL151:
 1797              	.L153:
 1798              	@ .\driver\src\uart_va108xx.c:524: }
 524:.\driver\src/uart_va108xx.c **** }
 1799              		.loc 1 524 0
 1800              		@ sp needed	@
 1801 0478 7047     		bx	lr
 1802              	.LVL152:
 1803              	.L155:
 1804              	@ .\driver\src\uart_va108xx.c:520: 		case VOR_UART_CONTROL_RX_DISABLE:			UART->reg->ENABLE &= ~UART
 520:.\driver\src/uart_va108xx.c **** 		case VOR_UART_CONTROL_RX_DISABLE:			UART->reg->ENABLE &= ~UART_PERIPHERAL_ENABLE_RXENABLE_Msk; br
 1805              		.loc 1 520 0
 1806 047a 0121     		movs	r1, #1	@ tmp119,
 1807              	.LVL153:
 1808 047c 5A68     		ldr	r2, [r3, #4]	@ _4, _1->ENABLE
 1809 047e 8A43     		bics	r2, r1	@ _5, tmp119
 1810 0480 5A60     		str	r2, [r3, #4]	@ _5, _1->ENABLE
 1811 0482 F9E7     		b	.L153	@
 1812              	.LVL154:
 1813              	.L158:
 1814              	@ .\driver\src\uart_va108xx.c:515: 	  return VOR_DRIVER_ERROR_PARAMETER;
 515:.\driver\src/uart_va108xx.c **** 	
 1815              		.loc 1 515 0
 1816 0484 0520     		movs	r0, #5	@ <retval>,
 1817              	.LVL155:
 1818              	.L161:
 1819              	@ .\driver\src\uart_va108xx.c:521: 	  default:              return -1;
 521:.\driver\src/uart_va108xx.c **** 	}
 1820              		.loc 1 521 0
 1821 0486 4042     		rsbs	r0, r0, #0	@ <retval>, <retval>
 1822 0488 F6E7     		b	.L153	@
 1823              	.LVL156:
 1824              	.L160:
 1825 048a 0120     		movs	r0, #1	@ <retval>,
 1826              	.LVL157:
 1827 048c FBE7     		b	.L161	@
 1828              		.cfi_endproc
 1829              	.LFE50:
 1830              		.size	VOR_UART_RX, .-VOR_UART_RX
 1831              		.align	1
 1832              		.global	VOR_UART_Break
 1833              		.syntax unified
 1834              		.code	16
 1835              		.thumb_func
 1836              		.fpu softvfp
 1837              		.type	VOR_UART_Break, %function
 1838              	VOR_UART_Break:
 1839              	.LFB51:
 525:.\driver\src/uart_va108xx.c **** 
 526:.\driver\src/uart_va108xx.c **** /**
 527:.\driver\src/uart_va108xx.c ****   function:    int32_t VOR_UART_Break(uint32_t arg,UART_RESOURCES *UART)
 528:.\driver\src/uart_va108xx.c ****   brief:       The TXBREAK register provides a method of transmitting a break.
 529:.\driver\src/uart_va108xx.c ****   Input:       arg  Specifies the break duration 
ARM GAS  C:\Users\claym\AppData\Local\Temp\cc2sTfd9.s 			page 51


 530:.\driver\src/uart_va108xx.c ****   Input:       UART Pointer to UART resources
 531:.\driver\src/uart_va108xx.c ****   return:      execution_status
 532:.\driver\src/uart_va108xx.c **** */
 533:.\driver\src/uart_va108xx.c **** int32_t VOR_UART_Break(int32_t arg,UART_RESOURCES *UART)
 534:.\driver\src/uart_va108xx.c **** {
 1840              		.loc 1 534 0
 1841              		.cfi_startproc
 1842              		@ args = 0, pretend = 0, frame = 0
 1843              		@ frame_needed = 0, uses_anonymous_args = 0
 1844              		@ link register save eliminated.
 1845              	.LVL158:
 1846              	@ .\driver\src\uart_va108xx.c:535: 	if((UART == NULL) || (UART->reg ==NULL))
 535:.\driver\src/uart_va108xx.c **** 	if((UART == NULL) || (UART->reg ==NULL))
 1847              		.loc 1 535 0
 1848 048e 0029     		cmp	r1, #0	@ UART,
 1849 0490 16D0     		beq	.L168	@,
 1850              	@ .\driver\src\uart_va108xx.c:535: 	if((UART == NULL) || (UART->reg ==NULL))
 1851              		.loc 1 535 0 is_stmt 0 discriminator 1
 1852 0492 4B68     		ldr	r3, [r1, #4]	@ _1, UART_13(D)->reg
 1853 0494 002B     		cmp	r3, #0	@ _1,
 1854 0496 13D0     		beq	.L168	@,
 1855              	@ .\driver\src\uart_va108xx.c:538: 	if(arg >= 0 && arg<=0x7F)
 536:.\driver\src/uart_va108xx.c **** 	  return VOR_DRIVER_ERROR_PARAMETER;
 537:.\driver\src/uart_va108xx.c **** 	
 538:.\driver\src/uart_va108xx.c **** 	if(arg >= 0 && arg<=0x7F)
 1856              		.loc 1 538 0 is_stmt 1
 1857 0498 7F28     		cmp	r0, #127	@ arg,
 1858 049a 14D8     		bhi	.L169	@,
 1859              	@ .\driver\src\uart_va108xx.c:543: 		  case VOR_UART_CONTROL_BREAK_RESET:                UART->reg-
 539:.\driver\src/uart_va108xx.c **** 	{
 540:.\driver\src/uart_va108xx.c **** 	  switch(arg)
 541:.\driver\src/uart_va108xx.c **** 	  {
 542:.\driver\src/uart_va108xx.c **** 	  	case VOR_UART_CONTROL_BREAK_CONTINOUS_COUNT:      UART->reg->TXBREAK   |=  (VOR_UART_CONTROL_BR
 543:.\driver\src/uart_va108xx.c **** 		  case VOR_UART_CONTROL_BREAK_RESET:                UART->reg->TXBREAK   &=  ~(VOR_UART_CONTROL_B
 1860              		.loc 1 543 0
 1861 049c DA69     		ldr	r2, [r3, #28]	@ _5,
 1862              	@ .\driver\src\uart_va108xx.c:540: 	  switch(arg)
 540:.\driver\src/uart_va108xx.c **** 	  {
 1863              		.loc 1 540 0
 1864 049e 0028     		cmp	r0, #0	@ arg,
 1865 04a0 05D0     		beq	.L165	@,
 1866 04a2 7F28     		cmp	r0, #127	@ arg,
 1867 04a4 07D1     		bne	.L170	@,
 1868              	.LVL159:
 1869              	.L171:
 1870              	@ .\driver\src\uart_va108xx.c:545: 	                                	   UART->reg->TXBREAK   |=  (a
 544:.\driver\src/uart_va108xx.c **** 		  default :                        UART->reg->TXBREAK   &=  ~(VOR_UART_CONTROL_BREAK_CONTINOUS_CO
 545:.\driver\src/uart_va108xx.c **** 	                                	   UART->reg->TXBREAK   |=  (arg<<UART_BREAK_BIT);  break;
 1871              		.loc 1 545 0
 1872 04a6 1043     		orrs	r0, r2	@ _10, _9
 1873              	.LVL160:
 1874 04a8 D861     		str	r0, [r3, #28]	@ _10,
 1875              	@ .\driver\src\uart_va108xx.c:547: 	return 0;
 546:.\driver\src/uart_va108xx.c **** 	   }
 547:.\driver\src/uart_va108xx.c **** 	return 0;
 1876              		.loc 1 547 0
 1877 04aa 0020     		movs	r0, #0	@ arg,
ARM GAS  C:\Users\claym\AppData\Local\Temp\cc2sTfd9.s 			page 52


 1878              	@ .\driver\src\uart_va108xx.c:545: 	                                	   UART->reg->TXBREAK   |=  (a
 545:.\driver\src/uart_va108xx.c **** 	   }
 1879              		.loc 1 545 0
 1880 04ac 02E0     		b	.L163	@
 1881              	.LVL161:
 1882              	.L165:
 1883              	@ .\driver\src\uart_va108xx.c:543: 		  case VOR_UART_CONTROL_BREAK_RESET:                UART->reg-
 543:.\driver\src/uart_va108xx.c **** 		  default :                        UART->reg->TXBREAK   &=  ~(VOR_UART_CONTROL_BREAK_CONTINOUS_CO
 1884              		.loc 1 543 0
 1885 04ae 7F21     		movs	r1, #127	@ tmp124,
 1886              	.LVL162:
 1887 04b0 8A43     		bics	r2, r1	@ _6, tmp124
 1888 04b2 DA61     		str	r2, [r3, #28]	@ _6, _1->TXBREAK
 1889              	.LVL163:
 1890              	.L163:
 1891              	@ .\driver\src\uart_va108xx.c:551: }
 548:.\driver\src/uart_va108xx.c ****   }
 549:.\driver\src/uart_va108xx.c ****   else 
 550:.\driver\src/uart_va108xx.c **** 	  return -1;
 551:.\driver\src/uart_va108xx.c **** }
 1892              		.loc 1 551 0
 1893              		@ sp needed	@
 1894 04b4 7047     		bx	lr
 1895              	.LVL164:
 1896              	.L170:
 1897              	@ .\driver\src\uart_va108xx.c:544: 		  default :                        UART->reg->TXBREAK   &=  ~(
 544:.\driver\src/uart_va108xx.c **** 	                                	   UART->reg->TXBREAK   |=  (arg<<UART_BREAK_BIT);  break;
 1898              		.loc 1 544 0
 1899 04b6 7F21     		movs	r1, #127	@ tmp125,
 1900              	.LVL165:
 1901 04b8 8A43     		bics	r2, r1	@ _8, tmp125
 1902 04ba DA61     		str	r2, [r3, #28]	@ _8, _1->TXBREAK
 1903              	@ .\driver\src\uart_va108xx.c:545: 	                                	   UART->reg->TXBREAK   |=  (a
 545:.\driver\src/uart_va108xx.c **** 	   }
 1904              		.loc 1 545 0
 1905 04bc DA69     		ldr	r2, [r3, #28]	@ _9, _1->TXBREAK
 1906 04be F2E7     		b	.L171	@
 1907              	.LVL166:
 1908              	.L168:
 1909              	@ .\driver\src\uart_va108xx.c:536: 	  return VOR_DRIVER_ERROR_PARAMETER;
 536:.\driver\src/uart_va108xx.c **** 	
 1910              		.loc 1 536 0
 1911 04c0 0520     		movs	r0, #5	@ arg,
 1912              	.LVL167:
 1913              	.L172:
 1914              	@ .\driver\src\uart_va108xx.c:550: 	  return -1;
 550:.\driver\src/uart_va108xx.c **** }
 1915              		.loc 1 550 0
 1916 04c2 4042     		rsbs	r0, r0, #0	@ arg, arg
 1917 04c4 F6E7     		b	.L163	@
 1918              	.LVL168:
 1919              	.L169:
 1920 04c6 0120     		movs	r0, #1	@ arg,
 1921              	.LVL169:
 1922 04c8 FBE7     		b	.L172	@
 1923              		.cfi_endproc
 1924              	.LFE51:
ARM GAS  C:\Users\claym\AppData\Local\Temp\cc2sTfd9.s 			page 53


 1925              		.size	VOR_UART_Break, .-VOR_UART_Break
 1926              		.align	1
 1927              		.global	VOR_UART_RXFIFOIRQTRG
 1928              		.syntax unified
 1929              		.code	16
 1930              		.thumb_func
 1931              		.fpu softvfp
 1932              		.type	VOR_UART_RXFIFOIRQTRG, %function
 1933              	VOR_UART_RXFIFOIRQTRG:
 1934              	.LFB52:
 552:.\driver\src/uart_va108xx.c **** 
 553:.\driver\src/uart_va108xx.c **** /**
 554:.\driver\src/uart_va108xx.c ****   function:    int32_t VOR_UART_RXFIFOIRQTRG(uint32_t arg,UART_RESOURCES *UART)
 555:.\driver\src/uart_va108xx.c ****   brief:       The RXFIFOIRQTRG register configures the RX FIFO half full level.
 556:.\driver\src/uart_va108xx.c ****   Input:       arg  level RX of FIFO full
 557:.\driver\src/uart_va108xx.c ****   Input:       UART Pointer to UART resources
 558:.\driver\src/uart_va108xx.c ****   return:      execution_status
 559:.\driver\src/uart_va108xx.c **** */
 560:.\driver\src/uart_va108xx.c **** int32_t VOR_UART_RXFIFOIRQTRG(uint32_t arg,UART_RESOURCES *UART)
 561:.\driver\src/uart_va108xx.c **** {
 1935              		.loc 1 561 0
 1936              		.cfi_startproc
 1937              		@ args = 0, pretend = 0, frame = 0
 1938              		@ frame_needed = 0, uses_anonymous_args = 0
 1939              		@ link register save eliminated.
 1940              	.LVL170:
 1941              	@ .\driver\src\uart_va108xx.c:562: 	if((UART == NULL) || (UART->reg ==NULL))
 562:.\driver\src/uart_va108xx.c **** 	if((UART == NULL) || (UART->reg ==NULL))
 1942              		.loc 1 562 0
 1943 04ca 0029     		cmp	r1, #0	@ UART,
 1944 04cc 0DD0     		beq	.L176	@,
 1945              	@ .\driver\src\uart_va108xx.c:562: 	if((UART == NULL) || (UART->reg ==NULL))
 1946              		.loc 1 562 0 is_stmt 0 discriminator 1
 1947 04ce 4B68     		ldr	r3, [r1, #4]	@ _1, UART_8(D)->reg
 1948 04d0 002B     		cmp	r3, #0	@ _1,
 1949 04d2 0AD0     		beq	.L176	@,
 1950              	@ .\driver\src\uart_va108xx.c:565: 	if(arg<=RXFIFOIRQTRG_MASK)
 563:.\driver\src/uart_va108xx.c **** 	  return VOR_DRIVER_ERROR_PARAMETER;
 564:.\driver\src/uart_va108xx.c **** 	
 565:.\driver\src/uart_va108xx.c **** 	if(arg<=RXFIFOIRQTRG_MASK)
 1951              		.loc 1 565 0 is_stmt 1
 1952 04d4 1F28     		cmp	r0, #31	@ arg,
 1953 04d6 0BD8     		bhi	.L177	@,
 1954              	@ .\driver\src\uart_va108xx.c:567: 	 UART->reg->RXFIFOIRQTRG   &=  ~(RXFIFOIRQTRG_MASK<<UART_RXFIFO
 566:.\driver\src/uart_va108xx.c **** 	{
 567:.\driver\src/uart_va108xx.c **** 	 UART->reg->RXFIFOIRQTRG   &=  ~(RXFIFOIRQTRG_MASK<<UART_RXFIFOIRQTRG_BIT);
 1955              		.loc 1 567 0
 1956 04d8 1F21     		movs	r1, #31	@ tmp118,
 1957              	.LVL171:
 1958 04da 9A6B     		ldr	r2, [r3, #56]	@ _2, _1->RXFIFOIRQTRG
 1959 04dc 8A43     		bics	r2, r1	@ _3, tmp118
 1960 04de 9A63     		str	r2, [r3, #56]	@ _3, _1->RXFIFOIRQTRG
 1961              	@ .\driver\src\uart_va108xx.c:568:    UART->reg->RXFIFOIRQTRG   |=  (arg<<UART_RXFIFOIRQTRG_BIT);
 568:.\driver\src/uart_va108xx.c ****    UART->reg->RXFIFOIRQTRG   |=  (arg<<UART_RXFIFOIRQTRG_BIT);
 1962              		.loc 1 568 0
 1963 04e0 9A6B     		ldr	r2, [r3, #56]	@ _4, _1->RXFIFOIRQTRG
 1964 04e2 1043     		orrs	r0, r2	@ _5, _4
ARM GAS  C:\Users\claym\AppData\Local\Temp\cc2sTfd9.s 			page 54


 1965              	.LVL172:
 1966 04e4 9863     		str	r0, [r3, #56]	@ _5, _1->RXFIFOIRQTRG
 1967              	@ .\driver\src\uart_va108xx.c:569: 	 return 0;
 569:.\driver\src/uart_va108xx.c **** 	 return 0;
 1968              		.loc 1 569 0
 1969 04e6 0020     		movs	r0, #0	@ <retval>,
 1970              	.L173:
 1971              	@ .\driver\src\uart_va108xx.c:573: }
 570:.\driver\src/uart_va108xx.c ****   }
 571:.\driver\src/uart_va108xx.c **** 	else
 572:.\driver\src/uart_va108xx.c **** 		return -1;		
 573:.\driver\src/uart_va108xx.c **** }
 1972              		.loc 1 573 0
 1973              		@ sp needed	@
 1974 04e8 7047     		bx	lr
 1975              	.LVL173:
 1976              	.L176:
 1977              	@ .\driver\src\uart_va108xx.c:563: 	  return VOR_DRIVER_ERROR_PARAMETER;
 563:.\driver\src/uart_va108xx.c **** 	
 1978              		.loc 1 563 0
 1979 04ea 0520     		movs	r0, #5	@ <retval>,
 1980              	.LVL174:
 1981              	.L178:
 1982              	@ .\driver\src\uart_va108xx.c:572: 		return -1;		
 572:.\driver\src/uart_va108xx.c **** }
 1983              		.loc 1 572 0
 1984 04ec 4042     		rsbs	r0, r0, #0	@ <retval>, <retval>
 1985 04ee FBE7     		b	.L173	@
 1986              	.LVL175:
 1987              	.L177:
 1988 04f0 0120     		movs	r0, #1	@ <retval>,
 1989              	.LVL176:
 1990 04f2 FBE7     		b	.L178	@
 1991              		.cfi_endproc
 1992              	.LFE52:
 1993              		.size	VOR_UART_RXFIFOIRQTRG, .-VOR_UART_RXFIFOIRQTRG
 1994              		.align	1
 1995              		.global	VOR_UART_TXFIFOIRQTRG
 1996              		.syntax unified
 1997              		.code	16
 1998              		.thumb_func
 1999              		.fpu softvfp
 2000              		.type	VOR_UART_TXFIFOIRQTRG, %function
 2001              	VOR_UART_TXFIFOIRQTRG:
 2002              	.LFB53:
 574:.\driver\src/uart_va108xx.c **** 
 575:.\driver\src/uart_va108xx.c **** /**
 576:.\driver\src/uart_va108xx.c ****   function:    int32_t VOR_UART_TXFIFOIRQTRG(uint32_t arg,UART_RESOURCES *UART)
 577:.\driver\src/uart_va108xx.c ****   brief:       The TXFIFOIRQTRG register configures the TX FIFO half full level.
 578:.\driver\src/uart_va108xx.c ****   Input:       arg  level of TX FIFO full
 579:.\driver\src/uart_va108xx.c ****   Input:       UART Pointer to UART resources
 580:.\driver\src/uart_va108xx.c ****   return:      execution_status
 581:.\driver\src/uart_va108xx.c **** */
 582:.\driver\src/uart_va108xx.c **** int32_t VOR_UART_TXFIFOIRQTRG(uint32_t arg,UART_RESOURCES *UART)
 583:.\driver\src/uart_va108xx.c **** {
 2003              		.loc 1 583 0
 2004              		.cfi_startproc
ARM GAS  C:\Users\claym\AppData\Local\Temp\cc2sTfd9.s 			page 55


 2005              		@ args = 0, pretend = 0, frame = 0
 2006              		@ frame_needed = 0, uses_anonymous_args = 0
 2007              		@ link register save eliminated.
 2008              	.LVL177:
 2009              	@ .\driver\src\uart_va108xx.c:584: 	if((UART == NULL) || (UART->reg ==NULL))
 584:.\driver\src/uart_va108xx.c **** 	if((UART == NULL) || (UART->reg ==NULL))
 2010              		.loc 1 584 0
 2011 04f4 0029     		cmp	r1, #0	@ UART,
 2012 04f6 0DD0     		beq	.L182	@,
 2013              	@ .\driver\src\uart_va108xx.c:584: 	if((UART == NULL) || (UART->reg ==NULL))
 2014              		.loc 1 584 0 is_stmt 0 discriminator 1
 2015 04f8 4B68     		ldr	r3, [r1, #4]	@ _1, UART_8(D)->reg
 2016 04fa 002B     		cmp	r3, #0	@ _1,
 2017 04fc 0AD0     		beq	.L182	@,
 2018              	@ .\driver\src\uart_va108xx.c:587: 	if(arg<=TXFIFOIRQTRG_MASK)
 585:.\driver\src/uart_va108xx.c **** 	  return VOR_DRIVER_ERROR_PARAMETER;
 586:.\driver\src/uart_va108xx.c **** 	
 587:.\driver\src/uart_va108xx.c **** 	if(arg<=TXFIFOIRQTRG_MASK)
 2019              		.loc 1 587 0 is_stmt 1
 2020 04fe 1F28     		cmp	r0, #31	@ arg,
 2021 0500 0BD8     		bhi	.L183	@,
 2022              	@ .\driver\src\uart_va108xx.c:589: 	 UART->reg->TXFIFOIRQTRG   &=  ~(TXFIFOIRQTRG_MASK<<UART_TXFIFO
 588:.\driver\src/uart_va108xx.c **** 	{
 589:.\driver\src/uart_va108xx.c **** 	 UART->reg->TXFIFOIRQTRG   &=  ~(TXFIFOIRQTRG_MASK<<UART_TXFIFOIRQTRG_BIT);
 2023              		.loc 1 589 0
 2024 0502 1F21     		movs	r1, #31	@ tmp118,
 2025              	.LVL178:
 2026 0504 DA6B     		ldr	r2, [r3, #60]	@ _2, _1->TXFIFOIRQTRG
 2027 0506 8A43     		bics	r2, r1	@ _3, tmp118
 2028 0508 DA63     		str	r2, [r3, #60]	@ _3, _1->TXFIFOIRQTRG
 2029              	@ .\driver\src\uart_va108xx.c:590:    UART->reg->TXFIFOIRQTRG   |=  (arg<<UART_TXFIFOIRQTRG_BIT);
 590:.\driver\src/uart_va108xx.c ****    UART->reg->TXFIFOIRQTRG   |=  (arg<<UART_TXFIFOIRQTRG_BIT);
 2030              		.loc 1 590 0
 2031 050a DA6B     		ldr	r2, [r3, #60]	@ _4, _1->TXFIFOIRQTRG
 2032 050c 1043     		orrs	r0, r2	@ _5, _4
 2033              	.LVL179:
 2034 050e D863     		str	r0, [r3, #60]	@ _5, _1->TXFIFOIRQTRG
 2035              	@ .\driver\src\uart_va108xx.c:591: 	 return 0;
 591:.\driver\src/uart_va108xx.c **** 	 return 0;
 2036              		.loc 1 591 0
 2037 0510 0020     		movs	r0, #0	@ <retval>,
 2038              	.L179:
 2039              	@ .\driver\src\uart_va108xx.c:594: }
 592:.\driver\src/uart_va108xx.c ****   }else
 593:.\driver\src/uart_va108xx.c **** 		return -1;	
 594:.\driver\src/uart_va108xx.c **** }
 2040              		.loc 1 594 0
 2041              		@ sp needed	@
 2042 0512 7047     		bx	lr
 2043              	.LVL180:
 2044              	.L182:
 2045              	@ .\driver\src\uart_va108xx.c:585: 	  return VOR_DRIVER_ERROR_PARAMETER;
 585:.\driver\src/uart_va108xx.c **** 	
 2046              		.loc 1 585 0
 2047 0514 0520     		movs	r0, #5	@ <retval>,
 2048              	.LVL181:
 2049              	.L184:
ARM GAS  C:\Users\claym\AppData\Local\Temp\cc2sTfd9.s 			page 56


 2050              	@ .\driver\src\uart_va108xx.c:593: 		return -1;	
 593:.\driver\src/uart_va108xx.c **** }
 2051              		.loc 1 593 0
 2052 0516 4042     		rsbs	r0, r0, #0	@ <retval>, <retval>
 2053 0518 FBE7     		b	.L179	@
 2054              	.LVL182:
 2055              	.L183:
 2056 051a 0120     		movs	r0, #1	@ <retval>,
 2057              	.LVL183:
 2058 051c FBE7     		b	.L184	@
 2059              		.cfi_endproc
 2060              	.LFE53:
 2061              		.size	VOR_UART_TXFIFOIRQTRG, .-VOR_UART_TXFIFOIRQTRG
 2062              		.align	1
 2063              		.global	VOR_UART_RXFIFORTSTRG
 2064              		.syntax unified
 2065              		.code	16
 2066              		.thumb_func
 2067              		.fpu softvfp
 2068              		.type	VOR_UART_RXFIFORTSTRG, %function
 2069              	VOR_UART_RXFIFORTSTRG:
 2070              	.LFB54:
 595:.\driver\src/uart_va108xx.c **** 
 596:.\driver\src/uart_va108xx.c **** /**
 597:.\driver\src/uart_va108xx.c ****   function:    int32_t VOR_UART_RXFIFORTSTRG(uint32_t arg,UART_RESOURCES *UART)
 598:.\driver\src/uart_va108xx.c ****   brief:       The RXFIFORTSTRG register configures the TX FIFO level for AUTORTS mode.
 599:.\driver\src/uart_va108xx.c ****   Input:       arg  level of RXFIFORTSTRG
 600:.\driver\src/uart_va108xx.c ****   Input:       UART Pointer to UART resources
 601:.\driver\src/uart_va108xx.c ****   return:      execution_status
 602:.\driver\src/uart_va108xx.c **** */
 603:.\driver\src/uart_va108xx.c **** int32_t VOR_UART_RXFIFORTSTRG(uint32_t arg,UART_RESOURCES *UART)
 604:.\driver\src/uart_va108xx.c **** {
 2071              		.loc 1 604 0
 2072              		.cfi_startproc
 2073              		@ args = 0, pretend = 0, frame = 0
 2074              		@ frame_needed = 0, uses_anonymous_args = 0
 2075              		@ link register save eliminated.
 2076              	.LVL184:
 2077              	@ .\driver\src\uart_va108xx.c:605: 	if((UART == NULL) || (UART->reg ==NULL))
 605:.\driver\src/uart_va108xx.c **** 	if((UART == NULL) || (UART->reg ==NULL))
 2078              		.loc 1 605 0
 2079 051e 0029     		cmp	r1, #0	@ UART,
 2080 0520 0DD0     		beq	.L188	@,
 2081              	@ .\driver\src\uart_va108xx.c:605: 	if((UART == NULL) || (UART->reg ==NULL))
 2082              		.loc 1 605 0 is_stmt 0 discriminator 1
 2083 0522 4B68     		ldr	r3, [r1, #4]	@ _1, UART_8(D)->reg
 2084 0524 002B     		cmp	r3, #0	@ _1,
 2085 0526 0AD0     		beq	.L188	@,
 2086              	@ .\driver\src\uart_va108xx.c:608: 	if(arg<=TXFIFOIRQTRG_MASK)
 606:.\driver\src/uart_va108xx.c **** 	  return VOR_DRIVER_ERROR_PARAMETER;
 607:.\driver\src/uart_va108xx.c **** 	
 608:.\driver\src/uart_va108xx.c **** 	if(arg<=TXFIFOIRQTRG_MASK)
 2087              		.loc 1 608 0 is_stmt 1
 2088 0528 1F28     		cmp	r0, #31	@ arg,
 2089 052a 0BD8     		bhi	.L189	@,
 2090              	@ .\driver\src\uart_va108xx.c:610: 	 UART->reg->RXFIFORTSTRG   &=  ~(RXFIFORTSTRG_MASK<<UART_RXFIFO
 609:.\driver\src/uart_va108xx.c **** 	{
ARM GAS  C:\Users\claym\AppData\Local\Temp\cc2sTfd9.s 			page 57


 610:.\driver\src/uart_va108xx.c **** 	 UART->reg->RXFIFORTSTRG   &=  ~(RXFIFORTSTRG_MASK<<UART_RXFIFORTSTRG_BIT);
 2091              		.loc 1 610 0
 2092 052c 1F21     		movs	r1, #31	@ tmp118,
 2093              	.LVL185:
 2094 052e 1A6C     		ldr	r2, [r3, #64]	@ _2, _1->RXFIFORTSTRG
 2095 0530 8A43     		bics	r2, r1	@ _3, tmp118
 2096 0532 1A64     		str	r2, [r3, #64]	@ _3, _1->RXFIFORTSTRG
 2097              	@ .\driver\src\uart_va108xx.c:611:    UART->reg->RXFIFORTSTRG   |=  (arg<<UART_RXFIFORTSTRG_BIT);
 611:.\driver\src/uart_va108xx.c ****    UART->reg->RXFIFORTSTRG   |=  (arg<<UART_RXFIFORTSTRG_BIT);
 2098              		.loc 1 611 0
 2099 0534 1A6C     		ldr	r2, [r3, #64]	@ _4, _1->RXFIFORTSTRG
 2100 0536 1043     		orrs	r0, r2	@ _5, _4
 2101              	.LVL186:
 2102 0538 1864     		str	r0, [r3, #64]	@ _5, _1->RXFIFORTSTRG
 2103              	@ .\driver\src\uart_va108xx.c:612: 	 return 0;
 612:.\driver\src/uart_va108xx.c **** 	 return 0;
 2104              		.loc 1 612 0
 2105 053a 0020     		movs	r0, #0	@ <retval>,
 2106              	.L185:
 2107              	@ .\driver\src\uart_va108xx.c:615: }
 613:.\driver\src/uart_va108xx.c ****   }else
 614:.\driver\src/uart_va108xx.c **** 		return -1;
 615:.\driver\src/uart_va108xx.c **** }
 2108              		.loc 1 615 0
 2109              		@ sp needed	@
 2110 053c 7047     		bx	lr
 2111              	.LVL187:
 2112              	.L188:
 2113              	@ .\driver\src\uart_va108xx.c:606: 	  return VOR_DRIVER_ERROR_PARAMETER;
 606:.\driver\src/uart_va108xx.c **** 	
 2114              		.loc 1 606 0
 2115 053e 0520     		movs	r0, #5	@ <retval>,
 2116              	.LVL188:
 2117              	.L190:
 2118              	@ .\driver\src\uart_va108xx.c:614: 		return -1;
 614:.\driver\src/uart_va108xx.c **** }
 2119              		.loc 1 614 0
 2120 0540 4042     		rsbs	r0, r0, #0	@ <retval>, <retval>
 2121 0542 FBE7     		b	.L185	@
 2122              	.LVL189:
 2123              	.L189:
 2124 0544 0120     		movs	r0, #1	@ <retval>,
 2125              	.LVL190:
 2126 0546 FBE7     		b	.L190	@
 2127              		.cfi_endproc
 2128              	.LFE54:
 2129              		.size	VOR_UART_RXFIFORTSTRG, .-VOR_UART_RXFIFORTSTRG
 2130              		.align	1
 2131              		.global	VOR_UART_ENB9BIT
 2132              		.syntax unified
 2133              		.code	16
 2134              		.thumb_func
 2135              		.fpu softvfp
 2136              		.type	VOR_UART_ENB9BIT, %function
 2137              	VOR_UART_ENB9BIT:
 2138              	.LFB55:
 616:.\driver\src/uart_va108xx.c **** 
ARM GAS  C:\Users\claym\AppData\Local\Temp\cc2sTfd9.s 			page 58


 617:.\driver\src/uart_va108xx.c **** /**
 618:.\driver\src/uart_va108xx.c ****   function:    int32_t VOR_UART_ENB9BIT(uint32_t arg,UART_RESOURCES *UART)
 619:.\driver\src/uart_va108xx.c ****   brief:       Enable or Disable 9-bit mode
 620:.\driver\src/uart_va108xx.c ****   Input:       arg set or clear ENB9BIT
 621:.\driver\src/uart_va108xx.c ****   Input:       UART Pointer to UART resources
 622:.\driver\src/uart_va108xx.c ****   return:      execution_status
 623:.\driver\src/uart_va108xx.c **** */
 624:.\driver\src/uart_va108xx.c **** int32_t VOR_UART_ENB9BIT(uint32_t arg,UART_RESOURCES *UART)
 625:.\driver\src/uart_va108xx.c **** {
 2139              		.loc 1 625 0
 2140              		.cfi_startproc
 2141              		@ args = 0, pretend = 0, frame = 0
 2142              		@ frame_needed = 0, uses_anonymous_args = 0
 2143              		@ link register save eliminated.
 2144              	.LVL191:
 2145              	@ .\driver\src\uart_va108xx.c:626: 	if((UART == NULL) || (UART->reg ==NULL))
 626:.\driver\src/uart_va108xx.c **** 	if((UART == NULL) || (UART->reg ==NULL))
 2146              		.loc 1 626 0
 2147 0548 0029     		cmp	r1, #0	@ UART,
 2148 054a 12D0     		beq	.L196	@,
 2149              	@ .\driver\src\uart_va108xx.c:626: 	if((UART == NULL) || (UART->reg ==NULL))
 2150              		.loc 1 626 0 is_stmt 0 discriminator 1
 2151 054c 4B68     		ldr	r3, [r1, #4]	@ _1, UART_8(D)->reg
 2152 054e 002B     		cmp	r3, #0	@ _1,
 2153 0550 0FD0     		beq	.L196	@,
 2154              	@ .\driver\src\uart_va108xx.c:629: 	switch(arg)
 627:.\driver\src/uart_va108xx.c **** 	  return VOR_DRIVER_ERROR_PARAMETER;
 628:.\driver\src/uart_va108xx.c ****    
 629:.\driver\src/uart_va108xx.c **** 	switch(arg)
 2155              		.loc 1 629 0 is_stmt 1
 2156 0552 0028     		cmp	r0, #0	@ arg,
 2157 0554 08D0     		beq	.L193	@,
 2158 0556 0128     		cmp	r0, #1	@ arg,
 2159 0558 0ED1     		bne	.L198	@,
 2160              	@ .\driver\src\uart_va108xx.c:631: 		 case VOR_UART_CONTROL_ENB9BIT_ENABLE:  UART->reg->ADDR9   |= 
 630:.\driver\src/uart_va108xx.c **** 	 {
 631:.\driver\src/uart_va108xx.c **** 		 case VOR_UART_CONTROL_ENB9BIT_ENABLE:  UART->reg->ADDR9   |=  (1<<UART_ENB9BIT_BIT);  break;
 2161              		.loc 1 631 0
 2162 055a 8022     		movs	r2, #128	@ tmp118,
 2163              	@ .\driver\src\uart_va108xx.c:635: 	 return 0;
 632:.\driver\src/uart_va108xx.c **** 		 case VOR_UART_CONTROL_ENB9BIT_DISABLE: UART->reg->ADDR9   &=  ~(1<<UART_ENB9BIT_BIT); break;
 633:.\driver\src/uart_va108xx.c **** 		 default:              return -1;
 634:.\driver\src/uart_va108xx.c **** 	 }
 635:.\driver\src/uart_va108xx.c **** 	 return 0;
 2164              		.loc 1 635 0
 2165 055c 0020     		movs	r0, #0	@ <retval>,
 2166              	.LVL192:
 2167              	@ .\driver\src\uart_va108xx.c:631: 		 case VOR_UART_CONTROL_ENB9BIT_ENABLE:  UART->reg->ADDR9   |= 
 631:.\driver\src/uart_va108xx.c **** 		 case VOR_UART_CONTROL_ENB9BIT_DISABLE: UART->reg->ADDR9   &=  ~(1<<UART_ENB9BIT_BIT); break;
 2168              		.loc 1 631 0
 2169 055e 196A     		ldr	r1, [r3, #32]	@ _2, _1->ADDR9
 2170              	.LVL193:
 2171 0560 5202     		lsls	r2, r2, #9	@ tmp118, tmp118,
 2172 0562 0A43     		orrs	r2, r1	@ _3, _2
 2173 0564 1A62     		str	r2, [r3, #32]	@ _3, _1->ADDR9
 2174              	.L191:
 2175              	@ .\driver\src\uart_va108xx.c:636: }
ARM GAS  C:\Users\claym\AppData\Local\Temp\cc2sTfd9.s 			page 59


 636:.\driver\src/uart_va108xx.c **** }
 2176              		.loc 1 636 0
 2177              		@ sp needed	@
 2178 0566 7047     		bx	lr
 2179              	.LVL194:
 2180              	.L193:
 2181              	@ .\driver\src\uart_va108xx.c:632: 		 case VOR_UART_CONTROL_ENB9BIT_DISABLE: UART->reg->ADDR9   &= 
 632:.\driver\src/uart_va108xx.c **** 		 case VOR_UART_CONTROL_ENB9BIT_DISABLE: UART->reg->ADDR9   &=  ~(1<<UART_ENB9BIT_BIT); break;
 2182              		.loc 1 632 0
 2183 0568 1A6A     		ldr	r2, [r3, #32]	@ _4, _1->ADDR9
 2184 056a 0449     		ldr	r1, .L200	@ tmp119,
 2185              	.LVL195:
 2186 056c 0A40     		ands	r2, r1	@ _5, tmp119
 2187 056e 1A62     		str	r2, [r3, #32]	@ _5, _1->ADDR9
 2188 0570 F9E7     		b	.L191	@
 2189              	.LVL196:
 2190              	.L196:
 2191              	@ .\driver\src\uart_va108xx.c:627: 	  return VOR_DRIVER_ERROR_PARAMETER;
 627:.\driver\src/uart_va108xx.c ****    
 2192              		.loc 1 627 0
 2193 0572 0520     		movs	r0, #5	@ <retval>,
 2194              	.LVL197:
 2195              	.L199:
 2196              	@ .\driver\src\uart_va108xx.c:633: 		 default:              return -1;
 633:.\driver\src/uart_va108xx.c **** 	 }
 2197              		.loc 1 633 0
 2198 0574 4042     		rsbs	r0, r0, #0	@ <retval>, <retval>
 2199 0576 F6E7     		b	.L191	@
 2200              	.LVL198:
 2201              	.L198:
 2202 0578 0120     		movs	r0, #1	@ <retval>,
 2203              	.LVL199:
 2204 057a FBE7     		b	.L199	@
 2205              	.L201:
 2206              		.align	2
 2207              	.L200:
 2208 057c FFFFFEFF 		.word	-65537
 2209              		.cfi_endproc
 2210              	.LFE55:
 2211              		.size	VOR_UART_ENB9BIT, .-VOR_UART_ENB9BIT
 2212              		.align	1
 2213              		.global	VOR_UART_ADDR9MSK
 2214              		.syntax unified
 2215              		.code	16
 2216              		.thumb_func
 2217              		.fpu softvfp
 2218              		.type	VOR_UART_ADDR9MSK, %function
 2219              	VOR_UART_ADDR9MSK:
 2220              	.LFB56:
 637:.\driver\src/uart_va108xx.c **** 
 638:.\driver\src/uart_va108xx.c **** /**
 639:.\driver\src/uart_va108xx.c ****   function:    int32_t VOR_UART_ADDR9MSK(uint32_t arg,UART_RESOURCES *UART)
 640:.\driver\src/uart_va108xx.c ****   brief:       The ADDR9MASK register provides the mask register for checking addresses in 9-bit mo
 641:.\driver\src/uart_va108xx.c ****   Input:       arg set or clear ADDR9MSK
 642:.\driver\src/uart_va108xx.c ****   Input:       UART Pointer to UART resources
 643:.\driver\src/uart_va108xx.c ****   return:      execution_status
 644:.\driver\src/uart_va108xx.c **** */
ARM GAS  C:\Users\claym\AppData\Local\Temp\cc2sTfd9.s 			page 60


 645:.\driver\src/uart_va108xx.c **** int32_t VOR_UART_ADDR9MSK(uint32_t arg,UART_RESOURCES *UART)
 646:.\driver\src/uart_va108xx.c **** {
 2221              		.loc 1 646 0
 2222              		.cfi_startproc
 2223              		@ args = 0, pretend = 0, frame = 0
 2224              		@ frame_needed = 0, uses_anonymous_args = 0
 2225              		@ link register save eliminated.
 2226              	.LVL200:
 2227              	@ .\driver\src\uart_va108xx.c:647: 	if((UART == NULL) || (UART->reg ==NULL))
 647:.\driver\src/uart_va108xx.c **** 	if((UART == NULL) || (UART->reg ==NULL))
 2228              		.loc 1 647 0
 2229 0580 0029     		cmp	r1, #0	@ UART,
 2230 0582 0DD0     		beq	.L205	@,
 2231              	@ .\driver\src\uart_va108xx.c:647: 	if((UART == NULL) || (UART->reg ==NULL))
 2232              		.loc 1 647 0 is_stmt 0 discriminator 1
 2233 0584 4B68     		ldr	r3, [r1, #4]	@ _1, UART_8(D)->reg
 2234 0586 002B     		cmp	r3, #0	@ _1,
 2235 0588 0AD0     		beq	.L205	@,
 2236              	@ .\driver\src\uart_va108xx.c:650: 	if(arg<=ADDR9MSK_MASK)
 648:.\driver\src/uart_va108xx.c **** 	  return VOR_DRIVER_ERROR_PARAMETER;
 649:.\driver\src/uart_va108xx.c **** 	
 650:.\driver\src/uart_va108xx.c **** 	if(arg<=ADDR9MSK_MASK)
 2237              		.loc 1 650 0 is_stmt 1
 2238 058a FF28     		cmp	r0, #255	@ arg,
 2239 058c 0BD8     		bhi	.L206	@,
 2240              	@ .\driver\src\uart_va108xx.c:652: 	 UART->reg->ADDR9MASK   &=  ~(ADDR9MSK_MASK<<UART_ADDR9MSK_BIT)
 651:.\driver\src/uart_va108xx.c **** 	{
 652:.\driver\src/uart_va108xx.c **** 	 UART->reg->ADDR9MASK   &=  ~(ADDR9MSK_MASK<<UART_ADDR9MSK_BIT);
 2241              		.loc 1 652 0
 2242 058e FF21     		movs	r1, #255	@ tmp118,
 2243              	.LVL201:
 2244 0590 5A6A     		ldr	r2, [r3, #36]	@ _2, _1->ADDR9MASK
 2245 0592 8A43     		bics	r2, r1	@ _3, tmp118
 2246 0594 5A62     		str	r2, [r3, #36]	@ _3, _1->ADDR9MASK
 2247              	@ .\driver\src\uart_va108xx.c:653:    UART->reg->ADDR9MASK   |=  (arg<<UART_ADDR9MSK_BIT);
 653:.\driver\src/uart_va108xx.c ****    UART->reg->ADDR9MASK   |=  (arg<<UART_ADDR9MSK_BIT);
 2248              		.loc 1 653 0
 2249 0596 5A6A     		ldr	r2, [r3, #36]	@ _4, _1->ADDR9MASK
 2250 0598 1043     		orrs	r0, r2	@ _5, _4
 2251              	.LVL202:
 2252 059a 5862     		str	r0, [r3, #36]	@ _5, _1->ADDR9MASK
 2253              	@ .\driver\src\uart_va108xx.c:654: 	 return 0;
 654:.\driver\src/uart_va108xx.c **** 	 return 0;
 2254              		.loc 1 654 0
 2255 059c 0020     		movs	r0, #0	@ <retval>,
 2256              	.L202:
 2257              	@ .\driver\src\uart_va108xx.c:657: }
 655:.\driver\src/uart_va108xx.c ****   }else
 656:.\driver\src/uart_va108xx.c **** 		return -1;
 657:.\driver\src/uart_va108xx.c **** }
 2258              		.loc 1 657 0
 2259              		@ sp needed	@
 2260 059e 7047     		bx	lr
 2261              	.LVL203:
 2262              	.L205:
 2263              	@ .\driver\src\uart_va108xx.c:648: 	  return VOR_DRIVER_ERROR_PARAMETER;
 648:.\driver\src/uart_va108xx.c **** 	
ARM GAS  C:\Users\claym\AppData\Local\Temp\cc2sTfd9.s 			page 61


 2264              		.loc 1 648 0
 2265 05a0 0520     		movs	r0, #5	@ <retval>,
 2266              	.LVL204:
 2267              	.L207:
 2268              	@ .\driver\src\uart_va108xx.c:656: 		return -1;
 656:.\driver\src/uart_va108xx.c **** }
 2269              		.loc 1 656 0
 2270 05a2 4042     		rsbs	r0, r0, #0	@ <retval>, <retval>
 2271 05a4 FBE7     		b	.L202	@
 2272              	.LVL205:
 2273              	.L206:
 2274 05a6 0120     		movs	r0, #1	@ <retval>,
 2275              	.LVL206:
 2276 05a8 FBE7     		b	.L207	@
 2277              		.cfi_endproc
 2278              	.LFE56:
 2279              		.size	VOR_UART_ADDR9MSK, .-VOR_UART_ADDR9MSK
 2280              		.align	1
 2281              		.global	VOR_UART_FIFOCLR
 2282              		.syntax unified
 2283              		.code	16
 2284              		.thumb_func
 2285              		.fpu softvfp
 2286              		.type	VOR_UART_FIFOCLR, %function
 2287              	VOR_UART_FIFOCLR:
 2288              	.LFB57:
 658:.\driver\src/uart_va108xx.c **** 
 659:.\driver\src/uart_va108xx.c **** /**
 660:.\driver\src/uart_va108xx.c ****   function:    int32_t VOR_UART_FIFOCLR(uint32_t arg,UART_RESOURCES *UART)
 661:.\driver\src/uart_va108xx.c ****   brief:       The FIFO_CLR register provides write access for clearing status conditions.
 662:.\driver\src/uart_va108xx.c ****   Input:       arg clear FIFO
 663:.\driver\src/uart_va108xx.c ****   Input:       UART Pointer to UART resources
 664:.\driver\src/uart_va108xx.c ****   return:      execution_status
 665:.\driver\src/uart_va108xx.c **** */
 666:.\driver\src/uart_va108xx.c **** int32_t VOR_UART_FIFOCLR(uint32_t arg,UART_RESOURCES *UART)
 667:.\driver\src/uart_va108xx.c **** {
 2289              		.loc 1 667 0
 2290              		.cfi_startproc
 2291              		@ args = 0, pretend = 0, frame = 0
 2292              		@ frame_needed = 0, uses_anonymous_args = 0
 2293              	.LVL207:
 2294 05aa 00B5     		push	{lr}	@
 2295              	.LCFI8:
 2296              		.cfi_def_cfa_offset 4
 2297              		.cfi_offset 14, -4
 2298              	@ .\driver\src\uart_va108xx.c:668: 	if((UART == NULL) || (UART->reg ==NULL))
 668:.\driver\src/uart_va108xx.c **** 	if((UART == NULL) || (UART->reg ==NULL))
 2299              		.loc 1 668 0
 2300 05ac 0029     		cmp	r1, #0	@ UART,
 2301 05ae 14D0     		beq	.L216	@,
 2302              	@ .\driver\src\uart_va108xx.c:668: 	if((UART == NULL) || (UART->reg ==NULL))
 2303              		.loc 1 668 0 is_stmt 0 discriminator 1
 2304 05b0 4B68     		ldr	r3, [r1, #4]	@ _1, UART_12(D)->reg
 2305 05b2 002B     		cmp	r3, #0	@ _1,
 2306 05b4 11D0     		beq	.L216	@,
 2307              	@ .\driver\src\uart_va108xx.c:671: 	switch(arg)
 669:.\driver\src/uart_va108xx.c **** 	  return VOR_DRIVER_ERROR_PARAMETER;
ARM GAS  C:\Users\claym\AppData\Local\Temp\cc2sTfd9.s 			page 62


 670:.\driver\src/uart_va108xx.c **** 	 
 671:.\driver\src/uart_va108xx.c **** 	switch(arg)
 2308              		.loc 1 671 0 is_stmt 1
 2309 05b6 0328     		cmp	r0, #3	@ arg,
 2310 05b8 12D8     		bhi	.L217	@,
 2311              	@ .\driver\src\uart_va108xx.c:676: 		 case VOR_UART_CONTROL_UART_TXFIFO_BIT:   UART->reg->FIFO_CLR 
 672:.\driver\src/uart_va108xx.c **** 	 {
 673:.\driver\src/uart_va108xx.c **** 		 case VOR_UART_CONTROL_UART_RXSTS_BIT:    UART->reg->FIFO_CLR   |=  UART_PERIPHERAL_FIFO_CLR_RXST
 674:.\driver\src/uart_va108xx.c **** 		 case VOR_UART_CONTROL_UART_TXSTS_BIT:    UART->reg->FIFO_CLR   |=  UART_PERIPHERAL_FIFO_CLR_TXST
 675:.\driver\src/uart_va108xx.c **** 	   case VOR_UART_CONTROL_UART_RXFIFO_BIT:   UART->reg->FIFO_CLR   |=  UART_PERIPHERAL_FIFO_CLR_RXF
 676:.\driver\src/uart_va108xx.c **** 		 case VOR_UART_CONTROL_UART_TXFIFO_BIT:   UART->reg->FIFO_CLR   |=  UART_PERIPHERAL_FIFO_CLR_TXFI
 2312              		.loc 1 676 0
 2313 05ba 9969     		ldr	r1, [r3, #24]	@ _8,
 2314              	.LVL208:
 2315              	@ .\driver\src\uart_va108xx.c:671: 	switch(arg)
 671:.\driver\src/uart_va108xx.c **** 	 {
 2316              		.loc 1 671 0
 2317 05bc FFF7FEFF 		bl	__gnu_thumb1_case_uqi
 2318              	.L211:
 2319 05c0 02       		.byte	(.L210-.L211)/2
 2320 05c1 07       		.byte	(.L212-.L211)/2
 2321 05c2 09       		.byte	(.L213-.L211)/2
 2322 05c3 0B       		.byte	(.L214-.L211)/2
 2323              		.p2align 1
 2324              	.L210:
 2325              	@ .\driver\src\uart_va108xx.c:673: 		 case VOR_UART_CONTROL_UART_RXSTS_BIT:    UART->reg->FIFO_CLR 
 673:.\driver\src/uart_va108xx.c **** 		 case VOR_UART_CONTROL_UART_TXSTS_BIT:    UART->reg->FIFO_CLR   |=  UART_PERIPHERAL_FIFO_CLR_TXST
 2326              		.loc 1 673 0
 2327 05c4 0122     		movs	r2, #1	@ tmp122,
 2328              	.L219:
 2329              	@ .\driver\src\uart_va108xx.c:679: 	 return 0;
 677:.\driver\src/uart_va108xx.c **** 		 default:                return -1;
 678:.\driver\src/uart_va108xx.c **** 	 }
 679:.\driver\src/uart_va108xx.c **** 	 return 0;
 2330              		.loc 1 679 0
 2331 05c6 0020     		movs	r0, #0	@ <retval>,
 2332              	.LVL209:
 2333              	@ .\driver\src\uart_va108xx.c:676: 		 case VOR_UART_CONTROL_UART_TXFIFO_BIT:   UART->reg->FIFO_CLR 
 676:.\driver\src/uart_va108xx.c **** 		 default:                return -1;
 2334              		.loc 1 676 0
 2335 05c8 0A43     		orrs	r2, r1	@ _9, _8
 2336 05ca 9A61     		str	r2, [r3, #24]	@ _9,
 2337              	.L208:
 2338              	@ .\driver\src\uart_va108xx.c:680: }
 680:.\driver\src/uart_va108xx.c **** }
 2339              		.loc 1 680 0
 2340              		@ sp needed	@
 2341 05cc 00BD     		pop	{pc}
 2342              	.LVL210:
 2343              	.L212:
 2344              	@ .\driver\src\uart_va108xx.c:674: 		 case VOR_UART_CONTROL_UART_TXSTS_BIT:    UART->reg->FIFO_CLR 
 674:.\driver\src/uart_va108xx.c **** 	   case VOR_UART_CONTROL_UART_RXFIFO_BIT:   UART->reg->FIFO_CLR   |=  UART_PERIPHERAL_FIFO_CLR_RXF
 2345              		.loc 1 674 0
 2346 05ce 0222     		movs	r2, #2	@ tmp123,
 2347 05d0 F9E7     		b	.L219	@
 2348              	.L213:
 2349              	@ .\driver\src\uart_va108xx.c:675: 	   case VOR_UART_CONTROL_UART_RXFIFO_BIT:   UART->reg->FIFO_CLR
ARM GAS  C:\Users\claym\AppData\Local\Temp\cc2sTfd9.s 			page 63


 675:.\driver\src/uart_va108xx.c **** 		 case VOR_UART_CONTROL_UART_TXFIFO_BIT:   UART->reg->FIFO_CLR   |=  UART_PERIPHERAL_FIFO_CLR_TXFI
 2350              		.loc 1 675 0
 2351 05d2 0422     		movs	r2, #4	@ tmp124,
 2352 05d4 F7E7     		b	.L219	@
 2353              	.L214:
 2354              	@ .\driver\src\uart_va108xx.c:676: 		 case VOR_UART_CONTROL_UART_TXFIFO_BIT:   UART->reg->FIFO_CLR 
 676:.\driver\src/uart_va108xx.c **** 		 default:                return -1;
 2355              		.loc 1 676 0
 2356 05d6 0822     		movs	r2, #8	@ tmp125,
 2357 05d8 F5E7     		b	.L219	@
 2358              	.LVL211:
 2359              	.L216:
 2360              	@ .\driver\src\uart_va108xx.c:669: 	  return VOR_DRIVER_ERROR_PARAMETER;
 669:.\driver\src/uart_va108xx.c **** 	 
 2361              		.loc 1 669 0
 2362 05da 0520     		movs	r0, #5	@ <retval>,
 2363              	.LVL212:
 2364              	.L218:
 2365              	@ .\driver\src\uart_va108xx.c:677: 		 default:                return -1;
 677:.\driver\src/uart_va108xx.c **** 	 }
 2366              		.loc 1 677 0
 2367 05dc 4042     		rsbs	r0, r0, #0	@ <retval>, <retval>
 2368 05de F5E7     		b	.L208	@
 2369              	.LVL213:
 2370              	.L217:
 2371 05e0 0120     		movs	r0, #1	@ <retval>,
 2372              	.LVL214:
 2373 05e2 FBE7     		b	.L218	@
 2374              		.cfi_endproc
 2375              	.LFE57:
 2376              		.size	VOR_UART_FIFOCLR, .-VOR_UART_FIFOCLR
 2377              		.align	1
 2378              		.global	VOR_UART_PollMode
 2379              		.syntax unified
 2380              		.code	16
 2381              		.thumb_func
 2382              		.fpu softvfp
 2383              		.type	VOR_UART_PollMode, %function
 2384              	VOR_UART_PollMode:
 2385              	.LFB58:
 681:.\driver\src/uart_va108xx.c **** 
 682:.\driver\src/uart_va108xx.c **** /**
 683:.\driver\src/uart_va108xx.c ****   function:    int32_t VOR_UART_PollMode (uint32_t       arg, UART_RESOURCES *UART)
 684:.\driver\src/uart_va108xx.c ****   brief:       Set UART driver mode.
 685:.\driver\src/uart_va108xx.c ****   Input:       arg      argument of operation 
 686:.\driver\src/uart_va108xx.c ****   Input:       UART      pointer to UART resources
 687:.\driver\src/uart_va108xx.c ****   return:      execution_status
 688:.\driver\src/uart_va108xx.c **** */
 689:.\driver\src/uart_va108xx.c **** int32_t VOR_UART_PollMode (uint32_t       arg, UART_RESOURCES *UART) {
 2386              		.loc 1 689 0
 2387              		.cfi_startproc
 2388              		@ args = 0, pretend = 0, frame = 0
 2389              		@ frame_needed = 0, uses_anonymous_args = 0
 2390              		@ link register save eliminated.
 2391              	.LVL215:
 2392              	@ .\driver\src\uart_va108xx.c:690:   UART->info.poll_mode = arg;
 690:.\driver\src/uart_va108xx.c ****   UART->info.poll_mode = arg;
ARM GAS  C:\Users\claym\AppData\Local\Temp\cc2sTfd9.s 			page 64


 2393              		.loc 1 690 0
 2394 05e4 8861     		str	r0, [r1, #24]	@ arg, UART_2(D)->info.poll_mode
 2395              	@ .\driver\src\uart_va108xx.c:692: }
 691:.\driver\src/uart_va108xx.c ****   return VOR_DRIVER_OK;
 692:.\driver\src/uart_va108xx.c **** }
 2396              		.loc 1 692 0
 2397              		@ sp needed	@
 2398 05e6 0020     		movs	r0, #0	@,
 2399              	.LVL216:
 2400 05e8 7047     		bx	lr
 2401              		.cfi_endproc
 2402              	.LFE58:
 2403              		.size	VOR_UART_PollMode, .-VOR_UART_PollMode
 2404              		.align	1
 2405              		.global	VOR_UART_PollTimeOut
 2406              		.syntax unified
 2407              		.code	16
 2408              		.thumb_func
 2409              		.fpu softvfp
 2410              		.type	VOR_UART_PollTimeOut, %function
 2411              	VOR_UART_PollTimeOut:
 2412              	.LFB59:
 693:.\driver\src/uart_va108xx.c **** 
 694:.\driver\src/uart_va108xx.c **** /**
 695:.\driver\src/uart_va108xx.c ****   function:    int32_t VOR_UART_PollTimeOut (uint32_t       arg, UART_RESOURCES *UART)
 696:.\driver\src/uart_va108xx.c ****   brief:       Set UART Polling Mode Time out.
 697:.\driver\src/uart_va108xx.c ****   Input:       arg      argument of operation 
 698:.\driver\src/uart_va108xx.c ****   Input:       UART      pointer to UART resources
 699:.\driver\src/uart_va108xx.c ****   return:      execution_status
 700:.\driver\src/uart_va108xx.c **** */
 701:.\driver\src/uart_va108xx.c **** int32_t VOR_UART_PollTimeOut (uint32_t       arg, UART_RESOURCES *UART) {
 2413              		.loc 1 701 0
 2414              		.cfi_startproc
 2415              		@ args = 0, pretend = 0, frame = 0
 2416              		@ frame_needed = 0, uses_anonymous_args = 0
 2417              		@ link register save eliminated.
 2418              	.LVL217:
 2419              	@ .\driver\src\uart_va108xx.c:702:   UART->info.poll_tout = arg;
 702:.\driver\src/uart_va108xx.c ****   UART->info.poll_tout = arg;
 2420              		.loc 1 702 0
 2421 05ea C861     		str	r0, [r1, #28]	@ arg, UART_2(D)->info.poll_tout
 2422              	@ .\driver\src\uart_va108xx.c:704: }
 703:.\driver\src/uart_va108xx.c ****   return VOR_DRIVER_OK;
 704:.\driver\src/uart_va108xx.c **** }
 2423              		.loc 1 704 0
 2424              		@ sp needed	@
 2425 05ec 0020     		movs	r0, #0	@,
 2426              	.LVL218:
 2427 05ee 7047     		bx	lr
 2428              		.cfi_endproc
 2429              	.LFE59:
 2430              		.size	VOR_UART_PollTimeOut, .-VOR_UART_PollTimeOut
 2431              		.align	1
 2432              		.global	VOR_UART_abort_send
 2433              		.syntax unified
 2434              		.code	16
 2435              		.thumb_func
ARM GAS  C:\Users\claym\AppData\Local\Temp\cc2sTfd9.s 			page 65


 2436              		.fpu softvfp
 2437              		.type	VOR_UART_abort_send, %function
 2438              	VOR_UART_abort_send:
 2439              	.LFB60:
 705:.\driver\src/uart_va108xx.c **** 
 706:.\driver\src/uart_va108xx.c **** 
 707:.\driver\src/uart_va108xx.c **** int32_t VOR_UART_abort_send(uint32_t       arg, UART_RESOURCES *UART) {
 2440              		.loc 1 707 0
 2441              		.cfi_startproc
 2442              		@ args = 0, pretend = 0, frame = 0
 2443              		@ frame_needed = 0, uses_anonymous_args = 0
 2444              	.LVL219:
 2445              	@ .\driver\src\uart_va108xx.c:708:   UART->reg->IRQ_ENB &=  ~(UART_PERIPHERAL_IRQ_ENB_IRQ_TX_Msk | 
 708:.\driver\src/uart_va108xx.c ****   UART->reg->IRQ_ENB &=  ~(UART_PERIPHERAL_IRQ_ENB_IRQ_TX_Msk | \
 2446              		.loc 1 708 0
 2447 05f0 F020     		movs	r0, #240	@ tmp123,
 2448              	.LVL220:
 2449 05f2 4B68     		ldr	r3, [r1, #4]	@ _1, UART_14(D)->reg
 2450              	@ .\driver\src\uart_va108xx.c:707: int32_t VOR_UART_abort_send(uint32_t       arg, UART_RESOURCES *
 707:.\driver\src/uart_va108xx.c ****   UART->reg->IRQ_ENB &=  ~(UART_PERIPHERAL_IRQ_ENB_IRQ_TX_Msk | \
 2451              		.loc 1 707 0
 2452 05f4 10B5     		push	{r4, lr}	@
 2453              	.LCFI9:
 2454              		.cfi_def_cfa_offset 8
 2455              		.cfi_offset 4, -8
 2456              		.cfi_offset 14, -4
 2457              	@ .\driver\src\uart_va108xx.c:708:   UART->reg->IRQ_ENB &=  ~(UART_PERIPHERAL_IRQ_ENB_IRQ_TX_Msk | 
 2458              		.loc 1 708 0
 2459 05f6 9A6A     		ldr	r2, [r3, #40]	@ _2, _1->IRQ_ENB
 2460 05f8 8243     		bics	r2, r0	@ _4, tmp123
 2461 05fa 9A62     		str	r2, [r3, #40]	@ _4, _1->IRQ_ENB
 2462              	@ .\driver\src\uart_va108xx.c:712: 	UART->reg->FIFO_CLR |= (UART_PERIPHERAL_FIFO_CLR_TXSTS_Msk | \
 709:.\driver\src/uart_va108xx.c **** 	  	 							 UART_PERIPHERAL_IRQ_ENB_IRQ_TX_STATUS_Msk | \
 710:.\driver\src/uart_va108xx.c **** 							        UART_PERIPHERAL_IRQ_ENB_IRQ_TX_EMPTY_Msk | \
 711:.\driver\src/uart_va108xx.c **** 									      UART_PERIPHERAL_IRQ_ENB_IRQ_TX_CTS_Msk );		  
 712:.\driver\src/uart_va108xx.c **** 	UART->reg->FIFO_CLR |= (UART_PERIPHERAL_FIFO_CLR_TXSTS_Msk | \
 2463              		.loc 1 712 0
 2464 05fc 0A22     		movs	r2, #10	@ tmp124,
 2465 05fe 9869     		ldr	r0, [r3, #24]	@ _6, _1->FIFO_CLR
 2466 0600 0243     		orrs	r2, r0	@ _8, _6
 2467              	@ .\driver\src\uart_va108xx.c:715: 	UART->reg->ENABLE &= ~UART_PERIPHERAL_ENABLE_TXENABLE_Msk;
 713:.\driver\src/uart_va108xx.c **** 	                        UART_PERIPHERAL_FIFO_CLR_TXFIFO_Msk );
 714:.\driver\src/uart_va108xx.c **** 	// Stop Tranmiter
 715:.\driver\src/uart_va108xx.c **** 	UART->reg->ENABLE &= ~UART_PERIPHERAL_ENABLE_TXENABLE_Msk;
 2468              		.loc 1 715 0
 2469 0602 0220     		movs	r0, #2	@ tmp125,
 2470              	@ .\driver\src\uart_va108xx.c:712: 	UART->reg->FIFO_CLR |= (UART_PERIPHERAL_FIFO_CLR_TXSTS_Msk | \
 712:.\driver\src/uart_va108xx.c **** 	                        UART_PERIPHERAL_FIFO_CLR_TXFIFO_Msk );
 2471              		.loc 1 712 0
 2472 0604 9A61     		str	r2, [r3, #24]	@ _8, _1->FIFO_CLR
 2473              	@ .\driver\src\uart_va108xx.c:715: 	UART->reg->ENABLE &= ~UART_PERIPHERAL_ENABLE_TXENABLE_Msk;
 2474              		.loc 1 715 0
 2475 0606 5A68     		ldr	r2, [r3, #4]	@ _9, _1->ENABLE
 2476 0608 8243     		bics	r2, r0	@ _10, tmp125
 2477 060a 5A60     		str	r2, [r3, #4]	@ _10, _1->ENABLE
 2478              	@ .\driver\src\uart_va108xx.c:716: 	if(!(UART->reg->ENABLE&UART_PERIPHERAL_ENABLE_RXENABLE_Msk))
 716:.\driver\src/uart_va108xx.c **** 	if(!(UART->reg->ENABLE&UART_PERIPHERAL_ENABLE_RXENABLE_Msk))
ARM GAS  C:\Users\claym\AppData\Local\Temp\cc2sTfd9.s 			page 66


 2479              		.loc 1 716 0
 2480 060c 5B68     		ldr	r3, [r3, #4]	@ _11, _1->ENABLE
 2481 060e DB07     		lsls	r3, r3, #31	@ tmp129, _11,
 2482 0610 03D4     		bmi	.L223	@,
 2483              	.LVL221:
 2484              	.LBB56:
 2485              	.LBB57:
 2486              	@ .\driver\src\uart_va108xx.c:717:     VOR_Disable_Irq(VOR_IRQ_UART, UART->uart_id);
 717:.\driver\src/uart_va108xx.c ****     VOR_Disable_Irq(VOR_IRQ_UART, UART->uart_id);
 2487              		.loc 1 717 0
 2488 0612 0968     		ldr	r1, [r1]	@, UART_14(D)->uart_id
 2489              	.LVL222:
 2490 0614 0130     		adds	r0, r0, #1	@,
 2491 0616 FFF7FEFF 		bl	VOR_Disable_Irq	@
 2492              	.LVL223:
 2493              	.L223:
 2494              	.LBE57:
 2495              	.LBE56:
 2496              	@ .\driver\src\uart_va108xx.c:720: }
 718:.\driver\src/uart_va108xx.c **** 	
 719:.\driver\src/uart_va108xx.c ****   return VOR_DRIVER_OK;
 720:.\driver\src/uart_va108xx.c **** }
 2497              		.loc 1 720 0
 2498 061a 0020     		movs	r0, #0	@,
 2499              		@ sp needed	@
 2500 061c 10BD     		pop	{r4, pc}
 2501              		.cfi_endproc
 2502              	.LFE60:
 2503              		.size	VOR_UART_abort_send, .-VOR_UART_abort_send
 2504              		.align	1
 2505              		.global	VOR_UART_abort_recv
 2506              		.syntax unified
 2507              		.code	16
 2508              		.thumb_func
 2509              		.fpu softvfp
 2510              		.type	VOR_UART_abort_recv, %function
 2511              	VOR_UART_abort_recv:
 2512              	.LFB61:
 721:.\driver\src/uart_va108xx.c **** 
 722:.\driver\src/uart_va108xx.c **** int32_t VOR_UART_abort_recv(uint32_t       arg, UART_RESOURCES *UART) {
 2513              		.loc 1 722 0
 2514              		.cfi_startproc
 2515              		@ args = 0, pretend = 0, frame = 0
 2516              		@ frame_needed = 0, uses_anonymous_args = 0
 2517              	.LVL224:
 2518              	@ .\driver\src\uart_va108xx.c:723:    UART->reg->IRQ_ENB &= ~(UART_PERIPHERAL_IRQ_ENB_IRQ_RX_Msk | 
 723:.\driver\src/uart_va108xx.c ****    UART->reg->IRQ_ENB &= ~(UART_PERIPHERAL_IRQ_ENB_IRQ_RX_Msk | \
 2519              		.loc 1 723 0
 2520 061e 0720     		movs	r0, #7	@ tmp123,
 2521              	.LVL225:
 2522 0620 4B68     		ldr	r3, [r1, #4]	@ _1, UART_14(D)->reg
 2523              	@ .\driver\src\uart_va108xx.c:722: int32_t VOR_UART_abort_recv(uint32_t       arg, UART_RESOURCES *
 722:.\driver\src/uart_va108xx.c ****    UART->reg->IRQ_ENB &= ~(UART_PERIPHERAL_IRQ_ENB_IRQ_RX_Msk | \
 2524              		.loc 1 722 0
 2525 0622 10B5     		push	{r4, lr}	@
 2526              	.LCFI10:
 2527              		.cfi_def_cfa_offset 8
ARM GAS  C:\Users\claym\AppData\Local\Temp\cc2sTfd9.s 			page 67


 2528              		.cfi_offset 4, -8
 2529              		.cfi_offset 14, -4
 2530              	@ .\driver\src\uart_va108xx.c:723:    UART->reg->IRQ_ENB &= ~(UART_PERIPHERAL_IRQ_ENB_IRQ_RX_Msk | 
 2531              		.loc 1 723 0
 2532 0624 9A6A     		ldr	r2, [r3, #40]	@ _2, _1->IRQ_ENB
 2533 0626 8243     		bics	r2, r0	@ _4, tmp123
 2534 0628 9A62     		str	r2, [r3, #40]	@ _4, _1->IRQ_ENB
 2535              	@ .\driver\src\uart_va108xx.c:726: 	UART->reg->FIFO_CLR |= (UART_PERIPHERAL_FIFO_CLR_RXFIFO_Msk | \
 724:.\driver\src/uart_va108xx.c **** 			 							UART_PERIPHERAL_IRQ_ENB_IRQ_RX_STATUS_Msk | \
 725:.\driver\src/uart_va108xx.c **** 											UART_PERIPHERAL_IRQ_ENB_IRQ_RX_TO_Msk );
 726:.\driver\src/uart_va108xx.c **** 	UART->reg->FIFO_CLR |= (UART_PERIPHERAL_FIFO_CLR_RXFIFO_Msk | \
 2536              		.loc 1 726 0
 2537 062a 0522     		movs	r2, #5	@ tmp124,
 2538 062c 9869     		ldr	r0, [r3, #24]	@ _6, _1->FIFO_CLR
 2539 062e 0243     		orrs	r2, r0	@ _8, _6
 2540              	@ .\driver\src\uart_va108xx.c:729:    UART->reg->ENABLE &= ~UART_PERIPHERAL_ENABLE_RXENABLE_Msk;
 727:.\driver\src/uart_va108xx.c **** 	                        UART_PERIPHERAL_FIFO_CLR_RXSTS_Msk  );
 728:.\driver\src/uart_va108xx.c ****  	 // Stop Receiver
 729:.\driver\src/uart_va108xx.c ****    UART->reg->ENABLE &= ~UART_PERIPHERAL_ENABLE_RXENABLE_Msk;
 2541              		.loc 1 729 0
 2542 0630 0120     		movs	r0, #1	@ tmp125,
 2543              	@ .\driver\src\uart_va108xx.c:726: 	UART->reg->FIFO_CLR |= (UART_PERIPHERAL_FIFO_CLR_RXFIFO_Msk | \
 726:.\driver\src/uart_va108xx.c **** 	                        UART_PERIPHERAL_FIFO_CLR_RXSTS_Msk  );
 2544              		.loc 1 726 0
 2545 0632 9A61     		str	r2, [r3, #24]	@ _8, _1->FIFO_CLR
 2546              	@ .\driver\src\uart_va108xx.c:729:    UART->reg->ENABLE &= ~UART_PERIPHERAL_ENABLE_RXENABLE_Msk;
 2547              		.loc 1 729 0
 2548 0634 5A68     		ldr	r2, [r3, #4]	@ _9, _1->ENABLE
 2549 0636 8243     		bics	r2, r0	@ _10, tmp125
 2550 0638 5A60     		str	r2, [r3, #4]	@ _10, _1->ENABLE
 2551              	@ .\driver\src\uart_va108xx.c:730:    if(!(UART->reg->ENABLE&UART_PERIPHERAL_ENABLE_TXENABLE_Msk))
 730:.\driver\src/uart_va108xx.c ****    if(!(UART->reg->ENABLE&UART_PERIPHERAL_ENABLE_TXENABLE_Msk))
 2552              		.loc 1 730 0
 2553 063a 5B68     		ldr	r3, [r3, #4]	@ _11, _1->ENABLE
 2554 063c 9B07     		lsls	r3, r3, #30	@ tmp129, _11,
 2555 063e 03D4     		bmi	.L225	@,
 2556              	.LVL226:
 2557              	.LBB60:
 2558              	.LBB61:
 2559              	@ .\driver\src\uart_va108xx.c:717:     VOR_Disable_Irq(VOR_IRQ_UART, UART->uart_id);
 717:.\driver\src/uart_va108xx.c **** 	
 2560              		.loc 1 717 0
 2561 0640 0968     		ldr	r1, [r1]	@, UART_14(D)->uart_id
 2562              	.LVL227:
 2563 0642 0230     		adds	r0, r0, #2	@,
 2564 0644 FFF7FEFF 		bl	VOR_Disable_Irq	@
 2565              	.LVL228:
 2566              	.L225:
 2567              	.LBE61:
 2568              	.LBE60:
 2569              	@ .\driver\src\uart_va108xx.c:733: }
 731:.\driver\src/uart_va108xx.c ****      VOR_Disable_Irq(VOR_IRQ_UART, UART->uart_id);				 
 732:.\driver\src/uart_va108xx.c ****   return VOR_DRIVER_OK;
 733:.\driver\src/uart_va108xx.c **** }
 2570              		.loc 1 733 0
 2571 0648 0020     		movs	r0, #0	@,
 2572              		@ sp needed	@
ARM GAS  C:\Users\claym\AppData\Local\Temp\cc2sTfd9.s 			page 68


 2573 064a 10BD     		pop	{r4, pc}
 2574              		.cfi_endproc
 2575              	.LFE61:
 2576              		.size	VOR_UART_abort_recv, .-VOR_UART_abort_recv
 2577              		.align	1
 2578              		.global	UART_Control
 2579              		.syntax unified
 2580              		.code	16
 2581              		.thumb_func
 2582              		.fpu softvfp
 2583              		.type	UART_Control, %function
 2584              	UART_Control:
 2585              	.LFB62:
 734:.\driver\src/uart_va108xx.c **** 
 735:.\driver\src/uart_va108xx.c **** 
 736:.\driver\src/uart_va108xx.c **** /**
 737:.\driver\src/uart_va108xx.c ****   function:    int32_t UART_Control (uint32_t          control,
 738:.\driver\src/uart_va108xx.c ****                                       uint32_t          arg,
 739:.\driver\src/uart_va108xx.c ****                                       UART_RESOURCES  *UART)
 740:.\driver\src/uart_va108xx.c ****   brief:       Control UART Interface.
 741:.\driver\src/uart_va108xx.c ****   Input:       control  Operation
 742:.\driver\src/uart_va108xx.c ****   Input:       arg      Argument of operation (optional)
 743:.\driver\src/uart_va108xx.c ****   Input:       UART    Pointer to UART resources
 744:.\driver\src/uart_va108xx.c ****   return:      common execution_status and driver specific UART_execution_status
 745:.\driver\src/uart_va108xx.c **** */
 746:.\driver\src/uart_va108xx.c **** int32_t UART_Control (uint32_t control, uint32_t arg, UART_RESOURCES *UART)
 747:.\driver\src/uart_va108xx.c **** {
 2586              		.loc 1 747 0
 2587              		.cfi_startproc
 2588              		@ args = 0, pretend = 0, frame = 0
 2589              		@ frame_needed = 0, uses_anonymous_args = 0
 2590              	.LVL229:
 2591 064c 0B00     		movs	r3, r1	@ arg, arg
 2592 064e 10B5     		push	{r4, lr}	@
 2593              	.LCFI11:
 2594              		.cfi_def_cfa_offset 8
 2595              		.cfi_offset 4, -8
 2596              		.cfi_offset 14, -4
 2597              	@ .\driver\src\uart_va108xx.c:747: {
 2598              		.loc 1 747 0
 2599 0650 111E     		subs	r1, r2, #0	@ UART, UART,
 2600              	.LVL230:
 2601              	@ .\driver\src\uart_va108xx.c:748: 	if((UART == NULL) || (UART->reg ==NULL))
 748:.\driver\src/uart_va108xx.c **** 	if((UART == NULL) || (UART->reg ==NULL))
 2602              		.loc 1 748 0
 2603 0652 00D1     		bne	.LCB1911	@
 2604 0654 6FE0     		b	.L253	@long jump	@
 2605              	.LCB1911:
 2606              	@ .\driver\src\uart_va108xx.c:748: 	if((UART == NULL) || (UART->reg ==NULL))
 2607              		.loc 1 748 0 is_stmt 0 discriminator 1
 2608 0656 5268     		ldr	r2, [r2, #4]	@ tmp122, UART_6(D)->reg
 2609              	.LVL231:
 2610 0658 002A     		cmp	r2, #0	@ tmp122,
 2611 065a 00D1     		bne	.LCB1916	@
 2612 065c 6BE0     		b	.L253	@long jump	@
 2613              	.LCB1916:
 2614              	@ .\driver\src\uart_va108xx.c:751:   switch(control)
ARM GAS  C:\Users\claym\AppData\Local\Temp\cc2sTfd9.s 			page 69


 749:.\driver\src/uart_va108xx.c **** 	  return VOR_DRIVER_ERROR_PARAMETER;
 750:.\driver\src/uart_va108xx.c ****   
 751:.\driver\src/uart_va108xx.c ****   switch(control)
 2615              		.loc 1 751 0 is_stmt 1
 2616 065e 421E     		subs	r2, r0, #1	@ tmp118, control,
 2617              	@ .\driver\src\uart_va108xx.c:779:   return VOR_DRIVER_OK;
 752:.\driver\src/uart_va108xx.c ****    {
 753:.\driver\src/uart_va108xx.c **** 		case VOR_UART_CONTROL_PARITY_ENABLED:  return VOR_UART_SetParity(arg,UART);
 754:.\driver\src/uart_va108xx.c **** 		case VOR_UART_CONTROL_PARITY_SEL:      return VOR_UART_SelectParity(arg,UART);
 755:.\driver\src/uart_va108xx.c **** 		case VOR_UART_CONTROL_PARITY_MAN:      return VOR_UART_ManualParity(arg,UART);
 756:.\driver\src/uart_va108xx.c **** 		case VOR_UART_CONTROL_STOP_BIT:        return VOR_UART_StopBit(arg,UART);
 757:.\driver\src/uart_va108xx.c **** 		case VOR_UART_CONTROL_DATA_BITS:       return VOR_UART_DataBits(arg,UART);
 758:.\driver\src/uart_va108xx.c **** 		case VOR_UART_CONTROL_LOOPBACK:        return VOR_UART_LoopBack(arg,UART);
 759:.\driver\src/uart_va108xx.c **** 		case VOR_UART_CONTROL_AUTOCTS:         return VOR_UART_AutoCTS(arg,UART);
 760:.\driver\src/uart_va108xx.c **** 		case VOR_UART_CONTROL_DEFRTS:          return VOR_UART_DEFRTS(arg,UART);
 761:.\driver\src/uart_va108xx.c **** 		case VOR_UART_CONTROL_AUTORTS:         return VOR_UART_AutoRTS(arg,UART);
 762:.\driver\src/uart_va108xx.c **** 		case VOR_UART_CONTROL_TX:              return VOR_UART_TX(arg,UART);
 763:.\driver\src/uart_va108xx.c **** 		case VOR_UART_CONTROL_RX:              return VOR_UART_RX(arg,UART);
 764:.\driver\src/uart_va108xx.c **** 		case VOR_UART_CONTROL_BREAK:           return VOR_UART_Break(arg,UART);
 765:.\driver\src/uart_va108xx.c **** 		case VOR_UART_CONTROL_RXFIFOTRG:       return VOR_UART_RXFIFOIRQTRG(arg,UART);
 766:.\driver\src/uart_va108xx.c **** 		case VOR_UART_CONTROL_TXFIFOTRG:       return VOR_UART_TXFIFOIRQTRG(arg,UART);
 767:.\driver\src/uart_va108xx.c **** 		case VOR_UART_CONTROL_RXFIFORTSTRG:	   return VOR_UART_RXFIFORTSTRG(arg,UART);
 768:.\driver\src/uart_va108xx.c **** 		case VOR_UART_CONTROL_ENB9BIT:	       return VOR_UART_ENB9BIT(arg,UART);
 769:.\driver\src/uart_va108xx.c **** 		case VOR_UART_CONTROL_ADDR9MSK:	       return VOR_UART_ADDR9MSK(arg,UART); 
 770:.\driver\src/uart_va108xx.c **** 		case VOR_UART_CONTROL_FIFOCLR:	       return VOR_UART_FIFOCLR(arg,UART);
 771:.\driver\src/uart_va108xx.c **** 		case VOR_UART_CONTROL_POLL_MODE:       return VOR_UART_PollMode(arg,UART);
 772:.\driver\src/uart_va108xx.c **** 		case VOR_UART_CONTROL_POLL_TO:         return VOR_UART_PollTimeOut(arg,UART);
 773:.\driver\src/uart_va108xx.c **** 		case VOR_UART_CONTROL_BAUD:            return UART_SetBaudrate(arg,UART);
 774:.\driver\src/uart_va108xx.c **** 		case VOR_UART_ABORT_SEND:              return VOR_UART_abort_send(arg,UART);
 775:.\driver\src/uart_va108xx.c **** 		case VOR_UART_ABORT_RECV:              return VOR_UART_abort_recv(arg,UART);
 776:.\driver\src/uart_va108xx.c **** 		default:
 777:.\driver\src/uart_va108xx.c **** 			break;
 778:.\driver\src/uart_va108xx.c ****    }
 779:.\driver\src/uart_va108xx.c ****   return VOR_DRIVER_OK;
 2618              		.loc 1 779 0
 2619 0660 0020     		movs	r0, #0	@ <retval>,
 2620              	.LVL232:
 2621              	@ .\driver\src\uart_va108xx.c:751:   switch(control)
 751:.\driver\src/uart_va108xx.c ****    {
 2622              		.loc 1 751 0
 2623 0662 162A     		cmp	r2, #22	@ tmp118,
 2624 0664 11D8     		bhi	.L226	@,
 2625 0666 1000     		movs	r0, r2	@, tmp118
 2626 0668 FFF7FEFF 		bl	__gnu_thumb1_case_uqi
 2627              	.L229:
 2628 066c 0C       		.byte	(.L228-.L229)/2
 2629 066d 10       		.byte	(.L230-.L229)/2
 2630 066e 14       		.byte	(.L231-.L229)/2
 2631 066f 18       		.byte	(.L232-.L229)/2
 2632 0670 1C       		.byte	(.L233-.L229)/2
 2633 0671 20       		.byte	(.L234-.L229)/2
 2634 0672 24       		.byte	(.L235-.L229)/2
 2635 0673 28       		.byte	(.L236-.L229)/2
 2636 0674 2C       		.byte	(.L237-.L229)/2
 2637 0675 30       		.byte	(.L238-.L229)/2
 2638 0676 34       		.byte	(.L239-.L229)/2
 2639 0677 38       		.byte	(.L240-.L229)/2
ARM GAS  C:\Users\claym\AppData\Local\Temp\cc2sTfd9.s 			page 70


 2640 0678 5D       		.byte	(.L241-.L229)/2
 2641 0679 61       		.byte	(.L242-.L229)/2
 2642 067a 3C       		.byte	(.L243-.L229)/2
 2643 067b 40       		.byte	(.L244-.L229)/2
 2644 067c 44       		.byte	(.L245-.L229)/2
 2645 067d 48       		.byte	(.L246-.L229)/2
 2646 067e 4C       		.byte	(.L247-.L229)/2
 2647 067f 50       		.byte	(.L248-.L229)/2
 2648 0680 57       		.byte	(.L249-.L229)/2
 2649 0681 54       		.byte	(.L250-.L229)/2
 2650 0682 59       		.byte	(.L251-.L229)/2
 2651 0683 00       		.p2align 1
 2652              	.L228:
 2653              	@ .\driver\src\uart_va108xx.c:753: 		case VOR_UART_CONTROL_PARITY_ENABLED:  return VOR_UART_SetPari
 753:.\driver\src/uart_va108xx.c **** 		case VOR_UART_CONTROL_PARITY_SEL:      return VOR_UART_SelectParity(arg,UART);
 2654              		.loc 1 753 0
 2655 0684 1800     		movs	r0, r3	@, arg
 2656 0686 FFF7FEFF 		bl	VOR_UART_SetParity	@
 2657              	.LVL233:
 2658              	.L226:
 2659              	@ .\driver\src\uart_va108xx.c:780: }
 780:.\driver\src/uart_va108xx.c **** }
 2660              		.loc 1 780 0
 2661              		@ sp needed	@
 2662 068a 10BD     		pop	{r4, pc}
 2663              	.LVL234:
 2664              	.L230:
 2665              	@ .\driver\src\uart_va108xx.c:754: 		case VOR_UART_CONTROL_PARITY_SEL:      return VOR_UART_SelectP
 754:.\driver\src/uart_va108xx.c **** 		case VOR_UART_CONTROL_PARITY_MAN:      return VOR_UART_ManualParity(arg,UART);
 2666              		.loc 1 754 0
 2667 068c 1800     		movs	r0, r3	@, arg
 2668 068e FFF7FEFF 		bl	VOR_UART_SelectParity	@
 2669              	.LVL235:
 2670 0692 FAE7     		b	.L226	@
 2671              	.LVL236:
 2672              	.L231:
 2673              	@ .\driver\src\uart_va108xx.c:755: 		case VOR_UART_CONTROL_PARITY_MAN:      return VOR_UART_ManualP
 755:.\driver\src/uart_va108xx.c **** 		case VOR_UART_CONTROL_STOP_BIT:        return VOR_UART_StopBit(arg,UART);
 2674              		.loc 1 755 0
 2675 0694 1800     		movs	r0, r3	@, arg
 2676 0696 FFF7FEFF 		bl	VOR_UART_ManualParity	@
 2677              	.LVL237:
 2678 069a F6E7     		b	.L226	@
 2679              	.LVL238:
 2680              	.L232:
 2681              	@ .\driver\src\uart_va108xx.c:756: 		case VOR_UART_CONTROL_STOP_BIT:        return VOR_UART_StopBit
 756:.\driver\src/uart_va108xx.c **** 		case VOR_UART_CONTROL_DATA_BITS:       return VOR_UART_DataBits(arg,UART);
 2682              		.loc 1 756 0
 2683 069c 1800     		movs	r0, r3	@, arg
 2684 069e FFF7FEFF 		bl	VOR_UART_StopBit	@
 2685              	.LVL239:
 2686 06a2 F2E7     		b	.L226	@
 2687              	.LVL240:
 2688              	.L233:
 2689              	@ .\driver\src\uart_va108xx.c:757: 		case VOR_UART_CONTROL_DATA_BITS:       return VOR_UART_DataBit
 757:.\driver\src/uart_va108xx.c **** 		case VOR_UART_CONTROL_LOOPBACK:        return VOR_UART_LoopBack(arg,UART);
 2690              		.loc 1 757 0
ARM GAS  C:\Users\claym\AppData\Local\Temp\cc2sTfd9.s 			page 71


 2691 06a4 1800     		movs	r0, r3	@, arg
 2692 06a6 FFF7FEFF 		bl	VOR_UART_DataBits	@
 2693              	.LVL241:
 2694 06aa EEE7     		b	.L226	@
 2695              	.LVL242:
 2696              	.L234:
 2697              	@ .\driver\src\uart_va108xx.c:758: 		case VOR_UART_CONTROL_LOOPBACK:        return VOR_UART_LoopBac
 758:.\driver\src/uart_va108xx.c **** 		case VOR_UART_CONTROL_AUTOCTS:         return VOR_UART_AutoCTS(arg,UART);
 2698              		.loc 1 758 0
 2699 06ac 1800     		movs	r0, r3	@, arg
 2700 06ae FFF7FEFF 		bl	VOR_UART_LoopBack	@
 2701              	.LVL243:
 2702 06b2 EAE7     		b	.L226	@
 2703              	.LVL244:
 2704              	.L235:
 2705              	@ .\driver\src\uart_va108xx.c:759: 		case VOR_UART_CONTROL_AUTOCTS:         return VOR_UART_AutoCTS
 759:.\driver\src/uart_va108xx.c **** 		case VOR_UART_CONTROL_DEFRTS:          return VOR_UART_DEFRTS(arg,UART);
 2706              		.loc 1 759 0
 2707 06b4 1800     		movs	r0, r3	@, arg
 2708 06b6 FFF7FEFF 		bl	VOR_UART_AutoCTS	@
 2709              	.LVL245:
 2710 06ba E6E7     		b	.L226	@
 2711              	.LVL246:
 2712              	.L236:
 2713              	@ .\driver\src\uart_va108xx.c:760: 		case VOR_UART_CONTROL_DEFRTS:          return VOR_UART_DEFRTS(
 760:.\driver\src/uart_va108xx.c **** 		case VOR_UART_CONTROL_AUTORTS:         return VOR_UART_AutoRTS(arg,UART);
 2714              		.loc 1 760 0
 2715 06bc 1800     		movs	r0, r3	@, arg
 2716 06be FFF7FEFF 		bl	VOR_UART_DEFRTS	@
 2717              	.LVL247:
 2718 06c2 E2E7     		b	.L226	@
 2719              	.LVL248:
 2720              	.L237:
 2721              	@ .\driver\src\uart_va108xx.c:761: 		case VOR_UART_CONTROL_AUTORTS:         return VOR_UART_AutoRTS
 761:.\driver\src/uart_va108xx.c **** 		case VOR_UART_CONTROL_TX:              return VOR_UART_TX(arg,UART);
 2722              		.loc 1 761 0
 2723 06c4 1800     		movs	r0, r3	@, arg
 2724 06c6 FFF7FEFF 		bl	VOR_UART_AutoRTS	@
 2725              	.LVL249:
 2726 06ca DEE7     		b	.L226	@
 2727              	.LVL250:
 2728              	.L238:
 2729              	@ .\driver\src\uart_va108xx.c:762: 		case VOR_UART_CONTROL_TX:              return VOR_UART_TX(arg,
 762:.\driver\src/uart_va108xx.c **** 		case VOR_UART_CONTROL_RX:              return VOR_UART_RX(arg,UART);
 2730              		.loc 1 762 0
 2731 06cc 1800     		movs	r0, r3	@, arg
 2732 06ce FFF7FEFF 		bl	VOR_UART_TX	@
 2733              	.LVL251:
 2734 06d2 DAE7     		b	.L226	@
 2735              	.LVL252:
 2736              	.L239:
 2737              	@ .\driver\src\uart_va108xx.c:763: 		case VOR_UART_CONTROL_RX:              return VOR_UART_RX(arg,
 763:.\driver\src/uart_va108xx.c **** 		case VOR_UART_CONTROL_BREAK:           return VOR_UART_Break(arg,UART);
 2738              		.loc 1 763 0
 2739 06d4 1800     		movs	r0, r3	@, arg
 2740 06d6 FFF7FEFF 		bl	VOR_UART_RX	@
 2741              	.LVL253:
ARM GAS  C:\Users\claym\AppData\Local\Temp\cc2sTfd9.s 			page 72


 2742 06da D6E7     		b	.L226	@
 2743              	.LVL254:
 2744              	.L240:
 2745              	@ .\driver\src\uart_va108xx.c:764: 		case VOR_UART_CONTROL_BREAK:           return VOR_UART_Break(a
 764:.\driver\src/uart_va108xx.c **** 		case VOR_UART_CONTROL_RXFIFOTRG:       return VOR_UART_RXFIFOIRQTRG(arg,UART);
 2746              		.loc 1 764 0
 2747 06dc 1800     		movs	r0, r3	@, arg
 2748 06de FFF7FEFF 		bl	VOR_UART_Break	@
 2749              	.LVL255:
 2750 06e2 D2E7     		b	.L226	@
 2751              	.LVL256:
 2752              	.L243:
 2753              	@ .\driver\src\uart_va108xx.c:765: 		case VOR_UART_CONTROL_RXFIFOTRG:       return VOR_UART_RXFIFOI
 765:.\driver\src/uart_va108xx.c **** 		case VOR_UART_CONTROL_TXFIFOTRG:       return VOR_UART_TXFIFOIRQTRG(arg,UART);
 2754              		.loc 1 765 0
 2755 06e4 1800     		movs	r0, r3	@, arg
 2756 06e6 FFF7FEFF 		bl	VOR_UART_RXFIFOIRQTRG	@
 2757              	.LVL257:
 2758 06ea CEE7     		b	.L226	@
 2759              	.LVL258:
 2760              	.L244:
 2761              	@ .\driver\src\uart_va108xx.c:766: 		case VOR_UART_CONTROL_TXFIFOTRG:       return VOR_UART_TXFIFOI
 766:.\driver\src/uart_va108xx.c **** 		case VOR_UART_CONTROL_RXFIFORTSTRG:	   return VOR_UART_RXFIFORTSTRG(arg,UART);
 2762              		.loc 1 766 0
 2763 06ec 1800     		movs	r0, r3	@, arg
 2764 06ee FFF7FEFF 		bl	VOR_UART_TXFIFOIRQTRG	@
 2765              	.LVL259:
 2766 06f2 CAE7     		b	.L226	@
 2767              	.LVL260:
 2768              	.L245:
 2769              	@ .\driver\src\uart_va108xx.c:767: 		case VOR_UART_CONTROL_RXFIFORTSTRG:	   return VOR_UART_RXFIFOR
 767:.\driver\src/uart_va108xx.c **** 		case VOR_UART_CONTROL_ENB9BIT:	       return VOR_UART_ENB9BIT(arg,UART);
 2770              		.loc 1 767 0
 2771 06f4 1800     		movs	r0, r3	@, arg
 2772 06f6 FFF7FEFF 		bl	VOR_UART_RXFIFORTSTRG	@
 2773              	.LVL261:
 2774 06fa C6E7     		b	.L226	@
 2775              	.LVL262:
 2776              	.L246:
 2777              	@ .\driver\src\uart_va108xx.c:768: 		case VOR_UART_CONTROL_ENB9BIT:	       return VOR_UART_ENB9BIT(
 768:.\driver\src/uart_va108xx.c **** 		case VOR_UART_CONTROL_ADDR9MSK:	       return VOR_UART_ADDR9MSK(arg,UART); 
 2778              		.loc 1 768 0
 2779 06fc 1800     		movs	r0, r3	@, arg
 2780 06fe FFF7FEFF 		bl	VOR_UART_ENB9BIT	@
 2781              	.LVL263:
 2782 0702 C2E7     		b	.L226	@
 2783              	.LVL264:
 2784              	.L247:
 2785              	@ .\driver\src\uart_va108xx.c:769: 		case VOR_UART_CONTROL_ADDR9MSK:	       return VOR_UART_ADDR9MS
 769:.\driver\src/uart_va108xx.c **** 		case VOR_UART_CONTROL_FIFOCLR:	       return VOR_UART_FIFOCLR(arg,UART);
 2786              		.loc 1 769 0
 2787 0704 1800     		movs	r0, r3	@, arg
 2788 0706 FFF7FEFF 		bl	VOR_UART_ADDR9MSK	@
 2789              	.LVL265:
 2790 070a BEE7     		b	.L226	@
 2791              	.LVL266:
 2792              	.L248:
ARM GAS  C:\Users\claym\AppData\Local\Temp\cc2sTfd9.s 			page 73


 2793              	@ .\driver\src\uart_va108xx.c:770: 		case VOR_UART_CONTROL_FIFOCLR:	       return VOR_UART_FIFOCLR(
 770:.\driver\src/uart_va108xx.c **** 		case VOR_UART_CONTROL_POLL_MODE:       return VOR_UART_PollMode(arg,UART);
 2794              		.loc 1 770 0
 2795 070c 1800     		movs	r0, r3	@, arg
 2796 070e FFF7FEFF 		bl	VOR_UART_FIFOCLR	@
 2797              	.LVL267:
 2798 0712 BAE7     		b	.L226	@
 2799              	.LVL268:
 2800              	.L250:
 2801              	.LBB62:
 2802              	.LBB63:
 2803              	@ .\driver\src\uart_va108xx.c:690:   UART->info.poll_mode = arg;
 690:.\driver\src/uart_va108xx.c ****   return VOR_DRIVER_OK;
 2804              		.loc 1 690 0
 2805 0714 8B61     		str	r3, [r1, #24]	@ arg, UART_6(D)->info.poll_mode
 2806              	.LVL269:
 2807              	.L255:
 2808              	.LBE63:
 2809              	.LBE62:
 2810              	@ .\driver\src\uart_va108xx.c:772: 		case VOR_UART_CONTROL_POLL_TO:         return VOR_UART_PollTim
 772:.\driver\src/uart_va108xx.c **** 		case VOR_UART_CONTROL_BAUD:            return UART_SetBaudrate(arg,UART);
 2811              		.loc 1 772 0
 2812 0716 0020     		movs	r0, #0	@ <retval>,
 2813 0718 B7E7     		b	.L226	@
 2814              	.L249:
 2815              	.LVL270:
 2816              	.LBB64:
 2817              	.LBB65:
 2818              	@ .\driver\src\uart_va108xx.c:702:   UART->info.poll_tout = arg;
 702:.\driver\src/uart_va108xx.c ****   return VOR_DRIVER_OK;
 2819              		.loc 1 702 0
 2820 071a CB61     		str	r3, [r1, #28]	@ arg, UART_6(D)->info.poll_tout
 2821 071c FBE7     		b	.L255	@
 2822              	.LVL271:
 2823              	.L251:
 2824              	.LBE65:
 2825              	.LBE64:
 2826              	@ .\driver\src\uart_va108xx.c:773: 		case VOR_UART_CONTROL_BAUD:            return UART_SetBaudrate
 773:.\driver\src/uart_va108xx.c **** 		case VOR_UART_ABORT_SEND:              return VOR_UART_abort_send(arg,UART);
 2827              		.loc 1 773 0
 2828 071e 1800     		movs	r0, r3	@, arg
 2829 0720 FFF7FEFF 		bl	UART_SetBaudrate	@
 2830              	.LVL272:
 2831 0724 B1E7     		b	.L226	@
 2832              	.LVL273:
 2833              	.L241:
 2834              	@ .\driver\src\uart_va108xx.c:774: 		case VOR_UART_ABORT_SEND:              return VOR_UART_abort_s
 774:.\driver\src/uart_va108xx.c **** 		case VOR_UART_ABORT_RECV:              return VOR_UART_abort_recv(arg,UART);
 2835              		.loc 1 774 0
 2836 0726 1800     		movs	r0, r3	@, arg
 2837 0728 FFF7FEFF 		bl	VOR_UART_abort_send	@
 2838              	.LVL274:
 2839 072c ADE7     		b	.L226	@
 2840              	.LVL275:
 2841              	.L242:
 2842              	@ .\driver\src\uart_va108xx.c:775: 		case VOR_UART_ABORT_RECV:              return VOR_UART_abort_r
 775:.\driver\src/uart_va108xx.c **** 		default:
ARM GAS  C:\Users\claym\AppData\Local\Temp\cc2sTfd9.s 			page 74


 2843              		.loc 1 775 0
 2844 072e 1800     		movs	r0, r3	@, arg
 2845 0730 FFF7FEFF 		bl	VOR_UART_abort_recv	@
 2846              	.LVL276:
 2847 0734 A9E7     		b	.L226	@
 2848              	.LVL277:
 2849              	.L253:
 2850              	@ .\driver\src\uart_va108xx.c:749: 	  return VOR_DRIVER_ERROR_PARAMETER;
 749:.\driver\src/uart_va108xx.c ****   
 2851              		.loc 1 749 0
 2852 0736 0520     		movs	r0, #5	@ <retval>,
 2853              	.LVL278:
 2854 0738 4042     		rsbs	r0, r0, #0	@ <retval>, <retval>
 2855 073a A6E7     		b	.L226	@
 2856              		.cfi_endproc
 2857              	.LFE62:
 2858              		.size	UART_Control, .-UART_Control
 2859              		.align	1
 2860              		.global	UART_GetStatus
 2861              		.syntax unified
 2862              		.code	16
 2863              		.thumb_func
 2864              		.fpu softvfp
 2865              		.type	UART_GetStatus, %function
 2866              	UART_GetStatus:
 2867              	.LFB63:
 781:.\driver\src/uart_va108xx.c **** 
 782:.\driver\src/uart_va108xx.c **** /**
 783:.\driver\src/uart_va108xx.c ****   function:    VOR_UART_STATUS UART_GetStatus (UART_RESOURCES *UART)
 784:.\driver\src/uart_va108xx.c ****   brief:       Get UART status.
 785:.\driver\src/uart_va108xx.c ****   Input:       UART     Pointer to UART resources
 786:.\driver\src/uart_va108xx.c ****   return:      UART status VOR_UART_STATUS
 787:.\driver\src/uart_va108xx.c **** */
 788:.\driver\src/uart_va108xx.c **** VOR_UART_STATUS UART_GetStatus (UART_RESOURCES *UART) 
 789:.\driver\src/uart_va108xx.c **** {
 2868              		.loc 1 789 0
 2869              		.cfi_startproc
 2870              		@ args = 0, pretend = 0, frame = 0
 2871              		@ frame_needed = 0, uses_anonymous_args = 0
 2872              	.LVL279:
 2873              	@ .\driver\src\uart_va108xx.c:790: 	UART->info.status.RX_RDAVL         =      CHECK_BIT(UART->reg->
 790:.\driver\src/uart_va108xx.c **** 	UART->info.status.RX_RDAVL         =      CHECK_BIT(UART->reg->RXSTATUS, UART_PERIPHERAL_RXSTATUS_
 2874              		.loc 1 790 0
 2875 073c 0123     		movs	r3, #1	@ tmp164,
 2876 073e 4268     		ldr	r2, [r0, #4]	@ _1, UART_67(D)->reg
 2877              	@ .\driver\src\uart_va108xx.c:789: {
 789:.\driver\src/uart_va108xx.c **** 	UART->info.status.RX_RDAVL         =      CHECK_BIT(UART->reg->RXSTATUS, UART_PERIPHERAL_RXSTATUS_
 2878              		.loc 1 789 0
 2879 0740 F0B5     		push	{r4, r5, r6, r7, lr}	@
 2880              	.LCFI12:
 2881              		.cfi_def_cfa_offset 20
 2882              		.cfi_offset 4, -20
 2883              		.cfi_offset 5, -16
 2884              		.cfi_offset 6, -12
 2885              		.cfi_offset 7, -8
 2886              		.cfi_offset 14, -4
 2887              	@ .\driver\src\uart_va108xx.c:790: 	UART->info.status.RX_RDAVL         =      CHECK_BIT(UART->reg->
ARM GAS  C:\Users\claym\AppData\Local\Temp\cc2sTfd9.s 			page 75


 2888              		.loc 1 790 0
 2889 0742 017C     		ldrb	r1, [r0, #16]	@ UART_67(D)->info.status.RX_RDAVL, UART_67(D)->info.status.RX_RDAVL
 2890 0744 1469     		ldr	r4, [r2, #16]	@ _2, _1->RXSTATUS
 2891 0746 9943     		bics	r1, r3	@ tmp167, tmp164
 2892 0748 1C40     		ands	r4, r3	@ tmp163, tmp164
 2893 074a 2143     		orrs	r1, r4	@ tmp171, tmp163
 2894 074c 0174     		strb	r1, [r0, #16]	@ tmp171, UART_67(D)->info.status.RX_RDAVL
 2895              	@ .\driver\src\uart_va108xx.c:791: 	UART->info.status.RX_RDNFULL       =      CHECK_BIT(UART->reg->
 791:.\driver\src/uart_va108xx.c **** 	UART->info.status.RX_RDNFULL       =      CHECK_BIT(UART->reg->RXSTATUS, UART_PERIPHERAL_RXSTATUS_
 2896              		.loc 1 791 0
 2897 074e 1169     		ldr	r1, [r2, #16]	@ _5, _1->RXSTATUS
 2898 0750 0227     		movs	r7, #2	@ tmp187,
 2899 0752 D940     		lsrs	r1, r1, r3	@ tmp173, _5,
 2900 0754 1940     		ands	r1, r3	@ tmp175, tmp164
 2901 0756 9940     		lsls	r1, r1, r3	@ tmp183, tmp175,
 2902 0758 047C     		ldrb	r4, [r0, #16]	@ UART_67(D)->info.status.RX_RDNFULL, UART_67(D)->info.status.RX_RDNFULL
 2903              	@ .\driver\src\uart_va108xx.c:792: 	UART->info.status.RX_BUSY          =      CHECK_BIT(UART->reg->
 792:.\driver\src/uart_va108xx.c **** 	UART->info.status.RX_BUSY          =      CHECK_BIT(UART->reg->RXSTATUS, UART_PERIPHERAL_RXSTATUS_
 2904              		.loc 1 792 0
 2905 075a 0426     		movs	r6, #4	@ tmp464,
 2906              	@ .\driver\src\uart_va108xx.c:791: 	UART->info.status.RX_RDNFULL       =      CHECK_BIT(UART->reg->
 791:.\driver\src/uart_va108xx.c **** 	UART->info.status.RX_RDNFULL       =      CHECK_BIT(UART->reg->RXSTATUS, UART_PERIPHERAL_RXSTATUS_
 2907              		.loc 1 791 0
 2908 075c BC43     		bics	r4, r7	@ tmp186, tmp187
 2909 075e 2143     		orrs	r1, r4	@ tmp190, tmp186
 2910 0760 0174     		strb	r1, [r0, #16]	@ tmp190, UART_67(D)->info.status.RX_RDNFULL
 2911              	@ .\driver\src\uart_va108xx.c:792: 	UART->info.status.RX_BUSY          =      CHECK_BIT(UART->reg->
 2912              		.loc 1 792 0
 2913 0762 1169     		ldr	r1, [r2, #16]	@ _8, _1->RXSTATUS
 2914              	@ .\driver\src\uart_va108xx.c:793: 	UART->info.status.RX_TO            =      CHECK_BIT(UART->reg->
 793:.\driver\src/uart_va108xx.c **** 	UART->info.status.RX_TO            =      CHECK_BIT(UART->reg->RXSTATUS, UART_PERIPHERAL_RXSTATUS_
 2915              		.loc 1 793 0
 2916 0764 0825     		movs	r5, #8	@ tmp447,
 2917              	@ .\driver\src\uart_va108xx.c:792: 	UART->info.status.RX_BUSY          =      CHECK_BIT(UART->reg->
 792:.\driver\src/uart_va108xx.c **** 	UART->info.status.RX_BUSY          =      CHECK_BIT(UART->reg->RXSTATUS, UART_PERIPHERAL_RXSTATUS_
 2918              		.loc 1 792 0
 2919 0766 F940     		lsrs	r1, r1, r7	@ tmp192, _8,
 2920 0768 1940     		ands	r1, r3	@ tmp194, tmp164
 2921 076a B940     		lsls	r1, r1, r7	@ tmp202, tmp194,
 2922 076c 047C     		ldrb	r4, [r0, #16]	@ UART_67(D)->info.status.RX_BUSY, UART_67(D)->info.status.RX_BUSY
 2923              	@ .\driver\src\uart_va108xx.c:807: }
 794:.\driver\src/uart_va108xx.c **** 	UART->info.status.RX_OVR           =      CHECK_BIT(UART->reg->RXSTATUS, UART_PERIPHERAL_RXSTATUS_
 795:.\driver\src/uart_va108xx.c **** 	UART->info.status.RX_FRM           =      CHECK_BIT(UART->reg->RXSTATUS, UART_PERIPHERAL_RXSTATUS_
 796:.\driver\src/uart_va108xx.c **** 	UART->info.status.RX_PAR           =      CHECK_BIT(UART->reg->RXSTATUS, UART_PERIPHERAL_RXSTATUS_
 797:.\driver\src/uart_va108xx.c **** 	UART->info.status.RX_BRK           =      CHECK_BIT(UART->reg->RXSTATUS, UART_PERIPHERAL_RXSTATUS_
 798:.\driver\src/uart_va108xx.c **** 	UART->info.status.RX_BUSYBRK       =      CHECK_BIT(UART->reg->RXSTATUS, UART_PERIPHERAL_RXSTATUS_
 799:.\driver\src/uart_va108xx.c **** 	UART->info.status.RX_ADDR9         =      CHECK_BIT(UART->reg->RXSTATUS, UART_PERIPHERAL_RXSTATUS_
 800:.\driver\src/uart_va108xx.c **** 	UART->info.status.RX_RTS           =      CHECK_BIT(UART->reg->RXSTATUS, UART_PERIPHERAL_RXSTATUS_
 801:.\driver\src/uart_va108xx.c **** 	UART->info.status.TX_WRRDY         =      CHECK_BIT(UART->reg->RXSTATUS, UART_PERIPHERAL_TXSTATUS_
 802:.\driver\src/uart_va108xx.c **** 	UART->info.status.TX_WRBUSY        =      CHECK_BIT(UART->reg->RXSTATUS, UART_PERIPHERAL_TXSTATUS_
 803:.\driver\src/uart_va108xx.c **** 	UART->info.status.TX_BUSY          =      CHECK_BIT(UART->reg->RXSTATUS, UART_PERIPHERAL_TXSTATUS_
 804:.\driver\src/uart_va108xx.c **** 	UART->info.status.TX_WRLOST        =      CHECK_BIT(UART->reg->RXSTATUS, UART_PERIPHERAL_TXSTATUS_
 805:.\driver\src/uart_va108xx.c **** 	UART->info.status.TX_CTS           =      CHECK_BIT(UART->reg->RXSTATUS, UART_PERIPHERAL_TXSTATUS_
 806:.\driver\src/uart_va108xx.c ****   return UART->info.status; 
 807:.\driver\src/uart_va108xx.c **** }
 2924              		.loc 1 807 0
 2925              		@ sp needed	@
ARM GAS  C:\Users\claym\AppData\Local\Temp\cc2sTfd9.s 			page 76


 2926              	@ .\driver\src\uart_va108xx.c:792: 	UART->info.status.RX_BUSY          =      CHECK_BIT(UART->reg->
 792:.\driver\src/uart_va108xx.c **** 	UART->info.status.RX_TO            =      CHECK_BIT(UART->reg->RXSTATUS, UART_PERIPHERAL_RXSTATUS_
 2927              		.loc 1 792 0
 2928 076e B443     		bics	r4, r6	@ tmp205, tmp464
 2929 0770 2143     		orrs	r1, r4	@ tmp209, tmp205
 2930 0772 0174     		strb	r1, [r0, #16]	@ tmp209, UART_67(D)->info.status.RX_BUSY
 2931              	@ .\driver\src\uart_va108xx.c:793: 	UART->info.status.RX_TO            =      CHECK_BIT(UART->reg->
 793:.\driver\src/uart_va108xx.c **** 	UART->info.status.RX_TO            =      CHECK_BIT(UART->reg->RXSTATUS, UART_PERIPHERAL_RXSTATUS_
 2932              		.loc 1 793 0
 2933 0774 1169     		ldr	r1, [r2, #16]	@ _11, _1->RXSTATUS
 2934 0776 047C     		ldrb	r4, [r0, #16]	@ UART_67(D)->info.status.RX_TO, UART_67(D)->info.status.RX_TO
 2935 0778 C908     		lsrs	r1, r1, #3	@ tmp211, _11,
 2936 077a 1940     		ands	r1, r3	@ tmp213, tmp164
 2937 077c AC43     		bics	r4, r5	@ tmp224, tmp447
 2938 077e C900     		lsls	r1, r1, #3	@ tmp221, tmp213,
 2939 0780 2143     		orrs	r1, r4	@ tmp228, tmp224
 2940 0782 0174     		strb	r1, [r0, #16]	@ tmp228, UART_67(D)->info.status.RX_TO
 2941              	@ .\driver\src\uart_va108xx.c:794: 	UART->info.status.RX_OVR           =      CHECK_BIT(UART->reg->
 794:.\driver\src/uart_va108xx.c **** 	UART->info.status.RX_OVR           =      CHECK_BIT(UART->reg->RXSTATUS, UART_PERIPHERAL_RXSTATUS_
 2942              		.loc 1 794 0
 2943 0784 1169     		ldr	r1, [r2, #16]	@ _14, _1->RXSTATUS
 2944 0786 047C     		ldrb	r4, [r0, #16]	@ UART_67(D)->info.status.RX_OVR, UART_67(D)->info.status.RX_OVR
 2945 0788 F140     		lsrs	r1, r1, r6	@ tmp230, _14,
 2946 078a 1940     		ands	r1, r3	@ tmp232, tmp164
 2947 078c B140     		lsls	r1, r1, r6	@ tmp240, tmp232,
 2948 078e 6D19     		adds	r5, r5, r5	@ tmp448, tmp448,
 2949 0790 AC43     		bics	r4, r5	@ tmp243, tmp448
 2950 0792 2143     		orrs	r1, r4	@ tmp247, tmp243
 2951 0794 0174     		strb	r1, [r0, #16]	@ tmp247, UART_67(D)->info.status.RX_OVR
 2952              	@ .\driver\src\uart_va108xx.c:795: 	UART->info.status.RX_FRM           =      CHECK_BIT(UART->reg->
 795:.\driver\src/uart_va108xx.c **** 	UART->info.status.RX_PAR           =      CHECK_BIT(UART->reg->RXSTATUS, UART_PERIPHERAL_RXSTATUS_
 2953              		.loc 1 795 0
 2954 0796 1169     		ldr	r1, [r2, #16]	@ _17, _1->RXSTATUS
 2955 0798 047C     		ldrb	r4, [r0, #16]	@ UART_67(D)->info.status.RX_FRM, UART_67(D)->info.status.RX_FRM
 2956 079a 4909     		lsrs	r1, r1, #5	@ tmp249, _17,
 2957 079c 1940     		ands	r1, r3	@ tmp251, tmp164
 2958 079e 1035     		adds	r5, r5, #16	@ tmp449,
 2959 07a0 AC43     		bics	r4, r5	@ tmp262, tmp449
 2960 07a2 4901     		lsls	r1, r1, #5	@ tmp259, tmp251,
 2961 07a4 2143     		orrs	r1, r4	@ tmp266, tmp262
 2962 07a6 0174     		strb	r1, [r0, #16]	@ tmp266, UART_67(D)->info.status.RX_FRM
 2963              	@ .\driver\src\uart_va108xx.c:796: 	UART->info.status.RX_PAR           =      CHECK_BIT(UART->reg->
 796:.\driver\src/uart_va108xx.c **** 	UART->info.status.RX_BRK           =      CHECK_BIT(UART->reg->RXSTATUS, UART_PERIPHERAL_RXSTATUS_
 2964              		.loc 1 796 0
 2965 07a8 1169     		ldr	r1, [r2, #16]	@ _20, _1->RXSTATUS
 2966 07aa 047C     		ldrb	r4, [r0, #16]	@ UART_67(D)->info.status.RX_PAR, UART_67(D)->info.status.RX_PAR
 2967 07ac 8909     		lsrs	r1, r1, #6	@ tmp268, _20,
 2968 07ae 2035     		adds	r5, r5, #32	@ tmp282,
 2969 07b0 1940     		ands	r1, r3	@ tmp270, tmp164
 2970 07b2 AC43     		bics	r4, r5	@ tmp281, tmp282
 2971 07b4 8901     		lsls	r1, r1, #6	@ tmp278, tmp270,
 2972 07b6 2143     		orrs	r1, r4	@ tmp285, tmp281
 2973 07b8 0174     		strb	r1, [r0, #16]	@ tmp285, UART_67(D)->info.status.RX_PAR
 2974              	@ .\driver\src\uart_va108xx.c:797: 	UART->info.status.RX_BRK           =      CHECK_BIT(UART->reg->
 797:.\driver\src/uart_va108xx.c **** 	UART->info.status.RX_BUSYBRK       =      CHECK_BIT(UART->reg->RXSTATUS, UART_PERIPHERAL_RXSTATUS_
 2975              		.loc 1 797 0
 2976 07ba 047C     		ldrb	r4, [r0, #16]	@ UART_67(D)->info.status.RX_BRK, UART_67(D)->info.status.RX_BRK
ARM GAS  C:\Users\claym\AppData\Local\Temp\cc2sTfd9.s 			page 77


 2977 07bc 1169     		ldr	r1, [r2, #16]	@ _23, _1->RXSTATUS
 2978 07be A446     		mov	ip, r4	@ UART_67(D)->info.status.RX_BRK, UART_67(D)->info.status.RX_BRK
 2979 07c0 7F24     		movs	r4, #127	@ tmp298,
 2980 07c2 6646     		mov	r6, ip	@ UART_67(D)->info.status.RX_BRK, UART_67(D)->info.status.RX_BRK
 2981 07c4 C909     		lsrs	r1, r1, #7	@ tmp287, _23,
 2982 07c6 1940     		ands	r1, r3	@ tmp289, tmp164
 2983 07c8 2640     		ands	r6, r4	@ UART_67(D)->info.status.RX_BRK, tmp298
 2984 07ca C901     		lsls	r1, r1, #7	@ tmp294, tmp289,
 2985 07cc 3143     		orrs	r1, r6	@ tmp301, tmp297
 2986 07ce 0174     		strb	r1, [r0, #16]	@ tmp301, UART_67(D)->info.status.RX_BRK
 2987              	@ .\driver\src\uart_va108xx.c:798: 	UART->info.status.RX_BUSYBRK       =      CHECK_BIT(UART->reg->
 798:.\driver\src/uart_va108xx.c **** 	UART->info.status.RX_ADDR9         =      CHECK_BIT(UART->reg->RXSTATUS, UART_PERIPHERAL_RXSTATUS_
 2988              		.loc 1 798 0
 2989 07d0 1169     		ldr	r1, [r2, #16]	@ _26, _1->RXSTATUS
 2990 07d2 090A     		lsrs	r1, r1, #8	@ tmp303, _26,
 2991 07d4 1940     		ands	r1, r3	@ tmp303, tmp164
 2992 07d6 8C46     		mov	ip, r1	@ tmp305, tmp303
 2993 07d8 6646     		mov	r6, ip	@ tmp305, tmp305
 2994 07da 417C     		ldrb	r1, [r0, #17]	@ tmp313,
 2995 07dc 9943     		bics	r1, r3	@ tmp314, tmp164
 2996 07de 3143     		orrs	r1, r6	@ tmp318, tmp305
 2997 07e0 4174     		strb	r1, [r0, #17]	@ tmp318,
 2998              	@ .\driver\src\uart_va108xx.c:799: 	UART->info.status.RX_ADDR9         =      CHECK_BIT(UART->reg->
 799:.\driver\src/uart_va108xx.c **** 	UART->info.status.RX_RTS           =      CHECK_BIT(UART->reg->RXSTATUS, UART_PERIPHERAL_RXSTATUS_
 2999              		.loc 1 799 0
 3000 07e2 1169     		ldr	r1, [r2, #16]	@ _29, _1->RXSTATUS
 3001 07e4 467C     		ldrb	r6, [r0, #17]	@ tmp332,
 3002 07e6 490A     		lsrs	r1, r1, #9	@ tmp320, _29,
 3003 07e8 1940     		ands	r1, r3	@ tmp322, tmp164
 3004 07ea 9940     		lsls	r1, r1, r3	@ tmp330, tmp322,
 3005 07ec BE43     		bics	r6, r7	@ tmp332, tmp187
 3006 07ee 3143     		orrs	r1, r6	@ tmp337, tmp333
 3007              	@ .\driver\src\uart_va108xx.c:800: 	UART->info.status.RX_RTS           =      CHECK_BIT(UART->reg->
 800:.\driver\src/uart_va108xx.c **** 	UART->info.status.TX_WRRDY         =      CHECK_BIT(UART->reg->RXSTATUS, UART_PERIPHERAL_TXSTATUS_
 3008              		.loc 1 800 0
 3009 07f0 0426     		movs	r6, #4	@ tmp463,
 3010              	@ .\driver\src\uart_va108xx.c:799: 	UART->info.status.RX_ADDR9         =      CHECK_BIT(UART->reg->
 799:.\driver\src/uart_va108xx.c **** 	UART->info.status.RX_RTS           =      CHECK_BIT(UART->reg->RXSTATUS, UART_PERIPHERAL_RXSTATUS_
 3011              		.loc 1 799 0
 3012 07f2 4174     		strb	r1, [r0, #17]	@ tmp337,
 3013              	@ .\driver\src\uart_va108xx.c:800: 	UART->info.status.RX_RTS           =      CHECK_BIT(UART->reg->
 800:.\driver\src/uart_va108xx.c **** 	UART->info.status.TX_WRRDY         =      CHECK_BIT(UART->reg->RXSTATUS, UART_PERIPHERAL_TXSTATUS_
 3014              		.loc 1 800 0
 3015 07f4 1169     		ldr	r1, [r2, #16]	@ _32, _1->RXSTATUS
 3016 07f6 477C     		ldrb	r7, [r0, #17]	@ tmp351,
 3017 07f8 C90B     		lsrs	r1, r1, #15	@ tmp339, _32,
 3018 07fa 1940     		ands	r1, r3	@ tmp341, tmp164
 3019 07fc 8900     		lsls	r1, r1, #2	@ tmp349, tmp341,
 3020 07fe B743     		bics	r7, r6	@ tmp352, tmp463
 3021 0800 0F43     		orrs	r7, r1	@ tmp356, tmp349
 3022 0802 4774     		strb	r7, [r0, #17]	@ tmp356,
 3023              	@ .\driver\src\uart_va108xx.c:801: 	UART->info.status.TX_WRRDY         =      CHECK_BIT(UART->reg->
 801:.\driver\src/uart_va108xx.c **** 	UART->info.status.TX_WRBUSY        =      CHECK_BIT(UART->reg->RXSTATUS, UART_PERIPHERAL_TXSTATUS_
 3024              		.loc 1 801 0
 3025 0804 F9B2     		uxtb	r1, r7	@ tmp366,
 3026 0806 0827     		movs	r7, #8	@ tmp457,
 3027 0808 1669     		ldr	r6, [r2, #16]	@ _35, _1->RXSTATUS
ARM GAS  C:\Users\claym\AppData\Local\Temp\cc2sTfd9.s 			page 78


 3028 080a B943     		bics	r1, r7	@ tmp367, tmp457
 3029 080c 1E40     		ands	r6, r3	@ tmp361, tmp164
 3030 080e F600     		lsls	r6, r6, #3	@ tmp364, tmp361,
 3031 0810 0E43     		orrs	r6, r1	@ tmp371, tmp367
 3032 0812 4674     		strb	r6, [r0, #17]	@ tmp371,
 3033              	@ .\driver\src\uart_va108xx.c:802: 	UART->info.status.TX_WRBUSY        =      CHECK_BIT(UART->reg->
 802:.\driver\src/uart_va108xx.c **** 	UART->info.status.TX_BUSY          =      CHECK_BIT(UART->reg->RXSTATUS, UART_PERIPHERAL_TXSTATUS_
 3034              		.loc 1 802 0
 3035 0814 1169     		ldr	r1, [r2, #16]	@ _38, _1->RXSTATUS
 3036 0816 FF19     		adds	r7, r7, r7	@ tmp458, tmp458,
 3037 0818 D940     		lsrs	r1, r1, r3	@ tmp373, _38,
 3038 081a F6B2     		uxtb	r6, r6	@ tmp385,
 3039 081c 1940     		ands	r1, r3	@ tmp375, tmp164
 3040 081e BE43     		bics	r6, r7	@ tmp386, tmp458
 3041 0820 0901     		lsls	r1, r1, #4	@ tmp383, tmp375,
 3042 0822 3143     		orrs	r1, r6	@ tmp390, tmp386
 3043 0824 4174     		strb	r1, [r0, #17]	@ tmp390,
 3044              	@ .\driver\src\uart_va108xx.c:803: 	UART->info.status.TX_BUSY          =      CHECK_BIT(UART->reg->
 803:.\driver\src/uart_va108xx.c **** 	UART->info.status.TX_WRLOST        =      CHECK_BIT(UART->reg->RXSTATUS, UART_PERIPHERAL_TXSTATUS_
 3045              		.loc 1 803 0
 3046 0826 1169     		ldr	r1, [r2, #16]	@ _41, _1->RXSTATUS
 3047 0828 467C     		ldrb	r6, [r0, #17]	@ tmp404,
 3048 082a 8908     		lsrs	r1, r1, #2	@ tmp392, _41,
 3049 082c 1037     		adds	r7, r7, #16	@ tmp459,
 3050 082e 1940     		ands	r1, r3	@ tmp394, tmp164
 3051 0830 BE43     		bics	r6, r7	@ tmp405, tmp459
 3052 0832 4901     		lsls	r1, r1, #5	@ tmp402, tmp394,
 3053 0834 3143     		orrs	r1, r6	@ tmp409, tmp405
 3054 0836 4174     		strb	r1, [r0, #17]	@ tmp409,
 3055              	@ .\driver\src\uart_va108xx.c:804: 	UART->info.status.TX_WRLOST        =      CHECK_BIT(UART->reg->
 804:.\driver\src/uart_va108xx.c **** 	UART->info.status.TX_CTS           =      CHECK_BIT(UART->reg->RXSTATUS, UART_PERIPHERAL_TXSTATUS_
 3056              		.loc 1 804 0
 3057 0838 1169     		ldr	r1, [r2, #16]	@ _44, _1->RXSTATUS
 3058 083a 467C     		ldrb	r6, [r0, #17]	@ tmp423,
 3059 083c C908     		lsrs	r1, r1, #3	@ tmp411, _44,
 3060 083e 1940     		ands	r1, r3	@ tmp413, tmp164
 3061 0840 AE43     		bics	r6, r5	@ tmp424, tmp282
 3062 0842 8901     		lsls	r1, r1, #6	@ tmp421, tmp413,
 3063 0844 3143     		orrs	r1, r6	@ tmp428, tmp424
 3064 0846 4174     		strb	r1, [r0, #17]	@ tmp428,
 3065              	@ .\driver\src\uart_va108xx.c:805: 	UART->info.status.TX_CTS           =      CHECK_BIT(UART->reg->
 805:.\driver\src/uart_va108xx.c ****   return UART->info.status; 
 3066              		.loc 1 805 0
 3067 0848 1269     		ldr	r2, [r2, #16]	@ _47, _1->RXSTATUS
 3068 084a D20B     		lsrs	r2, r2, #15	@ tmp430, _47,
 3069 084c 1340     		ands	r3, r2	@ tmp432, tmp430
 3070 084e CAB2     		uxtb	r2, r1	@ tmp439,
 3071 0850 1440     		ands	r4, r2	@ tmp440, tmp439
 3072 0852 DB01     		lsls	r3, r3, #7	@ tmp437, tmp432,
 3073 0854 2343     		orrs	r3, r4	@ tmp444, tmp440
 3074 0856 4374     		strb	r3, [r0, #17]	@ tmp444,
 3075              	@ .\driver\src\uart_va108xx.c:806:   return UART->info.status; 
 806:.\driver\src/uart_va108xx.c **** }
 3076              		.loc 1 806 0
 3077 0858 0069     		ldr	r0, [r0, #16]	@ D.5677, UART_67(D)->info.status
 3078              	.LVL280:
 3079              	@ .\driver\src\uart_va108xx.c:807: }
ARM GAS  C:\Users\claym\AppData\Local\Temp\cc2sTfd9.s 			page 79


 3080              		.loc 1 807 0
 3081 085a F0BD     		pop	{r4, r5, r6, r7, pc}
 3082              		.cfi_endproc
 3083              	.LFE63:
 3084              		.size	UART_GetStatus, .-UART_GetStatus
 3085              		.align	1
 3086              		.global	UART_IRQHandler
 3087              		.syntax unified
 3088              		.code	16
 3089              		.thumb_func
 3090              		.fpu softvfp
 3091              		.type	UART_IRQHandler, %function
 3092              	UART_IRQHandler:
 3093              	.LFB64:
 808:.\driver\src/uart_va108xx.c **** 
 809:.\driver\src/uart_va108xx.c **** 
 810:.\driver\src/uart_va108xx.c **** /**
 811:.\driver\src/uart_va108xx.c ****   function:    void UART_IRQHandler (UART_RESOURCES *UART)
 812:.\driver\src/uart_va108xx.c ****   brief:       UART Interrupt handler.
 813:.\driver\src/uart_va108xx.c ****   Input:       UART     Pointer to UART resources
 814:.\driver\src/uart_va108xx.c **** */
 815:.\driver\src/uart_va108xx.c **** void UART_IRQHandler (UART_RESOURCES *UART) {
 3094              		.loc 1 815 0
 3095              		.cfi_startproc
 3096              		@ args = 0, pretend = 0, frame = 8
 3097              		@ frame_needed = 0, uses_anonymous_args = 0
 3098              	.LVL281:
 3099 085c F7B5     		push	{r0, r1, r2, r4, r5, r6, r7, lr}	@
 3100              	.LCFI13:
 3101              		.cfi_def_cfa_offset 32
 3102              		.cfi_offset 0, -32
 3103              		.cfi_offset 1, -28
 3104              		.cfi_offset 2, -24
 3105              		.cfi_offset 4, -20
 3106              		.cfi_offset 5, -16
 3107              		.cfi_offset 6, -12
 3108              		.cfi_offset 7, -8
 3109              		.cfi_offset 14, -4
 3110              	@ .\driver\src\uart_va108xx.c:818:   UART->reg->IRQ_CLR = UART->reg->IRQ_END;
 816:.\driver\src/uart_va108xx.c ****   uint32_t event  = 0;
 817:.\driver\src/uart_va108xx.c ****   uint32_t rx_status, tx_status, irq_end;
 818:.\driver\src/uart_va108xx.c ****   UART->reg->IRQ_CLR = UART->reg->IRQ_END;
 3111              		.loc 1 818 0
 3112 085e 4168     		ldr	r1, [r0, #4]	@ _1, UART_110(D)->reg
 3113              	@ .\driver\src\uart_va108xx.c:815: void UART_IRQHandler (UART_RESOURCES *UART) {
 815:.\driver\src/uart_va108xx.c ****   uint32_t event  = 0;
 3114              		.loc 1 815 0
 3115 0860 0400     		movs	r4, r0	@ UART, UART
 3116              	@ .\driver\src\uart_va108xx.c:818:   UART->reg->IRQ_CLR = UART->reg->IRQ_END;
 3117              		.loc 1 818 0
 3118 0862 0B6B     		ldr	r3, [r1, #48]	@ _2, _1->IRQ_END
 3119 0864 4B63     		str	r3, [r1, #52]	@ _2, _1->IRQ_CLR
 3120              	@ .\driver\src\uart_va108xx.c:820: 	rx_status  = UART->reg->RXSTATUS;
 819:.\driver\src/uart_va108xx.c **** 	
 820:.\driver\src/uart_va108xx.c **** 	rx_status  = UART->reg->RXSTATUS;
 3121              		.loc 1 820 0
 3122 0866 0A69     		ldr	r2, [r1, #16]	@ rx_status, _1->RXSTATUS
ARM GAS  C:\Users\claym\AppData\Local\Temp\cc2sTfd9.s 			page 80


 3123              	.LVL282:
 3124              	@ .\driver\src\uart_va108xx.c:821:   tx_status  = UART->reg->TXSTATUS;
 821:.\driver\src/uart_va108xx.c ****   tx_status  = UART->reg->TXSTATUS;
 3125              		.loc 1 821 0
 3126 0868 4B69     		ldr	r3, [r1, #20]	@ tx_status, _1->TXSTATUS
 3127              	@ .\driver\src\uart_va108xx.c:822: 	irq_end    = UART->reg->IRQ_END;
 822:.\driver\src/uart_va108xx.c **** 	irq_end    = UART->reg->IRQ_END;
 3128              		.loc 1 822 0
 3129 086a 0E6B     		ldr	r6, [r1, #48]	@ irq_end, _1->IRQ_END
 3130              	@ .\driver\src\uart_va108xx.c:821:   tx_status  = UART->reg->TXSTATUS;
 821:.\driver\src/uart_va108xx.c ****   tx_status  = UART->reg->TXSTATUS;
 3131              		.loc 1 821 0
 3132 086c 0193     		str	r3, [sp, #4]	@ tx_status, %sfp
 3133              	.LVL283:
 3134              	@ .\driver\src\uart_va108xx.c:825: 	if((irq_end & UART_PERIPHERAL_IRQ_END_IRQ_TX_EMPTY_Msk) &&  (UA
 823:.\driver\src/uart_va108xx.c **** 
 824:.\driver\src/uart_va108xx.c **** 	// Check if Tx Is Completed. Turn off Interrupt
 825:.\driver\src/uart_va108xx.c **** 	if((irq_end & UART_PERIPHERAL_IRQ_END_IRQ_TX_EMPTY_Msk) &&  (UART->info.txidx >= UART->info.txcnt)
 3135              		.loc 1 825 0
 3136 086e 7306     		lsls	r3, r6, #25	@ tmp294, irq_end,
 3137 0870 1CD5     		bpl	.L258	@,
 3138              	.LVL284:
 3139              	@ .\driver\src\uart_va108xx.c:825: 	if((irq_end & UART_PERIPHERAL_IRQ_END_IRQ_TX_EMPTY_Msk) &&  (UA
 3140              		.loc 1 825 0 is_stmt 0 discriminator 1
 3141 0872 C36A     		ldr	r3, [r0, #44]	@ tmp310, UART_110(D)->info.txidx
 3142 0874 406A     		ldr	r0, [r0, #36]	@ tmp311, UART_110(D)->info.txcnt
 3143              	.LVL285:
 3144 0876 8342     		cmp	r3, r0	@ tmp310, tmp311
 3145 0878 18D3     		bcc	.L258	@,
 3146              	@ .\driver\src\uart_va108xx.c:825: 	if((irq_end & UART_PERIPHERAL_IRQ_END_IRQ_TX_EMPTY_Msk) &&  (UA
 3147              		.loc 1 825 0 discriminator 2
 3148 087a 0220     		movs	r0, #2	@ tmp206,
 3149 087c 4B68     		ldr	r3, [r1, #4]	@ _6, _1->ENABLE
 3150 087e 0342     		tst	r3, r0	@ _6, tmp206
 3151 0880 14D0     		beq	.L258	@,
 3152              	@ .\driver\src\uart_va108xx.c:826: 	    UART->reg->IRQ_ENB &=  ~(UART_PERIPHERAL_IRQ_ENB_IRQ_TX_Msk
 826:.\driver\src/uart_va108xx.c **** 	    UART->reg->IRQ_ENB &=  ~(UART_PERIPHERAL_IRQ_ENB_IRQ_TX_Msk | \
 3153              		.loc 1 826 0 is_stmt 1
 3154 0882 F022     		movs	r2, #240	@ tmp207,
 3155              	.LVL286:
 3156 0884 8B6A     		ldr	r3, [r1, #40]	@ _8, _1->IRQ_ENB
 3157 0886 9343     		bics	r3, r2	@ _9, tmp207
 3158 0888 8B62     		str	r3, [r1, #40]	@ _9, _1->IRQ_ENB
 3159              	@ .\driver\src\uart_va108xx.c:831: 		  UART->reg->ENABLE &= ~UART_PERIPHERAL_ENABLE_TXENABLE_Msk;
 827:.\driver\src/uart_va108xx.c **** 				 							 UART_PERIPHERAL_IRQ_ENB_IRQ_TX_STATUS_Msk | \
 828:.\driver\src/uart_va108xx.c **** 								        UART_PERIPHERAL_IRQ_ENB_IRQ_TX_EMPTY_Msk | \
 829:.\driver\src/uart_va108xx.c **** 										      UART_PERIPHERAL_IRQ_ENB_IRQ_TX_CTS_Msk );		  
 830:.\driver\src/uart_va108xx.c **** 			// Stop Tranmiter
 831:.\driver\src/uart_va108xx.c **** 		  UART->reg->ENABLE &= ~UART_PERIPHERAL_ENABLE_TXENABLE_Msk;
 3160              		.loc 1 831 0
 3161 088a 4B68     		ldr	r3, [r1, #4]	@ _10, _1->ENABLE
 3162 088c 8343     		bics	r3, r0	@ _11, tmp206
 3163 088e 4B60     		str	r3, [r1, #4]	@ _11, _1->ENABLE
 3164              	@ .\driver\src\uart_va108xx.c:832: 		  if(!(UART->reg->ENABLE&UART_PERIPHERAL_ENABLE_RXENABLE_Msk))
 832:.\driver\src/uart_va108xx.c **** 		  if(!(UART->reg->ENABLE&UART_PERIPHERAL_ENABLE_RXENABLE_Msk))
 3165              		.loc 1 832 0
 3166 0890 4B68     		ldr	r3, [r1, #4]	@ _12, _1->ENABLE
ARM GAS  C:\Users\claym\AppData\Local\Temp\cc2sTfd9.s 			page 81


 3167 0892 DB07     		lsls	r3, r3, #31	@ tmp295, _12,
 3168 0894 03D4     		bmi	.L259	@,
 3169              	@ .\driver\src\uart_va108xx.c:833:   		  VOR_Disable_Irq(VOR_IRQ_UART, UART->uart_id);
 833:.\driver\src/uart_va108xx.c ****   		  VOR_Disable_Irq(VOR_IRQ_UART, UART->uart_id);
 3170              		.loc 1 833 0
 3171 0896 2168     		ldr	r1, [r4]	@, UART_110(D)->uart_id
 3172 0898 0130     		adds	r0, r0, #1	@,
 3173 089a FFF7FEFF 		bl	VOR_Disable_Irq	@
 3174              	.LVL287:
 3175              	.L259:
 3176              	@ .\driver\src\uart_va108xx.c:835: 		  if(UART->info.cb_event)
 834:.\driver\src/uart_va108xx.c **** 
 835:.\driver\src/uart_va108xx.c **** 		  if(UART->info.cb_event)
 3177              		.loc 1 835 0
 3178 089e E368     		ldr	r3, [r4, #12]	@ _15, UART_110(D)->info.cb_event
 3179              	@ .\driver\src\uart_va108xx.c:836: 				UART->info.cb_event(VOR_UART_EVENT_TX_DONE);
 836:.\driver\src/uart_va108xx.c **** 				UART->info.cb_event(VOR_UART_EVENT_TX_DONE);
 3180              		.loc 1 836 0
 3181 08a0 8020     		movs	r0, #128	@,
 3182              	@ .\driver\src\uart_va108xx.c:835: 		  if(UART->info.cb_event)
 835:.\driver\src/uart_va108xx.c **** 				UART->info.cb_event(VOR_UART_EVENT_TX_DONE);
 3183              		.loc 1 835 0
 3184 08a2 002B     		cmp	r3, #0	@ _15,
 3185 08a4 4CD1     		bne	.L336	@,
 3186              	.LVL288:
 3187              	.L282:
 3188              	@ .\driver\src\uart_va108xx.c:920:   UART->reg->IRQ_CLR = irq_end;
 837:.\driver\src/uart_va108xx.c **** 			UART->reg->IRQ_CLR = irq_end;
 838:.\driver\src/uart_va108xx.c **** 			return;
 839:.\driver\src/uart_va108xx.c **** 	}
 840:.\driver\src/uart_va108xx.c **** 	
 841:.\driver\src/uart_va108xx.c **** 	// If Tx on progress
 842:.\driver\src/uart_va108xx.c **** 	if((irq_end & (UART_PERIPHERAL_IRQ_END_IRQ_TX_Msk | UART_PERIPHERAL_IRQ_END_IRQ_TX_EMPTY_Msk))&& (
 843:.\driver\src/uart_va108xx.c ****  	  while(( UART->info.txidx < UART->info.txcnt) && (UART->reg->TXSTATUS & UART_PERIPHERAL_TXSTATUS
 844:.\driver\src/uart_va108xx.c **** 		  UART->reg->DATA = UART->info.txdata[UART->info.txidx++];
 845:.\driver\src/uart_va108xx.c **** 		}
 846:.\driver\src/uart_va108xx.c **** 	}
 847:.\driver\src/uart_va108xx.c **** 			 
 848:.\driver\src/uart_va108xx.c **** 	
 849:.\driver\src/uart_va108xx.c **** 	 if((irq_end & (UART_PERIPHERAL_IRQ_END_IRQ_RX_Msk )) && (UART->reg->ENABLE & UART_PERIPHERAL_ENAB
 850:.\driver\src/uart_va108xx.c **** 	   while(( UART->info.rxidx < UART->info.rxcnt) && (UART->reg->RXSTATUS & UART_PERIPHERAL_RXSTATUS
 851:.\driver\src/uart_va108xx.c **** 		   UART->info.rxdata[UART->info.rxidx++] = UART->reg->DATA;
 852:.\driver\src/uart_va108xx.c **** 			 if(UART->info.rxidx == UART->info.rxcnt) {
 853:.\driver\src/uart_va108xx.c **** 		     UART->reg->IRQ_ENB &= ~(UART_PERIPHERAL_IRQ_ENB_IRQ_RX_Msk | \
 854:.\driver\src/uart_va108xx.c **** 					 							UART_PERIPHERAL_IRQ_ENB_IRQ_RX_STATUS_Msk | \
 855:.\driver\src/uart_va108xx.c **** 												UART_PERIPHERAL_IRQ_ENB_IRQ_RX_TO_Msk );
 856:.\driver\src/uart_va108xx.c **** 		   	 // Stop Receiver
 857:.\driver\src/uart_va108xx.c **** 		     UART->reg->ENABLE &= ~UART_PERIPHERAL_ENABLE_RXENABLE_Msk;
 858:.\driver\src/uart_va108xx.c **** 		     if(!(UART->reg->ENABLE&UART_PERIPHERAL_ENABLE_TXENABLE_Msk))
 859:.\driver\src/uart_va108xx.c **** 		       VOR_Disable_Irq(VOR_IRQ_UART, UART->uart_id);				 
 860:.\driver\src/uart_va108xx.c **** 		     if(UART->info.cb_event)
 861:.\driver\src/uart_va108xx.c **** 				   UART->info.cb_event(VOR_UART_EVENT_RX_DONE);
 862:.\driver\src/uart_va108xx.c **** 			   UART->reg->IRQ_CLR = irq_end;
 863:.\driver\src/uart_va108xx.c ****    			 return;			 
 864:.\driver\src/uart_va108xx.c **** 			 }
 865:.\driver\src/uart_va108xx.c **** 	   }
 866:.\driver\src/uart_va108xx.c ****    }
ARM GAS  C:\Users\claym\AppData\Local\Temp\cc2sTfd9.s 			page 82


 867:.\driver\src/uart_va108xx.c **** 	 
 868:.\driver\src/uart_va108xx.c **** 	if((UART->info.rxidx < UART->info.rxcnt) && (UART->reg->ENABLE &UART_PERIPHERAL_ENABLE_RXENABLE_Ms
 869:.\driver\src/uart_va108xx.c **** 		
 870:.\driver\src/uart_va108xx.c ****     if((rx_status & UART_PERIPHERAL_RXSTATUS_RXOVR_Msk) && (UART->info.rxidx < UART->info.rxcnt))
 871:.\driver\src/uart_va108xx.c ****   	  event |= VOR_UART_EVENT_RX_OVERFLOW;
 872:.\driver\src/uart_va108xx.c **** 
 873:.\driver\src/uart_va108xx.c ****     if((rx_status & UART_PERIPHERAL_RXSTATUS_RXFRM_Msk) && (UART->info.rxidx < UART->info.rxcnt))
 874:.\driver\src/uart_va108xx.c ****   	  event |= VOR_UART_EVENT_RX_FRAMING_ERROR;
 875:.\driver\src/uart_va108xx.c ****   
 876:.\driver\src/uart_va108xx.c ****     if((rx_status & UART_PERIPHERAL_RXSTATUS_RXPAR_Msk) && (UART->info.rxidx < UART->info.rxcnt))
 877:.\driver\src/uart_va108xx.c **** 	    event |= VOR_UART_EVENT_RX_PARITY_ERROR;
 878:.\driver\src/uart_va108xx.c ****   
 879:.\driver\src/uart_va108xx.c ****     if(rx_status & UART_PERIPHERAL_RXSTATUS_RXBRK_Msk)
 880:.\driver\src/uart_va108xx.c ****   	  event |= VOR_UART_EVENT_RX_BREAK;
 881:.\driver\src/uart_va108xx.c ****   
 882:.\driver\src/uart_va108xx.c ****     if(rx_status & UART_PERIPHERAL_RXSTATUS_RXTO_Msk)
 883:.\driver\src/uart_va108xx.c ****   	  event |= VOR_UART_EVENT_RX_TIMEOUT;
 884:.\driver\src/uart_va108xx.c **** 		
 885:.\driver\src/uart_va108xx.c **** 		if(event) {
 886:.\driver\src/uart_va108xx.c ****       UART->reg->IRQ_ENB &= ~(UART_PERIPHERAL_IRQ_ENB_IRQ_RX_Msk | \
 887:.\driver\src/uart_va108xx.c ****  	  	 							   UART_PERIPHERAL_IRQ_ENB_IRQ_RX_STATUS_Msk | \
 888:.\driver\src/uart_va108xx.c **** 		  										UART_PERIPHERAL_IRQ_ENB_IRQ_RX_TO_Msk );
 889:.\driver\src/uart_va108xx.c **** 		  // Stop Receiver
 890:.\driver\src/uart_va108xx.c **** 		  UART->reg->ENABLE &= ~UART_PERIPHERAL_ENABLE_RXENABLE_Msk;
 891:.\driver\src/uart_va108xx.c **** 		  if(!(UART->reg->ENABLE&UART_PERIPHERAL_ENABLE_TXENABLE_Msk))
 892:.\driver\src/uart_va108xx.c ****   		  VOR_Disable_Irq(VOR_IRQ_UART, UART->uart_id);				 
 893:.\driver\src/uart_va108xx.c **** 		  if(UART->info.cb_event)
 894:.\driver\src/uart_va108xx.c ****   		  UART->info.cb_event(event);
 895:.\driver\src/uart_va108xx.c **** 		}
 896:.\driver\src/uart_va108xx.c **** 	}
 897:.\driver\src/uart_va108xx.c **** 	if((UART->info.txidx < UART->info.txcnt) && (UART->reg->ENABLE &UART_PERIPHERAL_ENABLE_TXENABLE_Ms
 898:.\driver\src/uart_va108xx.c **** 
 899:.\driver\src/uart_va108xx.c ****     if(tx_status & UART_PERIPHERAL_TXSTATUS_WRLOST_Msk)
 900:.\driver\src/uart_va108xx.c **** 	    event |= VOR_UART_EVENT_TX_OVERFLOW;
 901:.\driver\src/uart_va108xx.c **** 	
 902:.\driver\src/uart_va108xx.c **** 	  if(irq_end & UART_PERIPHERAL_IRQ_END_IRQ_TX_CTS_Msk)
 903:.\driver\src/uart_va108xx.c ****   	  event |= VOR_UART_EVENT_TX_CTS;
 904:.\driver\src/uart_va108xx.c **** 
 905:.\driver\src/uart_va108xx.c **** 		if(event) {
 906:.\driver\src/uart_va108xx.c ****       UART->reg->IRQ_ENB &=  ~(UART_PERIPHERAL_IRQ_ENB_IRQ_TX_Msk | \
 907:.\driver\src/uart_va108xx.c **** 				 							 UART_PERIPHERAL_IRQ_ENB_IRQ_TX_STATUS_Msk | \
 908:.\driver\src/uart_va108xx.c **** 								        UART_PERIPHERAL_IRQ_ENB_IRQ_TX_EMPTY_Msk | \
 909:.\driver\src/uart_va108xx.c **** 										      UART_PERIPHERAL_IRQ_ENB_IRQ_TX_CTS_Msk );		  
 910:.\driver\src/uart_va108xx.c **** 		  // Stop Tranmiter
 911:.\driver\src/uart_va108xx.c **** 	    UART->reg->ENABLE &= ~UART_PERIPHERAL_ENABLE_TXENABLE_Msk;
 912:.\driver\src/uart_va108xx.c **** 	    if(!(UART->reg->ENABLE&UART_PERIPHERAL_ENABLE_RXENABLE_Msk))
 913:.\driver\src/uart_va108xx.c ****    		  VOR_Disable_Irq(VOR_IRQ_UART, UART->uart_id);
 914:.\driver\src/uart_va108xx.c **** 
 915:.\driver\src/uart_va108xx.c ****   	  if(UART->info.cb_event)
 916:.\driver\src/uart_va108xx.c **** 	  		UART->info.cb_event(event);
 917:.\driver\src/uart_va108xx.c **** 		}
 918:.\driver\src/uart_va108xx.c ****   }		
 919:.\driver\src/uart_va108xx.c ****   
 920:.\driver\src/uart_va108xx.c ****   UART->reg->IRQ_CLR = irq_end;
 3189              		.loc 1 920 0
 3190 08a6 6368     		ldr	r3, [r4, #4]	@ _87, UART_110(D)->reg
 3191              	@ .\driver\src\uart_va108xx.c:924: }
ARM GAS  C:\Users\claym\AppData\Local\Temp\cc2sTfd9.s 			page 83


 921:.\driver\src/uart_va108xx.c ****   
 922:.\driver\src/uart_va108xx.c **** 	
 923:.\driver\src/uart_va108xx.c ****   return;
 924:.\driver\src/uart_va108xx.c **** }
 3192              		.loc 1 924 0
 3193              		@ sp needed	@
 3194              	@ .\driver\src\uart_va108xx.c:920:   UART->reg->IRQ_CLR = irq_end;
 920:.\driver\src/uart_va108xx.c ****   
 3195              		.loc 1 920 0
 3196 08a8 5E63     		str	r6, [r3, #52]	@ irq_end,
 3197              	.LVL289:
 3198              	.LVL290:
 3199              	@ .\driver\src\uart_va108xx.c:924: }
 3200              		.loc 1 924 0
 3201 08aa F7BD     		pop	{r0, r1, r2, r4, r5, r6, r7, pc}
 3202              	.LVL291:
 3203              	.L258:
 3204              	@ .\driver\src\uart_va108xx.c:842: 	if((irq_end & (UART_PERIPHERAL_IRQ_END_IRQ_TX_Msk | UART_PERIPH
 842:.\driver\src/uart_va108xx.c ****  	  while(( UART->info.txidx < UART->info.txcnt) && (UART->reg->TXSTATUS & UART_PERIPHERAL_TXSTATUS
 3205              		.loc 1 842 0
 3206 08ac 5023     		movs	r3, #80	@ tmp212,
 3207 08ae 1E42     		tst	r6, r3	@ irq_end, tmp212
 3208 08b0 08D1     		bne	.L262	@,
 3209              	.L265:
 3210              	@ .\driver\src\uart_va108xx.c:849: 	 if((irq_end & (UART_PERIPHERAL_IRQ_END_IRQ_RX_Msk )) && (UART-
 849:.\driver\src/uart_va108xx.c **** 	   while(( UART->info.rxidx < UART->info.rxcnt) && (UART->reg->RXSTATUS & UART_PERIPHERAL_RXSTATUS
 3211              		.loc 1 849 0
 3212 08b2 0123     		movs	r3, #1	@ tmp214,
 3213 08b4 1E42     		tst	r6, r3	@ irq_end, tmp214
 3214 08b6 17D1     		bne	.L263	@,
 3215              	.L264:
 3216              	@ .\driver\src\uart_va108xx.c:868: 	if((UART->info.rxidx < UART->info.rxcnt) && (UART->reg->ENABLE 
 868:.\driver\src/uart_va108xx.c **** 		
 3217              		.loc 1 868 0
 3218 08b8 236B     		ldr	r3, [r4, #48]	@ tmp314, UART_110(D)->info.rxidx
 3219 08ba A16A     		ldr	r1, [r4, #40]	@ tmp315, UART_110(D)->info.rxcnt
 3220 08bc 8B42     		cmp	r3, r1	@ tmp314, tmp315
 3221 08be 41D3     		bcc	.L268	@,
 3222              	.L289:
 3223              	@ .\driver\src\uart_va108xx.c:816:   uint32_t event  = 0;
 816:.\driver\src/uart_va108xx.c ****   uint32_t rx_status, tx_status, irq_end;
 3224              		.loc 1 816 0
 3225 08c0 0025     		movs	r5, #0	@ event,
 3226 08c2 71E0     		b	.L269	@
 3227              	.L262:
 3228              	@ .\driver\src\uart_va108xx.c:842: 	if((irq_end & (UART_PERIPHERAL_IRQ_END_IRQ_TX_Msk | UART_PERIPH
 842:.\driver\src/uart_va108xx.c ****  	  while(( UART->info.txidx < UART->info.txcnt) && (UART->reg->TXSTATUS & UART_PERIPHERAL_TXSTATUS
 3229              		.loc 1 842 0 discriminator 1
 3230 08c4 4B68     		ldr	r3, [r1, #4]	@ _18, _1->ENABLE
 3231 08c6 9B07     		lsls	r3, r3, #30	@ tmp296, _18,
 3232 08c8 F3D5     		bpl	.L265	@,
 3233              	@ .\driver\src\uart_va108xx.c:843:  	  while(( UART->info.txidx < UART->info.txcnt) && (UART->reg->
 843:.\driver\src/uart_va108xx.c **** 		  UART->reg->DATA = UART->info.txdata[UART->info.txidx++];
 3234              		.loc 1 843 0
 3235 08ca 0120     		movs	r0, #1	@ tmp291,
 3236 08cc 656A     		ldr	r5, [r4, #36]	@ _24, UART_110(D)->info.txcnt
 3237              	.L266:
ARM GAS  C:\Users\claym\AppData\Local\Temp\cc2sTfd9.s 			page 84


 3238 08ce E36A     		ldr	r3, [r4, #44]	@ _23, UART_110(D)->info.txidx
 3239 08d0 AB42     		cmp	r3, r5	@ _23, _24
 3240 08d2 EED2     		bcs	.L265	@,
 3241              	@ .\driver\src\uart_va108xx.c:843:  	  while(( UART->info.txidx < UART->info.txcnt) && (UART->reg->
 843:.\driver\src/uart_va108xx.c **** 		  UART->reg->DATA = UART->info.txdata[UART->info.txidx++];
 3242              		.loc 1 843 0 is_stmt 0 discriminator 1
 3243 08d4 4F69     		ldr	r7, [r1, #20]	@ _25, _1->TXSTATUS
 3244 08d6 0742     		tst	r7, r0	@ _25, tmp291
 3245 08d8 EBD0     		beq	.L265	@,
 3246              	@ .\driver\src\uart_va108xx.c:844: 		  UART->reg->DATA = UART->info.txdata[UART->info.txidx++];
 844:.\driver\src/uart_va108xx.c **** 		}
 3247              		.loc 1 844 0 is_stmt 1
 3248 08da 5F1C     		adds	r7, r3, #1	@ tmp217, _23,
 3249 08dc E318     		adds	r3, r4, r3	@ tmp218, UART, _23
 3250 08de E762     		str	r7, [r4, #44]	@ tmp217, UART_110(D)->info.txidx
 3251 08e0 3433     		adds	r3, r3, #52	@ tmp221,
 3252 08e2 1B78     		ldrb	r3, [r3]	@ _22, *UART_110(D)
 3253 08e4 0B60     		str	r3, [r1]	@ _22, _1->DATA
 3254 08e6 F2E7     		b	.L266	@
 3255              	.L263:
 3256              	@ .\driver\src\uart_va108xx.c:849: 	 if((irq_end & (UART_PERIPHERAL_IRQ_END_IRQ_RX_Msk )) && (UART-
 849:.\driver\src/uart_va108xx.c **** 	   while(( UART->info.rxidx < UART->info.rxcnt) && (UART->reg->RXSTATUS & UART_PERIPHERAL_RXSTATUS
 3257              		.loc 1 849 0 discriminator 1
 3258 08e8 4968     		ldr	r1, [r1, #4]	@ _28, _1->ENABLE
 3259 08ea 1942     		tst	r1, r3	@ _28, tmp214
 3260 08ec E4D0     		beq	.L264	@,
 3261              	@ .\driver\src\uart_va108xx.c:851: 		   UART->info.rxdata[UART->info.rxidx++] = UART->reg->DATA;
 851:.\driver\src/uart_va108xx.c **** 			 if(UART->info.rxidx == UART->info.rxcnt) {
 3262              		.loc 1 851 0
 3263 08ee 2000     		movs	r0, r4	@ tmp290, UART
 3264              	@ .\driver\src\uart_va108xx.c:850: 	   while(( UART->info.rxidx < UART->info.rxcnt) && (UART->reg->
 850:.\driver\src/uart_va108xx.c **** 		   UART->info.rxdata[UART->info.rxidx++] = UART->reg->DATA;
 3265              		.loc 1 850 0
 3266 08f0 0093     		str	r3, [sp]	@ tmp214, %sfp
 3267              	@ .\driver\src\uart_va108xx.c:851: 		   UART->info.rxdata[UART->info.rxidx++] = UART->reg->DATA;
 851:.\driver\src/uart_va108xx.c **** 			 if(UART->info.rxidx == UART->info.rxcnt) {
 3268              		.loc 1 851 0
 3269 08f2 B430     		adds	r0, r0, #180	@ tmp290,
 3270              	.L270:
 3271              	@ .\driver\src\uart_va108xx.c:850: 	   while(( UART->info.rxidx < UART->info.rxcnt) && (UART->reg->
 850:.\driver\src/uart_va108xx.c **** 		   UART->info.rxdata[UART->info.rxidx++] = UART->reg->DATA;
 3272              		.loc 1 850 0
 3273 08f4 216B     		ldr	r1, [r4, #48]	@ _47, UART_110(D)->info.rxidx
 3274 08f6 A36A     		ldr	r3, [r4, #40]	@ tmp325, UART_110(D)->info.rxcnt
 3275 08f8 6568     		ldr	r5, [r4, #4]	@ pretmp_95, UART_110(D)->reg
 3276 08fa 9942     		cmp	r1, r3	@ _47, tmp325
 3277 08fc DCD2     		bcs	.L264	@,
 3278              	@ .\driver\src\uart_va108xx.c:850: 	   while(( UART->info.rxidx < UART->info.rxcnt) && (UART->reg->
 850:.\driver\src/uart_va108xx.c **** 		   UART->info.rxdata[UART->info.rxidx++] = UART->reg->DATA;
 3279              		.loc 1 850 0 is_stmt 0 discriminator 1
 3280 08fe 2F69     		ldr	r7, [r5, #16]	@ _50, pretmp_95->RXSTATUS
 3281 0900 009B     		ldr	r3, [sp]	@ tmp289, %sfp
 3282 0902 1F42     		tst	r7, r3	@ _50, tmp289
 3283 0904 D8D0     		beq	.L264	@,
 3284              	@ .\driver\src\uart_va108xx.c:851: 		   UART->info.rxdata[UART->info.rxidx++] = UART->reg->DATA;
 851:.\driver\src/uart_va108xx.c **** 			 if(UART->info.rxidx == UART->info.rxcnt) {
 3285              		.loc 1 851 0 is_stmt 1
ARM GAS  C:\Users\claym\AppData\Local\Temp\cc2sTfd9.s 			page 85


 3286 0906 2F68     		ldr	r7, [r5]	@ _30, pretmp_95->DATA
 3287 0908 0568     		ldr	r5, [r0]	@ _31, UART_110(D)->info.rxdata
 3288 090a 4B1C     		adds	r3, r1, #1	@ tmp231, _47,
 3289 090c 2363     		str	r3, [r4, #48]	@ tmp231, UART_110(D)->info.rxidx
 3290 090e 6F54     		strb	r7, [r5, r1]	@ _30, *_33
 3291              	@ .\driver\src\uart_va108xx.c:852: 			 if(UART->info.rxidx == UART->info.rxcnt) {
 852:.\driver\src/uart_va108xx.c **** 		     UART->reg->IRQ_ENB &= ~(UART_PERIPHERAL_IRQ_ENB_IRQ_RX_Msk | \
 3292              		.loc 1 852 0
 3293 0910 236B     		ldr	r3, [r4, #48]	@ tmp321, UART_110(D)->info.rxidx
 3294 0912 A16A     		ldr	r1, [r4, #40]	@ tmp322, UART_110(D)->info.rxcnt
 3295 0914 8B42     		cmp	r3, r1	@ tmp321, tmp322
 3296 0916 EDD1     		bne	.L270	@,
 3297              	@ .\driver\src\uart_va108xx.c:853: 		     UART->reg->IRQ_ENB &= ~(UART_PERIPHERAL_IRQ_ENB_IRQ_RX_Ms
 853:.\driver\src/uart_va108xx.c **** 					 							UART_PERIPHERAL_IRQ_ENB_IRQ_RX_STATUS_Msk | \
 3298              		.loc 1 853 0
 3299 0918 0720     		movs	r0, #7	@ tmp235,
 3300 091a 6268     		ldr	r2, [r4, #4]	@ _37, UART_110(D)->reg
 3301              	.LVL292:
 3302              	@ .\driver\src\uart_va108xx.c:857: 		     UART->reg->ENABLE &= ~UART_PERIPHERAL_ENABLE_RXENABLE_Msk
 857:.\driver\src/uart_va108xx.c **** 		     if(!(UART->reg->ENABLE&UART_PERIPHERAL_ENABLE_TXENABLE_Msk))
 3303              		.loc 1 857 0
 3304 091c 009B     		ldr	r3, [sp]	@ tmp289, %sfp
 3305              	@ .\driver\src\uart_va108xx.c:853: 		     UART->reg->IRQ_ENB &= ~(UART_PERIPHERAL_IRQ_ENB_IRQ_RX_Ms
 853:.\driver\src/uart_va108xx.c **** 					 							UART_PERIPHERAL_IRQ_ENB_IRQ_RX_STATUS_Msk | \
 3306              		.loc 1 853 0
 3307 091e 916A     		ldr	r1, [r2, #40]	@ _38, _37->IRQ_ENB
 3308 0920 8143     		bics	r1, r0	@ _39, tmp235
 3309 0922 9162     		str	r1, [r2, #40]	@ _39, _37->IRQ_ENB
 3310              	@ .\driver\src\uart_va108xx.c:857: 		     UART->reg->ENABLE &= ~UART_PERIPHERAL_ENABLE_RXENABLE_Msk
 857:.\driver\src/uart_va108xx.c **** 		     if(!(UART->reg->ENABLE&UART_PERIPHERAL_ENABLE_TXENABLE_Msk))
 3311              		.loc 1 857 0
 3312 0924 5168     		ldr	r1, [r2, #4]	@ _40, _37->ENABLE
 3313 0926 9943     		bics	r1, r3	@ _41, tmp289
 3314 0928 5160     		str	r1, [r2, #4]	@ _41, _37->ENABLE
 3315              	@ .\driver\src\uart_va108xx.c:858: 		     if(!(UART->reg->ENABLE&UART_PERIPHERAL_ENABLE_TXENABLE_Ms
 858:.\driver\src/uart_va108xx.c **** 		       VOR_Disable_Irq(VOR_IRQ_UART, UART->uart_id);				 
 3316              		.loc 1 858 0
 3317 092a 5368     		ldr	r3, [r2, #4]	@ _42, _37->ENABLE
 3318 092c 9B07     		lsls	r3, r3, #30	@ tmp297, _42,
 3319 092e 03D4     		bmi	.L271	@,
 3320              	@ .\driver\src\uart_va108xx.c:859: 		       VOR_Disable_Irq(VOR_IRQ_UART, UART->uart_id);				 
 859:.\driver\src/uart_va108xx.c **** 		     if(UART->info.cb_event)
 3321              		.loc 1 859 0
 3322 0930 2168     		ldr	r1, [r4]	@, UART_110(D)->uart_id
 3323 0932 0438     		subs	r0, r0, #4	@,
 3324 0934 FFF7FEFF 		bl	VOR_Disable_Irq	@
 3325              	.LVL293:
 3326              	.L271:
 3327              	@ .\driver\src\uart_va108xx.c:860: 		     if(UART->info.cb_event)
 860:.\driver\src/uart_va108xx.c **** 				   UART->info.cb_event(VOR_UART_EVENT_RX_DONE);
 3328              		.loc 1 860 0
 3329 0938 E368     		ldr	r3, [r4, #12]	@ _45, UART_110(D)->info.cb_event
 3330              	@ .\driver\src\uart_va108xx.c:861: 				   UART->info.cb_event(VOR_UART_EVENT_RX_DONE);
 861:.\driver\src/uart_va108xx.c **** 			   UART->reg->IRQ_CLR = irq_end;
 3331              		.loc 1 861 0
 3332 093a 0120     		movs	r0, #1	@,
 3333              	@ .\driver\src\uart_va108xx.c:860: 		     if(UART->info.cb_event)
ARM GAS  C:\Users\claym\AppData\Local\Temp\cc2sTfd9.s 			page 86


 860:.\driver\src/uart_va108xx.c **** 				   UART->info.cb_event(VOR_UART_EVENT_RX_DONE);
 3334              		.loc 1 860 0
 3335 093c 002B     		cmp	r3, #0	@ _45,
 3336 093e B2D0     		beq	.L282	@,
 3337              	.LVL294:
 3338              	.L336:
 3339              	@ .\driver\src\uart_va108xx.c:916: 	  		UART->info.cb_event(event);
 916:.\driver\src/uart_va108xx.c **** 		}
 3340              		.loc 1 916 0
 3341 0940 9847     		blx	r3	@ _86
 3342              	.LVL295:
 3343 0942 B0E7     		b	.L282	@
 3344              	.LVL296:
 3345              	.L268:
 3346 0944 6368     		ldr	r3, [r4, #4]	@ pretmp_92, UART_110(D)->reg
 3347              	@ .\driver\src\uart_va108xx.c:816:   uint32_t event  = 0;
 816:.\driver\src/uart_va108xx.c ****   uint32_t rx_status, tx_status, irq_end;
 3348              		.loc 1 816 0 discriminator 1
 3349 0946 0025     		movs	r5, #0	@ event,
 3350              	@ .\driver\src\uart_va108xx.c:868: 	if((UART->info.rxidx < UART->info.rxcnt) && (UART->reg->ENABLE 
 868:.\driver\src/uart_va108xx.c **** 		
 3351              		.loc 1 868 0 discriminator 1
 3352 0948 5968     		ldr	r1, [r3, #4]	@ _55, pretmp_92->ENABLE
 3353 094a C907     		lsls	r1, r1, #31	@ tmp298, _55,
 3354 094c 2CD5     		bpl	.L269	@,
 3355              	@ .\driver\src\uart_va108xx.c:868: 	if((UART->info.rxidx < UART->info.rxcnt) && (UART->reg->ENABLE 
 868:.\driver\src/uart_va108xx.c **** 		
 3356              		.loc 1 868 0 is_stmt 0 discriminator 2
 3357 094e A569     		ldr	r5, [r4, #24]	@ event, UART_110(D)->info.poll_mode
 3358 0950 002D     		cmp	r5, #0	@ event,
 3359 0952 B5D1     		bne	.L289	@,
 3360              	@ .\driver\src\uart_va108xx.c:870:     if((rx_status & UART_PERIPHERAL_RXSTATUS_RXOVR_Msk) && (UART
 870:.\driver\src/uart_va108xx.c ****   	  event |= VOR_UART_EVENT_RX_OVERFLOW;
 3361              		.loc 1 870 0 is_stmt 1
 3362 0954 D106     		lsls	r1, r2, #27	@ tmp299, rx_status,
 3363 0956 00D5     		bpl	.L274	@,
 3364              	@ .\driver\src\uart_va108xx.c:871:   	  event |= VOR_UART_EVENT_RX_OVERFLOW;
 871:.\driver\src/uart_va108xx.c **** 
 3365              		.loc 1 871 0
 3366 0958 0235     		adds	r5, r5, #2	@ event,
 3367              	.L274:
 3368              	.LVL297:
 3369              	@ .\driver\src\uart_va108xx.c:873:     if((rx_status & UART_PERIPHERAL_RXSTATUS_RXFRM_Msk) && (UART
 873:.\driver\src/uart_va108xx.c ****   	  event |= VOR_UART_EVENT_RX_FRAMING_ERROR;
 3370              		.loc 1 873 0
 3371 095a 9106     		lsls	r1, r2, #26	@ tmp300, rx_status,
 3372 095c 01D5     		bpl	.L275	@,
 3373              	@ .\driver\src\uart_va108xx.c:874:   	  event |= VOR_UART_EVENT_RX_FRAMING_ERROR;
 874:.\driver\src/uart_va108xx.c ****   
 3374              		.loc 1 874 0
 3375 095e 0421     		movs	r1, #4	@ tmp250,
 3376 0960 0D43     		orrs	r5, r1	@ event, tmp250
 3377              	.LVL298:
 3378              	.L275:
 3379              	@ .\driver\src\uart_va108xx.c:876:     if((rx_status & UART_PERIPHERAL_RXSTATUS_RXPAR_Msk) && (UART
 876:.\driver\src/uart_va108xx.c **** 	    event |= VOR_UART_EVENT_RX_PARITY_ERROR;
 3380              		.loc 1 876 0
ARM GAS  C:\Users\claym\AppData\Local\Temp\cc2sTfd9.s 			page 87


 3381 0962 5106     		lsls	r1, r2, #25	@ tmp301, rx_status,
 3382 0964 01D5     		bpl	.L276	@,
 3383              	@ .\driver\src\uart_va108xx.c:877: 	    event |= VOR_UART_EVENT_RX_PARITY_ERROR;
 877:.\driver\src/uart_va108xx.c ****   
 3384              		.loc 1 877 0
 3385 0966 0821     		movs	r1, #8	@ tmp255,
 3386 0968 0D43     		orrs	r5, r1	@ event, tmp255
 3387              	.LVL299:
 3388              	.L276:
 3389              	@ .\driver\src\uart_va108xx.c:879:     if(rx_status & UART_PERIPHERAL_RXSTATUS_RXBRK_Msk)
 879:.\driver\src/uart_va108xx.c ****   	  event |= VOR_UART_EVENT_RX_BREAK;
 3390              		.loc 1 879 0
 3391 096a 1106     		lsls	r1, r2, #24	@ tmp302, rx_status,
 3392 096c 01D5     		bpl	.L277	@,
 3393              	@ .\driver\src\uart_va108xx.c:880:   	  event |= VOR_UART_EVENT_RX_BREAK;
 880:.\driver\src/uart_va108xx.c ****   
 3394              		.loc 1 880 0
 3395 096e 1021     		movs	r1, #16	@ tmp260,
 3396 0970 0D43     		orrs	r5, r1	@ event, tmp260
 3397              	.LVL300:
 3398              	.L277:
 3399              	@ .\driver\src\uart_va108xx.c:882:     if(rx_status & UART_PERIPHERAL_RXSTATUS_RXTO_Msk)
 882:.\driver\src/uart_va108xx.c ****   	  event |= VOR_UART_EVENT_RX_TIMEOUT;
 3400              		.loc 1 882 0
 3401 0972 1207     		lsls	r2, r2, #28	@ tmp303, rx_status,
 3402 0974 16D5     		bpl	.L278	@,
 3403              	.LVL301:
 3404              	@ .\driver\src\uart_va108xx.c:883:   	  event |= VOR_UART_EVENT_RX_TIMEOUT;
 883:.\driver\src/uart_va108xx.c **** 		
 3405              		.loc 1 883 0
 3406 0976 2022     		movs	r2, #32	@ tmp265,
 3407 0978 1543     		orrs	r5, r2	@ event, tmp265
 3408              	.LVL302:
 3409              	.L279:
 3410              	@ .\driver\src\uart_va108xx.c:886:       UART->reg->IRQ_ENB &= ~(UART_PERIPHERAL_IRQ_ENB_IRQ_RX_Msk
 886:.\driver\src/uart_va108xx.c ****  	  	 							   UART_PERIPHERAL_IRQ_ENB_IRQ_RX_STATUS_Msk | \
 3411              		.loc 1 886 0
 3412 097a 0721     		movs	r1, #7	@ tmp266,
 3413 097c 9A6A     		ldr	r2, [r3, #40]	@ _63, pretmp_92->IRQ_ENB
 3414 097e 8A43     		bics	r2, r1	@ _64, tmp266
 3415 0980 9A62     		str	r2, [r3, #40]	@ _64, pretmp_92->IRQ_ENB
 3416              	@ .\driver\src\uart_va108xx.c:890: 		  UART->reg->ENABLE &= ~UART_PERIPHERAL_ENABLE_RXENABLE_Msk;
 890:.\driver\src/uart_va108xx.c **** 		  if(!(UART->reg->ENABLE&UART_PERIPHERAL_ENABLE_TXENABLE_Msk))
 3417              		.loc 1 890 0
 3418 0982 5A68     		ldr	r2, [r3, #4]	@ _65, pretmp_92->ENABLE
 3419 0984 0639     		subs	r1, r1, #6	@ tmp267,
 3420 0986 8A43     		bics	r2, r1	@ _66, tmp267
 3421 0988 5A60     		str	r2, [r3, #4]	@ _66, pretmp_92->ENABLE
 3422              	@ .\driver\src\uart_va108xx.c:891: 		  if(!(UART->reg->ENABLE&UART_PERIPHERAL_ENABLE_TXENABLE_Msk))
 891:.\driver\src/uart_va108xx.c ****   		  VOR_Disable_Irq(VOR_IRQ_UART, UART->uart_id);				 
 3423              		.loc 1 891 0
 3424 098a 5B68     		ldr	r3, [r3, #4]	@ _67, pretmp_92->ENABLE
 3425 098c 9B07     		lsls	r3, r3, #30	@ tmp304, _67,
 3426 098e 03D4     		bmi	.L280	@,
 3427              	@ .\driver\src\uart_va108xx.c:892:   		  VOR_Disable_Irq(VOR_IRQ_UART, UART->uart_id);				 
 892:.\driver\src/uart_va108xx.c **** 		  if(UART->info.cb_event)
 3428              		.loc 1 892 0
ARM GAS  C:\Users\claym\AppData\Local\Temp\cc2sTfd9.s 			page 88


 3429 0990 2168     		ldr	r1, [r4]	@, UART_110(D)->uart_id
 3430 0992 0320     		movs	r0, #3	@,
 3431 0994 FFF7FEFF 		bl	VOR_Disable_Irq	@
 3432              	.LVL303:
 3433              	.L280:
 3434              	@ .\driver\src\uart_va108xx.c:893: 		  if(UART->info.cb_event)
 893:.\driver\src/uart_va108xx.c ****   		  UART->info.cb_event(event);
 3435              		.loc 1 893 0
 3436 0998 E368     		ldr	r3, [r4, #12]	@ _70, UART_110(D)->info.cb_event
 3437 099a 002B     		cmp	r3, #0	@ _70,
 3438 099c 04D0     		beq	.L269	@,
 3439              	@ .\driver\src\uart_va108xx.c:894:   		  UART->info.cb_event(event);
 894:.\driver\src/uart_va108xx.c **** 		}
 3440              		.loc 1 894 0
 3441 099e 2800     		movs	r0, r5	@, event
 3442 09a0 9847     		blx	r3	@ _70
 3443              	.LVL304:
 3444 09a2 01E0     		b	.L269	@
 3445              	.L278:
 3446              	@ .\driver\src\uart_va108xx.c:885: 		if(event) {
 885:.\driver\src/uart_va108xx.c ****       UART->reg->IRQ_ENB &= ~(UART_PERIPHERAL_IRQ_ENB_IRQ_RX_Msk | \
 3447              		.loc 1 885 0
 3448 09a4 002D     		cmp	r5, #0	@ event,
 3449 09a6 E8D1     		bne	.L279	@,
 3450              	.LVL305:
 3451              	.L269:
 3452              	@ .\driver\src\uart_va108xx.c:897: 	if((UART->info.txidx < UART->info.txcnt) && (UART->reg->ENABLE 
 897:.\driver\src/uart_va108xx.c **** 
 3453              		.loc 1 897 0
 3454 09a8 E36A     		ldr	r3, [r4, #44]	@ tmp327, UART_110(D)->info.txidx
 3455 09aa 626A     		ldr	r2, [r4, #36]	@ tmp328, UART_110(D)->info.txcnt
 3456 09ac 9342     		cmp	r3, r2	@ tmp327, tmp328
 3457 09ae 00D3     		bcc	.LCB2721	@
 3458 09b0 79E7     		b	.L282	@long jump	@
 3459              	.LCB2721:
 3460 09b2 6268     		ldr	r2, [r4, #4]	@ pretmp_192, UART_110(D)->reg
 3461              	@ .\driver\src\uart_va108xx.c:897: 	if((UART->info.txidx < UART->info.txcnt) && (UART->reg->ENABLE 
 897:.\driver\src/uart_va108xx.c **** 
 3462              		.loc 1 897 0 is_stmt 0 discriminator 1
 3463 09b4 5368     		ldr	r3, [r2, #4]	@ _74, pretmp_192->ENABLE
 3464 09b6 9B07     		lsls	r3, r3, #30	@ tmp305, _74,
 3465 09b8 00D4     		bmi	.LCB2727	@
 3466 09ba 74E7     		b	.L282	@long jump	@
 3467              	.LCB2727:
 3468              	@ .\driver\src\uart_va108xx.c:897: 	if((UART->info.txidx < UART->info.txcnt) && (UART->reg->ENABLE 
 897:.\driver\src/uart_va108xx.c **** 
 3469              		.loc 1 897 0 discriminator 2
 3470 09bc A369     		ldr	r3, [r4, #24]	@ tmp331, UART_110(D)->info.poll_mode
 3471 09be 002B     		cmp	r3, #0	@ tmp331,
 3472 09c0 00D0     		beq	.LCB2731	@
 3473 09c2 70E7     		b	.L282	@long jump	@
 3474              	.LCB2731:
 3475              	@ .\driver\src\uart_va108xx.c:899:     if(tx_status & UART_PERIPHERAL_TXSTATUS_WRLOST_Msk)
 899:.\driver\src/uart_va108xx.c **** 	    event |= VOR_UART_EVENT_TX_OVERFLOW;
 3476              		.loc 1 899 0 is_stmt 1
 3477 09c4 019B     		ldr	r3, [sp, #4]	@ tx_status, %sfp
 3478 09c6 1B07     		lsls	r3, r3, #28	@ tmp306, tx_status,
ARM GAS  C:\Users\claym\AppData\Local\Temp\cc2sTfd9.s 			page 89


 3479 09c8 02D5     		bpl	.L284	@,
 3480              	@ .\driver\src\uart_va108xx.c:900: 	    event |= VOR_UART_EVENT_TX_OVERFLOW;
 900:.\driver\src/uart_va108xx.c **** 	
 3481              		.loc 1 900 0
 3482 09ca 8023     		movs	r3, #128	@ tmp279,
 3483 09cc 5B00     		lsls	r3, r3, #1	@ tmp279, tmp279,
 3484 09ce 1D43     		orrs	r5, r3	@ event, tmp279
 3485              	.LVL306:
 3486              	.L284:
 3487              	@ .\driver\src\uart_va108xx.c:902: 	  if(irq_end & UART_PERIPHERAL_IRQ_END_IRQ_TX_CTS_Msk)
 902:.\driver\src/uart_va108xx.c ****   	  event |= VOR_UART_EVENT_TX_CTS;
 3488              		.loc 1 902 0
 3489 09d0 3306     		lsls	r3, r6, #24	@ tmp307, irq_end,
 3490 09d2 17D5     		bpl	.L285	@,
 3491              	@ .\driver\src\uart_va108xx.c:903:   	  event |= VOR_UART_EVENT_TX_CTS;
 903:.\driver\src/uart_va108xx.c **** 
 3492              		.loc 1 903 0
 3493 09d4 8023     		movs	r3, #128	@ tmp284,
 3494 09d6 DB00     		lsls	r3, r3, #3	@ tmp284, tmp284,
 3495 09d8 1D43     		orrs	r5, r3	@ event, tmp284
 3496              	.LVL307:
 3497              	.L286:
 3498              	@ .\driver\src\uart_va108xx.c:906:       UART->reg->IRQ_ENB &=  ~(UART_PERIPHERAL_IRQ_ENB_IRQ_TX_Ms
 906:.\driver\src/uart_va108xx.c **** 				 							 UART_PERIPHERAL_IRQ_ENB_IRQ_TX_STATUS_Msk | \
 3499              		.loc 1 906 0
 3500 09da F021     		movs	r1, #240	@ tmp285,
 3501 09dc 936A     		ldr	r3, [r2, #40]	@ _79, pretmp_192->IRQ_ENB
 3502 09de 8B43     		bics	r3, r1	@ _80, tmp285
 3503 09e0 9362     		str	r3, [r2, #40]	@ _80, pretmp_192->IRQ_ENB
 3504              	@ .\driver\src\uart_va108xx.c:911: 	    UART->reg->ENABLE &= ~UART_PERIPHERAL_ENABLE_TXENABLE_Msk;
 911:.\driver\src/uart_va108xx.c **** 	    if(!(UART->reg->ENABLE&UART_PERIPHERAL_ENABLE_RXENABLE_Msk))
 3505              		.loc 1 911 0
 3506 09e2 5368     		ldr	r3, [r2, #4]	@ _81, pretmp_192->ENABLE
 3507 09e4 EE39     		subs	r1, r1, #238	@ tmp286,
 3508 09e6 8B43     		bics	r3, r1	@ _82, tmp286
 3509 09e8 5360     		str	r3, [r2, #4]	@ _82, pretmp_192->ENABLE
 3510              	@ .\driver\src\uart_va108xx.c:912: 	    if(!(UART->reg->ENABLE&UART_PERIPHERAL_ENABLE_RXENABLE_Msk)
 912:.\driver\src/uart_va108xx.c ****    		  VOR_Disable_Irq(VOR_IRQ_UART, UART->uart_id);
 3511              		.loc 1 912 0
 3512 09ea 5368     		ldr	r3, [r2, #4]	@ _83, pretmp_192->ENABLE
 3513 09ec DB07     		lsls	r3, r3, #31	@ tmp308, _83,
 3514 09ee 03D4     		bmi	.L287	@,
 3515              	@ .\driver\src\uart_va108xx.c:913:    		  VOR_Disable_Irq(VOR_IRQ_UART, UART->uart_id);
 913:.\driver\src/uart_va108xx.c **** 
 3516              		.loc 1 913 0
 3517 09f0 2168     		ldr	r1, [r4]	@, UART_110(D)->uart_id
 3518 09f2 0320     		movs	r0, #3	@,
 3519 09f4 FFF7FEFF 		bl	VOR_Disable_Irq	@
 3520              	.LVL308:
 3521              	.L287:
 3522              	@ .\driver\src\uart_va108xx.c:915:   	  if(UART->info.cb_event)
 915:.\driver\src/uart_va108xx.c **** 	  		UART->info.cb_event(event);
 3523              		.loc 1 915 0
 3524 09f8 E368     		ldr	r3, [r4, #12]	@ _86, UART_110(D)->info.cb_event
 3525 09fa 002B     		cmp	r3, #0	@ _86,
 3526 09fc 00D1     		bne	.LCB2783	@
 3527 09fe 52E7     		b	.L282	@long jump	@
ARM GAS  C:\Users\claym\AppData\Local\Temp\cc2sTfd9.s 			page 90


 3528              	.LCB2783:
 3529              	@ .\driver\src\uart_va108xx.c:916: 	  		UART->info.cb_event(event);
 916:.\driver\src/uart_va108xx.c **** 		}
 3530              		.loc 1 916 0
 3531 0a00 2800     		movs	r0, r5	@, event
 3532 0a02 9DE7     		b	.L336	@
 3533              	.L285:
 3534              	@ .\driver\src\uart_va108xx.c:905: 		if(event) {
 905:.\driver\src/uart_va108xx.c ****       UART->reg->IRQ_ENB &=  ~(UART_PERIPHERAL_IRQ_ENB_IRQ_TX_Msk | \
 3535              		.loc 1 905 0
 3536 0a04 002D     		cmp	r5, #0	@ event,
 3537 0a06 00D1     		bne	.LCB2793	@
 3538 0a08 4DE7     		b	.L282	@long jump	@
 3539              	.LCB2793:
 3540 0a0a E6E7     		b	.L286	@
 3541              		.cfi_endproc
 3542              	.LFE64:
 3543              		.size	UART_IRQHandler, .-UART_IRQHandler
 3544              		.align	1
 3545              		.global	VOR_UART_GetTxCount
 3546              		.syntax unified
 3547              		.code	16
 3548              		.thumb_func
 3549              		.fpu softvfp
 3550              		.type	VOR_UART_GetTxCount, %function
 3551              	VOR_UART_GetTxCount:
 3552              	.LFB65:
 925:.\driver\src/uart_va108xx.c **** 
 926:.\driver\src/uart_va108xx.c **** 
 927:.\driver\src/uart_va108xx.c **** /**
 928:.\driver\src/uart_va108xx.c ****   function:    int32_t VOR_UART_GetTxCount (UART_RESOURCES *UART)
 929:.\driver\src/uart_va108xx.c ****   brief:       Get Tx data count.
 930:.\driver\src/uart_va108xx.c ****   return:      number of data bytes transferred; 
 931:.\driver\src/uart_va108xx.c **** */
 932:.\driver\src/uart_va108xx.c **** int32_t VOR_UART_GetTxCount (UART_RESOURCES *UART) {
 3553              		.loc 1 932 0
 3554              		.cfi_startproc
 3555              		@ args = 0, pretend = 0, frame = 0
 3556              		@ frame_needed = 0, uses_anonymous_args = 0
 3557              		@ link register save eliminated.
 3558              	.LVL309:
 3559              	@ .\driver\src\uart_va108xx.c:933: 	return UART->info.txidx;
 933:.\driver\src/uart_va108xx.c **** 	return UART->info.txidx;
 3560              		.loc 1 933 0
 3561 0a0c C06A     		ldr	r0, [r0, #44]	@ UART_3(D)->info.txidx, UART_3(D)->info.txidx
 3562              	.LVL310:
 3563              	@ .\driver\src\uart_va108xx.c:934: }
 934:.\driver\src/uart_va108xx.c **** }
 3564              		.loc 1 934 0
 3565              		@ sp needed	@
 3566 0a0e 7047     		bx	lr
 3567              		.cfi_endproc
 3568              	.LFE65:
 3569              		.size	VOR_UART_GetTxCount, .-VOR_UART_GetTxCount
 3570              		.align	1
 3571              		.global	VOR_UART_GetRxCount
 3572              		.syntax unified
ARM GAS  C:\Users\claym\AppData\Local\Temp\cc2sTfd9.s 			page 91


 3573              		.code	16
 3574              		.thumb_func
 3575              		.fpu softvfp
 3576              		.type	VOR_UART_GetRxCount, %function
 3577              	VOR_UART_GetRxCount:
 3578              	.LFB66:
 935:.\driver\src/uart_va108xx.c **** 
 936:.\driver\src/uart_va108xx.c **** /**
 937:.\driver\src/uart_va108xx.c ****   function:    int32_t VOR_UART_GetRxCount (UART_RESOURCES *UART)
 938:.\driver\src/uart_va108xx.c ****   brief:       Get Rx data count.
 939:.\driver\src/uart_va108xx.c ****   return:      number of data bytes transferred; 
 940:.\driver\src/uart_va108xx.c **** */
 941:.\driver\src/uart_va108xx.c **** int32_t VOR_UART_GetRxCount (UART_RESOURCES *UART) {
 3579              		.loc 1 941 0
 3580              		.cfi_startproc
 3581              		@ args = 0, pretend = 0, frame = 0
 3582              		@ frame_needed = 0, uses_anonymous_args = 0
 3583              		@ link register save eliminated.
 3584              	.LVL311:
 3585              	@ .\driver\src\uart_va108xx.c:942: 	return UART->info.rxidx;
 942:.\driver\src/uart_va108xx.c **** 	return UART->info.rxidx;
 3586              		.loc 1 942 0
 3587 0a10 006B     		ldr	r0, [r0, #48]	@ UART_3(D)->info.rxidx, UART_3(D)->info.rxidx
 3588              	.LVL312:
 3589              	@ .\driver\src\uart_va108xx.c:943: }
 943:.\driver\src/uart_va108xx.c **** }
 3590              		.loc 1 943 0
 3591              		@ sp needed	@
 3592 0a12 7047     		bx	lr
 3593              		.cfi_endproc
 3594              	.LFE66:
 3595              		.size	VOR_UART_GetRxCount, .-VOR_UART_GetRxCount
 3596              		.global	UART1_Resources
 3597              		.global	UART0_Resources
 3598              		.section	.rodata
 3599              		.align	1
 3600              		.set	.LANCHOR0,. + 0
 3601              		.type	uart_driver_version, %object
 3602              		.size	uart_driver_version, 4
 3603              	uart_driver_version:
 3604              	@ api:
 3605 0000 0001     		.short	256
 3606              	@ drv:
 3607 0002 0001     		.short	256
 3608              		.data
 3609              		.align	2
 3610              		.type	UART1_Resources, %object
 3611              		.size	UART1_Resources, 188
 3612              	UART1_Resources:
 3613              	@ uart_id:
 3614 0000 01000000 		.word	1
 3615              	@ reg:
 3616 0004 00100440 		.word	1074008064
 3617              	@ drv:
 3618 0008 00000000 		.word	Driver_UART1
 3619              	@ info:
 3620              	@ cb_event:
ARM GAS  C:\Users\claym\AppData\Local\Temp\cc2sTfd9.s 			page 92


 3621 000c 00000000 		.word	0
 3622 0010 00000000 		.space	168
 3622      00000000 
 3622      00000000 
 3622      00000000 
 3622      00000000 
 3623              	@ uartClkEn:
 3624 00b8 00020000 		.word	512
 3625              		.type	UART0_Resources, %object
 3626              		.size	UART0_Resources, 188
 3627              	UART0_Resources:
 3628              	@ uart_id:
 3629 00bc 00000000 		.word	0
 3630              	@ reg:
 3631 00c0 00000440 		.word	1074003968
 3632              	@ drv:
 3633 00c4 00000000 		.word	Driver_UART0
 3634              	@ info:
 3635              	@ cb_event:
 3636 00c8 00000000 		.word	0
 3637 00cc 00000000 		.space	168
 3637      00000000 
 3637      00000000 
 3637      00000000 
 3637      00000000 
 3638              	@ uartClkEn:
 3639 0174 00010000 		.word	256
 3640              		.text
 3641              	.Letext0:
 3642              		.file 3 "c:\\program files (x86)\\gnu tools arm embedded\\7 2017-q4-major\\arm-none-eabi\\include\
 3643              		.file 4 "c:\\program files (x86)\\gnu tools arm embedded\\7 2017-q4-major\\arm-none-eabi\\include\
 3644              		.file 5 ".\\driver\\hdr/driver_common.h"
 3645              		.file 6 ".\\driver\\hdr/driver_uart.h"
 3646              		.file 7 ".\\common\\hdr/system_va108xx.h"
 3647              		.file 8 ".\\common\\hdr/va108xx.h"
 3648              		.file 9 ".\\driver\\hdr/uart_va108xx.h"
 3649              		.file 10 "c:\\program files (x86)\\gnu tools arm embedded\\7 2017-q4-major\\arm-none-eabi\\include
 3650              		.file 11 "c:\\program files (x86)\\gnu tools arm embedded\\7 2017-q4-major\\arm-none-eabi\\include
 3651              		.file 12 "c:\\program files (x86)\\gnu tools arm embedded\\7 2017-q4-major\\lib\\gcc\\arm-none-eab
 3652              		.file 13 "c:\\program files (x86)\\gnu tools arm embedded\\7 2017-q4-major\\arm-none-eabi\\include
 3653              		.file 14 ".\\common\\hdr/irq_va108xx.h"
 3654              		.file 15 "<built-in>"
 3655              		.section	.debug_info,"",%progbits
 3656              	.Ldebug_info0:
 3657 0000 3B1F0000 		.4byte	0x1f3b
 3658 0004 0200     		.2byte	0x2
 3659 0006 00000000 		.4byte	.Ldebug_abbrev0
 3660 000a 04       		.byte	0x4
 3661 000b 01       		.uleb128 0x1
 3662 000c ED010000 		.4byte	.LASF297
 3663 0010 0C       		.byte	0xc
 3664 0011 4F010000 		.4byte	.LASF298
 3665 0015 A0080000 		.4byte	.LASF299
 3666 0019 00000000 		.4byte	.Ltext0
 3667 001d 140A0000 		.4byte	.Letext0
 3668 0021 00000000 		.4byte	.Ldebug_line0
 3669 0025 02       		.uleb128 0x2
ARM GAS  C:\Users\claym\AppData\Local\Temp\cc2sTfd9.s 			page 93


 3670 0026 04       		.byte	0x4
 3671 0027 07       		.byte	0x7
 3672 0028 C8000000 		.4byte	.LASF0
 3673 002c 03       		.uleb128 0x3
 3674 002d 04       		.byte	0x4
 3675 002e 05       		.byte	0x5
 3676 002f 696E7400 		.ascii	"int\000"
 3677 0033 02       		.uleb128 0x2
 3678 0034 08       		.byte	0x8
 3679 0035 05       		.byte	0x5
 3680 0036 62060000 		.4byte	.LASF1
 3681 003a 02       		.uleb128 0x2
 3682 003b 08       		.byte	0x8
 3683 003c 04       		.byte	0x4
 3684 003d EA070000 		.4byte	.LASF2
 3685 0041 02       		.uleb128 0x2
 3686 0042 01       		.byte	0x1
 3687 0043 06       		.byte	0x6
 3688 0044 140C0000 		.4byte	.LASF3
 3689 0048 04       		.uleb128 0x4
 3690 0049 C5090000 		.4byte	.LASF6
 3691 004d 03       		.byte	0x3
 3692 004e 2B       		.byte	0x2b
 3693 004f 53000000 		.4byte	0x53
 3694 0053 02       		.uleb128 0x2
 3695 0054 01       		.byte	0x1
 3696 0055 08       		.byte	0x8
 3697 0056 FC0A0000 		.4byte	.LASF4
 3698 005a 02       		.uleb128 0x2
 3699 005b 02       		.byte	0x2
 3700 005c 05       		.byte	0x5
 3701 005d 96080000 		.4byte	.LASF5
 3702 0061 04       		.uleb128 0x4
 3703 0062 C4030000 		.4byte	.LASF7
 3704 0066 03       		.byte	0x3
 3705 0067 39       		.byte	0x39
 3706 0068 6C000000 		.4byte	0x6c
 3707 006c 02       		.uleb128 0x2
 3708 006d 02       		.byte	0x2
 3709 006e 07       		.byte	0x7
 3710 006f 270C0000 		.4byte	.LASF8
 3711 0073 04       		.uleb128 0x4
 3712 0074 06010000 		.4byte	.LASF9
 3713 0078 03       		.byte	0x3
 3714 0079 4D       		.byte	0x4d
 3715 007a 7E000000 		.4byte	0x7e
 3716 007e 02       		.uleb128 0x2
 3717 007f 04       		.byte	0x4
 3718 0080 05       		.byte	0x5
 3719 0081 E7080000 		.4byte	.LASF10
 3720 0085 04       		.uleb128 0x4
 3721 0086 240B0000 		.4byte	.LASF11
 3722 008a 03       		.byte	0x3
 3723 008b 4F       		.byte	0x4f
 3724 008c 90000000 		.4byte	0x90
 3725 0090 02       		.uleb128 0x2
 3726 0091 04       		.byte	0x4
ARM GAS  C:\Users\claym\AppData\Local\Temp\cc2sTfd9.s 			page 94


 3727 0092 07       		.byte	0x7
 3728 0093 450A0000 		.4byte	.LASF12
 3729 0097 02       		.uleb128 0x2
 3730 0098 08       		.byte	0x8
 3731 0099 07       		.byte	0x7
 3732 009a 70030000 		.4byte	.LASF13
 3733 009e 04       		.uleb128 0x4
 3734 009f EA050000 		.4byte	.LASF14
 3735 00a3 04       		.byte	0x4
 3736 00a4 18       		.byte	0x18
 3737 00a5 48000000 		.4byte	0x48
 3738 00a9 04       		.uleb128 0x4
 3739 00aa FE070000 		.4byte	.LASF15
 3740 00ae 04       		.byte	0x4
 3741 00af 24       		.byte	0x24
 3742 00b0 61000000 		.4byte	0x61
 3743 00b4 04       		.uleb128 0x4
 3744 00b5 820A0000 		.4byte	.LASF16
 3745 00b9 04       		.byte	0x4
 3746 00ba 2C       		.byte	0x2c
 3747 00bb 73000000 		.4byte	0x73
 3748 00bf 04       		.uleb128 0x4
 3749 00c0 F0020000 		.4byte	.LASF17
 3750 00c4 04       		.byte	0x4
 3751 00c5 30       		.byte	0x30
 3752 00c6 85000000 		.4byte	0x85
 3753 00ca 05       		.uleb128 0x5
 3754 00cb BF000000 		.4byte	0xbf
 3755 00cf 06       		.uleb128 0x6
 3756 00d0 CA000000 		.4byte	0xca
 3757 00d4 07       		.uleb128 0x7
 3758 00d5 DE0B0000 		.4byte	.LASF19
 3759 00d9 04       		.byte	0x4
 3760 00da 05       		.byte	0x5
 3761 00db 2D       		.byte	0x2d
 3762 00dc FD000000 		.4byte	0xfd
 3763 00e0 08       		.uleb128 0x8
 3764 00e1 61706900 		.ascii	"api\000"
 3765 00e5 05       		.byte	0x5
 3766 00e6 2E       		.byte	0x2e
 3767 00e7 A9000000 		.4byte	0xa9
 3768 00eb 02       		.byte	0x2
 3769 00ec 23       		.byte	0x23
 3770 00ed 00       		.uleb128 0
 3771 00ee 08       		.uleb128 0x8
 3772 00ef 64727600 		.ascii	"drv\000"
 3773 00f3 05       		.byte	0x5
 3774 00f4 2F       		.byte	0x2f
 3775 00f5 A9000000 		.4byte	0xa9
 3776 00f9 02       		.byte	0x2
 3777 00fa 23       		.byte	0x23
 3778 00fb 02       		.uleb128 0x2
 3779 00fc 00       		.byte	0
 3780 00fd 04       		.uleb128 0x4
 3781 00fe CF030000 		.4byte	.LASF18
 3782 0102 05       		.byte	0x5
 3783 0103 30       		.byte	0x30
ARM GAS  C:\Users\claym\AppData\Local\Temp\cc2sTfd9.s 			page 95


 3784 0104 D4000000 		.4byte	0xd4
 3785 0108 06       		.uleb128 0x6
 3786 0109 FD000000 		.4byte	0xfd
 3787 010d 07       		.uleb128 0x7
 3788 010e 71020000 		.4byte	.LASF20
 3789 0112 04       		.byte	0x4
 3790 0113 06       		.byte	0x6
 3791 0114 80       		.byte	0x80
 3792 0115 2A020000 		.4byte	0x22a
 3793 0119 09       		.uleb128 0x9
 3794 011a 59000000 		.4byte	.LASF21
 3795 011e 06       		.byte	0x6
 3796 011f 81       		.byte	0x81
 3797 0120 BF000000 		.4byte	0xbf
 3798 0124 04       		.byte	0x4
 3799 0125 01       		.byte	0x1
 3800 0126 1F       		.byte	0x1f
 3801 0127 02       		.byte	0x2
 3802 0128 23       		.byte	0x23
 3803 0129 00       		.uleb128 0
 3804 012a 09       		.uleb128 0x9
 3805 012b 56040000 		.4byte	.LASF22
 3806 012f 06       		.byte	0x6
 3807 0130 82       		.byte	0x82
 3808 0131 BF000000 		.4byte	0xbf
 3809 0135 04       		.byte	0x4
 3810 0136 01       		.byte	0x1
 3811 0137 1E       		.byte	0x1e
 3812 0138 02       		.byte	0x2
 3813 0139 23       		.byte	0x23
 3814 013a 00       		.uleb128 0
 3815 013b 09       		.uleb128 0x9
 3816 013c 88080000 		.4byte	.LASF23
 3817 0140 06       		.byte	0x6
 3818 0141 83       		.byte	0x83
 3819 0142 BF000000 		.4byte	0xbf
 3820 0146 04       		.byte	0x4
 3821 0147 01       		.byte	0x1
 3822 0148 1D       		.byte	0x1d
 3823 0149 02       		.byte	0x2
 3824 014a 23       		.byte	0x23
 3825 014b 00       		.uleb128 0
 3826 014c 09       		.uleb128 0x9
 3827 014d 83050000 		.4byte	.LASF24
 3828 0151 06       		.byte	0x6
 3829 0152 84       		.byte	0x84
 3830 0153 BF000000 		.4byte	0xbf
 3831 0157 04       		.byte	0x4
 3832 0158 01       		.byte	0x1
 3833 0159 1C       		.byte	0x1c
 3834 015a 02       		.byte	0x2
 3835 015b 23       		.byte	0x23
 3836 015c 00       		.uleb128 0
 3837 015d 09       		.uleb128 0x9
 3838 015e 12040000 		.4byte	.LASF25
 3839 0162 06       		.byte	0x6
 3840 0163 85       		.byte	0x85
ARM GAS  C:\Users\claym\AppData\Local\Temp\cc2sTfd9.s 			page 96


 3841 0164 BF000000 		.4byte	0xbf
 3842 0168 04       		.byte	0x4
 3843 0169 01       		.byte	0x1
 3844 016a 1B       		.byte	0x1b
 3845 016b 02       		.byte	0x2
 3846 016c 23       		.byte	0x23
 3847 016d 00       		.uleb128 0
 3848 016e 09       		.uleb128 0x9
 3849 016f 14060000 		.4byte	.LASF26
 3850 0173 06       		.byte	0x6
 3851 0174 86       		.byte	0x86
 3852 0175 BF000000 		.4byte	0xbf
 3853 0179 04       		.byte	0x4
 3854 017a 01       		.byte	0x1
 3855 017b 1A       		.byte	0x1a
 3856 017c 02       		.byte	0x2
 3857 017d 23       		.byte	0x23
 3858 017e 00       		.uleb128 0
 3859 017f 09       		.uleb128 0x9
 3860 0180 61040000 		.4byte	.LASF27
 3861 0184 06       		.byte	0x6
 3862 0185 87       		.byte	0x87
 3863 0186 BF000000 		.4byte	0xbf
 3864 018a 04       		.byte	0x4
 3865 018b 01       		.byte	0x1
 3866 018c 19       		.byte	0x19
 3867 018d 02       		.byte	0x2
 3868 018e 23       		.byte	0x23
 3869 018f 00       		.uleb128 0
 3870 0190 09       		.uleb128 0x9
 3871 0191 850B0000 		.4byte	.LASF28
 3872 0195 06       		.byte	0x6
 3873 0196 88       		.byte	0x88
 3874 0197 BF000000 		.4byte	0xbf
 3875 019b 04       		.byte	0x4
 3876 019c 01       		.byte	0x1
 3877 019d 18       		.byte	0x18
 3878 019e 02       		.byte	0x2
 3879 019f 23       		.byte	0x23
 3880 01a0 00       		.uleb128 0
 3881 01a1 09       		.uleb128 0x9
 3882 01a2 930A0000 		.4byte	.LASF29
 3883 01a6 06       		.byte	0x6
 3884 01a7 89       		.byte	0x89
 3885 01a8 BF000000 		.4byte	0xbf
 3886 01ac 04       		.byte	0x4
 3887 01ad 01       		.byte	0x1
 3888 01ae 17       		.byte	0x17
 3889 01af 02       		.byte	0x2
 3890 01b0 23       		.byte	0x23
 3891 01b1 00       		.uleb128 0
 3892 01b2 09       		.uleb128 0x9
 3893 01b3 00070000 		.4byte	.LASF30
 3894 01b7 06       		.byte	0x6
 3895 01b8 8A       		.byte	0x8a
 3896 01b9 BF000000 		.4byte	0xbf
 3897 01bd 04       		.byte	0x4
ARM GAS  C:\Users\claym\AppData\Local\Temp\cc2sTfd9.s 			page 97


 3898 01be 01       		.byte	0x1
 3899 01bf 16       		.byte	0x16
 3900 01c0 02       		.byte	0x2
 3901 01c1 23       		.byte	0x23
 3902 01c2 00       		.uleb128 0
 3903 01c3 09       		.uleb128 0x9
 3904 01c4 BA040000 		.4byte	.LASF31
 3905 01c8 06       		.byte	0x6
 3906 01c9 8B       		.byte	0x8b
 3907 01ca BF000000 		.4byte	0xbf
 3908 01ce 04       		.byte	0x4
 3909 01cf 01       		.byte	0x1
 3910 01d0 15       		.byte	0x15
 3911 01d1 02       		.byte	0x2
 3912 01d2 23       		.byte	0x23
 3913 01d3 00       		.uleb128 0
 3914 01d4 09       		.uleb128 0x9
 3915 01d5 AC070000 		.4byte	.LASF32
 3916 01d9 06       		.byte	0x6
 3917 01da 8C       		.byte	0x8c
 3918 01db BF000000 		.4byte	0xbf
 3919 01df 04       		.byte	0x4
 3920 01e0 01       		.byte	0x1
 3921 01e1 14       		.byte	0x14
 3922 01e2 02       		.byte	0x2
 3923 01e3 23       		.byte	0x23
 3924 01e4 00       		.uleb128 0
 3925 01e5 09       		.uleb128 0x9
 3926 01e6 B4060000 		.4byte	.LASF33
 3927 01ea 06       		.byte	0x6
 3928 01eb 8D       		.byte	0x8d
 3929 01ec BF000000 		.4byte	0xbf
 3930 01f0 04       		.byte	0x4
 3931 01f1 01       		.byte	0x1
 3932 01f2 13       		.byte	0x13
 3933 01f3 02       		.byte	0x2
 3934 01f4 23       		.byte	0x23
 3935 01f5 00       		.uleb128 0
 3936 01f6 09       		.uleb128 0x9
 3937 01f7 6E0A0000 		.4byte	.LASF34
 3938 01fb 06       		.byte	0x6
 3939 01fc 8E       		.byte	0x8e
 3940 01fd BF000000 		.4byte	0xbf
 3941 0201 04       		.byte	0x4
 3942 0202 01       		.byte	0x1
 3943 0203 12       		.byte	0x12
 3944 0204 02       		.byte	0x2
 3945 0205 23       		.byte	0x23
 3946 0206 00       		.uleb128 0
 3947 0207 09       		.uleb128 0x9
 3948 0208 C30B0000 		.4byte	.LASF35
 3949 020c 06       		.byte	0x6
 3950 020d 8F       		.byte	0x8f
 3951 020e BF000000 		.4byte	0xbf
 3952 0212 04       		.byte	0x4
 3953 0213 01       		.byte	0x1
 3954 0214 11       		.byte	0x11
ARM GAS  C:\Users\claym\AppData\Local\Temp\cc2sTfd9.s 			page 98


 3955 0215 02       		.byte	0x2
 3956 0216 23       		.byte	0x23
 3957 0217 00       		.uleb128 0
 3958 0218 09       		.uleb128 0x9
 3959 0219 F0080000 		.4byte	.LASF36
 3960 021d 06       		.byte	0x6
 3961 021e 90       		.byte	0x90
 3962 021f BF000000 		.4byte	0xbf
 3963 0223 04       		.byte	0x4
 3964 0224 01       		.byte	0x1
 3965 0225 10       		.byte	0x10
 3966 0226 02       		.byte	0x2
 3967 0227 23       		.byte	0x23
 3968 0228 00       		.uleb128 0
 3969 0229 00       		.byte	0
 3970 022a 04       		.uleb128 0x4
 3971 022b 09070000 		.4byte	.LASF37
 3972 022f 06       		.byte	0x6
 3973 0230 91       		.byte	0x91
 3974 0231 0D010000 		.4byte	0x10d
 3975 0235 04       		.uleb128 0x4
 3976 0236 1D030000 		.4byte	.LASF38
 3977 023a 06       		.byte	0x6
 3978 023b D4       		.byte	0xd4
 3979 023c 40020000 		.4byte	0x240
 3980 0240 0A       		.uleb128 0xa
 3981 0241 04       		.byte	0x4
 3982 0242 46020000 		.4byte	0x246
 3983 0246 0B       		.uleb128 0xb
 3984 0247 01       		.byte	0x1
 3985 0248 52020000 		.4byte	0x252
 3986 024c 0C       		.uleb128 0xc
 3987 024d BF000000 		.4byte	0xbf
 3988 0251 00       		.byte	0
 3989 0252 07       		.uleb128 0x7
 3990 0253 ED000000 		.4byte	.LASF39
 3991 0257 24       		.byte	0x24
 3992 0258 06       		.byte	0x6
 3993 0259 DA       		.byte	0xda
 3994 025a DD020000 		.4byte	0x2dd
 3995 025e 0D       		.uleb128 0xd
 3996 025f BF0C0000 		.4byte	.LASF40
 3997 0263 06       		.byte	0x6
 3998 0264 DB       		.byte	0xdb
 3999 0265 E3020000 		.4byte	0x2e3
 4000 0269 02       		.byte	0x2
 4001 026a 23       		.byte	0x23
 4002 026b 00       		.uleb128 0
 4003 026c 0D       		.uleb128 0xd
 4004 026d 99090000 		.4byte	.LASF41
 4005 0271 06       		.byte	0x6
 4006 0272 DC       		.byte	0xdc
 4007 0273 F9020000 		.4byte	0x2f9
 4008 0277 02       		.byte	0x2
 4009 0278 23       		.byte	0x23
 4010 0279 04       		.uleb128 0x4
 4011 027a 0D       		.uleb128 0xd
ARM GAS  C:\Users\claym\AppData\Local\Temp\cc2sTfd9.s 			page 99


 4012 027b 00000000 		.4byte	.LASF42
 4013 027f 06       		.byte	0x6
 4014 0280 DD       		.byte	0xdd
 4015 0281 05030000 		.4byte	0x305
 4016 0285 02       		.byte	0x2
 4017 0286 23       		.byte	0x23
 4018 0287 08       		.uleb128 0x8
 4019 0288 0D       		.uleb128 0xd
 4020 0289 F70A0000 		.4byte	.LASF43
 4021 028d 06       		.byte	0x6
 4022 028e DE       		.byte	0xde
 4023 028f 26030000 		.4byte	0x326
 4024 0293 02       		.byte	0x2
 4025 0294 23       		.byte	0x23
 4026 0295 0C       		.uleb128 0xc
 4027 0296 0D       		.uleb128 0xd
 4028 0297 79070000 		.4byte	.LASF44
 4029 029b 06       		.byte	0x6
 4030 029c DF       		.byte	0xdf
 4031 029d 26030000 		.4byte	0x326
 4032 02a1 02       		.byte	0x2
 4033 02a2 23       		.byte	0x23
 4034 02a3 10       		.uleb128 0x10
 4035 02a4 0D       		.uleb128 0xd
 4036 02a5 2D010000 		.4byte	.LASF45
 4037 02a9 06       		.byte	0x6
 4038 02aa E0       		.byte	0xe0
 4039 02ab 05030000 		.4byte	0x305
 4040 02af 02       		.byte	0x2
 4041 02b0 23       		.byte	0x23
 4042 02b1 14       		.uleb128 0x14
 4043 02b2 0D       		.uleb128 0xd
 4044 02b3 3F0D0000 		.4byte	.LASF46
 4045 02b7 06       		.byte	0x6
 4046 02b8 E1       		.byte	0xe1
 4047 02b9 05030000 		.4byte	0x305
 4048 02bd 02       		.byte	0x2
 4049 02be 23       		.byte	0x23
 4050 02bf 18       		.uleb128 0x18
 4051 02c0 0D       		.uleb128 0xd
 4052 02c1 56030000 		.4byte	.LASF47
 4053 02c5 06       		.byte	0x6
 4054 02c6 E2       		.byte	0xe2
 4055 02c7 41030000 		.4byte	0x341
 4056 02cb 02       		.byte	0x2
 4057 02cc 23       		.byte	0x23
 4058 02cd 1C       		.uleb128 0x1c
 4059 02ce 0D       		.uleb128 0xd
 4060 02cf 4C040000 		.4byte	.LASF48
 4061 02d3 06       		.byte	0x6
 4062 02d4 E3       		.byte	0xe3
 4063 02d5 4D030000 		.4byte	0x34d
 4064 02d9 02       		.byte	0x2
 4065 02da 23       		.byte	0x23
 4066 02db 20       		.uleb128 0x20
 4067 02dc 00       		.byte	0
 4068 02dd 0E       		.uleb128 0xe
ARM GAS  C:\Users\claym\AppData\Local\Temp\cc2sTfd9.s 			page 100


 4069 02de 01       		.byte	0x1
 4070 02df FD000000 		.4byte	0xfd
 4071 02e3 0A       		.uleb128 0xa
 4072 02e4 04       		.byte	0x4
 4073 02e5 DD020000 		.4byte	0x2dd
 4074 02e9 0F       		.uleb128 0xf
 4075 02ea 01       		.byte	0x1
 4076 02eb B4000000 		.4byte	0xb4
 4077 02ef F9020000 		.4byte	0x2f9
 4078 02f3 0C       		.uleb128 0xc
 4079 02f4 35020000 		.4byte	0x235
 4080 02f8 00       		.byte	0
 4081 02f9 0A       		.uleb128 0xa
 4082 02fa 04       		.byte	0x4
 4083 02fb E9020000 		.4byte	0x2e9
 4084 02ff 0E       		.uleb128 0xe
 4085 0300 01       		.byte	0x1
 4086 0301 B4000000 		.4byte	0xb4
 4087 0305 0A       		.uleb128 0xa
 4088 0306 04       		.byte	0x4
 4089 0307 FF020000 		.4byte	0x2ff
 4090 030b 0F       		.uleb128 0xf
 4091 030c 01       		.byte	0x1
 4092 030d B4000000 		.4byte	0xb4
 4093 0311 20030000 		.4byte	0x320
 4094 0315 0C       		.uleb128 0xc
 4095 0316 20030000 		.4byte	0x320
 4096 031a 0C       		.uleb128 0xc
 4097 031b BF000000 		.4byte	0xbf
 4098 031f 00       		.byte	0
 4099 0320 0A       		.uleb128 0xa
 4100 0321 04       		.byte	0x4
 4101 0322 9E000000 		.4byte	0x9e
 4102 0326 0A       		.uleb128 0xa
 4103 0327 04       		.byte	0x4
 4104 0328 0B030000 		.4byte	0x30b
 4105 032c 0F       		.uleb128 0xf
 4106 032d 01       		.byte	0x1
 4107 032e B4000000 		.4byte	0xb4
 4108 0332 41030000 		.4byte	0x341
 4109 0336 0C       		.uleb128 0xc
 4110 0337 BF000000 		.4byte	0xbf
 4111 033b 0C       		.uleb128 0xc
 4112 033c BF000000 		.4byte	0xbf
 4113 0340 00       		.byte	0
 4114 0341 0A       		.uleb128 0xa
 4115 0342 04       		.byte	0x4
 4116 0343 2C030000 		.4byte	0x32c
 4117 0347 0E       		.uleb128 0xe
 4118 0348 01       		.byte	0x1
 4119 0349 2A020000 		.4byte	0x22a
 4120 034d 0A       		.uleb128 0xa
 4121 034e 04       		.byte	0x4
 4122 034f 47030000 		.4byte	0x347
 4123 0353 04       		.uleb128 0x4
 4124 0354 2B060000 		.4byte	.LASF49
 4125 0358 06       		.byte	0x6
ARM GAS  C:\Users\claym\AppData\Local\Temp\cc2sTfd9.s 			page 101


 4126 0359 E4       		.byte	0xe4
 4127 035a 52020000 		.4byte	0x252
 4128 035e 10       		.uleb128 0x10
 4129 035f 170B0000 		.4byte	.LASF50
 4130 0363 06       		.byte	0x6
 4131 0364 E6       		.byte	0xe6
 4132 0365 53030000 		.4byte	0x353
 4133 0369 01       		.byte	0x1
 4134 036a 01       		.byte	0x1
 4135 036b 10       		.uleb128 0x10
 4136 036c 0A0B0000 		.4byte	.LASF51
 4137 0370 06       		.byte	0x6
 4138 0371 E7       		.byte	0xe7
 4139 0372 53030000 		.4byte	0x353
 4140 0376 01       		.byte	0x1
 4141 0377 01       		.byte	0x1
 4142 0378 10       		.uleb128 0x10
 4143 0379 5F050000 		.4byte	.LASF52
 4144 037d 07       		.byte	0x7
 4145 037e B2       		.byte	0xb2
 4146 037f BF000000 		.4byte	0xbf
 4147 0383 01       		.byte	0x1
 4148 0384 01       		.byte	0x1
 4149 0385 11       		.uleb128 0x11
 4150 0386 0010     		.2byte	0x1000
 4151 0388 08       		.byte	0x8
 4152 0389 9C       		.byte	0x9c
 4153 038a A9050000 		.4byte	0x5a9
 4154 038e 0D       		.uleb128 0xd
 4155 038f 8A0A0000 		.4byte	.LASF53
 4156 0393 08       		.byte	0x8
 4157 0394 9D       		.byte	0x9d
 4158 0395 CA000000 		.4byte	0xca
 4159 0399 02       		.byte	0x2
 4160 039a 23       		.byte	0x23
 4161 039b 00       		.uleb128 0
 4162 039c 0D       		.uleb128 0xd
 4163 039d BD070000 		.4byte	.LASF54
 4164 03a1 08       		.byte	0x8
 4165 03a2 9E       		.byte	0x9e
 4166 03a3 CA000000 		.4byte	0xca
 4167 03a7 02       		.byte	0x2
 4168 03a8 23       		.byte	0x23
 4169 03a9 04       		.uleb128 0x4
 4170 03aa 0D       		.uleb128 0xd
 4171 03ab F7080000 		.4byte	.LASF55
 4172 03af 08       		.byte	0x8
 4173 03b0 9F       		.byte	0x9f
 4174 03b1 CA000000 		.4byte	0xca
 4175 03b5 02       		.byte	0x2
 4176 03b6 23       		.byte	0x23
 4177 03b7 08       		.uleb128 0x8
 4178 03b8 0D       		.uleb128 0xd
 4179 03b9 DF0D0000 		.4byte	.LASF56
 4180 03bd 08       		.byte	0x8
 4181 03be A0       		.byte	0xa0
 4182 03bf CA000000 		.4byte	0xca
ARM GAS  C:\Users\claym\AppData\Local\Temp\cc2sTfd9.s 			page 102


 4183 03c3 02       		.byte	0x2
 4184 03c4 23       		.byte	0x23
 4185 03c5 0C       		.uleb128 0xc
 4186 03c6 0D       		.uleb128 0xd
 4187 03c7 74080000 		.4byte	.LASF57
 4188 03cb 08       		.byte	0x8
 4189 03cc A1       		.byte	0xa1
 4190 03cd CA000000 		.4byte	0xca
 4191 03d1 02       		.byte	0x2
 4192 03d2 23       		.byte	0x23
 4193 03d3 10       		.uleb128 0x10
 4194 03d4 0D       		.uleb128 0xd
 4195 03d5 CD060000 		.4byte	.LASF58
 4196 03d9 08       		.byte	0x8
 4197 03da A2       		.byte	0xa2
 4198 03db CA000000 		.4byte	0xca
 4199 03df 02       		.byte	0x2
 4200 03e0 23       		.byte	0x23
 4201 03e1 14       		.uleb128 0x14
 4202 03e2 0D       		.uleb128 0xd
 4203 03e3 04040000 		.4byte	.LASF59
 4204 03e7 08       		.byte	0x8
 4205 03e8 A3       		.byte	0xa3
 4206 03e9 CA000000 		.4byte	0xca
 4207 03ed 02       		.byte	0x2
 4208 03ee 23       		.byte	0x23
 4209 03ef 18       		.uleb128 0x18
 4210 03f0 0D       		.uleb128 0xd
 4211 03f1 4B080000 		.4byte	.LASF60
 4212 03f5 08       		.byte	0x8
 4213 03f6 A4       		.byte	0xa4
 4214 03f7 CA000000 		.4byte	0xca
 4215 03fb 02       		.byte	0x2
 4216 03fc 23       		.byte	0x23
 4217 03fd 1C       		.uleb128 0x1c
 4218 03fe 0D       		.uleb128 0xd
 4219 03ff FC040000 		.4byte	.LASF61
 4220 0403 08       		.byte	0x8
 4221 0404 A5       		.byte	0xa5
 4222 0405 CA000000 		.4byte	0xca
 4223 0409 02       		.byte	0x2
 4224 040a 23       		.byte	0x23
 4225 040b 20       		.uleb128 0x20
 4226 040c 0D       		.uleb128 0xd
 4227 040d 8B090000 		.4byte	.LASF62
 4228 0411 08       		.byte	0x8
 4229 0412 A6       		.byte	0xa6
 4230 0413 CA000000 		.4byte	0xca
 4231 0417 02       		.byte	0x2
 4232 0418 23       		.byte	0x23
 4233 0419 24       		.uleb128 0x24
 4234 041a 0D       		.uleb128 0xd
 4235 041b C30D0000 		.4byte	.LASF63
 4236 041f 08       		.byte	0x8
 4237 0420 A7       		.byte	0xa7
 4238 0421 CA000000 		.4byte	0xca
 4239 0425 02       		.byte	0x2
ARM GAS  C:\Users\claym\AppData\Local\Temp\cc2sTfd9.s 			page 103


 4240 0426 23       		.byte	0x23
 4241 0427 28       		.uleb128 0x28
 4242 0428 0D       		.uleb128 0xd
 4243 0429 19040000 		.4byte	.LASF64
 4244 042d 08       		.byte	0x8
 4245 042e A8       		.byte	0xa8
 4246 042f CF000000 		.4byte	0xcf
 4247 0433 02       		.byte	0x2
 4248 0434 23       		.byte	0x23
 4249 0435 2C       		.uleb128 0x2c
 4250 0436 0D       		.uleb128 0xd
 4251 0437 D20D0000 		.4byte	.LASF65
 4252 043b 08       		.byte	0x8
 4253 043c A9       		.byte	0xa9
 4254 043d CF000000 		.4byte	0xcf
 4255 0441 02       		.byte	0x2
 4256 0442 23       		.byte	0x23
 4257 0443 30       		.uleb128 0x30
 4258 0444 0D       		.uleb128 0xd
 4259 0445 D5000000 		.4byte	.LASF66
 4260 0449 08       		.byte	0x8
 4261 044a AA       		.byte	0xaa
 4262 044b CA000000 		.4byte	0xca
 4263 044f 02       		.byte	0x2
 4264 0450 23       		.byte	0x23
 4265 0451 34       		.uleb128 0x34
 4266 0452 0D       		.uleb128 0xd
 4267 0453 FF0B0000 		.4byte	.LASF67
 4268 0457 08       		.byte	0x8
 4269 0458 AB       		.byte	0xab
 4270 0459 CA000000 		.4byte	0xca
 4271 045d 02       		.byte	0x2
 4272 045e 23       		.byte	0x23
 4273 045f 38       		.uleb128 0x38
 4274 0460 0D       		.uleb128 0xd
 4275 0461 DD060000 		.4byte	.LASF68
 4276 0465 08       		.byte	0x8
 4277 0466 AC       		.byte	0xac
 4278 0467 CA000000 		.4byte	0xca
 4279 046b 02       		.byte	0x2
 4280 046c 23       		.byte	0x23
 4281 046d 3C       		.uleb128 0x3c
 4282 046e 0D       		.uleb128 0xd
 4283 046f 21040000 		.4byte	.LASF69
 4284 0473 08       		.byte	0x8
 4285 0474 AD       		.byte	0xad
 4286 0475 CA000000 		.4byte	0xca
 4287 0479 02       		.byte	0x2
 4288 047a 23       		.byte	0x23
 4289 047b 40       		.uleb128 0x40
 4290 047c 0D       		.uleb128 0xd
 4291 047d 760C0000 		.4byte	.LASF70
 4292 0481 08       		.byte	0x8
 4293 0482 AE       		.byte	0xae
 4294 0483 CA000000 		.4byte	0xca
 4295 0487 02       		.byte	0x2
 4296 0488 23       		.byte	0x23
ARM GAS  C:\Users\claym\AppData\Local\Temp\cc2sTfd9.s 			page 104


 4297 0489 44       		.uleb128 0x44
 4298 048a 0D       		.uleb128 0xd
 4299 048b 1D0D0000 		.4byte	.LASF71
 4300 048f 08       		.byte	0x8
 4301 0490 AF       		.byte	0xaf
 4302 0491 CF000000 		.4byte	0xcf
 4303 0495 02       		.byte	0x2
 4304 0496 23       		.byte	0x23
 4305 0497 48       		.uleb128 0x48
 4306 0498 0D       		.uleb128 0xd
 4307 0499 2E0D0000 		.4byte	.LASF72
 4308 049d 08       		.byte	0x8
 4309 049e B0       		.byte	0xb0
 4310 049f CA000000 		.4byte	0xca
 4311 04a3 02       		.byte	0x2
 4312 04a4 23       		.byte	0x23
 4313 04a5 4C       		.uleb128 0x4c
 4314 04a6 0D       		.uleb128 0xd
 4315 04a7 B3030000 		.4byte	.LASF73
 4316 04ab 08       		.byte	0x8
 4317 04ac B1       		.byte	0xb1
 4318 04ad CA000000 		.4byte	0xca
 4319 04b1 02       		.byte	0x2
 4320 04b2 23       		.byte	0x23
 4321 04b3 50       		.uleb128 0x50
 4322 04b4 0D       		.uleb128 0xd
 4323 04b5 4A0D0000 		.4byte	.LASF74
 4324 04b9 08       		.byte	0x8
 4325 04ba B2       		.byte	0xb2
 4326 04bb CA000000 		.4byte	0xca
 4327 04bf 02       		.byte	0x2
 4328 04c0 23       		.byte	0x23
 4329 04c1 54       		.uleb128 0x54
 4330 04c2 0D       		.uleb128 0xd
 4331 04c3 5B0D0000 		.4byte	.LASF75
 4332 04c7 08       		.byte	0x8
 4333 04c8 B3       		.byte	0xb3
 4334 04c9 CA000000 		.4byte	0xca
 4335 04cd 02       		.byte	0x2
 4336 04ce 23       		.byte	0x23
 4337 04cf 58       		.uleb128 0x58
 4338 04d0 0D       		.uleb128 0xd
 4339 04d1 6C0D0000 		.4byte	.LASF76
 4340 04d5 08       		.byte	0x8
 4341 04d6 B4       		.byte	0xb4
 4342 04d7 CA000000 		.4byte	0xca
 4343 04db 02       		.byte	0x2
 4344 04dc 23       		.byte	0x23
 4345 04dd 5C       		.uleb128 0x5c
 4346 04de 0D       		.uleb128 0xd
 4347 04df 7D0D0000 		.4byte	.LASF77
 4348 04e3 08       		.byte	0x8
 4349 04e4 B5       		.byte	0xb5
 4350 04e5 CA000000 		.4byte	0xca
 4351 04e9 02       		.byte	0x2
 4352 04ea 23       		.byte	0x23
 4353 04eb 60       		.uleb128 0x60
ARM GAS  C:\Users\claym\AppData\Local\Temp\cc2sTfd9.s 			page 105


 4354 04ec 0D       		.uleb128 0xd
 4355 04ed 8E0D0000 		.4byte	.LASF78
 4356 04f1 08       		.byte	0x8
 4357 04f2 B6       		.byte	0xb6
 4358 04f3 CA000000 		.4byte	0xca
 4359 04f7 02       		.byte	0x2
 4360 04f8 23       		.byte	0x23
 4361 04f9 64       		.uleb128 0x64
 4362 04fa 0D       		.uleb128 0xd
 4363 04fb A8000000 		.4byte	.LASF79
 4364 04ff 08       		.byte	0x8
 4365 0500 B7       		.byte	0xb7
 4366 0501 CF000000 		.4byte	0xcf
 4367 0505 02       		.byte	0x2
 4368 0506 23       		.byte	0x23
 4369 0507 68       		.uleb128 0x68
 4370 0508 0D       		.uleb128 0xd
 4371 0509 CF050000 		.4byte	.LASF80
 4372 050d 08       		.byte	0x8
 4373 050e B8       		.byte	0xb8
 4374 050f CA000000 		.4byte	0xca
 4375 0513 02       		.byte	0x2
 4376 0514 23       		.byte	0x23
 4377 0515 6C       		.uleb128 0x6c
 4378 0516 0D       		.uleb128 0xd
 4379 0517 480B0000 		.4byte	.LASF81
 4380 051b 08       		.byte	0x8
 4381 051c B9       		.byte	0xb9
 4382 051d CA000000 		.4byte	0xca
 4383 0521 02       		.byte	0x2
 4384 0522 23       		.byte	0x23
 4385 0523 70       		.uleb128 0x70
 4386 0524 0D       		.uleb128 0xd
 4387 0525 060D0000 		.4byte	.LASF82
 4388 0529 08       		.byte	0x8
 4389 052a BA       		.byte	0xba
 4390 052b CA000000 		.4byte	0xca
 4391 052f 02       		.byte	0x2
 4392 0530 23       		.byte	0x23
 4393 0531 74       		.uleb128 0x74
 4394 0532 0D       		.uleb128 0xd
 4395 0533 29040000 		.4byte	.LASF83
 4396 0537 08       		.byte	0x8
 4397 0538 BB       		.byte	0xbb
 4398 0539 CA000000 		.4byte	0xca
 4399 053d 02       		.byte	0x2
 4400 053e 23       		.byte	0x23
 4401 053f 78       		.uleb128 0x78
 4402 0540 0D       		.uleb128 0xd
 4403 0541 A9010000 		.4byte	.LASF84
 4404 0545 08       		.byte	0x8
 4405 0546 BC       		.byte	0xbc
 4406 0547 CA000000 		.4byte	0xca
 4407 054b 02       		.byte	0x2
 4408 054c 23       		.byte	0x23
 4409 054d 7C       		.uleb128 0x7c
 4410 054e 0D       		.uleb128 0xd
ARM GAS  C:\Users\claym\AppData\Local\Temp\cc2sTfd9.s 			page 106


 4411 054f 92050000 		.4byte	.LASF85
 4412 0553 08       		.byte	0x8
 4413 0554 BD       		.byte	0xbd
 4414 0555 CA000000 		.4byte	0xca
 4415 0559 03       		.byte	0x3
 4416 055a 23       		.byte	0x23
 4417 055b 8001     		.uleb128 0x80
 4418 055d 0D       		.uleb128 0xd
 4419 055e 7E080000 		.4byte	.LASF86
 4420 0562 08       		.byte	0x8
 4421 0563 BE       		.byte	0xbe
 4422 0564 BF050000 		.4byte	0x5bf
 4423 0568 03       		.byte	0x3
 4424 0569 23       		.byte	0x23
 4425 056a 8401     		.uleb128 0x84
 4426 056c 0D       		.uleb128 0xd
 4427 056d 730B0000 		.4byte	.LASF87
 4428 0571 08       		.byte	0x8
 4429 0572 BF       		.byte	0xbf
 4430 0573 CF000000 		.4byte	0xcf
 4431 0577 03       		.byte	0x3
 4432 0578 23       		.byte	0x23
 4433 0579 F01F     		.uleb128 0xff0
 4434 057b 0D       		.uleb128 0xd
 4435 057c 81070000 		.4byte	.LASF88
 4436 0580 08       		.byte	0x8
 4437 0581 C0       		.byte	0xc0
 4438 0582 CF000000 		.4byte	0xcf
 4439 0586 03       		.byte	0x3
 4440 0587 23       		.byte	0x23
 4441 0588 F41F     		.uleb128 0xff4
 4442 058a 0D       		.uleb128 0xd
 4443 058b D1040000 		.4byte	.LASF89
 4444 058f 08       		.byte	0x8
 4445 0590 C1       		.byte	0xc1
 4446 0591 CF000000 		.4byte	0xcf
 4447 0595 03       		.byte	0x3
 4448 0596 23       		.byte	0x23
 4449 0597 F81F     		.uleb128 0xff8
 4450 0599 0D       		.uleb128 0xd
 4451 059a AD030000 		.4byte	.LASF90
 4452 059e 08       		.byte	0x8
 4453 059f C2       		.byte	0xc2
 4454 05a0 CF000000 		.4byte	0xcf
 4455 05a4 03       		.byte	0x3
 4456 05a5 23       		.byte	0x23
 4457 05a6 FC1F     		.uleb128 0xffc
 4458 05a8 00       		.byte	0
 4459 05a9 12       		.uleb128 0x12
 4460 05aa CF000000 		.4byte	0xcf
 4461 05ae BA050000 		.4byte	0x5ba
 4462 05b2 13       		.uleb128 0x13
 4463 05b3 25000000 		.4byte	0x25
 4464 05b7 DA03     		.2byte	0x3da
 4465 05b9 00       		.byte	0
 4466 05ba 06       		.uleb128 0x6
 4467 05bb A9050000 		.4byte	0x5a9
ARM GAS  C:\Users\claym\AppData\Local\Temp\cc2sTfd9.s 			page 107


 4468 05bf 05       		.uleb128 0x5
 4469 05c0 BA050000 		.4byte	0x5ba
 4470 05c4 04       		.uleb128 0x4
 4471 05c5 78090000 		.4byte	.LASF91
 4472 05c9 08       		.byte	0x8
 4473 05ca C3       		.byte	0xc3
 4474 05cb 85030000 		.4byte	0x385
 4475 05cf 14       		.uleb128 0x14
 4476 05d0 0010     		.2byte	0x1000
 4477 05d2 08       		.byte	0x8
 4478 05d3 9501     		.2byte	0x195
 4479 05d5 07070000 		.4byte	0x707
 4480 05d9 15       		.uleb128 0x15
 4481 05da 82020000 		.4byte	.LASF92
 4482 05de 08       		.byte	0x8
 4483 05df 9601     		.2byte	0x196
 4484 05e1 CA000000 		.4byte	0xca
 4485 05e5 02       		.byte	0x2
 4486 05e6 23       		.byte	0x23
 4487 05e7 00       		.uleb128 0
 4488 05e8 15       		.uleb128 0x15
 4489 05e9 3E0A0000 		.4byte	.LASF93
 4490 05ed 08       		.byte	0x8
 4491 05ee 9701     		.2byte	0x197
 4492 05f0 CA000000 		.4byte	0xca
 4493 05f4 02       		.byte	0x2
 4494 05f5 23       		.byte	0x23
 4495 05f6 04       		.uleb128 0x4
 4496 05f7 15       		.uleb128 0x15
 4497 05f8 DA0D0000 		.4byte	.LASF94
 4498 05fc 08       		.byte	0x8
 4499 05fd 9801     		.2byte	0x198
 4500 05ff CA000000 		.4byte	0xca
 4501 0603 02       		.byte	0x2
 4502 0604 23       		.byte	0x23
 4503 0605 08       		.uleb128 0x8
 4504 0606 15       		.uleb128 0x15
 4505 0607 85010000 		.4byte	.LASF95
 4506 060b 08       		.byte	0x8
 4507 060c 9901     		.2byte	0x199
 4508 060e CA000000 		.4byte	0xca
 4509 0612 02       		.byte	0x2
 4510 0613 23       		.byte	0x23
 4511 0614 0C       		.uleb128 0xc
 4512 0615 15       		.uleb128 0x15
 4513 0616 9F000000 		.4byte	.LASF96
 4514 061a 08       		.byte	0x8
 4515 061b 9A01     		.2byte	0x19a
 4516 061d CF000000 		.4byte	0xcf
 4517 0621 02       		.byte	0x2
 4518 0622 23       		.byte	0x23
 4519 0623 10       		.uleb128 0x10
 4520 0624 15       		.uleb128 0x15
 4521 0625 70060000 		.4byte	.LASF97
 4522 0629 08       		.byte	0x8
 4523 062a 9B01     		.2byte	0x19b
 4524 062c CF000000 		.4byte	0xcf
ARM GAS  C:\Users\claym\AppData\Local\Temp\cc2sTfd9.s 			page 108


 4525 0630 02       		.byte	0x2
 4526 0631 23       		.byte	0x23
 4527 0632 14       		.uleb128 0x14
 4528 0633 15       		.uleb128 0x15
 4529 0634 870C0000 		.4byte	.LASF98
 4530 0638 08       		.byte	0x8
 4531 0639 9C01     		.2byte	0x19c
 4532 063b CA000000 		.4byte	0xca
 4533 063f 02       		.byte	0x2
 4534 0640 23       		.byte	0x23
 4535 0641 18       		.uleb128 0x18
 4536 0642 15       		.uleb128 0x15
 4537 0643 B5070000 		.4byte	.LASF99
 4538 0647 08       		.byte	0x8
 4539 0648 9D01     		.2byte	0x19d
 4540 064a CA000000 		.4byte	0xca
 4541 064e 02       		.byte	0x2
 4542 064f 23       		.byte	0x23
 4543 0650 1C       		.uleb128 0x1c
 4544 0651 15       		.uleb128 0x15
 4545 0652 9C0C0000 		.4byte	.LASF100
 4546 0656 08       		.byte	0x8
 4547 0657 9E01     		.2byte	0x19e
 4548 0659 CA000000 		.4byte	0xca
 4549 065d 02       		.byte	0x2
 4550 065e 23       		.byte	0x23
 4551 065f 20       		.uleb128 0x20
 4552 0660 15       		.uleb128 0x15
 4553 0661 920B0000 		.4byte	.LASF101
 4554 0665 08       		.byte	0x8
 4555 0666 9F01     		.2byte	0x19f
 4556 0668 CA000000 		.4byte	0xca
 4557 066c 02       		.byte	0x2
 4558 066d 23       		.byte	0x23
 4559 066e 24       		.uleb128 0x24
 4560 066f 15       		.uleb128 0x15
 4561 0670 C30D0000 		.4byte	.LASF63
 4562 0674 08       		.byte	0x8
 4563 0675 A001     		.2byte	0x1a0
 4564 0677 CA000000 		.4byte	0xca
 4565 067b 02       		.byte	0x2
 4566 067c 23       		.byte	0x23
 4567 067d 28       		.uleb128 0x28
 4568 067e 15       		.uleb128 0x15
 4569 067f 19040000 		.4byte	.LASF64
 4570 0683 08       		.byte	0x8
 4571 0684 A101     		.2byte	0x1a1
 4572 0686 CF000000 		.4byte	0xcf
 4573 068a 02       		.byte	0x2
 4574 068b 23       		.byte	0x23
 4575 068c 2C       		.uleb128 0x2c
 4576 068d 15       		.uleb128 0x15
 4577 068e D20D0000 		.4byte	.LASF65
 4578 0692 08       		.byte	0x8
 4579 0693 A201     		.2byte	0x1a2
 4580 0695 CF000000 		.4byte	0xcf
 4581 0699 02       		.byte	0x2
ARM GAS  C:\Users\claym\AppData\Local\Temp\cc2sTfd9.s 			page 109


 4582 069a 23       		.byte	0x23
 4583 069b 30       		.uleb128 0x30
 4584 069c 15       		.uleb128 0x15
 4585 069d D5000000 		.4byte	.LASF66
 4586 06a1 08       		.byte	0x8
 4587 06a2 A301     		.2byte	0x1a3
 4588 06a4 CA000000 		.4byte	0xca
 4589 06a8 02       		.byte	0x2
 4590 06a9 23       		.byte	0x23
 4591 06aa 34       		.uleb128 0x34
 4592 06ab 15       		.uleb128 0x15
 4593 06ac A90B0000 		.4byte	.LASF102
 4594 06b0 08       		.byte	0x8
 4595 06b1 A401     		.2byte	0x1a4
 4596 06b3 CA000000 		.4byte	0xca
 4597 06b7 02       		.byte	0x2
 4598 06b8 23       		.byte	0x23
 4599 06b9 38       		.uleb128 0x38
 4600 06ba 15       		.uleb128 0x15
 4601 06bb 59080000 		.4byte	.LASF103
 4602 06bf 08       		.byte	0x8
 4603 06c0 A501     		.2byte	0x1a5
 4604 06c2 CA000000 		.4byte	0xca
 4605 06c6 02       		.byte	0x2
 4606 06c7 23       		.byte	0x23
 4607 06c8 3C       		.uleb128 0x3c
 4608 06c9 15       		.uleb128 0x15
 4609 06ca 310A0000 		.4byte	.LASF104
 4610 06ce 08       		.byte	0x8
 4611 06cf A601     		.2byte	0x1a6
 4612 06d1 CA000000 		.4byte	0xca
 4613 06d5 02       		.byte	0x2
 4614 06d6 23       		.byte	0x23
 4615 06d7 40       		.uleb128 0x40
 4616 06d8 15       		.uleb128 0x15
 4617 06d9 3C0B0000 		.4byte	.LASF105
 4618 06dd 08       		.byte	0x8
 4619 06de A701     		.2byte	0x1a7
 4620 06e0 CF000000 		.4byte	0xcf
 4621 06e4 02       		.byte	0x2
 4622 06e5 23       		.byte	0x23
 4623 06e6 44       		.uleb128 0x44
 4624 06e7 15       		.uleb128 0x15
 4625 06e8 7E080000 		.4byte	.LASF86
 4626 06ec 08       		.byte	0x8
 4627 06ed A801     		.2byte	0x1a8
 4628 06ef 1D070000 		.4byte	0x71d
 4629 06f3 02       		.byte	0x2
 4630 06f4 23       		.byte	0x23
 4631 06f5 48       		.uleb128 0x48
 4632 06f6 15       		.uleb128 0x15
 4633 06f7 AD030000 		.4byte	.LASF90
 4634 06fb 08       		.byte	0x8
 4635 06fc A901     		.2byte	0x1a9
 4636 06fe CF000000 		.4byte	0xcf
 4637 0702 03       		.byte	0x3
 4638 0703 23       		.byte	0x23
ARM GAS  C:\Users\claym\AppData\Local\Temp\cc2sTfd9.s 			page 110


 4639 0704 FC1F     		.uleb128 0xffc
 4640 0706 00       		.byte	0
 4641 0707 12       		.uleb128 0x12
 4642 0708 CF000000 		.4byte	0xcf
 4643 070c 18070000 		.4byte	0x718
 4644 0710 13       		.uleb128 0x13
 4645 0711 25000000 		.4byte	0x25
 4646 0715 EC03     		.2byte	0x3ec
 4647 0717 00       		.byte	0
 4648 0718 06       		.uleb128 0x6
 4649 0719 07070000 		.4byte	0x707
 4650 071d 05       		.uleb128 0x5
 4651 071e 18070000 		.4byte	0x718
 4652 0722 16       		.uleb128 0x16
 4653 0723 8F020000 		.4byte	.LASF106
 4654 0727 08       		.byte	0x8
 4655 0728 AA01     		.2byte	0x1aa
 4656 072a CF050000 		.4byte	0x5cf
 4657 072e 14       		.uleb128 0x14
 4658 072f 0020     		.2byte	0x2000
 4659 0731 08       		.byte	0x8
 4660 0732 0A02     		.2byte	0x20a
 4661 0734 48070000 		.4byte	0x748
 4662 0738 15       		.uleb128 0x15
 4663 0739 D8070000 		.4byte	.LASF107
 4664 073d 08       		.byte	0x8
 4665 073e 0B02     		.2byte	0x20b
 4666 0740 48070000 		.4byte	0x748
 4667 0744 02       		.byte	0x2
 4668 0745 23       		.byte	0x23
 4669 0746 00       		.uleb128 0
 4670 0747 00       		.byte	0
 4671 0748 12       		.uleb128 0x12
 4672 0749 22070000 		.4byte	0x722
 4673 074d 58070000 		.4byte	0x758
 4674 0751 17       		.uleb128 0x17
 4675 0752 25000000 		.4byte	0x25
 4676 0756 01       		.byte	0x1
 4677 0757 00       		.byte	0
 4678 0758 16       		.uleb128 0x16
 4679 0759 25080000 		.4byte	.LASF108
 4680 075d 08       		.byte	0x8
 4681 075e 0C02     		.2byte	0x20c
 4682 0760 2E070000 		.4byte	0x72e
 4683 0764 07       		.uleb128 0x7
 4684 0765 1F000000 		.4byte	.LASF109
 4685 0769 AC       		.byte	0xac
 4686 076a 09       		.byte	0x9
 4687 076b 2B       		.byte	0x2b
 4688 076c 1A080000 		.4byte	0x81a
 4689 0770 0D       		.uleb128 0xd
 4690 0771 630B0000 		.4byte	.LASF110
 4691 0775 09       		.byte	0x9
 4692 0776 2C       		.byte	0x2c
 4693 0777 35020000 		.4byte	0x235
 4694 077b 02       		.byte	0x2
 4695 077c 23       		.byte	0x23
ARM GAS  C:\Users\claym\AppData\Local\Temp\cc2sTfd9.s 			page 111


 4696 077d 00       		.uleb128 0
 4697 077e 0D       		.uleb128 0xd
 4698 077f F2050000 		.4byte	.LASF111
 4699 0783 09       		.byte	0x9
 4700 0784 2D       		.byte	0x2d
 4701 0785 2A020000 		.4byte	0x22a
 4702 0789 02       		.byte	0x2
 4703 078a 23       		.byte	0x23
 4704 078b 04       		.uleb128 0x4
 4705 078c 0D       		.uleb128 0xd
 4706 078d 94000000 		.4byte	.LASF112
 4707 0791 09       		.byte	0x9
 4708 0792 2E       		.byte	0x2e
 4709 0793 BF000000 		.4byte	0xbf
 4710 0797 02       		.byte	0x2
 4711 0798 23       		.byte	0x23
 4712 0799 08       		.uleb128 0x8
 4713 079a 0D       		.uleb128 0xd
 4714 079b 5B070000 		.4byte	.LASF113
 4715 079f 09       		.byte	0x9
 4716 07a0 2F       		.byte	0x2f
 4717 07a1 BF000000 		.4byte	0xbf
 4718 07a5 02       		.byte	0x2
 4719 07a6 23       		.byte	0x23
 4720 07a7 0C       		.uleb128 0xc
 4721 07a8 0D       		.uleb128 0xd
 4722 07a9 B3090000 		.4byte	.LASF114
 4723 07ad 09       		.byte	0x9
 4724 07ae 30       		.byte	0x30
 4725 07af BF000000 		.4byte	0xbf
 4726 07b3 02       		.byte	0x2
 4727 07b4 23       		.byte	0x23
 4728 07b5 10       		.uleb128 0x10
 4729 07b6 0D       		.uleb128 0xd
 4730 07b7 62000000 		.4byte	.LASF115
 4731 07bb 09       		.byte	0x9
 4732 07bc 31       		.byte	0x31
 4733 07bd BF000000 		.4byte	0xbf
 4734 07c1 02       		.byte	0x2
 4735 07c2 23       		.byte	0x23
 4736 07c3 14       		.uleb128 0x14
 4737 07c4 0D       		.uleb128 0xd
 4738 07c5 87030000 		.4byte	.LASF116
 4739 07c9 09       		.byte	0x9
 4740 07ca 32       		.byte	0x32
 4741 07cb BF000000 		.4byte	0xbf
 4742 07cf 02       		.byte	0x2
 4743 07d0 23       		.byte	0x23
 4744 07d1 18       		.uleb128 0x18
 4745 07d2 0D       		.uleb128 0xd
 4746 07d3 960C0000 		.4byte	.LASF117
 4747 07d7 09       		.byte	0x9
 4748 07d8 33       		.byte	0x33
 4749 07d9 BF000000 		.4byte	0xbf
 4750 07dd 02       		.byte	0x2
 4751 07de 23       		.byte	0x23
 4752 07df 1C       		.uleb128 0x1c
ARM GAS  C:\Users\claym\AppData\Local\Temp\cc2sTfd9.s 			page 112


 4753 07e0 0D       		.uleb128 0xd
 4754 07e1 9D010000 		.4byte	.LASF118
 4755 07e5 09       		.byte	0x9
 4756 07e6 34       		.byte	0x34
 4757 07e7 BF000000 		.4byte	0xbf
 4758 07eb 02       		.byte	0x2
 4759 07ec 23       		.byte	0x23
 4760 07ed 20       		.uleb128 0x20
 4761 07ee 0D       		.uleb128 0xd
 4762 07ef 90080000 		.4byte	.LASF119
 4763 07f3 09       		.byte	0x9
 4764 07f4 35       		.byte	0x35
 4765 07f5 BF000000 		.4byte	0xbf
 4766 07f9 02       		.byte	0x2
 4767 07fa 23       		.byte	0x23
 4768 07fb 24       		.uleb128 0x24
 4769 07fc 0D       		.uleb128 0xd
 4770 07fd 9E0A0000 		.4byte	.LASF120
 4771 0801 09       		.byte	0x9
 4772 0802 36       		.byte	0x36
 4773 0803 1A080000 		.4byte	0x81a
 4774 0807 02       		.byte	0x2
 4775 0808 23       		.byte	0x23
 4776 0809 28       		.uleb128 0x28
 4777 080a 0D       		.uleb128 0xd
 4778 080b F9060000 		.4byte	.LASF121
 4779 080f 09       		.byte	0x9
 4780 0810 37       		.byte	0x37
 4781 0811 20030000 		.4byte	0x320
 4782 0815 03       		.byte	0x3
 4783 0816 23       		.byte	0x23
 4784 0817 A801     		.uleb128 0xa8
 4785 0819 00       		.byte	0
 4786 081a 12       		.uleb128 0x12
 4787 081b 9E000000 		.4byte	0x9e
 4788 081f 2A080000 		.4byte	0x82a
 4789 0823 17       		.uleb128 0x17
 4790 0824 25000000 		.4byte	0x25
 4791 0828 7F       		.byte	0x7f
 4792 0829 00       		.byte	0
 4793 082a 04       		.uleb128 0x4
 4794 082b 13030000 		.4byte	.LASF122
 4795 082f 09       		.byte	0x9
 4796 0830 38       		.byte	0x38
 4797 0831 64070000 		.4byte	0x764
 4798 0835 18       		.uleb128 0x18
 4799 0836 BC       		.byte	0xbc
 4800 0837 09       		.byte	0x9
 4801 0838 3C       		.byte	0x3c
 4802 0839 85080000 		.4byte	0x885
 4803 083d 0D       		.uleb128 0xd
 4804 083e 490C0000 		.4byte	.LASF123
 4805 0842 09       		.byte	0x9
 4806 0843 3D       		.byte	0x3d
 4807 0844 BF000000 		.4byte	0xbf
 4808 0848 02       		.byte	0x2
 4809 0849 23       		.byte	0x23
ARM GAS  C:\Users\claym\AppData\Local\Temp\cc2sTfd9.s 			page 113


 4810 084a 00       		.uleb128 0
 4811 084b 08       		.uleb128 0x8
 4812 084c 72656700 		.ascii	"reg\000"
 4813 0850 09       		.byte	0x9
 4814 0851 3E       		.byte	0x3e
 4815 0852 85080000 		.4byte	0x885
 4816 0856 02       		.byte	0x2
 4817 0857 23       		.byte	0x23
 4818 0858 04       		.uleb128 0x4
 4819 0859 08       		.uleb128 0x8
 4820 085a 64727600 		.ascii	"drv\000"
 4821 085e 09       		.byte	0x9
 4822 085f 3F       		.byte	0x3f
 4823 0860 8B080000 		.4byte	0x88b
 4824 0864 02       		.byte	0x2
 4825 0865 23       		.byte	0x23
 4826 0866 08       		.uleb128 0x8
 4827 0867 0D       		.uleb128 0xd
 4828 0868 9C0B0000 		.4byte	.LASF124
 4829 086c 09       		.byte	0x9
 4830 086d 40       		.byte	0x40
 4831 086e 2A080000 		.4byte	0x82a
 4832 0872 02       		.byte	0x2
 4833 0873 23       		.byte	0x23
 4834 0874 0C       		.uleb128 0xc
 4835 0875 0D       		.uleb128 0xd
 4836 0876 52090000 		.4byte	.LASF125
 4837 087a 09       		.byte	0x9
 4838 087b 41       		.byte	0x41
 4839 087c BF000000 		.4byte	0xbf
 4840 0880 03       		.byte	0x3
 4841 0881 23       		.byte	0x23
 4842 0882 B801     		.uleb128 0xb8
 4843 0884 00       		.byte	0
 4844 0885 0A       		.uleb128 0xa
 4845 0886 04       		.byte	0x4
 4846 0887 22070000 		.4byte	0x722
 4847 088b 0A       		.uleb128 0xa
 4848 088c 04       		.byte	0x4
 4849 088d 53030000 		.4byte	0x353
 4850 0891 04       		.uleb128 0x4
 4851 0892 AB040000 		.4byte	.LASF126
 4852 0896 09       		.byte	0x9
 4853 0897 42       		.byte	0x42
 4854 0898 35080000 		.4byte	0x835
 4855 089c 19       		.uleb128 0x19
 4856 089d 07       		.byte	0x7
 4857 089e 01       		.byte	0x1
 4858 089f 53000000 		.4byte	0x53
 4859 08a3 0E       		.byte	0xe
 4860 08a4 1C       		.byte	0x1c
 4861 08a5 D4080000 		.4byte	0x8d4
 4862 08a9 1A       		.uleb128 0x1a
 4863 08aa 2A000000 		.4byte	.LASF127
 4864 08ae 00       		.byte	0
 4865 08af 1A       		.uleb128 0x1a
 4866 08b0 38000000 		.4byte	.LASF128
ARM GAS  C:\Users\claym\AppData\Local\Temp\cc2sTfd9.s 			page 114


 4867 08b4 01       		.byte	0x1
 4868 08b5 1A       		.uleb128 0x1a
 4869 08b6 760A0000 		.4byte	.LASF129
 4870 08ba 02       		.byte	0x2
 4871 08bb 1A       		.uleb128 0x1a
 4872 08bc 070C0000 		.4byte	.LASF130
 4873 08c0 03       		.byte	0x3
 4874 08c1 1A       		.uleb128 0x1a
 4875 08c2 520B0000 		.4byte	.LASF131
 4876 08c6 04       		.byte	0x4
 4877 08c7 1A       		.uleb128 0x1a
 4878 08c8 0E0A0000 		.4byte	.LASF132
 4879 08cc 05       		.byte	0x5
 4880 08cd 1A       		.uleb128 0x1a
 4881 08ce CD010000 		.4byte	.LASF133
 4882 08d2 06       		.byte	0x6
 4883 08d3 00       		.byte	0
 4884 08d4 04       		.uleb128 0x4
 4885 08d5 F6070000 		.4byte	.LASF134
 4886 08d9 0A       		.byte	0xa
 4887 08da 22       		.byte	0x22
 4888 08db DF080000 		.4byte	0x8df
 4889 08df 0A       		.uleb128 0xa
 4890 08e0 04       		.byte	0x4
 4891 08e1 E5080000 		.4byte	0x8e5
 4892 08e5 1B       		.uleb128 0x1b
 4893 08e6 A50A0000 		.4byte	.LASF241
 4894 08ea 01       		.byte	0x1
 4895 08eb 04       		.uleb128 0x4
 4896 08ec A20C0000 		.4byte	.LASF135
 4897 08f0 0B       		.byte	0xb
 4898 08f1 2C       		.byte	0x2c
 4899 08f2 7E000000 		.4byte	0x7e
 4900 08f6 04       		.uleb128 0x4
 4901 08f7 87020000 		.4byte	.LASF136
 4902 08fb 0B       		.byte	0xb
 4903 08fc 72       		.byte	0x72
 4904 08fd 7E000000 		.4byte	0x7e
 4905 0901 16       		.uleb128 0x16
 4906 0902 CB0D0000 		.4byte	.LASF137
 4907 0906 0C       		.byte	0xc
 4908 0907 6501     		.2byte	0x165
 4909 0909 25000000 		.4byte	0x25
 4910 090d 1C       		.uleb128 0x1c
 4911 090e 04       		.byte	0x4
 4912 090f 0B       		.byte	0xb
 4913 0910 A6       		.byte	0xa6
 4914 0911 2C090000 		.4byte	0x92c
 4915 0915 1D       		.uleb128 0x1d
 4916 0916 DE050000 		.4byte	.LASF138
 4917 091a 0B       		.byte	0xb
 4918 091b A8       		.byte	0xa8
 4919 091c 01090000 		.4byte	0x901
 4920 0920 1D       		.uleb128 0x1d
 4921 0921 38090000 		.4byte	.LASF139
 4922 0925 0B       		.byte	0xb
 4923 0926 A9       		.byte	0xa9
ARM GAS  C:\Users\claym\AppData\Local\Temp\cc2sTfd9.s 			page 115


 4924 0927 2C090000 		.4byte	0x92c
 4925 092b 00       		.byte	0
 4926 092c 12       		.uleb128 0x12
 4927 092d 53000000 		.4byte	0x53
 4928 0931 3C090000 		.4byte	0x93c
 4929 0935 17       		.uleb128 0x17
 4930 0936 25000000 		.4byte	0x25
 4931 093a 03       		.byte	0x3
 4932 093b 00       		.byte	0
 4933 093c 18       		.uleb128 0x18
 4934 093d 08       		.byte	0x8
 4935 093e 0B       		.byte	0xb
 4936 093f A3       		.byte	0xa3
 4937 0940 61090000 		.4byte	0x961
 4938 0944 0D       		.uleb128 0xd
 4939 0945 FE000000 		.4byte	.LASF140
 4940 0949 0B       		.byte	0xb
 4941 094a A5       		.byte	0xa5
 4942 094b 2C000000 		.4byte	0x2c
 4943 094f 02       		.byte	0x2
 4944 0950 23       		.byte	0x23
 4945 0951 00       		.uleb128 0
 4946 0952 0D       		.uleb128 0xd
 4947 0953 0A050000 		.4byte	.LASF141
 4948 0957 0B       		.byte	0xb
 4949 0958 AA       		.byte	0xaa
 4950 0959 0D090000 		.4byte	0x90d
 4951 095d 02       		.byte	0x2
 4952 095e 23       		.byte	0x23
 4953 095f 04       		.uleb128 0x4
 4954 0960 00       		.byte	0
 4955 0961 04       		.uleb128 0x4
 4956 0962 32070000 		.4byte	.LASF142
 4957 0966 0B       		.byte	0xb
 4958 0967 AB       		.byte	0xab
 4959 0968 3C090000 		.4byte	0x93c
 4960 096c 04       		.uleb128 0x4
 4961 096d C6050000 		.4byte	.LASF143
 4962 0971 0B       		.byte	0xb
 4963 0972 AF       		.byte	0xaf
 4964 0973 D4080000 		.4byte	0x8d4
 4965 0977 1E       		.uleb128 0x1e
 4966 0978 04       		.byte	0x4
 4967 0979 0A       		.uleb128 0xa
 4968 097a 04       		.byte	0x4
 4969 097b 7F090000 		.4byte	0x97f
 4970 097f 02       		.uleb128 0x2
 4971 0980 01       		.byte	0x1
 4972 0981 08       		.byte	0x8
 4973 0982 46000000 		.4byte	.LASF144
 4974 0986 06       		.uleb128 0x6
 4975 0987 7F090000 		.4byte	0x97f
 4976 098b 04       		.uleb128 0x4
 4977 098c 8F060000 		.4byte	.LASF145
 4978 0990 0D       		.byte	0xd
 4979 0991 16       		.byte	0x16
 4980 0992 90000000 		.4byte	0x90
ARM GAS  C:\Users\claym\AppData\Local\Temp\cc2sTfd9.s 			page 116


 4981 0996 07       		.uleb128 0x7
 4982 0997 CF020000 		.4byte	.LASF146
 4983 099b 18       		.byte	0x18
 4984 099c 0D       		.byte	0xd
 4985 099d 2F       		.byte	0x2f
 4986 099e F5090000 		.4byte	0x9f5
 4987 09a2 0D       		.uleb128 0xd
 4988 09a3 94040000 		.4byte	.LASF147
 4989 09a7 0D       		.byte	0xd
 4990 09a8 31       		.byte	0x31
 4991 09a9 F5090000 		.4byte	0x9f5
 4992 09ad 02       		.byte	0x2
 4993 09ae 23       		.byte	0x23
 4994 09af 00       		.uleb128 0
 4995 09b0 08       		.uleb128 0x8
 4996 09b1 5F6B00   		.ascii	"_k\000"
 4997 09b4 0D       		.byte	0xd
 4998 09b5 32       		.byte	0x32
 4999 09b6 2C000000 		.4byte	0x2c
 5000 09ba 02       		.byte	0x2
 5001 09bb 23       		.byte	0x23
 5002 09bc 04       		.uleb128 0x4
 5003 09bd 0D       		.uleb128 0xd
 5004 09be E6090000 		.4byte	.LASF148
 5005 09c2 0D       		.byte	0xd
 5006 09c3 32       		.byte	0x32
 5007 09c4 2C000000 		.4byte	0x2c
 5008 09c8 02       		.byte	0x2
 5009 09c9 23       		.byte	0x23
 5010 09ca 08       		.uleb128 0x8
 5011 09cb 0D       		.uleb128 0xd
 5012 09cc 1B090000 		.4byte	.LASF149
 5013 09d0 0D       		.byte	0xd
 5014 09d1 32       		.byte	0x32
 5015 09d2 2C000000 		.4byte	0x2c
 5016 09d6 02       		.byte	0x2
 5017 09d7 23       		.byte	0x23
 5018 09d8 0C       		.uleb128 0xc
 5019 09d9 0D       		.uleb128 0xd
 5020 09da A8030000 		.4byte	.LASF150
 5021 09de 0D       		.byte	0xd
 5022 09df 32       		.byte	0x32
 5023 09e0 2C000000 		.4byte	0x2c
 5024 09e4 02       		.byte	0x2
 5025 09e5 23       		.byte	0x23
 5026 09e6 10       		.uleb128 0x10
 5027 09e7 08       		.uleb128 0x8
 5028 09e8 5F7800   		.ascii	"_x\000"
 5029 09eb 0D       		.byte	0xd
 5030 09ec 33       		.byte	0x33
 5031 09ed FB090000 		.4byte	0x9fb
 5032 09f1 02       		.byte	0x2
 5033 09f2 23       		.byte	0x23
 5034 09f3 14       		.uleb128 0x14
 5035 09f4 00       		.byte	0
 5036 09f5 0A       		.uleb128 0xa
 5037 09f6 04       		.byte	0x4
ARM GAS  C:\Users\claym\AppData\Local\Temp\cc2sTfd9.s 			page 117


 5038 09f7 96090000 		.4byte	0x996
 5039 09fb 12       		.uleb128 0x12
 5040 09fc 8B090000 		.4byte	0x98b
 5041 0a00 0B0A0000 		.4byte	0xa0b
 5042 0a04 17       		.uleb128 0x17
 5043 0a05 25000000 		.4byte	0x25
 5044 0a09 00       		.byte	0
 5045 0a0a 00       		.byte	0
 5046 0a0b 07       		.uleb128 0x7
 5047 0a0c 2C0A0000 		.4byte	.LASF151
 5048 0a10 24       		.byte	0x24
 5049 0a11 0D       		.byte	0xd
 5050 0a12 37       		.byte	0x37
 5051 0a13 960A0000 		.4byte	0xa96
 5052 0a17 0D       		.uleb128 0xd
 5053 0a18 68040000 		.4byte	.LASF152
 5054 0a1c 0D       		.byte	0xd
 5055 0a1d 39       		.byte	0x39
 5056 0a1e 2C000000 		.4byte	0x2c
 5057 0a22 02       		.byte	0x2
 5058 0a23 23       		.byte	0x23
 5059 0a24 00       		.uleb128 0
 5060 0a25 0D       		.uleb128 0xd
 5061 0a26 3A030000 		.4byte	.LASF153
 5062 0a2a 0D       		.byte	0xd
 5063 0a2b 3A       		.byte	0x3a
 5064 0a2c 2C000000 		.4byte	0x2c
 5065 0a30 02       		.byte	0x2
 5066 0a31 23       		.byte	0x23
 5067 0a32 04       		.uleb128 0x4
 5068 0a33 0D       		.uleb128 0xd
 5069 0a34 F9020000 		.4byte	.LASF154
 5070 0a38 0D       		.byte	0xd
 5071 0a39 3B       		.byte	0x3b
 5072 0a3a 2C000000 		.4byte	0x2c
 5073 0a3e 02       		.byte	0x2
 5074 0a3f 23       		.byte	0x23
 5075 0a40 08       		.uleb128 0x8
 5076 0a41 0D       		.uleb128 0xd
 5077 0a42 6F050000 		.4byte	.LASF155
 5078 0a46 0D       		.byte	0xd
 5079 0a47 3C       		.byte	0x3c
 5080 0a48 2C000000 		.4byte	0x2c
 5081 0a4c 02       		.byte	0x2
 5082 0a4d 23       		.byte	0x23
 5083 0a4e 0C       		.uleb128 0xc
 5084 0a4f 0D       		.uleb128 0xd
 5085 0a50 CF070000 		.4byte	.LASF156
 5086 0a54 0D       		.byte	0xd
 5087 0a55 3D       		.byte	0x3d
 5088 0a56 2C000000 		.4byte	0x2c
 5089 0a5a 02       		.byte	0x2
 5090 0a5b 23       		.byte	0x23
 5091 0a5c 10       		.uleb128 0x10
 5092 0a5d 0D       		.uleb128 0xd
 5093 0a5e 6E090000 		.4byte	.LASF157
 5094 0a62 0D       		.byte	0xd
ARM GAS  C:\Users\claym\AppData\Local\Temp\cc2sTfd9.s 			page 118


 5095 0a63 3E       		.byte	0x3e
 5096 0a64 2C000000 		.4byte	0x2c
 5097 0a68 02       		.byte	0x2
 5098 0a69 23       		.byte	0x23
 5099 0a6a 14       		.uleb128 0x14
 5100 0a6b 0D       		.uleb128 0xd
 5101 0a6c D7020000 		.4byte	.LASF158
 5102 0a70 0D       		.byte	0xd
 5103 0a71 3F       		.byte	0x3f
 5104 0a72 2C000000 		.4byte	0x2c
 5105 0a76 02       		.byte	0x2
 5106 0a77 23       		.byte	0x23
 5107 0a78 18       		.uleb128 0x18
 5108 0a79 0D       		.uleb128 0xd
 5109 0a7a 80040000 		.4byte	.LASF159
 5110 0a7e 0D       		.byte	0xd
 5111 0a7f 40       		.byte	0x40
 5112 0a80 2C000000 		.4byte	0x2c
 5113 0a84 02       		.byte	0x2
 5114 0a85 23       		.byte	0x23
 5115 0a86 1C       		.uleb128 0x1c
 5116 0a87 0D       		.uleb128 0xd
 5117 0a88 50070000 		.4byte	.LASF160
 5118 0a8c 0D       		.byte	0xd
 5119 0a8d 41       		.byte	0x41
 5120 0a8e 2C000000 		.4byte	0x2c
 5121 0a92 02       		.byte	0x2
 5122 0a93 23       		.byte	0x23
 5123 0a94 20       		.uleb128 0x20
 5124 0a95 00       		.byte	0
 5125 0a96 1F       		.uleb128 0x1f
 5126 0a97 4B000000 		.4byte	.LASF161
 5127 0a9b 0801     		.2byte	0x108
 5128 0a9d 0D       		.byte	0xd
 5129 0a9e 4A       		.byte	0x4a
 5130 0a9f DF0A0000 		.4byte	0xadf
 5131 0aa3 0D       		.uleb128 0xd
 5132 0aa4 3D070000 		.4byte	.LASF162
 5133 0aa8 0D       		.byte	0xd
 5134 0aa9 4B       		.byte	0x4b
 5135 0aaa DF0A0000 		.4byte	0xadf
 5136 0aae 02       		.byte	0x2
 5137 0aaf 23       		.byte	0x23
 5138 0ab0 00       		.uleb128 0
 5139 0ab1 0D       		.uleb128 0xd
 5140 0ab2 C10A0000 		.4byte	.LASF163
 5141 0ab6 0D       		.byte	0xd
 5142 0ab7 4C       		.byte	0x4c
 5143 0ab8 DF0A0000 		.4byte	0xadf
 5144 0abc 03       		.byte	0x3
 5145 0abd 23       		.byte	0x23
 5146 0abe 8001     		.uleb128 0x80
 5147 0ac0 0D       		.uleb128 0xd
 5148 0ac1 7E0C0000 		.4byte	.LASF164
 5149 0ac5 0D       		.byte	0xd
 5150 0ac6 4E       		.byte	0x4e
 5151 0ac7 8B090000 		.4byte	0x98b
ARM GAS  C:\Users\claym\AppData\Local\Temp\cc2sTfd9.s 			page 119


 5152 0acb 03       		.byte	0x3
 5153 0acc 23       		.byte	0x23
 5154 0acd 8002     		.uleb128 0x100
 5155 0acf 0D       		.uleb128 0xd
 5156 0ad0 150D0000 		.4byte	.LASF165
 5157 0ad4 0D       		.byte	0xd
 5158 0ad5 51       		.byte	0x51
 5159 0ad6 8B090000 		.4byte	0x98b
 5160 0ada 03       		.byte	0x3
 5161 0adb 23       		.byte	0x23
 5162 0adc 8402     		.uleb128 0x104
 5163 0ade 00       		.byte	0
 5164 0adf 12       		.uleb128 0x12
 5165 0ae0 77090000 		.4byte	0x977
 5166 0ae4 EF0A0000 		.4byte	0xaef
 5167 0ae8 17       		.uleb128 0x17
 5168 0ae9 25000000 		.4byte	0x25
 5169 0aed 1F       		.byte	0x1f
 5170 0aee 00       		.byte	0
 5171 0aef 1F       		.uleb128 0x1f
 5172 0af0 43080000 		.4byte	.LASF166
 5173 0af4 9001     		.2byte	0x190
 5174 0af6 0D       		.byte	0xd
 5175 0af7 5D       		.byte	0x5d
 5176 0af8 360B0000 		.4byte	0xb36
 5177 0afc 0D       		.uleb128 0xd
 5178 0afd 94040000 		.4byte	.LASF147
 5179 0b01 0D       		.byte	0xd
 5180 0b02 5E       		.byte	0x5e
 5181 0b03 360B0000 		.4byte	0xb36
 5182 0b07 02       		.byte	0x2
 5183 0b08 23       		.byte	0x23
 5184 0b09 00       		.uleb128 0
 5185 0b0a 0D       		.uleb128 0xd
 5186 0b0b 8F040000 		.4byte	.LASF167
 5187 0b0f 0D       		.byte	0xd
 5188 0b10 5F       		.byte	0x5f
 5189 0b11 2C000000 		.4byte	0x2c
 5190 0b15 02       		.byte	0x2
 5191 0b16 23       		.byte	0x23
 5192 0b17 04       		.uleb128 0x4
 5193 0b18 0D       		.uleb128 0xd
 5194 0b19 A8020000 		.4byte	.LASF168
 5195 0b1d 0D       		.byte	0xd
 5196 0b1e 61       		.byte	0x61
 5197 0b1f 3C0B0000 		.4byte	0xb3c
 5198 0b23 02       		.byte	0x2
 5199 0b24 23       		.byte	0x23
 5200 0b25 08       		.uleb128 0x8
 5201 0b26 0D       		.uleb128 0xd
 5202 0b27 4B000000 		.4byte	.LASF161
 5203 0b2b 0D       		.byte	0xd
 5204 0b2c 62       		.byte	0x62
 5205 0b2d 960A0000 		.4byte	0xa96
 5206 0b31 03       		.byte	0x3
 5207 0b32 23       		.byte	0x23
 5208 0b33 8801     		.uleb128 0x88
ARM GAS  C:\Users\claym\AppData\Local\Temp\cc2sTfd9.s 			page 120


 5209 0b35 00       		.byte	0
 5210 0b36 0A       		.uleb128 0xa
 5211 0b37 04       		.byte	0x4
 5212 0b38 EF0A0000 		.4byte	0xaef
 5213 0b3c 12       		.uleb128 0x12
 5214 0b3d 4C0B0000 		.4byte	0xb4c
 5215 0b41 4C0B0000 		.4byte	0xb4c
 5216 0b45 17       		.uleb128 0x17
 5217 0b46 25000000 		.4byte	0x25
 5218 0b4a 1F       		.byte	0x1f
 5219 0b4b 00       		.byte	0
 5220 0b4c 0A       		.uleb128 0xa
 5221 0b4d 04       		.byte	0x4
 5222 0b4e 520B0000 		.4byte	0xb52
 5223 0b52 20       		.uleb128 0x20
 5224 0b53 01       		.byte	0x1
 5225 0b54 07       		.uleb128 0x7
 5226 0b55 6C0B0000 		.4byte	.LASF169
 5227 0b59 08       		.byte	0x8
 5228 0b5a 0D       		.byte	0xd
 5229 0b5b 75       		.byte	0x75
 5230 0b5c 7D0B0000 		.4byte	0xb7d
 5231 0b60 0D       		.uleb128 0xd
 5232 0b61 79060000 		.4byte	.LASF170
 5233 0b65 0D       		.byte	0xd
 5234 0b66 76       		.byte	0x76
 5235 0b67 7D0B0000 		.4byte	0xb7d
 5236 0b6b 02       		.byte	0x2
 5237 0b6c 23       		.byte	0x23
 5238 0b6d 00       		.uleb128 0
 5239 0b6e 0D       		.uleb128 0xd
 5240 0b6f 900C0000 		.4byte	.LASF171
 5241 0b73 0D       		.byte	0xd
 5242 0b74 77       		.byte	0x77
 5243 0b75 2C000000 		.4byte	0x2c
 5244 0b79 02       		.byte	0x2
 5245 0b7a 23       		.byte	0x23
 5246 0b7b 04       		.uleb128 0x4
 5247 0b7c 00       		.byte	0
 5248 0b7d 0A       		.uleb128 0xa
 5249 0b7e 04       		.byte	0x4
 5250 0b7f 53000000 		.4byte	0x53
 5251 0b83 07       		.uleb128 0x7
 5252 0b84 A0030000 		.4byte	.LASF172
 5253 0b88 68       		.byte	0x68
 5254 0b89 0D       		.byte	0xd
 5255 0b8a B5       		.byte	0xb5
 5256 0b8b DD0C0000 		.4byte	0xcdd
 5257 0b8f 08       		.uleb128 0x8
 5258 0b90 5F7000   		.ascii	"_p\000"
 5259 0b93 0D       		.byte	0xd
 5260 0b94 B6       		.byte	0xb6
 5261 0b95 7D0B0000 		.4byte	0xb7d
 5262 0b99 02       		.byte	0x2
 5263 0b9a 23       		.byte	0x23
 5264 0b9b 00       		.uleb128 0
 5265 0b9c 08       		.uleb128 0x8
ARM GAS  C:\Users\claym\AppData\Local\Temp\cc2sTfd9.s 			page 121


 5266 0b9d 5F7200   		.ascii	"_r\000"
 5267 0ba0 0D       		.byte	0xd
 5268 0ba1 B7       		.byte	0xb7
 5269 0ba2 2C000000 		.4byte	0x2c
 5270 0ba6 02       		.byte	0x2
 5271 0ba7 23       		.byte	0x23
 5272 0ba8 04       		.uleb128 0x4
 5273 0ba9 08       		.uleb128 0x8
 5274 0baa 5F7700   		.ascii	"_w\000"
 5275 0bad 0D       		.byte	0xd
 5276 0bae B8       		.byte	0xb8
 5277 0baf 2C000000 		.4byte	0x2c
 5278 0bb3 02       		.byte	0x2
 5279 0bb4 23       		.byte	0x23
 5280 0bb5 08       		.uleb128 0x8
 5281 0bb6 0D       		.uleb128 0xd
 5282 0bb7 E6000000 		.4byte	.LASF173
 5283 0bbb 0D       		.byte	0xd
 5284 0bbc B9       		.byte	0xb9
 5285 0bbd 5A000000 		.4byte	0x5a
 5286 0bc1 02       		.byte	0x2
 5287 0bc2 23       		.byte	0x23
 5288 0bc3 0C       		.uleb128 0xc
 5289 0bc4 0D       		.uleb128 0xd
 5290 0bc5 D7060000 		.4byte	.LASF174
 5291 0bc9 0D       		.byte	0xd
 5292 0bca BA       		.byte	0xba
 5293 0bcb 5A000000 		.4byte	0x5a
 5294 0bcf 02       		.byte	0x2
 5295 0bd0 23       		.byte	0x23
 5296 0bd1 0E       		.uleb128 0xe
 5297 0bd2 08       		.uleb128 0x8
 5298 0bd3 5F626600 		.ascii	"_bf\000"
 5299 0bd7 0D       		.byte	0xd
 5300 0bd8 BB       		.byte	0xbb
 5301 0bd9 540B0000 		.4byte	0xb54
 5302 0bdd 02       		.byte	0x2
 5303 0bde 23       		.byte	0x23
 5304 0bdf 10       		.uleb128 0x10
 5305 0be0 0D       		.uleb128 0xd
 5306 0be1 DD000000 		.4byte	.LASF175
 5307 0be5 0D       		.byte	0xd
 5308 0be6 BC       		.byte	0xbc
 5309 0be7 2C000000 		.4byte	0x2c
 5310 0beb 02       		.byte	0x2
 5311 0bec 23       		.byte	0x23
 5312 0bed 18       		.uleb128 0x18
 5313 0bee 0D       		.uleb128 0xd
 5314 0bef AD020000 		.4byte	.LASF176
 5315 0bf3 0D       		.byte	0xd
 5316 0bf4 C3       		.byte	0xc3
 5317 0bf5 77090000 		.4byte	0x977
 5318 0bf9 02       		.byte	0x2
 5319 0bfa 23       		.byte	0x23
 5320 0bfb 1C       		.uleb128 0x1c
 5321 0bfc 0D       		.uleb128 0xd
 5322 0bfd A3010000 		.4byte	.LASF177
ARM GAS  C:\Users\claym\AppData\Local\Temp\cc2sTfd9.s 			page 122


 5323 0c01 0D       		.byte	0xd
 5324 0c02 C5       		.byte	0xc5
 5325 0c03 650E0000 		.4byte	0xe65
 5326 0c07 02       		.byte	0x2
 5327 0c08 23       		.byte	0x23
 5328 0c09 20       		.uleb128 0x20
 5329 0c0a 0D       		.uleb128 0xd
 5330 0c0b 07080000 		.4byte	.LASF178
 5331 0c0f 0D       		.byte	0xd
 5332 0c10 C7       		.byte	0xc7
 5333 0c11 900E0000 		.4byte	0xe90
 5334 0c15 02       		.byte	0x2
 5335 0c16 23       		.byte	0x23
 5336 0c17 24       		.uleb128 0x24
 5337 0c18 0D       		.uleb128 0xd
 5338 0c19 9F0D0000 		.4byte	.LASF179
 5339 0c1d 0D       		.byte	0xd
 5340 0c1e CA       		.byte	0xca
 5341 0c1f B50E0000 		.4byte	0xeb5
 5342 0c23 02       		.byte	0x2
 5343 0c24 23       		.byte	0x23
 5344 0c25 28       		.uleb128 0x28
 5345 0c26 0D       		.uleb128 0xd
 5346 0c27 0D060000 		.4byte	.LASF180
 5347 0c2b 0D       		.byte	0xd
 5348 0c2c CB       		.byte	0xcb
 5349 0c2d D00E0000 		.4byte	0xed0
 5350 0c31 02       		.byte	0x2
 5351 0c32 23       		.byte	0x23
 5352 0c33 2C       		.uleb128 0x2c
 5353 0c34 08       		.uleb128 0x8
 5354 0c35 5F756200 		.ascii	"_ub\000"
 5355 0c39 0D       		.byte	0xd
 5356 0c3a CE       		.byte	0xce
 5357 0c3b 540B0000 		.4byte	0xb54
 5358 0c3f 02       		.byte	0x2
 5359 0c40 23       		.byte	0x23
 5360 0c41 30       		.uleb128 0x30
 5361 0c42 08       		.uleb128 0x8
 5362 0c43 5F757000 		.ascii	"_up\000"
 5363 0c47 0D       		.byte	0xd
 5364 0c48 CF       		.byte	0xcf
 5365 0c49 7D0B0000 		.4byte	0xb7d
 5366 0c4d 02       		.byte	0x2
 5367 0c4e 23       		.byte	0x23
 5368 0c4f 38       		.uleb128 0x38
 5369 0c50 08       		.uleb128 0x8
 5370 0c51 5F757200 		.ascii	"_ur\000"
 5371 0c55 0D       		.byte	0xd
 5372 0c56 D0       		.byte	0xd0
 5373 0c57 2C000000 		.4byte	0x2c
 5374 0c5b 02       		.byte	0x2
 5375 0c5c 23       		.byte	0x23
 5376 0c5d 3C       		.uleb128 0x3c
 5377 0c5e 0D       		.uleb128 0xd
 5378 0c5f F3030000 		.4byte	.LASF181
 5379 0c63 0D       		.byte	0xd
ARM GAS  C:\Users\claym\AppData\Local\Temp\cc2sTfd9.s 			page 123


 5380 0c64 D3       		.byte	0xd3
 5381 0c65 D60E0000 		.4byte	0xed6
 5382 0c69 02       		.byte	0x2
 5383 0c6a 23       		.byte	0x23
 5384 0c6b 40       		.uleb128 0x40
 5385 0c6c 0D       		.uleb128 0xd
 5386 0c6d CA0C0000 		.4byte	.LASF182
 5387 0c71 0D       		.byte	0xd
 5388 0c72 D4       		.byte	0xd4
 5389 0c73 E60E0000 		.4byte	0xee6
 5390 0c77 02       		.byte	0x2
 5391 0c78 23       		.byte	0x23
 5392 0c79 43       		.uleb128 0x43
 5393 0c7a 08       		.uleb128 0x8
 5394 0c7b 5F6C6200 		.ascii	"_lb\000"
 5395 0c7f 0D       		.byte	0xd
 5396 0c80 D7       		.byte	0xd7
 5397 0c81 540B0000 		.4byte	0xb54
 5398 0c85 02       		.byte	0x2
 5399 0c86 23       		.byte	0x23
 5400 0c87 44       		.uleb128 0x44
 5401 0c88 0D       		.uleb128 0xd
 5402 0c89 230A0000 		.4byte	.LASF183
 5403 0c8d 0D       		.byte	0xd
 5404 0c8e DA       		.byte	0xda
 5405 0c8f 2C000000 		.4byte	0x2c
 5406 0c93 02       		.byte	0x2
 5407 0c94 23       		.byte	0x23
 5408 0c95 4C       		.uleb128 0x4c
 5409 0c96 0D       		.uleb128 0xd
 5410 0c97 EB030000 		.4byte	.LASF184
 5411 0c9b 0D       		.byte	0xd
 5412 0c9c DB       		.byte	0xdb
 5413 0c9d EB080000 		.4byte	0x8eb
 5414 0ca1 02       		.byte	0x2
 5415 0ca2 23       		.byte	0x23
 5416 0ca3 50       		.uleb128 0x50
 5417 0ca4 0D       		.uleb128 0xd
 5418 0ca5 21090000 		.4byte	.LASF185
 5419 0ca9 0D       		.byte	0xd
 5420 0caa DE       		.byte	0xde
 5421 0cab FC0C0000 		.4byte	0xcfc
 5422 0caf 02       		.byte	0x2
 5423 0cb0 23       		.byte	0x23
 5424 0cb1 54       		.uleb128 0x54
 5425 0cb2 0D       		.uleb128 0xd
 5426 0cb3 1D0A0000 		.4byte	.LASF186
 5427 0cb7 0D       		.byte	0xd
 5428 0cb8 E2       		.byte	0xe2
 5429 0cb9 6C090000 		.4byte	0x96c
 5430 0cbd 02       		.byte	0x2
 5431 0cbe 23       		.byte	0x23
 5432 0cbf 58       		.uleb128 0x58
 5433 0cc0 0D       		.uleb128 0xd
 5434 0cc1 7C010000 		.4byte	.LASF187
 5435 0cc5 0D       		.byte	0xd
 5436 0cc6 E4       		.byte	0xe4
ARM GAS  C:\Users\claym\AppData\Local\Temp\cc2sTfd9.s 			page 124


 5437 0cc7 61090000 		.4byte	0x961
 5438 0ccb 02       		.byte	0x2
 5439 0ccc 23       		.byte	0x23
 5440 0ccd 5C       		.uleb128 0x5c
 5441 0cce 0D       		.uleb128 0xd
 5442 0ccf 47010000 		.4byte	.LASF188
 5443 0cd3 0D       		.byte	0xd
 5444 0cd4 E5       		.byte	0xe5
 5445 0cd5 2C000000 		.4byte	0x2c
 5446 0cd9 02       		.byte	0x2
 5447 0cda 23       		.byte	0x23
 5448 0cdb 64       		.uleb128 0x64
 5449 0cdc 00       		.byte	0
 5450 0cdd 0F       		.uleb128 0xf
 5451 0cde 01       		.byte	0x1
 5452 0cdf 2C000000 		.4byte	0x2c
 5453 0ce3 FC0C0000 		.4byte	0xcfc
 5454 0ce7 0C       		.uleb128 0xc
 5455 0ce8 FC0C0000 		.4byte	0xcfc
 5456 0cec 0C       		.uleb128 0xc
 5457 0ced 77090000 		.4byte	0x977
 5458 0cf1 0C       		.uleb128 0xc
 5459 0cf2 79090000 		.4byte	0x979
 5460 0cf6 0C       		.uleb128 0xc
 5461 0cf7 2C000000 		.4byte	0x2c
 5462 0cfb 00       		.byte	0
 5463 0cfc 0A       		.uleb128 0xa
 5464 0cfd 04       		.byte	0x4
 5465 0cfe 070D0000 		.4byte	0xd07
 5466 0d02 06       		.uleb128 0x6
 5467 0d03 FC0C0000 		.4byte	0xcfc
 5468 0d07 21       		.uleb128 0x21
 5469 0d08 200C0000 		.4byte	.LASF189
 5470 0d0c 2804     		.2byte	0x428
 5471 0d0e 0D       		.byte	0xd
 5472 0d0f 3902     		.2byte	0x239
 5473 0d11 650E0000 		.4byte	0xe65
 5474 0d15 15       		.uleb128 0x15
 5475 0d16 26010000 		.4byte	.LASF190
 5476 0d1a 0D       		.byte	0xd
 5477 0d1b 3B02     		.2byte	0x23b
 5478 0d1d 2C000000 		.4byte	0x2c
 5479 0d21 02       		.byte	0x2
 5480 0d22 23       		.byte	0x23
 5481 0d23 00       		.uleb128 0
 5482 0d24 15       		.uleb128 0x15
 5483 0d25 3B060000 		.4byte	.LASF191
 5484 0d29 0D       		.byte	0xd
 5485 0d2a 4002     		.2byte	0x240
 5486 0d2c 430F0000 		.4byte	0xf43
 5487 0d30 02       		.byte	0x2
 5488 0d31 23       		.byte	0x23
 5489 0d32 04       		.uleb128 0x4
 5490 0d33 15       		.uleb128 0x15
 5491 0d34 E70A0000 		.4byte	.LASF192
 5492 0d38 0D       		.byte	0xd
 5493 0d39 4002     		.2byte	0x240
ARM GAS  C:\Users\claym\AppData\Local\Temp\cc2sTfd9.s 			page 125


 5494 0d3b 430F0000 		.4byte	0xf43
 5495 0d3f 02       		.byte	0x2
 5496 0d40 23       		.byte	0x23
 5497 0d41 08       		.uleb128 0x8
 5498 0d42 15       		.uleb128 0x15
 5499 0d43 BB0D0000 		.4byte	.LASF193
 5500 0d47 0D       		.byte	0xd
 5501 0d48 4002     		.2byte	0x240
 5502 0d4a 430F0000 		.4byte	0xf43
 5503 0d4e 02       		.byte	0x2
 5504 0d4f 23       		.byte	0x23
 5505 0d50 0C       		.uleb128 0xc
 5506 0d51 15       		.uleb128 0x15
 5507 0d52 8A040000 		.4byte	.LASF194
 5508 0d56 0D       		.byte	0xd
 5509 0d57 4202     		.2byte	0x242
 5510 0d59 2C000000 		.4byte	0x2c
 5511 0d5d 02       		.byte	0x2
 5512 0d5e 23       		.byte	0x23
 5513 0d5f 10       		.uleb128 0x10
 5514 0d60 15       		.uleb128 0x15
 5515 0d61 F9030000 		.4byte	.LASF195
 5516 0d65 0D       		.byte	0xd
 5517 0d66 4302     		.2byte	0x243
 5518 0d68 5E110000 		.4byte	0x115e
 5519 0d6c 02       		.byte	0x2
 5520 0d6d 23       		.byte	0x23
 5521 0d6e 14       		.uleb128 0x14
 5522 0d6f 15       		.uleb128 0x15
 5523 0d70 DD0C0000 		.4byte	.LASF196
 5524 0d74 0D       		.byte	0xd
 5525 0d75 4602     		.2byte	0x246
 5526 0d77 2C000000 		.4byte	0x2c
 5527 0d7b 02       		.byte	0x2
 5528 0d7c 23       		.byte	0x23
 5529 0d7d 30       		.uleb128 0x30
 5530 0d7e 15       		.uleb128 0x15
 5531 0d7f 3A0C0000 		.4byte	.LASF197
 5532 0d83 0D       		.byte	0xd
 5533 0d84 4702     		.2byte	0x247
 5534 0d86 74110000 		.4byte	0x1174
 5535 0d8a 02       		.byte	0x2
 5536 0d8b 23       		.byte	0x23
 5537 0d8c 34       		.uleb128 0x34
 5538 0d8d 15       		.uleb128 0x15
 5539 0d8e 1B060000 		.4byte	.LASF198
 5540 0d92 0D       		.byte	0xd
 5541 0d93 4902     		.2byte	0x249
 5542 0d95 2C000000 		.4byte	0x2c
 5543 0d99 02       		.byte	0x2
 5544 0d9a 23       		.byte	0x23
 5545 0d9b 38       		.uleb128 0x38
 5546 0d9c 15       		.uleb128 0x15
 5547 0d9d 19070000 		.4byte	.LASF199
 5548 0da1 0D       		.byte	0xd
 5549 0da2 4B02     		.2byte	0x24b
 5550 0da4 86110000 		.4byte	0x1186
ARM GAS  C:\Users\claym\AppData\Local\Temp\cc2sTfd9.s 			page 126


 5551 0da8 02       		.byte	0x2
 5552 0da9 23       		.byte	0x23
 5553 0daa 3C       		.uleb128 0x3c
 5554 0dab 15       		.uleb128 0x15
 5555 0dac E1020000 		.4byte	.LASF200
 5556 0db0 0D       		.byte	0xd
 5557 0db1 4E02     		.2byte	0x24e
 5558 0db3 F5090000 		.4byte	0x9f5
 5559 0db7 02       		.byte	0x2
 5560 0db8 23       		.byte	0x23
 5561 0db9 40       		.uleb128 0x40
 5562 0dba 15       		.uleb128 0x15
 5563 0dbb 66030000 		.4byte	.LASF201
 5564 0dbf 0D       		.byte	0xd
 5565 0dc0 4F02     		.2byte	0x24f
 5566 0dc2 2C000000 		.4byte	0x2c
 5567 0dc6 02       		.byte	0x2
 5568 0dc7 23       		.byte	0x23
 5569 0dc8 44       		.uleb128 0x44
 5570 0dc9 15       		.uleb128 0x15
 5571 0dca 2D050000 		.4byte	.LASF202
 5572 0dce 0D       		.byte	0xd
 5573 0dcf 5002     		.2byte	0x250
 5574 0dd1 F5090000 		.4byte	0x9f5
 5575 0dd5 02       		.byte	0x2
 5576 0dd6 23       		.byte	0x23
 5577 0dd7 48       		.uleb128 0x48
 5578 0dd8 15       		.uleb128 0x15
 5579 0dd9 7F060000 		.4byte	.LASF203
 5580 0ddd 0D       		.byte	0xd
 5581 0dde 5102     		.2byte	0x251
 5582 0de0 8C110000 		.4byte	0x118c
 5583 0de4 02       		.byte	0x2
 5584 0de5 23       		.byte	0x23
 5585 0de6 4C       		.uleb128 0x4c
 5586 0de7 15       		.uleb128 0x15
 5587 0de8 DE090000 		.4byte	.LASF204
 5588 0dec 0D       		.byte	0xd
 5589 0ded 5402     		.2byte	0x254
 5590 0def 2C000000 		.4byte	0x2c
 5591 0df3 02       		.byte	0x2
 5592 0df4 23       		.byte	0x23
 5593 0df5 50       		.uleb128 0x50
 5594 0df6 15       		.uleb128 0x15
 5595 0df7 EF0A0000 		.4byte	.LASF205
 5596 0dfb 0D       		.byte	0xd
 5597 0dfc 5502     		.2byte	0x255
 5598 0dfe 79090000 		.4byte	0x979
 5599 0e02 02       		.byte	0x2
 5600 0e03 23       		.byte	0x23
 5601 0e04 54       		.uleb128 0x54
 5602 0e05 15       		.uleb128 0x15
 5603 0e06 D9090000 		.4byte	.LASF206
 5604 0e0a 0D       		.byte	0xd
 5605 0e0b 7802     		.2byte	0x278
 5606 0e0d 3C110000 		.4byte	0x113c
 5607 0e11 02       		.byte	0x2
ARM GAS  C:\Users\claym\AppData\Local\Temp\cc2sTfd9.s 			page 127


 5608 0e12 23       		.byte	0x23
 5609 0e13 58       		.uleb128 0x58
 5610 0e14 15       		.uleb128 0x15
 5611 0e15 43080000 		.4byte	.LASF166
 5612 0e19 0D       		.byte	0xd
 5613 0e1a 7C02     		.2byte	0x27c
 5614 0e1c 360B0000 		.4byte	0xb36
 5615 0e20 03       		.byte	0x3
 5616 0e21 23       		.byte	0x23
 5617 0e22 C802     		.uleb128 0x148
 5618 0e24 15       		.uleb128 0x15
 5619 0e25 89050000 		.4byte	.LASF207
 5620 0e29 0D       		.byte	0xd
 5621 0e2a 7D02     		.2byte	0x27d
 5622 0e2c EF0A0000 		.4byte	0xaef
 5623 0e30 03       		.byte	0x3
 5624 0e31 23       		.byte	0x23
 5625 0e32 CC02     		.uleb128 0x14c
 5626 0e34 15       		.uleb128 0x15
 5627 0e35 79050000 		.4byte	.LASF208
 5628 0e39 0D       		.byte	0xd
 5629 0e3a 8102     		.2byte	0x281
 5630 0e3c 9E110000 		.4byte	0x119e
 5631 0e40 03       		.byte	0x3
 5632 0e41 23       		.byte	0x23
 5633 0e42 DC05     		.uleb128 0x2dc
 5634 0e44 15       		.uleb128 0x15
 5635 0e45 A10B0000 		.4byte	.LASF209
 5636 0e49 0D       		.byte	0xd
 5637 0e4a 8602     		.2byte	0x286
 5638 0e4c 020F0000 		.4byte	0xf02
 5639 0e50 03       		.byte	0x3
 5640 0e51 23       		.byte	0x23
 5641 0e52 E005     		.uleb128 0x2e0
 5642 0e54 15       		.uleb128 0x15
 5643 0e55 16090000 		.4byte	.LASF210
 5644 0e59 0D       		.byte	0xd
 5645 0e5a 8802     		.2byte	0x288
 5646 0e5c AA110000 		.4byte	0x11aa
 5647 0e60 03       		.byte	0x3
 5648 0e61 23       		.byte	0x23
 5649 0e62 EC05     		.uleb128 0x2ec
 5650 0e64 00       		.byte	0
 5651 0e65 0A       		.uleb128 0xa
 5652 0e66 04       		.byte	0x4
 5653 0e67 DD0C0000 		.4byte	0xcdd
 5654 0e6b 0F       		.uleb128 0xf
 5655 0e6c 01       		.byte	0x1
 5656 0e6d 2C000000 		.4byte	0x2c
 5657 0e71 8A0E0000 		.4byte	0xe8a
 5658 0e75 0C       		.uleb128 0xc
 5659 0e76 FC0C0000 		.4byte	0xcfc
 5660 0e7a 0C       		.uleb128 0xc
 5661 0e7b 77090000 		.4byte	0x977
 5662 0e7f 0C       		.uleb128 0xc
 5663 0e80 8A0E0000 		.4byte	0xe8a
 5664 0e84 0C       		.uleb128 0xc
ARM GAS  C:\Users\claym\AppData\Local\Temp\cc2sTfd9.s 			page 128


 5665 0e85 2C000000 		.4byte	0x2c
 5666 0e89 00       		.byte	0
 5667 0e8a 0A       		.uleb128 0xa
 5668 0e8b 04       		.byte	0x4
 5669 0e8c 86090000 		.4byte	0x986
 5670 0e90 0A       		.uleb128 0xa
 5671 0e91 04       		.byte	0x4
 5672 0e92 6B0E0000 		.4byte	0xe6b
 5673 0e96 0F       		.uleb128 0xf
 5674 0e97 01       		.byte	0x1
 5675 0e98 F6080000 		.4byte	0x8f6
 5676 0e9c B50E0000 		.4byte	0xeb5
 5677 0ea0 0C       		.uleb128 0xc
 5678 0ea1 FC0C0000 		.4byte	0xcfc
 5679 0ea5 0C       		.uleb128 0xc
 5680 0ea6 77090000 		.4byte	0x977
 5681 0eaa 0C       		.uleb128 0xc
 5682 0eab F6080000 		.4byte	0x8f6
 5683 0eaf 0C       		.uleb128 0xc
 5684 0eb0 2C000000 		.4byte	0x2c
 5685 0eb4 00       		.byte	0
 5686 0eb5 0A       		.uleb128 0xa
 5687 0eb6 04       		.byte	0x4
 5688 0eb7 960E0000 		.4byte	0xe96
 5689 0ebb 0F       		.uleb128 0xf
 5690 0ebc 01       		.byte	0x1
 5691 0ebd 2C000000 		.4byte	0x2c
 5692 0ec1 D00E0000 		.4byte	0xed0
 5693 0ec5 0C       		.uleb128 0xc
 5694 0ec6 FC0C0000 		.4byte	0xcfc
 5695 0eca 0C       		.uleb128 0xc
 5696 0ecb 77090000 		.4byte	0x977
 5697 0ecf 00       		.byte	0
 5698 0ed0 0A       		.uleb128 0xa
 5699 0ed1 04       		.byte	0x4
 5700 0ed2 BB0E0000 		.4byte	0xebb
 5701 0ed6 12       		.uleb128 0x12
 5702 0ed7 53000000 		.4byte	0x53
 5703 0edb E60E0000 		.4byte	0xee6
 5704 0edf 17       		.uleb128 0x17
 5705 0ee0 25000000 		.4byte	0x25
 5706 0ee4 02       		.byte	0x2
 5707 0ee5 00       		.byte	0
 5708 0ee6 12       		.uleb128 0x12
 5709 0ee7 53000000 		.4byte	0x53
 5710 0eeb F60E0000 		.4byte	0xef6
 5711 0eef 17       		.uleb128 0x17
 5712 0ef0 25000000 		.4byte	0x25
 5713 0ef4 00       		.byte	0
 5714 0ef5 00       		.byte	0
 5715 0ef6 16       		.uleb128 0x16
 5716 0ef7 E9020000 		.4byte	.LASF211
 5717 0efb 0D       		.byte	0xd
 5718 0efc 1F01     		.2byte	0x11f
 5719 0efe 830B0000 		.4byte	0xb83
 5720 0f02 22       		.uleb128 0x22
 5721 0f03 8C0B0000 		.4byte	.LASF212
ARM GAS  C:\Users\claym\AppData\Local\Temp\cc2sTfd9.s 			page 129


 5722 0f07 0C       		.byte	0xc
 5723 0f08 0D       		.byte	0xd
 5724 0f09 2301     		.2byte	0x123
 5725 0f0b 3D0F0000 		.4byte	0xf3d
 5726 0f0f 15       		.uleb128 0x15
 5727 0f10 94040000 		.4byte	.LASF147
 5728 0f14 0D       		.byte	0xd
 5729 0f15 2501     		.2byte	0x125
 5730 0f17 3D0F0000 		.4byte	0xf3d
 5731 0f1b 02       		.byte	0x2
 5732 0f1c 23       		.byte	0x23
 5733 0f1d 00       		.uleb128 0
 5734 0f1e 15       		.uleb128 0x15
 5735 0f1f 670A0000 		.4byte	.LASF213
 5736 0f23 0D       		.byte	0xd
 5737 0f24 2601     		.2byte	0x126
 5738 0f26 2C000000 		.4byte	0x2c
 5739 0f2a 02       		.byte	0x2
 5740 0f2b 23       		.byte	0x23
 5741 0f2c 04       		.uleb128 0x4
 5742 0f2d 15       		.uleb128 0x15
 5743 0f2e E4050000 		.4byte	.LASF214
 5744 0f32 0D       		.byte	0xd
 5745 0f33 2701     		.2byte	0x127
 5746 0f35 430F0000 		.4byte	0xf43
 5747 0f39 02       		.byte	0x2
 5748 0f3a 23       		.byte	0x23
 5749 0f3b 08       		.uleb128 0x8
 5750 0f3c 00       		.byte	0
 5751 0f3d 0A       		.uleb128 0xa
 5752 0f3e 04       		.byte	0x4
 5753 0f3f 020F0000 		.4byte	0xf02
 5754 0f43 0A       		.uleb128 0xa
 5755 0f44 04       		.byte	0x4
 5756 0f45 F60E0000 		.4byte	0xef6
 5757 0f49 22       		.uleb128 0x22
 5758 0f4a 5E030000 		.4byte	.LASF215
 5759 0f4e 0E       		.byte	0xe
 5760 0f4f 0D       		.byte	0xd
 5761 0f50 3F01     		.2byte	0x13f
 5762 0f52 840F0000 		.4byte	0xf84
 5763 0f56 15       		.uleb128 0x15
 5764 0f57 6B010000 		.4byte	.LASF216
 5765 0f5b 0D       		.byte	0xd
 5766 0f5c 4001     		.2byte	0x140
 5767 0f5e 840F0000 		.4byte	0xf84
 5768 0f62 02       		.byte	0x2
 5769 0f63 23       		.byte	0x23
 5770 0f64 00       		.uleb128 0
 5771 0f65 15       		.uleb128 0x15
 5772 0f66 89060000 		.4byte	.LASF217
 5773 0f6a 0D       		.byte	0xd
 5774 0f6b 4101     		.2byte	0x141
 5775 0f6d 840F0000 		.4byte	0xf84
 5776 0f71 02       		.byte	0x2
 5777 0f72 23       		.byte	0x23
 5778 0f73 06       		.uleb128 0x6
ARM GAS  C:\Users\claym\AppData\Local\Temp\cc2sTfd9.s 			page 130


 5779 0f74 15       		.uleb128 0x15
 5780 0f75 5E0B0000 		.4byte	.LASF218
 5781 0f79 0D       		.byte	0xd
 5782 0f7a 4201     		.2byte	0x142
 5783 0f7c 6C000000 		.4byte	0x6c
 5784 0f80 02       		.byte	0x2
 5785 0f81 23       		.byte	0x23
 5786 0f82 0C       		.uleb128 0xc
 5787 0f83 00       		.byte	0
 5788 0f84 12       		.uleb128 0x12
 5789 0f85 6C000000 		.4byte	0x6c
 5790 0f89 940F0000 		.4byte	0xf94
 5791 0f8d 17       		.uleb128 0x17
 5792 0f8e 25000000 		.4byte	0x25
 5793 0f92 02       		.byte	0x2
 5794 0f93 00       		.byte	0
 5795 0f94 23       		.uleb128 0x23
 5796 0f95 D0       		.byte	0xd0
 5797 0f96 0D       		.byte	0xd
 5798 0f97 5902     		.2byte	0x259
 5799 0f99 C4100000 		.4byte	0x10c4
 5800 0f9d 15       		.uleb128 0x15
 5801 0f9e D00C0000 		.4byte	.LASF219
 5802 0fa2 0D       		.byte	0xd
 5803 0fa3 5B02     		.2byte	0x25b
 5804 0fa5 25000000 		.4byte	0x25
 5805 0fa9 02       		.byte	0x2
 5806 0faa 23       		.byte	0x23
 5807 0fab 00       		.uleb128 0
 5808 0fac 15       		.uleb128 0x15
 5809 0fad B60B0000 		.4byte	.LASF220
 5810 0fb1 0D       		.byte	0xd
 5811 0fb2 5C02     		.2byte	0x25c
 5812 0fb4 79090000 		.4byte	0x979
 5813 0fb8 02       		.byte	0x2
 5814 0fb9 23       		.byte	0x23
 5815 0fba 04       		.uleb128 0x4
 5816 0fbb 15       		.uleb128 0x15
 5817 0fbc 93030000 		.4byte	.LASF221
 5818 0fc0 0D       		.byte	0xd
 5819 0fc1 5D02     		.2byte	0x25d
 5820 0fc3 C4100000 		.4byte	0x10c4
 5821 0fc7 02       		.byte	0x2
 5822 0fc8 23       		.byte	0x23
 5823 0fc9 08       		.uleb128 0x8
 5824 0fca 15       		.uleb128 0x15
 5825 0fcb A4090000 		.4byte	.LASF222
 5826 0fcf 0D       		.byte	0xd
 5827 0fd0 5E02     		.2byte	0x25e
 5828 0fd2 0B0A0000 		.4byte	0xa0b
 5829 0fd6 02       		.byte	0x2
 5830 0fd7 23       		.byte	0x23
 5831 0fd8 24       		.uleb128 0x24
 5832 0fd9 15       		.uleb128 0x15
 5833 0fda 42060000 		.4byte	.LASF223
 5834 0fde 0D       		.byte	0xd
 5835 0fdf 5F02     		.2byte	0x25f
ARM GAS  C:\Users\claym\AppData\Local\Temp\cc2sTfd9.s 			page 131


 5836 0fe1 2C000000 		.4byte	0x2c
 5837 0fe5 02       		.byte	0x2
 5838 0fe6 23       		.byte	0x23
 5839 0fe7 48       		.uleb128 0x48
 5840 0fe8 15       		.uleb128 0x15
 5841 0fe9 1A080000 		.4byte	.LASF224
 5842 0fed 0D       		.byte	0xd
 5843 0fee 6002     		.2byte	0x260
 5844 0ff0 97000000 		.4byte	0x97
 5845 0ff4 02       		.byte	0x2
 5846 0ff5 23       		.byte	0x23
 5847 0ff6 50       		.uleb128 0x50
 5848 0ff7 15       		.uleb128 0x15
 5849 0ff8 9A000000 		.4byte	.LASF225
 5850 0ffc 0D       		.byte	0xd
 5851 0ffd 6102     		.2byte	0x261
 5852 0fff 490F0000 		.4byte	0xf49
 5853 1003 02       		.byte	0x2
 5854 1004 23       		.byte	0x23
 5855 1005 58       		.uleb128 0x58
 5856 1006 15       		.uleb128 0x15
 5857 1007 49050000 		.4byte	.LASF226
 5858 100b 0D       		.byte	0xd
 5859 100c 6202     		.2byte	0x262
 5860 100e 61090000 		.4byte	0x961
 5861 1012 02       		.byte	0x2
 5862 1013 23       		.byte	0x23
 5863 1014 68       		.uleb128 0x68
 5864 1015 15       		.uleb128 0x15
 5865 1016 66080000 		.4byte	.LASF227
 5866 101a 0D       		.byte	0xd
 5867 101b 6302     		.2byte	0x263
 5868 101d 61090000 		.4byte	0x961
 5869 1021 02       		.byte	0x2
 5870 1022 23       		.byte	0x23
 5871 1023 70       		.uleb128 0x70
 5872 1024 15       		.uleb128 0x15
 5873 1025 6B000000 		.4byte	.LASF228
 5874 1029 0D       		.byte	0xd
 5875 102a 6402     		.2byte	0x264
 5876 102c 61090000 		.4byte	0x961
 5877 1030 02       		.byte	0x2
 5878 1031 23       		.byte	0x23
 5879 1032 78       		.uleb128 0x78
 5880 1033 15       		.uleb128 0x15
 5881 1034 EE090000 		.4byte	.LASF229
 5882 1038 0D       		.byte	0xd
 5883 1039 6502     		.2byte	0x265
 5884 103b D4100000 		.4byte	0x10d4
 5885 103f 03       		.byte	0x3
 5886 1040 23       		.byte	0x23
 5887 1041 8001     		.uleb128 0x80
 5888 1043 15       		.uleb128 0x15
 5889 1044 B4000000 		.4byte	.LASF230
 5890 1048 0D       		.byte	0xd
 5891 1049 6602     		.2byte	0x266
 5892 104b E4100000 		.4byte	0x10e4
ARM GAS  C:\Users\claym\AppData\Local\Temp\cc2sTfd9.s 			page 132


 5893 104f 03       		.byte	0x3
 5894 1050 23       		.byte	0x23
 5895 1051 8801     		.uleb128 0x88
 5896 1053 15       		.uleb128 0x15
 5897 1054 2F0B0000 		.4byte	.LASF231
 5898 1058 0D       		.byte	0xd
 5899 1059 6702     		.2byte	0x267
 5900 105b 2C000000 		.4byte	0x2c
 5901 105f 03       		.byte	0x3
 5902 1060 23       		.byte	0x23
 5903 1061 A001     		.uleb128 0xa0
 5904 1063 15       		.uleb128 0x15
 5905 1064 BF010000 		.4byte	.LASF232
 5906 1068 0D       		.byte	0xd
 5907 1069 6802     		.2byte	0x268
 5908 106b 61090000 		.4byte	0x961
 5909 106f 03       		.byte	0x3
 5910 1070 23       		.byte	0x23
 5911 1071 A401     		.uleb128 0xa4
 5912 1073 15       		.uleb128 0x15
 5913 1074 8E010000 		.4byte	.LASF233
 5914 1078 0D       		.byte	0xd
 5915 1079 6902     		.2byte	0x269
 5916 107b 61090000 		.4byte	0x961
 5917 107f 03       		.byte	0x3
 5918 1080 23       		.byte	0x23
 5919 1081 AC01     		.uleb128 0xac
 5920 1083 15       		.uleb128 0x15
 5921 1084 9A040000 		.4byte	.LASF234
 5922 1088 0D       		.byte	0xd
 5923 1089 6A02     		.2byte	0x26a
 5924 108b 61090000 		.4byte	0x961
 5925 108f 03       		.byte	0x3
 5926 1090 23       		.byte	0x23
 5927 1091 B401     		.uleb128 0xb4
 5928 1093 15       		.uleb128 0x15
 5929 1094 BE060000 		.4byte	.LASF235
 5930 1098 0D       		.byte	0xd
 5931 1099 6B02     		.2byte	0x26b
 5932 109b 61090000 		.4byte	0x961
 5933 109f 03       		.byte	0x3
 5934 10a0 23       		.byte	0x23
 5935 10a1 BC01     		.uleb128 0xbc
 5936 10a3 15       		.uleb128 0x15
 5937 10a4 38050000 		.4byte	.LASF236
 5938 10a8 0D       		.byte	0xd
 5939 10a9 6C02     		.2byte	0x26c
 5940 10ab 61090000 		.4byte	0x961
 5941 10af 03       		.byte	0x3
 5942 10b0 23       		.byte	0x23
 5943 10b1 C401     		.uleb128 0xc4
 5944 10b3 15       		.uleb128 0x15
 5945 10b4 E2030000 		.4byte	.LASF237
 5946 10b8 0D       		.byte	0xd
 5947 10b9 6D02     		.2byte	0x26d
 5948 10bb 2C000000 		.4byte	0x2c
 5949 10bf 03       		.byte	0x3
ARM GAS  C:\Users\claym\AppData\Local\Temp\cc2sTfd9.s 			page 133


 5950 10c0 23       		.byte	0x23
 5951 10c1 CC01     		.uleb128 0xcc
 5952 10c3 00       		.byte	0
 5953 10c4 12       		.uleb128 0x12
 5954 10c5 7F090000 		.4byte	0x97f
 5955 10c9 D4100000 		.4byte	0x10d4
 5956 10cd 17       		.uleb128 0x17
 5957 10ce 25000000 		.4byte	0x25
 5958 10d2 19       		.byte	0x19
 5959 10d3 00       		.byte	0
 5960 10d4 12       		.uleb128 0x12
 5961 10d5 7F090000 		.4byte	0x97f
 5962 10d9 E4100000 		.4byte	0x10e4
 5963 10dd 17       		.uleb128 0x17
 5964 10de 25000000 		.4byte	0x25
 5965 10e2 07       		.byte	0x7
 5966 10e3 00       		.byte	0
 5967 10e4 12       		.uleb128 0x12
 5968 10e5 7F090000 		.4byte	0x97f
 5969 10e9 F4100000 		.4byte	0x10f4
 5970 10ed 17       		.uleb128 0x17
 5971 10ee 25000000 		.4byte	0x25
 5972 10f2 17       		.byte	0x17
 5973 10f3 00       		.byte	0
 5974 10f4 23       		.uleb128 0x23
 5975 10f5 F0       		.byte	0xf0
 5976 10f6 0D       		.byte	0xd
 5977 10f7 7202     		.2byte	0x272
 5978 10f9 1C110000 		.4byte	0x111c
 5979 10fd 15       		.uleb128 0x15
 5980 10fe 4F030000 		.4byte	.LASF238
 5981 1102 0D       		.byte	0xd
 5982 1103 7502     		.2byte	0x275
 5983 1105 1C110000 		.4byte	0x111c
 5984 1109 02       		.byte	0x2
 5985 110a 23       		.byte	0x23
 5986 110b 00       		.uleb128 0
 5987 110c 15       		.uleb128 0x15
 5988 110d 79000000 		.4byte	.LASF239
 5989 1111 0D       		.byte	0xd
 5990 1112 7602     		.2byte	0x276
 5991 1114 2C110000 		.4byte	0x112c
 5992 1118 02       		.byte	0x2
 5993 1119 23       		.byte	0x23
 5994 111a 78       		.uleb128 0x78
 5995 111b 00       		.byte	0
 5996 111c 12       		.uleb128 0x12
 5997 111d 7D0B0000 		.4byte	0xb7d
 5998 1121 2C110000 		.4byte	0x112c
 5999 1125 17       		.uleb128 0x17
 6000 1126 25000000 		.4byte	0x25
 6001 112a 1D       		.byte	0x1d
 6002 112b 00       		.byte	0
 6003 112c 12       		.uleb128 0x12
 6004 112d 25000000 		.4byte	0x25
 6005 1131 3C110000 		.4byte	0x113c
 6006 1135 17       		.uleb128 0x17
ARM GAS  C:\Users\claym\AppData\Local\Temp\cc2sTfd9.s 			page 134


 6007 1136 25000000 		.4byte	0x25
 6008 113a 1D       		.byte	0x1d
 6009 113b 00       		.byte	0
 6010 113c 24       		.uleb128 0x24
 6011 113d F0       		.byte	0xf0
 6012 113e 0D       		.byte	0xd
 6013 113f 5702     		.2byte	0x257
 6014 1141 5E110000 		.4byte	0x115e
 6015 1145 25       		.uleb128 0x25
 6016 1146 200C0000 		.4byte	.LASF189
 6017 114a 0D       		.byte	0xd
 6018 114b 6E02     		.2byte	0x26e
 6019 114d 940F0000 		.4byte	0xf94
 6020 1151 25       		.uleb128 0x25
 6021 1152 BD090000 		.4byte	.LASF240
 6022 1156 0D       		.byte	0xd
 6023 1157 7702     		.2byte	0x277
 6024 1159 F4100000 		.4byte	0x10f4
 6025 115d 00       		.byte	0
 6026 115e 12       		.uleb128 0x12
 6027 115f 7F090000 		.4byte	0x97f
 6028 1163 6E110000 		.4byte	0x116e
 6029 1167 17       		.uleb128 0x17
 6030 1168 25000000 		.4byte	0x25
 6031 116c 18       		.byte	0x18
 6032 116d 00       		.byte	0
 6033 116e 1B       		.uleb128 0x1b
 6034 116f 71010000 		.4byte	.LASF242
 6035 1173 01       		.byte	0x1
 6036 1174 0A       		.uleb128 0xa
 6037 1175 04       		.byte	0x4
 6038 1176 6E110000 		.4byte	0x116e
 6039 117a 0B       		.uleb128 0xb
 6040 117b 01       		.byte	0x1
 6041 117c 86110000 		.4byte	0x1186
 6042 1180 0C       		.uleb128 0xc
 6043 1181 FC0C0000 		.4byte	0xcfc
 6044 1185 00       		.byte	0
 6045 1186 0A       		.uleb128 0xa
 6046 1187 04       		.byte	0x4
 6047 1188 7A110000 		.4byte	0x117a
 6048 118c 0A       		.uleb128 0xa
 6049 118d 04       		.byte	0x4
 6050 118e F5090000 		.4byte	0x9f5
 6051 1192 0B       		.uleb128 0xb
 6052 1193 01       		.byte	0x1
 6053 1194 9E110000 		.4byte	0x119e
 6054 1198 0C       		.uleb128 0xc
 6055 1199 2C000000 		.4byte	0x2c
 6056 119d 00       		.byte	0
 6057 119e 0A       		.uleb128 0xa
 6058 119f 04       		.byte	0x4
 6059 11a0 A4110000 		.4byte	0x11a4
 6060 11a4 0A       		.uleb128 0xa
 6061 11a5 04       		.byte	0x4
 6062 11a6 92110000 		.4byte	0x1192
 6063 11aa 12       		.uleb128 0x12
ARM GAS  C:\Users\claym\AppData\Local\Temp\cc2sTfd9.s 			page 135


 6064 11ab F60E0000 		.4byte	0xef6
 6065 11af BA110000 		.4byte	0x11ba
 6066 11b3 17       		.uleb128 0x17
 6067 11b4 25000000 		.4byte	0x25
 6068 11b8 02       		.byte	0x2
 6069 11b9 00       		.byte	0
 6070 11ba 26       		.uleb128 0x26
 6071 11bb 43030000 		.4byte	.LASF243
 6072 11bf 0D       		.byte	0xd
 6073 11c0 0703     		.2byte	0x307
 6074 11c2 FC0C0000 		.4byte	0xcfc
 6075 11c6 01       		.byte	0x1
 6076 11c7 01       		.byte	0x1
 6077 11c8 26       		.uleb128 0x26
 6078 11c9 3F090000 		.4byte	.LASF244
 6079 11cd 0D       		.byte	0xd
 6080 11ce 0803     		.2byte	0x308
 6081 11d0 020D0000 		.4byte	0xd02
 6082 11d4 01       		.byte	0x1
 6083 11d5 01       		.byte	0x1
 6084 11d6 27       		.uleb128 0x27
 6085 11d7 65070000 		.4byte	.LASF250
 6086 11db 01       		.byte	0x1
 6087 11dc 1F       		.byte	0x1f
 6088 11dd 08010000 		.4byte	0x108
 6089 11e1 05       		.byte	0x5
 6090 11e2 03       		.byte	0x3
 6091 11e3 00000000 		.4byte	uart_driver_version
 6092 11e7 28       		.uleb128 0x28
 6093 11e8 570A0000 		.4byte	.LASF245
 6094 11ec 01       		.byte	0x1
 6095 11ed 23       		.byte	0x23
 6096 11ee 91080000 		.4byte	0x891
 6097 11f2 01       		.byte	0x1
 6098 11f3 05       		.byte	0x5
 6099 11f4 03       		.byte	0x3
 6100 11f5 00000000 		.4byte	UART0_Resources
 6101 11f9 28       		.uleb128 0x28
 6102 11fa C1040000 		.4byte	.LASF246
 6103 11fe 01       		.byte	0x1
 6104 11ff 2D       		.byte	0x2d
 6105 1200 91080000 		.4byte	0x891
 6106 1204 01       		.byte	0x1
 6107 1205 05       		.byte	0x5
 6108 1206 03       		.byte	0x3
 6109 1207 00000000 		.4byte	UART1_Resources
 6110 120b 29       		.uleb128 0x29
 6111 120c 01       		.byte	0x1
 6112 120d F9050000 		.4byte	.LASF247
 6113 1211 01       		.byte	0x1
 6114 1212 AD03     		.2byte	0x3ad
 6115 1214 01       		.byte	0x1
 6116 1215 B4000000 		.4byte	0xb4
 6117 1219 100A0000 		.4byte	.LFB66
 6118 121d 140A0000 		.4byte	.LFE66
 6119 1221 02       		.byte	0x2
 6120 1222 7D       		.byte	0x7d
ARM GAS  C:\Users\claym\AppData\Local\Temp\cc2sTfd9.s 			page 136


 6121 1223 00       		.sleb128 0
 6122 1224 01       		.byte	0x1
 6123 1225 3A120000 		.4byte	0x123a
 6124 1229 2A       		.uleb128 0x2a
 6125 122a 26060000 		.4byte	.LASF249
 6126 122e 01       		.byte	0x1
 6127 122f AD03     		.2byte	0x3ad
 6128 1231 3A120000 		.4byte	0x123a
 6129 1235 00000000 		.4byte	.LLST89
 6130 1239 00       		.byte	0
 6131 123a 0A       		.uleb128 0xa
 6132 123b 04       		.byte	0x4
 6133 123c 91080000 		.4byte	0x891
 6134 1240 29       		.uleb128 0x29
 6135 1241 01       		.byte	0x1
 6136 1242 87070000 		.4byte	.LASF248
 6137 1246 01       		.byte	0x1
 6138 1247 A403     		.2byte	0x3a4
 6139 1249 01       		.byte	0x1
 6140 124a B4000000 		.4byte	0xb4
 6141 124e 0C0A0000 		.4byte	.LFB65
 6142 1252 100A0000 		.4byte	.LFE65
 6143 1256 02       		.byte	0x2
 6144 1257 7D       		.byte	0x7d
 6145 1258 00       		.sleb128 0
 6146 1259 01       		.byte	0x1
 6147 125a 6F120000 		.4byte	0x126f
 6148 125e 2A       		.uleb128 0x2a
 6149 125f 26060000 		.4byte	.LASF249
 6150 1263 01       		.byte	0x1
 6151 1264 A403     		.2byte	0x3a4
 6152 1266 3A120000 		.4byte	0x123a
 6153 126a 21000000 		.4byte	.LLST88
 6154 126e 00       		.byte	0
 6155 126f 2B       		.uleb128 0x2b
 6156 1270 01       		.byte	0x1
 6157 1271 EC040000 		.4byte	.LASF300
 6158 1275 01       		.byte	0x1
 6159 1276 2F03     		.2byte	0x32f
 6160 1278 01       		.byte	0x1
 6161 1279 5C080000 		.4byte	.LFB64
 6162 127d 0C0A0000 		.4byte	.LFE64
 6163 1281 42000000 		.4byte	.LLST82
 6164 1285 01       		.byte	0x1
 6165 1286 33130000 		.4byte	0x1333
 6166 128a 2A       		.uleb128 0x2a
 6167 128b 26060000 		.4byte	.LASF249
 6168 128f 01       		.byte	0x1
 6169 1290 2F03     		.2byte	0x32f
 6170 1292 3A120000 		.4byte	0x123a
 6171 1296 62000000 		.4byte	.LLST83
 6172 129a 2C       		.uleb128 0x2c
 6173 129b 34030000 		.4byte	.LASF251
 6174 129f 01       		.byte	0x1
 6175 12a0 3003     		.2byte	0x330
 6176 12a2 BF000000 		.4byte	0xbf
 6177 12a6 99000000 		.4byte	.LLST84
ARM GAS  C:\Users\claym\AppData\Local\Temp\cc2sTfd9.s 			page 137


 6178 12aa 2C       		.uleb128 0x2c
 6179 12ab B5020000 		.4byte	.LASF252
 6180 12af 01       		.byte	0x1
 6181 12b0 3103     		.2byte	0x331
 6182 12b2 BF000000 		.4byte	0xbf
 6183 12b6 D0000000 		.4byte	.LLST85
 6184 12ba 2C       		.uleb128 0x2c
 6185 12bb 23050000 		.4byte	.LASF253
 6186 12bf 01       		.byte	0x1
 6187 12c0 3103     		.2byte	0x331
 6188 12c2 BF000000 		.4byte	0xbf
 6189 12c6 F9000000 		.4byte	.LLST86
 6190 12ca 2C       		.uleb128 0x2c
 6191 12cb 7D0B0000 		.4byte	.LASF254
 6192 12cf 01       		.byte	0x1
 6193 12d0 3103     		.2byte	0x331
 6194 12d2 BF000000 		.4byte	0xbf
 6195 12d6 18010000 		.4byte	.LLST87
 6196 12da 2D       		.uleb128 0x2d
 6197 12db 9E080000 		.4byte	.LVL287
 6198 12df F91E0000 		.4byte	0x1ef9
 6199 12e3 ED120000 		.4byte	0x12ed
 6200 12e7 2E       		.uleb128 0x2e
 6201 12e8 01       		.byte	0x1
 6202 12e9 50       		.byte	0x50
 6203 12ea 01       		.byte	0x1
 6204 12eb 33       		.byte	0x33
 6205 12ec 00       		.byte	0
 6206 12ed 2D       		.uleb128 0x2d
 6207 12ee 38090000 		.4byte	.LVL293
 6208 12f2 F91E0000 		.4byte	0x1ef9
 6209 12f6 00130000 		.4byte	0x1300
 6210 12fa 2E       		.uleb128 0x2e
 6211 12fb 01       		.byte	0x1
 6212 12fc 50       		.byte	0x50
 6213 12fd 01       		.byte	0x1
 6214 12fe 33       		.byte	0x33
 6215 12ff 00       		.byte	0
 6216 1300 2D       		.uleb128 0x2d
 6217 1301 98090000 		.4byte	.LVL303
 6218 1305 F91E0000 		.4byte	0x1ef9
 6219 1309 13130000 		.4byte	0x1313
 6220 130d 2E       		.uleb128 0x2e
 6221 130e 01       		.byte	0x1
 6222 130f 50       		.byte	0x50
 6223 1310 01       		.byte	0x1
 6224 1311 33       		.byte	0x33
 6225 1312 00       		.byte	0
 6226 1313 2F       		.uleb128 0x2f
 6227 1314 A2090000 		.4byte	.LVL304
 6228 1318 23130000 		.4byte	0x1323
 6229 131c 2E       		.uleb128 0x2e
 6230 131d 01       		.byte	0x1
 6231 131e 50       		.byte	0x50
 6232 131f 02       		.byte	0x2
 6233 1320 75       		.byte	0x75
 6234 1321 00       		.sleb128 0
ARM GAS  C:\Users\claym\AppData\Local\Temp\cc2sTfd9.s 			page 138


 6235 1322 00       		.byte	0
 6236 1323 30       		.uleb128 0x30
 6237 1324 F8090000 		.4byte	.LVL308
 6238 1328 F91E0000 		.4byte	0x1ef9
 6239 132c 2E       		.uleb128 0x2e
 6240 132d 01       		.byte	0x1
 6241 132e 50       		.byte	0x50
 6242 132f 01       		.byte	0x1
 6243 1330 33       		.byte	0x33
 6244 1331 00       		.byte	0
 6245 1332 00       		.byte	0
 6246 1333 31       		.uleb128 0x31
 6247 1334 01       		.byte	0x1
 6248 1335 38010000 		.4byte	.LASF255
 6249 1339 01       		.byte	0x1
 6250 133a 1403     		.2byte	0x314
 6251 133c 01       		.byte	0x1
 6252 133d 2A020000 		.4byte	0x22a
 6253 1341 3C070000 		.4byte	.LFB63
 6254 1345 5C080000 		.4byte	.LFE63
 6255 1349 42010000 		.4byte	.LLST80
 6256 134d 01       		.byte	0x1
 6257 134e 63130000 		.4byte	0x1363
 6258 1352 2A       		.uleb128 0x2a
 6259 1353 26060000 		.4byte	.LASF249
 6260 1357 01       		.byte	0x1
 6261 1358 1403     		.2byte	0x314
 6262 135a 3A120000 		.4byte	0x123a
 6263 135e 62010000 		.4byte	.LLST81
 6264 1362 00       		.byte	0
 6265 1363 31       		.uleb128 0x31
 6266 1364 01       		.byte	0x1
 6267 1365 DD070000 		.4byte	.LASF256
 6268 1369 01       		.byte	0x1
 6269 136a EA02     		.2byte	0x2ea
 6270 136c 01       		.byte	0x1
 6271 136d B4000000 		.4byte	0xb4
 6272 1371 4C060000 		.4byte	.LFB62
 6273 1375 3C070000 		.4byte	.LFE62
 6274 1379 83010000 		.4byte	.LLST72
 6275 137d 01       		.byte	0x1
 6276 137e B6150000 		.4byte	0x15b6
 6277 1382 2A       		.uleb128 0x2a
 6278 1383 C0000000 		.4byte	.LASF257
 6279 1387 01       		.byte	0x1
 6280 1388 EA02     		.2byte	0x2ea
 6281 138a BF000000 		.4byte	0xbf
 6282 138e A3010000 		.4byte	.LLST73
 6283 1392 32       		.uleb128 0x32
 6284 1393 61726700 		.ascii	"arg\000"
 6285 1397 01       		.byte	0x1
 6286 1398 EA02     		.2byte	0x2ea
 6287 139a BF000000 		.4byte	0xbf
 6288 139e EA010000 		.4byte	.LLST74
 6289 13a2 2A       		.uleb128 0x2a
 6290 13a3 26060000 		.4byte	.LASF249
 6291 13a7 01       		.byte	0x1
ARM GAS  C:\Users\claym\AppData\Local\Temp\cc2sTfd9.s 			page 139


 6292 13a8 EA02     		.2byte	0x2ea
 6293 13aa 3A120000 		.4byte	0x123a
 6294 13ae 15040000 		.4byte	.LLST75
 6295 13b2 33       		.uleb128 0x33
 6296 13b3 3A160000 		.4byte	0x163a
 6297 13b7 14070000 		.4byte	.LBB62
 6298 13bb 16070000 		.4byte	.LBE62
 6299 13bf 01       		.byte	0x1
 6300 13c0 0303     		.2byte	0x303
 6301 13c2 D9130000 		.4byte	0x13d9
 6302 13c6 34       		.uleb128 0x34
 6303 13c7 59160000 		.4byte	0x1659
 6304 13cb 40060000 		.4byte	.LLST76
 6305 13cf 34       		.uleb128 0x34
 6306 13d0 4D160000 		.4byte	0x164d
 6307 13d4 53060000 		.4byte	.LLST77
 6308 13d8 00       		.byte	0
 6309 13d9 33       		.uleb128 0x33
 6310 13da 0E160000 		.4byte	0x160e
 6311 13de 1A070000 		.4byte	.LBB64
 6312 13e2 1E070000 		.4byte	.LBE64
 6313 13e6 01       		.byte	0x1
 6314 13e7 0403     		.2byte	0x304
 6315 13e9 00140000 		.4byte	0x1400
 6316 13ed 34       		.uleb128 0x34
 6317 13ee 2D160000 		.4byte	0x162d
 6318 13f2 66060000 		.4byte	.LLST78
 6319 13f6 34       		.uleb128 0x34
 6320 13f7 21160000 		.4byte	0x1621
 6321 13fb 79060000 		.4byte	.LLST79
 6322 13ff 00       		.byte	0
 6323 1400 2D       		.uleb128 0x2d
 6324 1401 8A060000 		.4byte	.LVL233
 6325 1405 971A0000 		.4byte	0x1a97
 6326 1409 15140000 		.4byte	0x1415
 6327 140d 2E       		.uleb128 0x2e
 6328 140e 01       		.byte	0x1
 6329 140f 50       		.byte	0x50
 6330 1410 03       		.byte	0x3
 6331 1411 F3       		.byte	0xf3
 6332 1412 01       		.uleb128 0x1
 6333 1413 51       		.byte	0x51
 6334 1414 00       		.byte	0
 6335 1415 2D       		.uleb128 0x2d
 6336 1416 92060000 		.4byte	.LVL235
 6337 141a 581A0000 		.4byte	0x1a58
 6338 141e 2A140000 		.4byte	0x142a
 6339 1422 2E       		.uleb128 0x2e
 6340 1423 01       		.byte	0x1
 6341 1424 50       		.byte	0x50
 6342 1425 03       		.byte	0x3
 6343 1426 F3       		.byte	0xf3
 6344 1427 01       		.uleb128 0x1
 6345 1428 51       		.byte	0x51
 6346 1429 00       		.byte	0
 6347 142a 2D       		.uleb128 0x2d
 6348 142b 9A060000 		.4byte	.LVL237
ARM GAS  C:\Users\claym\AppData\Local\Temp\cc2sTfd9.s 			page 140


 6349 142f 191A0000 		.4byte	0x1a19
 6350 1433 3F140000 		.4byte	0x143f
 6351 1437 2E       		.uleb128 0x2e
 6352 1438 01       		.byte	0x1
 6353 1439 50       		.byte	0x50
 6354 143a 03       		.byte	0x3
 6355 143b F3       		.byte	0xf3
 6356 143c 01       		.uleb128 0x1
 6357 143d 51       		.byte	0x51
 6358 143e 00       		.byte	0
 6359 143f 2D       		.uleb128 0x2d
 6360 1440 A2060000 		.4byte	.LVL239
 6361 1444 DA190000 		.4byte	0x19da
 6362 1448 54140000 		.4byte	0x1454
 6363 144c 2E       		.uleb128 0x2e
 6364 144d 01       		.byte	0x1
 6365 144e 50       		.byte	0x50
 6366 144f 03       		.byte	0x3
 6367 1450 F3       		.byte	0xf3
 6368 1451 01       		.uleb128 0x1
 6369 1452 51       		.byte	0x51
 6370 1453 00       		.byte	0
 6371 1454 2D       		.uleb128 0x2d
 6372 1455 AA060000 		.4byte	.LVL241
 6373 1459 9A190000 		.4byte	0x199a
 6374 145d 69140000 		.4byte	0x1469
 6375 1461 2E       		.uleb128 0x2e
 6376 1462 01       		.byte	0x1
 6377 1463 50       		.byte	0x50
 6378 1464 03       		.byte	0x3
 6379 1465 F3       		.byte	0xf3
 6380 1466 01       		.uleb128 0x1
 6381 1467 51       		.byte	0x51
 6382 1468 00       		.byte	0
 6383 1469 2D       		.uleb128 0x2d
 6384 146a B2060000 		.4byte	.LVL243
 6385 146e 5B190000 		.4byte	0x195b
 6386 1472 7E140000 		.4byte	0x147e
 6387 1476 2E       		.uleb128 0x2e
 6388 1477 01       		.byte	0x1
 6389 1478 50       		.byte	0x50
 6390 1479 03       		.byte	0x3
 6391 147a F3       		.byte	0xf3
 6392 147b 01       		.uleb128 0x1
 6393 147c 51       		.byte	0x51
 6394 147d 00       		.byte	0
 6395 147e 2D       		.uleb128 0x2d
 6396 147f BA060000 		.4byte	.LVL245
 6397 1483 1C190000 		.4byte	0x191c
 6398 1487 93140000 		.4byte	0x1493
 6399 148b 2E       		.uleb128 0x2e
 6400 148c 01       		.byte	0x1
 6401 148d 50       		.byte	0x50
 6402 148e 03       		.byte	0x3
 6403 148f F3       		.byte	0xf3
 6404 1490 01       		.uleb128 0x1
 6405 1491 51       		.byte	0x51
ARM GAS  C:\Users\claym\AppData\Local\Temp\cc2sTfd9.s 			page 141


 6406 1492 00       		.byte	0
 6407 1493 2D       		.uleb128 0x2d
 6408 1494 C2060000 		.4byte	.LVL247
 6409 1498 DD180000 		.4byte	0x18dd
 6410 149c A8140000 		.4byte	0x14a8
 6411 14a0 2E       		.uleb128 0x2e
 6412 14a1 01       		.byte	0x1
 6413 14a2 50       		.byte	0x50
 6414 14a3 03       		.byte	0x3
 6415 14a4 F3       		.byte	0xf3
 6416 14a5 01       		.uleb128 0x1
 6417 14a6 51       		.byte	0x51
 6418 14a7 00       		.byte	0
 6419 14a8 2D       		.uleb128 0x2d
 6420 14a9 CA060000 		.4byte	.LVL249
 6421 14ad 9E180000 		.4byte	0x189e
 6422 14b1 BD140000 		.4byte	0x14bd
 6423 14b5 2E       		.uleb128 0x2e
 6424 14b6 01       		.byte	0x1
 6425 14b7 50       		.byte	0x50
 6426 14b8 03       		.byte	0x3
 6427 14b9 F3       		.byte	0xf3
 6428 14ba 01       		.uleb128 0x1
 6429 14bb 51       		.byte	0x51
 6430 14bc 00       		.byte	0
 6431 14bd 2D       		.uleb128 0x2d
 6432 14be D2060000 		.4byte	.LVL251
 6433 14c2 5F180000 		.4byte	0x185f
 6434 14c6 D2140000 		.4byte	0x14d2
 6435 14ca 2E       		.uleb128 0x2e
 6436 14cb 01       		.byte	0x1
 6437 14cc 50       		.byte	0x50
 6438 14cd 03       		.byte	0x3
 6439 14ce F3       		.byte	0xf3
 6440 14cf 01       		.uleb128 0x1
 6441 14d0 51       		.byte	0x51
 6442 14d1 00       		.byte	0
 6443 14d2 2D       		.uleb128 0x2d
 6444 14d3 DA060000 		.4byte	.LVL253
 6445 14d7 20180000 		.4byte	0x1820
 6446 14db E7140000 		.4byte	0x14e7
 6447 14df 2E       		.uleb128 0x2e
 6448 14e0 01       		.byte	0x1
 6449 14e1 50       		.byte	0x50
 6450 14e2 03       		.byte	0x3
 6451 14e3 F3       		.byte	0xf3
 6452 14e4 01       		.uleb128 0x1
 6453 14e5 51       		.byte	0x51
 6454 14e6 00       		.byte	0
 6455 14e7 2D       		.uleb128 0x2d
 6456 14e8 E2060000 		.4byte	.LVL255
 6457 14ec E1170000 		.4byte	0x17e1
 6458 14f0 FC140000 		.4byte	0x14fc
 6459 14f4 2E       		.uleb128 0x2e
 6460 14f5 01       		.byte	0x1
 6461 14f6 50       		.byte	0x50
 6462 14f7 03       		.byte	0x3
ARM GAS  C:\Users\claym\AppData\Local\Temp\cc2sTfd9.s 			page 142


 6463 14f8 F3       		.byte	0xf3
 6464 14f9 01       		.uleb128 0x1
 6465 14fa 51       		.byte	0x51
 6466 14fb 00       		.byte	0
 6467 14fc 2D       		.uleb128 0x2d
 6468 14fd EA060000 		.4byte	.LVL257
 6469 1501 A2170000 		.4byte	0x17a2
 6470 1505 11150000 		.4byte	0x1511
 6471 1509 2E       		.uleb128 0x2e
 6472 150a 01       		.byte	0x1
 6473 150b 50       		.byte	0x50
 6474 150c 03       		.byte	0x3
 6475 150d F3       		.byte	0xf3
 6476 150e 01       		.uleb128 0x1
 6477 150f 51       		.byte	0x51
 6478 1510 00       		.byte	0
 6479 1511 2D       		.uleb128 0x2d
 6480 1512 F2060000 		.4byte	.LVL259
 6481 1516 63170000 		.4byte	0x1763
 6482 151a 26150000 		.4byte	0x1526
 6483 151e 2E       		.uleb128 0x2e
 6484 151f 01       		.byte	0x1
 6485 1520 50       		.byte	0x50
 6486 1521 03       		.byte	0x3
 6487 1522 F3       		.byte	0xf3
 6488 1523 01       		.uleb128 0x1
 6489 1524 51       		.byte	0x51
 6490 1525 00       		.byte	0
 6491 1526 2D       		.uleb128 0x2d
 6492 1527 FA060000 		.4byte	.LVL261
 6493 152b 24170000 		.4byte	0x1724
 6494 152f 3B150000 		.4byte	0x153b
 6495 1533 2E       		.uleb128 0x2e
 6496 1534 01       		.byte	0x1
 6497 1535 50       		.byte	0x50
 6498 1536 03       		.byte	0x3
 6499 1537 F3       		.byte	0xf3
 6500 1538 01       		.uleb128 0x1
 6501 1539 51       		.byte	0x51
 6502 153a 00       		.byte	0
 6503 153b 2D       		.uleb128 0x2d
 6504 153c 02070000 		.4byte	.LVL263
 6505 1540 E5160000 		.4byte	0x16e5
 6506 1544 50150000 		.4byte	0x1550
 6507 1548 2E       		.uleb128 0x2e
 6508 1549 01       		.byte	0x1
 6509 154a 50       		.byte	0x50
 6510 154b 03       		.byte	0x3
 6511 154c F3       		.byte	0xf3
 6512 154d 01       		.uleb128 0x1
 6513 154e 51       		.byte	0x51
 6514 154f 00       		.byte	0
 6515 1550 2D       		.uleb128 0x2d
 6516 1551 0A070000 		.4byte	.LVL265
 6517 1555 A6160000 		.4byte	0x16a6
 6518 1559 65150000 		.4byte	0x1565
 6519 155d 2E       		.uleb128 0x2e
ARM GAS  C:\Users\claym\AppData\Local\Temp\cc2sTfd9.s 			page 143


 6520 155e 01       		.byte	0x1
 6521 155f 50       		.byte	0x50
 6522 1560 03       		.byte	0x3
 6523 1561 F3       		.byte	0xf3
 6524 1562 01       		.uleb128 0x1
 6525 1563 51       		.byte	0x51
 6526 1564 00       		.byte	0
 6527 1565 2D       		.uleb128 0x2d
 6528 1566 12070000 		.4byte	.LVL267
 6529 156a 66160000 		.4byte	0x1666
 6530 156e 7A150000 		.4byte	0x157a
 6531 1572 2E       		.uleb128 0x2e
 6532 1573 01       		.byte	0x1
 6533 1574 50       		.byte	0x50
 6534 1575 03       		.byte	0x3
 6535 1576 F3       		.byte	0xf3
 6536 1577 01       		.uleb128 0x1
 6537 1578 51       		.byte	0x51
 6538 1579 00       		.byte	0
 6539 157a 2D       		.uleb128 0x2d
 6540 157b 24070000 		.4byte	.LVL272
 6541 157f 891D0000 		.4byte	0x1d89
 6542 1583 8F150000 		.4byte	0x158f
 6543 1587 2E       		.uleb128 0x2e
 6544 1588 01       		.byte	0x1
 6545 1589 50       		.byte	0x50
 6546 158a 03       		.byte	0x3
 6547 158b F3       		.byte	0xf3
 6548 158c 01       		.uleb128 0x1
 6549 158d 51       		.byte	0x51
 6550 158e 00       		.byte	0
 6551 158f 2D       		.uleb128 0x2d
 6552 1590 2C070000 		.4byte	.LVL274
 6553 1594 E2150000 		.4byte	0x15e2
 6554 1598 A4150000 		.4byte	0x15a4
 6555 159c 2E       		.uleb128 0x2e
 6556 159d 01       		.byte	0x1
 6557 159e 50       		.byte	0x50
 6558 159f 03       		.byte	0x3
 6559 15a0 F3       		.byte	0xf3
 6560 15a1 01       		.uleb128 0x1
 6561 15a2 51       		.byte	0x51
 6562 15a3 00       		.byte	0
 6563 15a4 30       		.uleb128 0x30
 6564 15a5 34070000 		.4byte	.LVL276
 6565 15a9 B6150000 		.4byte	0x15b6
 6566 15ad 2E       		.uleb128 0x2e
 6567 15ae 01       		.byte	0x1
 6568 15af 50       		.byte	0x50
 6569 15b0 03       		.byte	0x3
 6570 15b1 F3       		.byte	0xf3
 6571 15b2 01       		.uleb128 0x1
 6572 15b3 51       		.byte	0x51
 6573 15b4 00       		.byte	0
 6574 15b5 00       		.byte	0
 6575 15b6 35       		.uleb128 0x35
 6576 15b7 01       		.byte	0x1
ARM GAS  C:\Users\claym\AppData\Local\Temp\cc2sTfd9.s 			page 144


 6577 15b8 D8040000 		.4byte	.LASF258
 6578 15bc 01       		.byte	0x1
 6579 15bd D202     		.2byte	0x2d2
 6580 15bf 01       		.byte	0x1
 6581 15c0 B4000000 		.4byte	0xb4
 6582 15c4 01       		.byte	0x1
 6583 15c5 E2150000 		.4byte	0x15e2
 6584 15c9 36       		.uleb128 0x36
 6585 15ca 61726700 		.ascii	"arg\000"
 6586 15ce 01       		.byte	0x1
 6587 15cf D202     		.2byte	0x2d2
 6588 15d1 BF000000 		.4byte	0xbf
 6589 15d5 37       		.uleb128 0x37
 6590 15d6 26060000 		.4byte	.LASF249
 6591 15da 01       		.byte	0x1
 6592 15db D202     		.2byte	0x2d2
 6593 15dd 3A120000 		.4byte	0x123a
 6594 15e1 00       		.byte	0
 6595 15e2 35       		.uleb128 0x35
 6596 15e3 01       		.byte	0x1
 6597 15e4 E5060000 		.4byte	.LASF259
 6598 15e8 01       		.byte	0x1
 6599 15e9 C302     		.2byte	0x2c3
 6600 15eb 01       		.byte	0x1
 6601 15ec B4000000 		.4byte	0xb4
 6602 15f0 01       		.byte	0x1
 6603 15f1 0E160000 		.4byte	0x160e
 6604 15f5 36       		.uleb128 0x36
 6605 15f6 61726700 		.ascii	"arg\000"
 6606 15fa 01       		.byte	0x1
 6607 15fb C302     		.2byte	0x2c3
 6608 15fd BF000000 		.4byte	0xbf
 6609 1601 37       		.uleb128 0x37
 6610 1602 26060000 		.4byte	.LASF249
 6611 1606 01       		.byte	0x1
 6612 1607 C302     		.2byte	0x2c3
 6613 1609 3A120000 		.4byte	0x123a
 6614 160d 00       		.byte	0
 6615 160e 35       		.uleb128 0x35
 6616 160f 01       		.byte	0x1
 6617 1610 AC0A0000 		.4byte	.LASF260
 6618 1614 01       		.byte	0x1
 6619 1615 BD02     		.2byte	0x2bd
 6620 1617 01       		.byte	0x1
 6621 1618 B4000000 		.4byte	0xb4
 6622 161c 01       		.byte	0x1
 6623 161d 3A160000 		.4byte	0x163a
 6624 1621 36       		.uleb128 0x36
 6625 1622 61726700 		.ascii	"arg\000"
 6626 1626 01       		.byte	0x1
 6627 1627 BD02     		.2byte	0x2bd
 6628 1629 BF000000 		.4byte	0xbf
 6629 162d 37       		.uleb128 0x37
 6630 162e 26060000 		.4byte	.LASF249
 6631 1632 01       		.byte	0x1
 6632 1633 BD02     		.2byte	0x2bd
 6633 1635 3A120000 		.4byte	0x123a
ARM GAS  C:\Users\claym\AppData\Local\Temp\cc2sTfd9.s 			page 145


 6634 1639 00       		.byte	0
 6635 163a 35       		.uleb128 0x35
 6636 163b 01       		.byte	0x1
 6637 163c 82000000 		.4byte	.LASF261
 6638 1640 01       		.byte	0x1
 6639 1641 B102     		.2byte	0x2b1
 6640 1643 01       		.byte	0x1
 6641 1644 B4000000 		.4byte	0xb4
 6642 1648 01       		.byte	0x1
 6643 1649 66160000 		.4byte	0x1666
 6644 164d 36       		.uleb128 0x36
 6645 164e 61726700 		.ascii	"arg\000"
 6646 1652 01       		.byte	0x1
 6647 1653 B102     		.2byte	0x2b1
 6648 1655 BF000000 		.4byte	0xbf
 6649 1659 37       		.uleb128 0x37
 6650 165a 26060000 		.4byte	.LASF249
 6651 165e 01       		.byte	0x1
 6652 165f B102     		.2byte	0x2b1
 6653 1661 3A120000 		.4byte	0x123a
 6654 1665 00       		.byte	0
 6655 1666 31       		.uleb128 0x31
 6656 1667 01       		.byte	0x1
 6657 1668 CD0B0000 		.4byte	.LASF262
 6658 166c 01       		.byte	0x1
 6659 166d 9A02     		.2byte	0x29a
 6660 166f 01       		.byte	0x1
 6661 1670 B4000000 		.4byte	0xb4
 6662 1674 AA050000 		.4byte	.LFB57
 6663 1678 E4050000 		.4byte	.LFE57
 6664 167c 8C060000 		.4byte	.LLST58
 6665 1680 01       		.byte	0x1
 6666 1681 A6160000 		.4byte	0x16a6
 6667 1685 32       		.uleb128 0x32
 6668 1686 61726700 		.ascii	"arg\000"
 6669 168a 01       		.byte	0x1
 6670 168b 9A02     		.2byte	0x29a
 6671 168d BF000000 		.4byte	0xbf
 6672 1691 AC060000 		.4byte	.LLST59
 6673 1695 2A       		.uleb128 0x2a
 6674 1696 26060000 		.4byte	.LASF249
 6675 169a 01       		.byte	0x1
 6676 169b 9A02     		.2byte	0x29a
 6677 169d 3A120000 		.4byte	0x123a
 6678 16a1 FF060000 		.4byte	.LLST60
 6679 16a5 00       		.byte	0
 6680 16a6 29       		.uleb128 0x29
 6681 16a7 01       		.byte	0x1
 6682 16a8 3A040000 		.4byte	.LASF263
 6683 16ac 01       		.byte	0x1
 6684 16ad 8502     		.2byte	0x285
 6685 16af 01       		.byte	0x1
 6686 16b0 B4000000 		.4byte	0xb4
 6687 16b4 80050000 		.4byte	.LFB56
 6688 16b8 AA050000 		.4byte	.LFE56
 6689 16bc 02       		.byte	0x2
 6690 16bd 7D       		.byte	0x7d
ARM GAS  C:\Users\claym\AppData\Local\Temp\cc2sTfd9.s 			page 146


 6691 16be 00       		.sleb128 0
 6692 16bf 01       		.byte	0x1
 6693 16c0 E5160000 		.4byte	0x16e5
 6694 16c4 32       		.uleb128 0x32
 6695 16c5 61726700 		.ascii	"arg\000"
 6696 16c9 01       		.byte	0x1
 6697 16ca 8502     		.2byte	0x285
 6698 16cc BF000000 		.4byte	0xbf
 6699 16d0 2B070000 		.4byte	.LLST56
 6700 16d4 2A       		.uleb128 0x2a
 6701 16d5 26060000 		.4byte	.LASF249
 6702 16d9 01       		.byte	0x1
 6703 16da 8502     		.2byte	0x285
 6704 16dc 3A120000 		.4byte	0x123a
 6705 16e0 7E070000 		.4byte	.LLST57
 6706 16e4 00       		.byte	0
 6707 16e5 29       		.uleb128 0x29
 6708 16e6 01       		.byte	0x1
 6709 16e7 9F050000 		.4byte	.LASF264
 6710 16eb 01       		.byte	0x1
 6711 16ec 7002     		.2byte	0x270
 6712 16ee 01       		.byte	0x1
 6713 16ef B4000000 		.4byte	0xb4
 6714 16f3 48050000 		.4byte	.LFB55
 6715 16f7 80050000 		.4byte	.LFE55
 6716 16fb 02       		.byte	0x2
 6717 16fc 7D       		.byte	0x7d
 6718 16fd 00       		.sleb128 0
 6719 16fe 01       		.byte	0x1
 6720 16ff 24170000 		.4byte	0x1724
 6721 1703 32       		.uleb128 0x32
 6722 1704 61726700 		.ascii	"arg\000"
 6723 1708 01       		.byte	0x1
 6724 1709 7002     		.2byte	0x270
 6725 170b BF000000 		.4byte	0xbf
 6726 170f AA070000 		.4byte	.LLST54
 6727 1713 2A       		.uleb128 0x2a
 6728 1714 26060000 		.4byte	.LASF249
 6729 1718 01       		.byte	0x1
 6730 1719 7002     		.2byte	0x270
 6731 171b 3A120000 		.4byte	0x123a
 6732 171f FD070000 		.4byte	.LLST55
 6733 1723 00       		.byte	0
 6734 1724 29       		.uleb128 0x29
 6735 1725 01       		.byte	0x1
 6736 1726 A50D0000 		.4byte	.LASF265
 6737 172a 01       		.byte	0x1
 6738 172b 5B02     		.2byte	0x25b
 6739 172d 01       		.byte	0x1
 6740 172e B4000000 		.4byte	0xb4
 6741 1732 1E050000 		.4byte	.LFB54
 6742 1736 48050000 		.4byte	.LFE54
 6743 173a 02       		.byte	0x2
 6744 173b 7D       		.byte	0x7d
 6745 173c 00       		.sleb128 0
 6746 173d 01       		.byte	0x1
 6747 173e 63170000 		.4byte	0x1763
ARM GAS  C:\Users\claym\AppData\Local\Temp\cc2sTfd9.s 			page 147


 6748 1742 32       		.uleb128 0x32
 6749 1743 61726700 		.ascii	"arg\000"
 6750 1747 01       		.byte	0x1
 6751 1748 5B02     		.2byte	0x25b
 6752 174a BF000000 		.4byte	0xbf
 6753 174e 42080000 		.4byte	.LLST52
 6754 1752 2A       		.uleb128 0x2a
 6755 1753 26060000 		.4byte	.LASF249
 6756 1757 01       		.byte	0x1
 6757 1758 5B02     		.2byte	0x25b
 6758 175a 3A120000 		.4byte	0x123a
 6759 175e 95080000 		.4byte	.LLST53
 6760 1762 00       		.byte	0
 6761 1763 29       		.uleb128 0x29
 6762 1764 01       		.byte	0x1
 6763 1765 F8090000 		.4byte	.LASF266
 6764 1769 01       		.byte	0x1
 6765 176a 4602     		.2byte	0x246
 6766 176c 01       		.byte	0x1
 6767 176d B4000000 		.4byte	0xb4
 6768 1771 F4040000 		.4byte	.LFB53
 6769 1775 1E050000 		.4byte	.LFE53
 6770 1779 02       		.byte	0x2
 6771 177a 7D       		.byte	0x7d
 6772 177b 00       		.sleb128 0
 6773 177c 01       		.byte	0x1
 6774 177d A2170000 		.4byte	0x17a2
 6775 1781 32       		.uleb128 0x32
 6776 1782 61726700 		.ascii	"arg\000"
 6777 1786 01       		.byte	0x1
 6778 1787 4602     		.2byte	0x246
 6779 1789 BF000000 		.4byte	0xbf
 6780 178d C1080000 		.4byte	.LLST50
 6781 1791 2A       		.uleb128 0x2a
 6782 1792 26060000 		.4byte	.LASF249
 6783 1796 01       		.byte	0x1
 6784 1797 4602     		.2byte	0x246
 6785 1799 3A120000 		.4byte	0x123a
 6786 179d 14090000 		.4byte	.LLST51
 6787 17a1 00       		.byte	0
 6788 17a2 29       		.uleb128 0x29
 6789 17a3 01       		.byte	0x1
 6790 17a4 10010000 		.4byte	.LASF267
 6791 17a8 01       		.byte	0x1
 6792 17a9 3002     		.2byte	0x230
 6793 17ab 01       		.byte	0x1
 6794 17ac B4000000 		.4byte	0xb4
 6795 17b0 CA040000 		.4byte	.LFB52
 6796 17b4 F4040000 		.4byte	.LFE52
 6797 17b8 02       		.byte	0x2
 6798 17b9 7D       		.byte	0x7d
 6799 17ba 00       		.sleb128 0
 6800 17bb 01       		.byte	0x1
 6801 17bc E1170000 		.4byte	0x17e1
 6802 17c0 32       		.uleb128 0x32
 6803 17c1 61726700 		.ascii	"arg\000"
 6804 17c5 01       		.byte	0x1
ARM GAS  C:\Users\claym\AppData\Local\Temp\cc2sTfd9.s 			page 148


 6805 17c6 3002     		.2byte	0x230
 6806 17c8 BF000000 		.4byte	0xbf
 6807 17cc 40090000 		.4byte	.LLST48
 6808 17d0 2A       		.uleb128 0x2a
 6809 17d1 26060000 		.4byte	.LASF249
 6810 17d5 01       		.byte	0x1
 6811 17d6 3002     		.2byte	0x230
 6812 17d8 3A120000 		.4byte	0x123a
 6813 17dc 93090000 		.4byte	.LLST49
 6814 17e0 00       		.byte	0
 6815 17e1 29       		.uleb128 0x29
 6816 17e2 01       		.byte	0x1
 6817 17e3 71040000 		.4byte	.LASF268
 6818 17e7 01       		.byte	0x1
 6819 17e8 1502     		.2byte	0x215
 6820 17ea 01       		.byte	0x1
 6821 17eb B4000000 		.4byte	0xb4
 6822 17ef 8E040000 		.4byte	.LFB51
 6823 17f3 CA040000 		.4byte	.LFE51
 6824 17f7 02       		.byte	0x2
 6825 17f8 7D       		.byte	0x7d
 6826 17f9 00       		.sleb128 0
 6827 17fa 01       		.byte	0x1
 6828 17fb 20180000 		.4byte	0x1820
 6829 17ff 32       		.uleb128 0x32
 6830 1800 61726700 		.ascii	"arg\000"
 6831 1804 01       		.byte	0x1
 6832 1805 1502     		.2byte	0x215
 6833 1807 B4000000 		.4byte	0xb4
 6834 180b BF090000 		.4byte	.LLST46
 6835 180f 2A       		.uleb128 0x2a
 6836 1810 26060000 		.4byte	.LASF249
 6837 1814 01       		.byte	0x1
 6838 1815 1502     		.2byte	0x215
 6839 1817 3A120000 		.4byte	0x123a
 6840 181b 2B0A0000 		.4byte	.LLST47
 6841 181f 00       		.byte	0
 6842 1820 29       		.uleb128 0x29
 6843 1821 01       		.byte	0x1
 6844 1822 97060000 		.4byte	.LASF269
 6845 1826 01       		.byte	0x1
 6846 1827 0002     		.2byte	0x200
 6847 1829 01       		.byte	0x1
 6848 182a B4000000 		.4byte	0xb4
 6849 182e 5E040000 		.4byte	.LFB50
 6850 1832 8E040000 		.4byte	.LFE50
 6851 1836 02       		.byte	0x2
 6852 1837 7D       		.byte	0x7d
 6853 1838 00       		.sleb128 0
 6854 1839 01       		.byte	0x1
 6855 183a 5F180000 		.4byte	0x185f
 6856 183e 32       		.uleb128 0x32
 6857 183f 61726700 		.ascii	"arg\000"
 6858 1843 01       		.byte	0x1
 6859 1844 0002     		.2byte	0x200
 6860 1846 BF000000 		.4byte	0xbf
 6861 184a 890A0000 		.4byte	.LLST44
ARM GAS  C:\Users\claym\AppData\Local\Temp\cc2sTfd9.s 			page 149


 6862 184e 2A       		.uleb128 0x2a
 6863 184f 26060000 		.4byte	.LASF249
 6864 1853 01       		.byte	0x1
 6865 1854 0002     		.2byte	0x200
 6866 1856 3A120000 		.4byte	0x123a
 6867 185a DC0A0000 		.4byte	.LLST45
 6868 185e 00       		.byte	0
 6869 185f 29       		.uleb128 0x29
 6870 1860 01       		.byte	0x1
 6871 1861 0E080000 		.4byte	.LASF270
 6872 1865 01       		.byte	0x1
 6873 1866 EB01     		.2byte	0x1eb
 6874 1868 01       		.byte	0x1
 6875 1869 B4000000 		.4byte	0xb4
 6876 186d 2C040000 		.4byte	.LFB49
 6877 1871 5E040000 		.4byte	.LFE49
 6878 1875 02       		.byte	0x2
 6879 1876 7D       		.byte	0x7d
 6880 1877 00       		.sleb128 0
 6881 1878 01       		.byte	0x1
 6882 1879 9E180000 		.4byte	0x189e
 6883 187d 32       		.uleb128 0x32
 6884 187e 61726700 		.ascii	"arg\000"
 6885 1882 01       		.byte	0x1
 6886 1883 EB01     		.2byte	0x1eb
 6887 1885 BF000000 		.4byte	0xbf
 6888 1889 210B0000 		.4byte	.LLST42
 6889 188d 2A       		.uleb128 0x2a
 6890 188e 26060000 		.4byte	.LASF249
 6891 1892 01       		.byte	0x1
 6892 1893 EB01     		.2byte	0x1eb
 6893 1895 3A120000 		.4byte	0x123a
 6894 1899 740B0000 		.4byte	.LLST43
 6895 189d 00       		.byte	0
 6896 189e 29       		.uleb128 0x29
 6897 189f 01       		.byte	0x1
 6898 18a0 9B070000 		.4byte	.LASF271
 6899 18a4 01       		.byte	0x1
 6900 18a5 D601     		.2byte	0x1d6
 6901 18a7 01       		.byte	0x1
 6902 18a8 B4000000 		.4byte	0xb4
 6903 18ac F4030000 		.4byte	.LFB48
 6904 18b0 2C040000 		.4byte	.LFE48
 6905 18b4 02       		.byte	0x2
 6906 18b5 7D       		.byte	0x7d
 6907 18b6 00       		.sleb128 0
 6908 18b7 01       		.byte	0x1
 6909 18b8 DD180000 		.4byte	0x18dd
 6910 18bc 32       		.uleb128 0x32
 6911 18bd 61726700 		.ascii	"arg\000"
 6912 18c1 01       		.byte	0x1
 6913 18c2 D601     		.2byte	0x1d6
 6914 18c4 BF000000 		.4byte	0xbf
 6915 18c8 B90B0000 		.4byte	.LLST40
 6916 18cc 2A       		.uleb128 0x2a
 6917 18cd 26060000 		.4byte	.LASF249
 6918 18d1 01       		.byte	0x1
ARM GAS  C:\Users\claym\AppData\Local\Temp\cc2sTfd9.s 			page 150


 6919 18d2 D601     		.2byte	0x1d6
 6920 18d4 3A120000 		.4byte	0x123a
 6921 18d8 0C0C0000 		.4byte	.LLST41
 6922 18dc 00       		.byte	0
 6923 18dd 29       		.uleb128 0x29
 6924 18de 01       		.byte	0x1
 6925 18df 03030000 		.4byte	.LASF272
 6926 18e3 01       		.byte	0x1
 6927 18e4 C101     		.2byte	0x1c1
 6928 18e6 01       		.byte	0x1
 6929 18e7 B4000000 		.4byte	0xb4
 6930 18eb BC030000 		.4byte	.LFB47
 6931 18ef F4030000 		.4byte	.LFE47
 6932 18f3 02       		.byte	0x2
 6933 18f4 7D       		.byte	0x7d
 6934 18f5 00       		.sleb128 0
 6935 18f6 01       		.byte	0x1
 6936 18f7 1C190000 		.4byte	0x191c
 6937 18fb 32       		.uleb128 0x32
 6938 18fc 61726700 		.ascii	"arg\000"
 6939 1900 01       		.byte	0x1
 6940 1901 C101     		.2byte	0x1c1
 6941 1903 BF000000 		.4byte	0xbf
 6942 1907 510C0000 		.4byte	.LLST38
 6943 190b 2A       		.uleb128 0x2a
 6944 190c 26060000 		.4byte	.LASF249
 6945 1910 01       		.byte	0x1
 6946 1911 C101     		.2byte	0x1c1
 6947 1913 3A120000 		.4byte	0x123a
 6948 1917 A40C0000 		.4byte	.LLST39
 6949 191b 00       		.byte	0
 6950 191c 29       		.uleb128 0x29
 6951 191d 01       		.byte	0x1
 6952 191e 27090000 		.4byte	.LASF273
 6953 1922 01       		.byte	0x1
 6954 1923 AC01     		.2byte	0x1ac
 6955 1925 01       		.byte	0x1
 6956 1926 B4000000 		.4byte	0xb4
 6957 192a 82030000 		.4byte	.LFB46
 6958 192e BC030000 		.4byte	.LFE46
 6959 1932 02       		.byte	0x2
 6960 1933 7D       		.byte	0x7d
 6961 1934 00       		.sleb128 0
 6962 1935 01       		.byte	0x1
 6963 1936 5B190000 		.4byte	0x195b
 6964 193a 32       		.uleb128 0x32
 6965 193b 61726700 		.ascii	"arg\000"
 6966 193f 01       		.byte	0x1
 6967 1940 AC01     		.2byte	0x1ac
 6968 1942 BF000000 		.4byte	0xbf
 6969 1946 E90C0000 		.4byte	.LLST36
 6970 194a 2A       		.uleb128 0x2a
 6971 194b 26060000 		.4byte	.LASF249
 6972 194f 01       		.byte	0x1
 6973 1950 AC01     		.2byte	0x1ac
 6974 1952 3A120000 		.4byte	0x123a
 6975 1956 3C0D0000 		.4byte	.LLST37
ARM GAS  C:\Users\claym\AppData\Local\Temp\cc2sTfd9.s 			page 151


 6976 195a 00       		.byte	0
 6977 195b 29       		.uleb128 0x29
 6978 195c 01       		.byte	0x1
 6979 195d 0D000000 		.4byte	.LASF274
 6980 1961 01       		.byte	0x1
 6981 1962 9501     		.2byte	0x195
 6982 1964 01       		.byte	0x1
 6983 1965 B4000000 		.4byte	0xb4
 6984 1969 50030000 		.4byte	.LFB45
 6985 196d 82030000 		.4byte	.LFE45
 6986 1971 02       		.byte	0x2
 6987 1972 7D       		.byte	0x7d
 6988 1973 00       		.sleb128 0
 6989 1974 01       		.byte	0x1
 6990 1975 9A190000 		.4byte	0x199a
 6991 1979 32       		.uleb128 0x32
 6992 197a 61726700 		.ascii	"arg\000"
 6993 197e 01       		.byte	0x1
 6994 197f 9501     		.2byte	0x195
 6995 1981 BF000000 		.4byte	0xbf
 6996 1985 810D0000 		.4byte	.LLST34
 6997 1989 2A       		.uleb128 0x2a
 6998 198a 26060000 		.4byte	.LASF249
 6999 198e 01       		.byte	0x1
 7000 198f 9501     		.2byte	0x195
 7001 1991 3A120000 		.4byte	0x123a
 7002 1995 D40D0000 		.4byte	.LLST35
 7003 1999 00       		.byte	0
 7004 199a 31       		.uleb128 0x31
 7005 199b 01       		.byte	0x1
 7006 199c 640C0000 		.4byte	.LASF275
 7007 19a0 01       		.byte	0x1
 7008 19a1 7B01     		.2byte	0x17b
 7009 19a3 01       		.byte	0x1
 7010 19a4 B4000000 		.4byte	0xb4
 7011 19a8 0C030000 		.4byte	.LFB44
 7012 19ac 50030000 		.4byte	.LFE44
 7013 19b0 190E0000 		.4byte	.LLST31
 7014 19b4 01       		.byte	0x1
 7015 19b5 DA190000 		.4byte	0x19da
 7016 19b9 32       		.uleb128 0x32
 7017 19ba 61726700 		.ascii	"arg\000"
 7018 19be 01       		.byte	0x1
 7019 19bf 7B01     		.2byte	0x17b
 7020 19c1 BF000000 		.4byte	0xbf
 7021 19c5 390E0000 		.4byte	.LLST32
 7022 19c9 2A       		.uleb128 0x2a
 7023 19ca 26060000 		.4byte	.LASF249
 7024 19ce 01       		.byte	0x1
 7025 19cf 7B01     		.2byte	0x17b
 7026 19d1 3A120000 		.4byte	0x123a
 7027 19d5 8C0E0000 		.4byte	.LLST33
 7028 19d9 00       		.byte	0
 7029 19da 29       		.uleb128 0x29
 7030 19db 01       		.byte	0x1
 7031 19dc 12050000 		.4byte	.LASF276
 7032 19e0 01       		.byte	0x1
ARM GAS  C:\Users\claym\AppData\Local\Temp\cc2sTfd9.s 			page 152


 7033 19e1 6601     		.2byte	0x166
 7034 19e3 01       		.byte	0x1
 7035 19e4 B4000000 		.4byte	0xb4
 7036 19e8 DA020000 		.4byte	.LFB43
 7037 19ec 0C030000 		.4byte	.LFE43
 7038 19f0 02       		.byte	0x2
 7039 19f1 7D       		.byte	0x7d
 7040 19f2 00       		.sleb128 0
 7041 19f3 01       		.byte	0x1
 7042 19f4 191A0000 		.4byte	0x1a19
 7043 19f8 32       		.uleb128 0x32
 7044 19f9 61726700 		.ascii	"arg\000"
 7045 19fd 01       		.byte	0x1
 7046 19fe 6601     		.2byte	0x166
 7047 1a00 BF000000 		.4byte	0xbf
 7048 1a04 C60E0000 		.4byte	.LLST29
 7049 1a08 2A       		.uleb128 0x2a
 7050 1a09 26060000 		.4byte	.LASF249
 7051 1a0d 01       		.byte	0x1
 7052 1a0e 6601     		.2byte	0x166
 7053 1a10 3A120000 		.4byte	0x123a
 7054 1a14 190F0000 		.4byte	.LLST30
 7055 1a18 00       		.byte	0
 7056 1a19 29       		.uleb128 0x29
 7057 1a1a 01       		.byte	0x1
 7058 1a1b B0050000 		.4byte	.LASF277
 7059 1a1f 01       		.byte	0x1
 7060 1a20 5101     		.2byte	0x151
 7061 1a22 01       		.byte	0x1
 7062 1a23 B4000000 		.4byte	0xb4
 7063 1a27 A8020000 		.4byte	.LFB42
 7064 1a2b DA020000 		.4byte	.LFE42
 7065 1a2f 02       		.byte	0x2
 7066 1a30 7D       		.byte	0x7d
 7067 1a31 00       		.sleb128 0
 7068 1a32 01       		.byte	0x1
 7069 1a33 581A0000 		.4byte	0x1a58
 7070 1a37 32       		.uleb128 0x32
 7071 1a38 61726700 		.ascii	"arg\000"
 7072 1a3c 01       		.byte	0x1
 7073 1a3d 5101     		.2byte	0x151
 7074 1a3f BF000000 		.4byte	0xbf
 7075 1a43 5E0F0000 		.4byte	.LLST27
 7076 1a47 2A       		.uleb128 0x2a
 7077 1a48 26060000 		.4byte	.LASF249
 7078 1a4c 01       		.byte	0x1
 7079 1a4d 5101     		.2byte	0x151
 7080 1a4f 3A120000 		.4byte	0x123a
 7081 1a53 B10F0000 		.4byte	.LLST28
 7082 1a57 00       		.byte	0
 7083 1a58 29       		.uleb128 0x29
 7084 1a59 01       		.byte	0x1
 7085 1a5a A90C0000 		.4byte	.LASF278
 7086 1a5e 01       		.byte	0x1
 7087 1a5f 3C01     		.2byte	0x13c
 7088 1a61 01       		.byte	0x1
 7089 1a62 B4000000 		.4byte	0xb4
ARM GAS  C:\Users\claym\AppData\Local\Temp\cc2sTfd9.s 			page 153


 7090 1a66 76020000 		.4byte	.LFB41
 7091 1a6a A8020000 		.4byte	.LFE41
 7092 1a6e 02       		.byte	0x2
 7093 1a6f 7D       		.byte	0x7d
 7094 1a70 00       		.sleb128 0
 7095 1a71 01       		.byte	0x1
 7096 1a72 971A0000 		.4byte	0x1a97
 7097 1a76 32       		.uleb128 0x32
 7098 1a77 61726700 		.ascii	"arg\000"
 7099 1a7b 01       		.byte	0x1
 7100 1a7c 3C01     		.2byte	0x13c
 7101 1a7e BF000000 		.4byte	0xbf
 7102 1a82 F60F0000 		.4byte	.LLST25
 7103 1a86 2A       		.uleb128 0x2a
 7104 1a87 26060000 		.4byte	.LASF249
 7105 1a8b 01       		.byte	0x1
 7106 1a8c 3C01     		.2byte	0x13c
 7107 1a8e 3A120000 		.4byte	0x123a
 7108 1a92 49100000 		.4byte	.LLST26
 7109 1a96 00       		.byte	0
 7110 1a97 29       		.uleb128 0x29
 7111 1a98 01       		.byte	0x1
 7112 1a99 510C0000 		.4byte	.LASF279
 7113 1a9d 01       		.byte	0x1
 7114 1a9e 2701     		.2byte	0x127
 7115 1aa0 01       		.byte	0x1
 7116 1aa1 B4000000 		.4byte	0xb4
 7117 1aa5 46020000 		.4byte	.LFB40
 7118 1aa9 76020000 		.4byte	.LFE40
 7119 1aad 02       		.byte	0x2
 7120 1aae 7D       		.byte	0x7d
 7121 1aaf 00       		.sleb128 0
 7122 1ab0 01       		.byte	0x1
 7123 1ab1 D61A0000 		.4byte	0x1ad6
 7124 1ab5 32       		.uleb128 0x32
 7125 1ab6 61726700 		.ascii	"arg\000"
 7126 1aba 01       		.byte	0x1
 7127 1abb 2701     		.2byte	0x127
 7128 1abd BF000000 		.4byte	0xbf
 7129 1ac1 8E100000 		.4byte	.LLST23
 7130 1ac5 2A       		.uleb128 0x2a
 7131 1ac6 26060000 		.4byte	.LASF249
 7132 1aca 01       		.byte	0x1
 7133 1acb 2701     		.2byte	0x127
 7134 1acd 3A120000 		.4byte	0x123a
 7135 1ad1 E1100000 		.4byte	.LLST24
 7136 1ad5 00       		.byte	0
 7137 1ad6 38       		.uleb128 0x38
 7138 1ad7 01       		.byte	0x1
 7139 1ad8 F20B0000 		.4byte	.LASF280
 7140 1adc 01       		.byte	0x1
 7141 1add DE       		.byte	0xde
 7142 1ade 01       		.byte	0x1
 7143 1adf B4000000 		.4byte	0xb4
 7144 1ae3 60010000 		.4byte	.LFB39
 7145 1ae7 46020000 		.4byte	.LFE39
 7146 1aeb 26110000 		.4byte	.LLST16
ARM GAS  C:\Users\claym\AppData\Local\Temp\cc2sTfd9.s 			page 154


 7147 1aef 01       		.byte	0x1
 7148 1af0 A11B0000 		.4byte	0x1ba1
 7149 1af4 39       		.uleb128 0x39
 7150 1af5 CA070000 		.4byte	.LASF281
 7151 1af9 01       		.byte	0x1
 7152 1afa DE       		.byte	0xde
 7153 1afb 20030000 		.4byte	0x320
 7154 1aff 52110000 		.4byte	.LLST17
 7155 1b03 3A       		.uleb128 0x3a
 7156 1b04 6E756D00 		.ascii	"num\000"
 7157 1b08 01       		.byte	0x1
 7158 1b09 DE       		.byte	0xde
 7159 1b0a BF000000 		.4byte	0xbf
 7160 1b0e 9F110000 		.4byte	.LLST18
 7161 1b12 39       		.uleb128 0x39
 7162 1b13 26060000 		.4byte	.LASF249
 7163 1b17 01       		.byte	0x1
 7164 1b18 DE       		.byte	0xde
 7165 1b19 3A120000 		.4byte	0x123a
 7166 1b1d ED110000 		.4byte	.LLST19
 7167 1b21 3B       		.uleb128 0x3b
 7168 1b22 32050000 		.4byte	.LASF282
 7169 1b26 01       		.byte	0x1
 7170 1b27 E0       		.byte	0xe0
 7171 1b28 B4000000 		.4byte	0xb4
 7172 1b2c 3A120000 		.4byte	.LLST20
 7173 1b30 3B       		.uleb128 0x3b
 7174 1b31 DD0A0000 		.4byte	.LASF283
 7175 1b35 01       		.byte	0x1
 7176 1b36 E1       		.byte	0xe1
 7177 1b37 BF000000 		.4byte	0xbf
 7178 1b3b 63120000 		.4byte	.LLST21
 7179 1b3f 3B       		.uleb128 0x3b
 7180 1b40 45070000 		.4byte	.LASF284
 7181 1b44 01       		.byte	0x1
 7182 1b45 E1       		.byte	0xe1
 7183 1b46 BF000000 		.4byte	0xbf
 7184 1b4a 8F120000 		.4byte	.LLST22
 7185 1b4e 3C       		.uleb128 0x3c
 7186 1b4f F71D0000 		.4byte	0x1df7
 7187 1b53 E4010000 		.4byte	.LBB50
 7188 1b57 E6010000 		.4byte	.LBE50
 7189 1b5b 01       		.byte	0x1
 7190 1b5c F9       		.byte	0xf9
 7191 1b5d 3C       		.uleb128 0x3c
 7192 1b5e F71D0000 		.4byte	0x1df7
 7193 1b62 E6010000 		.4byte	.LBB52
 7194 1b66 E8010000 		.4byte	.LBE52
 7195 1b6a 01       		.byte	0x1
 7196 1b6b FA       		.byte	0xfa
 7197 1b6c 2D       		.uleb128 0x2d
 7198 1b6d 84010000 		.4byte	.LVL44
 7199 1b71 F91E0000 		.4byte	0x1ef9
 7200 1b75 7F1B0000 		.4byte	0x1b7f
 7201 1b79 2E       		.uleb128 0x2e
 7202 1b7a 01       		.byte	0x1
 7203 1b7b 50       		.byte	0x50
ARM GAS  C:\Users\claym\AppData\Local\Temp\cc2sTfd9.s 			page 155


 7204 1b7c 01       		.byte	0x1
 7205 1b7d 33       		.byte	0x33
 7206 1b7e 00       		.byte	0
 7207 1b7f 3D       		.uleb128 0x3d
 7208 1b80 A2010000 		.4byte	.LVL45
 7209 1b84 061F0000 		.4byte	0x1f06
 7210 1b88 3D       		.uleb128 0x3d
 7211 1b89 DE010000 		.4byte	.LVL51
 7212 1b8d 061F0000 		.4byte	0x1f06
 7213 1b91 30       		.uleb128 0x30
 7214 1b92 32020000 		.4byte	.LVL54
 7215 1b96 131F0000 		.4byte	0x1f13
 7216 1b9a 2E       		.uleb128 0x2e
 7217 1b9b 01       		.byte	0x1
 7218 1b9c 50       		.byte	0x50
 7219 1b9d 01       		.byte	0x1
 7220 1b9e 33       		.byte	0x33
 7221 1b9f 00       		.byte	0
 7222 1ba0 00       		.byte	0
 7223 1ba1 38       		.uleb128 0x38
 7224 1ba2 01       		.byte	0x1
 7225 1ba3 CF090000 		.4byte	.LASF285
 7226 1ba7 01       		.byte	0x1
 7227 1ba8 8C       		.byte	0x8c
 7228 1ba9 01       		.byte	0x1
 7229 1baa B4000000 		.4byte	0xb4
 7230 1bae A6000000 		.4byte	.LFB38
 7231 1bb2 60010000 		.4byte	.LFE38
 7232 1bb6 A2120000 		.4byte	.LLST10
 7233 1bba 01       		.byte	0x1
 7234 1bbb E31C0000 		.4byte	0x1ce3
 7235 1bbf 39       		.uleb128 0x39
 7236 1bc0 CA070000 		.4byte	.LASF281
 7237 1bc4 01       		.byte	0x1
 7238 1bc5 8C       		.byte	0x8c
 7239 1bc6 20030000 		.4byte	0x320
 7240 1bca C2120000 		.4byte	.LLST11
 7241 1bce 3A       		.uleb128 0x3a
 7242 1bcf 6E756D00 		.ascii	"num\000"
 7243 1bd3 01       		.byte	0x1
 7244 1bd4 8C       		.byte	0x8c
 7245 1bd5 BF000000 		.4byte	0xbf
 7246 1bd9 25130000 		.4byte	.LLST12
 7247 1bdd 39       		.uleb128 0x39
 7248 1bde 26060000 		.4byte	.LASF249
 7249 1be2 01       		.byte	0x1
 7250 1be3 8C       		.byte	0x8c
 7251 1be4 3A120000 		.4byte	0x123a
 7252 1be8 59130000 		.4byte	.LLST13
 7253 1bec 3B       		.uleb128 0x3b
 7254 1bed 32050000 		.4byte	.LASF282
 7255 1bf1 01       		.byte	0x1
 7256 1bf2 8E       		.byte	0x8e
 7257 1bf3 BF000000 		.4byte	0xbf
 7258 1bf7 9B130000 		.4byte	.LLST14
 7259 1bfb 3B       		.uleb128 0x3b
 7260 1bfc 8D030000 		.4byte	.LASF286
ARM GAS  C:\Users\claym\AppData\Local\Temp\cc2sTfd9.s 			page 156


 7261 1c00 01       		.byte	0x1
 7262 1c01 90       		.byte	0x90
 7263 1c02 BF000000 		.4byte	0xbf
 7264 1c06 D1130000 		.4byte	.LLST15
 7265 1c0a 3C       		.uleb128 0x3c
 7266 1c0b F71D0000 		.4byte	0x1df7
 7267 1c0f 12010000 		.4byte	.LBB30
 7268 1c13 14010000 		.4byte	.LBE30
 7269 1c17 01       		.byte	0x1
 7270 1c18 A6       		.byte	0xa6
 7271 1c19 3C       		.uleb128 0x3c
 7272 1c1a F71D0000 		.4byte	0x1df7
 7273 1c1e 14010000 		.4byte	.LBB32
 7274 1c22 16010000 		.4byte	.LBE32
 7275 1c26 01       		.byte	0x1
 7276 1c27 A7       		.byte	0xa7
 7277 1c28 3C       		.uleb128 0x3c
 7278 1c29 F71D0000 		.4byte	0x1df7
 7279 1c2d 1E010000 		.4byte	.LBB34
 7280 1c31 20010000 		.4byte	.LBE34
 7281 1c35 01       		.byte	0x1
 7282 1c36 AA       		.byte	0xaa
 7283 1c37 3C       		.uleb128 0x3c
 7284 1c38 F71D0000 		.4byte	0x1df7
 7285 1c3c 20010000 		.4byte	.LBB36
 7286 1c40 22010000 		.4byte	.LBE36
 7287 1c44 01       		.byte	0x1
 7288 1c45 AB       		.byte	0xab
 7289 1c46 3C       		.uleb128 0x3c
 7290 1c47 F71D0000 		.4byte	0x1df7
 7291 1c4b 32010000 		.4byte	.LBB38
 7292 1c4f 34010000 		.4byte	.LBE38
 7293 1c53 01       		.byte	0x1
 7294 1c54 B0       		.byte	0xb0
 7295 1c55 3C       		.uleb128 0x3c
 7296 1c56 F71D0000 		.4byte	0x1df7
 7297 1c5a 34010000 		.4byte	.LBB40
 7298 1c5e 36010000 		.4byte	.LBE40
 7299 1c62 01       		.byte	0x1
 7300 1c63 B1       		.byte	0xb1
 7301 1c64 3C       		.uleb128 0x3c
 7302 1c65 F71D0000 		.4byte	0x1df7
 7303 1c69 4C010000 		.4byte	.LBB42
 7304 1c6d 4E010000 		.4byte	.LBE42
 7305 1c71 01       		.byte	0x1
 7306 1c72 B9       		.byte	0xb9
 7307 1c73 3C       		.uleb128 0x3c
 7308 1c74 F71D0000 		.4byte	0x1df7
 7309 1c78 4E010000 		.4byte	.LBB44
 7310 1c7c 50010000 		.4byte	.LBE44
 7311 1c80 01       		.byte	0x1
 7312 1c81 BA       		.byte	0xba
 7313 1c82 3C       		.uleb128 0x3c
 7314 1c83 F71D0000 		.4byte	0x1df7
 7315 1c87 50010000 		.4byte	.LBB46
 7316 1c8b 52010000 		.4byte	.LBE46
 7317 1c8f 01       		.byte	0x1
ARM GAS  C:\Users\claym\AppData\Local\Temp\cc2sTfd9.s 			page 157


 7318 1c90 BB       		.byte	0xbb
 7319 1c91 3C       		.uleb128 0x3c
 7320 1c92 F71D0000 		.4byte	0x1df7
 7321 1c96 52010000 		.4byte	.LBB48
 7322 1c9a 56010000 		.4byte	.LBE48
 7323 1c9e 01       		.byte	0x1
 7324 1c9f BC       		.byte	0xbc
 7325 1ca0 2D       		.uleb128 0x2d
 7326 1ca1 C6000000 		.4byte	.LVL22
 7327 1ca5 F91E0000 		.4byte	0x1ef9
 7328 1ca9 B31C0000 		.4byte	0x1cb3
 7329 1cad 2E       		.uleb128 0x2e
 7330 1cae 01       		.byte	0x1
 7331 1caf 50       		.byte	0x50
 7332 1cb0 01       		.byte	0x1
 7333 1cb1 33       		.byte	0x33
 7334 1cb2 00       		.byte	0
 7335 1cb3 2D       		.uleb128 0x2d
 7336 1cb4 F8000000 		.4byte	.LVL23
 7337 1cb8 201F0000 		.4byte	0x1f20
 7338 1cbc D31C0000 		.4byte	0x1cd3
 7339 1cc0 2E       		.uleb128 0x2e
 7340 1cc1 01       		.byte	0x1
 7341 1cc2 50       		.byte	0x50
 7342 1cc3 02       		.byte	0x2
 7343 1cc4 75       		.byte	0x75
 7344 1cc5 34       		.sleb128 52
 7345 1cc6 2E       		.uleb128 0x2e
 7346 1cc7 01       		.byte	0x1
 7347 1cc8 51       		.byte	0x51
 7348 1cc9 02       		.byte	0x2
 7349 1cca 77       		.byte	0x77
 7350 1ccb 00       		.sleb128 0
 7351 1ccc 2E       		.uleb128 0x2e
 7352 1ccd 01       		.byte	0x1
 7353 1cce 52       		.byte	0x52
 7354 1ccf 02       		.byte	0x2
 7355 1cd0 76       		.byte	0x76
 7356 1cd1 00       		.sleb128 0
 7357 1cd2 00       		.byte	0
 7358 1cd3 30       		.uleb128 0x30
 7359 1cd4 08010000 		.4byte	.LVL24
 7360 1cd8 131F0000 		.4byte	0x1f13
 7361 1cdc 2E       		.uleb128 0x2e
 7362 1cdd 01       		.byte	0x1
 7363 1cde 50       		.byte	0x50
 7364 1cdf 01       		.byte	0x1
 7365 1ce0 33       		.byte	0x33
 7366 1ce1 00       		.byte	0
 7367 1ce2 00       		.byte	0
 7368 1ce3 38       		.uleb128 0x38
 7369 1ce4 01       		.byte	0x1
 7370 1ce5 5C090000 		.4byte	.LASF287
 7371 1ce9 01       		.byte	0x1
 7372 1cea 74       		.byte	0x74
 7373 1ceb 01       		.byte	0x1
 7374 1cec B4000000 		.4byte	0xb4
ARM GAS  C:\Users\claym\AppData\Local\Temp\cc2sTfd9.s 			page 158


 7375 1cf0 76000000 		.4byte	.LFB37
 7376 1cf4 A6000000 		.4byte	.LFE37
 7377 1cf8 E4130000 		.4byte	.LLST8
 7378 1cfc 01       		.byte	0x1
 7379 1cfd 111D0000 		.4byte	0x1d11
 7380 1d01 39       		.uleb128 0x39
 7381 1d02 26060000 		.4byte	.LASF249
 7382 1d06 01       		.byte	0x1
 7383 1d07 74       		.byte	0x74
 7384 1d08 3A120000 		.4byte	0x123a
 7385 1d0c 04140000 		.4byte	.LLST9
 7386 1d10 00       		.byte	0
 7387 1d11 38       		.uleb128 0x38
 7388 1d12 01       		.byte	0x1
 7389 1d13 CD0A0000 		.4byte	.LASF288
 7390 1d17 01       		.byte	0x1
 7391 1d18 5D       		.byte	0x5d
 7392 1d19 01       		.byte	0x1
 7393 1d1a B4000000 		.4byte	0xb4
 7394 1d1e 3C000000 		.4byte	.LFB36
 7395 1d22 76000000 		.4byte	.LFE36
 7396 1d26 4C140000 		.4byte	.LLST6
 7397 1d2a 01       		.byte	0x1
 7398 1d2b 4C1D0000 		.4byte	0x1d4c
 7399 1d2f 39       		.uleb128 0x39
 7400 1d30 630B0000 		.4byte	.LASF110
 7401 1d34 01       		.byte	0x1
 7402 1d35 5D       		.byte	0x5d
 7403 1d36 35020000 		.4byte	0x235
 7404 1d3a 6C140000 		.4byte	.LLST7
 7405 1d3e 3E       		.uleb128 0x3e
 7406 1d3f 26060000 		.4byte	.LASF249
 7407 1d43 01       		.byte	0x1
 7408 1d44 5D       		.byte	0x5d
 7409 1d45 3A120000 		.4byte	0x123a
 7410 1d49 01       		.byte	0x1
 7411 1d4a 51       		.byte	0x51
 7412 1d4b 00       		.byte	0
 7413 1d4c 38       		.uleb128 0x38
 7414 1d4d 01       		.byte	0x1
 7415 1d4e 51060000 		.4byte	.LASF289
 7416 1d52 01       		.byte	0x1
 7417 1d53 51       		.byte	0x51
 7418 1d54 01       		.byte	0x1
 7419 1d55 FD000000 		.4byte	0xfd
 7420 1d59 1E000000 		.4byte	.LFB35
 7421 1d5d 3C000000 		.4byte	.LFE35
 7422 1d61 BF140000 		.4byte	.LLST5
 7423 1d65 01       		.byte	0x1
 7424 1d66 891D0000 		.4byte	0x1d89
 7425 1d6a 30       		.uleb128 0x30
 7426 1d6b 2C000000 		.4byte	.LVL7
 7427 1d6f 201F0000 		.4byte	0x1f20
 7428 1d73 2E       		.uleb128 0x2e
 7429 1d74 01       		.byte	0x1
 7430 1d75 50       		.byte	0x50
 7431 1d76 02       		.byte	0x2
ARM GAS  C:\Users\claym\AppData\Local\Temp\cc2sTfd9.s 			page 159


 7432 1d77 74       		.byte	0x74
 7433 1d78 00       		.sleb128 0
 7434 1d79 2E       		.uleb128 0x2e
 7435 1d7a 01       		.byte	0x1
 7436 1d7b 51       		.byte	0x51
 7437 1d7c 05       		.byte	0x5
 7438 1d7d 03       		.byte	0x3
 7439 1d7e 00000000 		.4byte	.LANCHOR0
 7440 1d82 2E       		.uleb128 0x2e
 7441 1d83 01       		.byte	0x1
 7442 1d84 52       		.byte	0x52
 7443 1d85 01       		.byte	0x1
 7444 1d86 34       		.byte	0x34
 7445 1d87 00       		.byte	0
 7446 1d88 00       		.byte	0
 7447 1d89 3F       		.uleb128 0x3f
 7448 1d8a 01       		.byte	0x1
 7449 1d8b A3060000 		.4byte	.LASF290
 7450 1d8f 01       		.byte	0x1
 7451 1d90 42       		.byte	0x42
 7452 1d91 01       		.byte	0x1
 7453 1d92 BF000000 		.4byte	0xbf
 7454 1d96 00000000 		.4byte	.LFB34
 7455 1d9a 1E000000 		.4byte	.LFE34
 7456 1d9e DF140000 		.4byte	.LLST0
 7457 1da2 01       		.byte	0x1
 7458 1da3 F71D0000 		.4byte	0x1df7
 7459 1da7 39       		.uleb128 0x39
 7460 1da8 62000000 		.4byte	.LASF115
 7461 1dac 01       		.byte	0x1
 7462 1dad 42       		.byte	0x42
 7463 1dae BF000000 		.4byte	0xbf
 7464 1db2 FF140000 		.4byte	.LLST1
 7465 1db6 39       		.uleb128 0x39
 7466 1db7 26060000 		.4byte	.LASF249
 7467 1dbb 01       		.byte	0x1
 7468 1dbc 42       		.byte	0x42
 7469 1dbd 3A120000 		.4byte	0x123a
 7470 1dc1 2C150000 		.4byte	.LLST2
 7471 1dc5 40       		.uleb128 0x40
 7472 1dc6 DE080000 		.4byte	.LASF291
 7473 1dca 01       		.byte	0x1
 7474 1dcb 44       		.byte	0x44
 7475 1dcc BF000000 		.4byte	0xbf
 7476 1dd0 10       		.byte	0x10
 7477 1dd1 41       		.uleb128 0x41
 7478 1dd2 7800     		.ascii	"x\000"
 7479 1dd4 01       		.byte	0x1
 7480 1dd5 44       		.byte	0x44
 7481 1dd6 BF000000 		.4byte	0xbf
 7482 1dda 58150000 		.4byte	.LLST3
 7483 1dde 3B       		.uleb128 0x3b
 7484 1ddf 56050000 		.4byte	.LASF292
 7485 1de3 01       		.byte	0x1
 7486 1de4 44       		.byte	0x44
 7487 1de5 BF000000 		.4byte	0xbf
 7488 1de9 7A150000 		.4byte	.LLST4
ARM GAS  C:\Users\claym\AppData\Local\Temp\cc2sTfd9.s 			page 160


 7489 1ded 3D       		.uleb128 0x3d
 7490 1dee 0A000000 		.4byte	.LVL1
 7491 1df2 311F0000 		.4byte	0x1f31
 7492 1df6 00       		.byte	0
 7493 1df7 42       		.uleb128 0x42
 7494 1df8 420B0000 		.4byte	.LASF301
 7495 1dfc 02       		.byte	0x2
 7496 1dfd 7501     		.2byte	0x175
 7497 1dff 01       		.byte	0x1
 7498 1e00 03       		.byte	0x3
 7499 1e01 43       		.uleb128 0x43
 7500 1e02 3A160000 		.4byte	0x163a
 7501 1e06 E4050000 		.4byte	.LFB58
 7502 1e0a EA050000 		.4byte	.LFE58
 7503 1e0e 02       		.byte	0x2
 7504 1e0f 7D       		.byte	0x7d
 7505 1e10 00       		.sleb128 0
 7506 1e11 01       		.byte	0x1
 7507 1e12 271E0000 		.4byte	0x1e27
 7508 1e16 34       		.uleb128 0x34
 7509 1e17 4D160000 		.4byte	0x164d
 7510 1e1b 99150000 		.4byte	.LLST61
 7511 1e1f 44       		.uleb128 0x44
 7512 1e20 59160000 		.4byte	0x1659
 7513 1e24 01       		.byte	0x1
 7514 1e25 51       		.byte	0x51
 7515 1e26 00       		.byte	0
 7516 1e27 43       		.uleb128 0x43
 7517 1e28 0E160000 		.4byte	0x160e
 7518 1e2c EA050000 		.4byte	.LFB59
 7519 1e30 F0050000 		.4byte	.LFE59
 7520 1e34 02       		.byte	0x2
 7521 1e35 7D       		.byte	0x7d
 7522 1e36 00       		.sleb128 0
 7523 1e37 01       		.byte	0x1
 7524 1e38 4D1E0000 		.4byte	0x1e4d
 7525 1e3c 34       		.uleb128 0x34
 7526 1e3d 21160000 		.4byte	0x1621
 7527 1e41 B8150000 		.4byte	.LLST62
 7528 1e45 44       		.uleb128 0x44
 7529 1e46 2D160000 		.4byte	0x162d
 7530 1e4a 01       		.byte	0x1
 7531 1e4b 51       		.byte	0x51
 7532 1e4c 00       		.byte	0
 7533 1e4d 45       		.uleb128 0x45
 7534 1e4e E2150000 		.4byte	0x15e2
 7535 1e52 F0050000 		.4byte	.LFB60
 7536 1e56 1E060000 		.4byte	.LFE60
 7537 1e5a D7150000 		.4byte	.LLST63
 7538 1e5e 01       		.byte	0x1
 7539 1e5f A51E0000 		.4byte	0x1ea5
 7540 1e63 34       		.uleb128 0x34
 7541 1e64 F5150000 		.4byte	0x15f5
 7542 1e68 F7150000 		.4byte	.LLST64
 7543 1e6c 34       		.uleb128 0x34
 7544 1e6d 01160000 		.4byte	0x1601
 7545 1e71 18160000 		.4byte	.LLST65
ARM GAS  C:\Users\claym\AppData\Local\Temp\cc2sTfd9.s 			page 161


 7546 1e75 46       		.uleb128 0x46
 7547 1e76 E2150000 		.4byte	0x15e2
 7548 1e7a 12060000 		.4byte	.LBB56
 7549 1e7e 1A060000 		.4byte	.LBE56
 7550 1e82 34       		.uleb128 0x34
 7551 1e83 F5150000 		.4byte	0x15f5
 7552 1e87 39160000 		.4byte	.LLST66
 7553 1e8b 34       		.uleb128 0x34
 7554 1e8c 01160000 		.4byte	0x1601
 7555 1e90 4F160000 		.4byte	.LLST67
 7556 1e94 30       		.uleb128 0x30
 7557 1e95 1A060000 		.4byte	.LVL223
 7558 1e99 F91E0000 		.4byte	0x1ef9
 7559 1e9d 2E       		.uleb128 0x2e
 7560 1e9e 01       		.byte	0x1
 7561 1e9f 50       		.byte	0x50
 7562 1ea0 01       		.byte	0x1
 7563 1ea1 33       		.byte	0x33
 7564 1ea2 00       		.byte	0
 7565 1ea3 00       		.byte	0
 7566 1ea4 00       		.byte	0
 7567 1ea5 45       		.uleb128 0x45
 7568 1ea6 B6150000 		.4byte	0x15b6
 7569 1eaa 1E060000 		.4byte	.LFB61
 7570 1eae 4C060000 		.4byte	.LFE61
 7571 1eb2 70160000 		.4byte	.LLST68
 7572 1eb6 01       		.byte	0x1
 7573 1eb7 F91E0000 		.4byte	0x1ef9
 7574 1ebb 34       		.uleb128 0x34
 7575 1ebc C9150000 		.4byte	0x15c9
 7576 1ec0 90160000 		.4byte	.LLST69
 7577 1ec4 34       		.uleb128 0x34
 7578 1ec5 D5150000 		.4byte	0x15d5
 7579 1ec9 B1160000 		.4byte	.LLST70
 7580 1ecd 46       		.uleb128 0x46
 7581 1ece E2150000 		.4byte	0x15e2
 7582 1ed2 40060000 		.4byte	.LBB60
 7583 1ed6 48060000 		.4byte	.LBE60
 7584 1eda 47       		.uleb128 0x47
 7585 1edb F5150000 		.4byte	0x15f5
 7586 1edf 34       		.uleb128 0x34
 7587 1ee0 01160000 		.4byte	0x1601
 7588 1ee4 D2160000 		.4byte	.LLST71
 7589 1ee8 30       		.uleb128 0x30
 7590 1ee9 48060000 		.4byte	.LVL228
 7591 1eed F91E0000 		.4byte	0x1ef9
 7592 1ef1 2E       		.uleb128 0x2e
 7593 1ef2 01       		.byte	0x1
 7594 1ef3 50       		.byte	0x50
 7595 1ef4 01       		.byte	0x1
 7596 1ef5 33       		.byte	0x33
 7597 1ef6 00       		.byte	0
 7598 1ef7 00       		.byte	0
 7599 1ef8 00       		.byte	0
 7600 1ef9 48       		.uleb128 0x48
 7601 1efa 01       		.byte	0x1
 7602 1efb 01       		.byte	0x1
ARM GAS  C:\Users\claym\AppData\Local\Temp\cc2sTfd9.s 			page 162


 7603 1efc BF020000 		.4byte	.LASF293
 7604 1f00 BF020000 		.4byte	.LASF293
 7605 1f04 0E       		.byte	0xe
 7606 1f05 2E       		.byte	0x2e
 7607 1f06 48       		.uleb128 0x48
 7608 1f07 01       		.byte	0x1
 7609 1f08 01       		.byte	0x1
 7610 1f09 F60C0000 		.4byte	.LASF294
 7611 1f0d F60C0000 		.4byte	.LASF294
 7612 1f11 09       		.byte	0x9
 7613 1f12 1E       		.byte	0x1e
 7614 1f13 48       		.uleb128 0x48
 7615 1f14 01       		.byte	0x1
 7616 1f15 01       		.byte	0x1
 7617 1f16 23070000 		.4byte	.LASF295
 7618 1f1a 23070000 		.4byte	.LASF295
 7619 1f1e 0E       		.byte	0xe
 7620 1f1f 37       		.byte	0x37
 7621 1f20 49       		.uleb128 0x49
 7622 1f21 01       		.byte	0x1
 7623 1f22 01       		.byte	0x1
 7624 1f23 420C0000 		.4byte	.LASF302
 7625 1f27 DC010000 		.4byte	.LASF303
 7626 1f2b 0F       		.byte	0xf
 7627 1f2c 00       		.byte	0
 7628 1f2d 420C0000 		.4byte	.LASF302
 7629 1f31 48       		.uleb128 0x48
 7630 1f32 01       		.byte	0x1
 7631 1f33 01       		.byte	0x1
 7632 1f34 04090000 		.4byte	.LASF296
 7633 1f38 04090000 		.4byte	.LASF296
 7634 1f3c 01       		.byte	0x1
 7635 1f3d 35       		.byte	0x35
 7636 1f3e 00       		.byte	0
 7637              		.section	.debug_abbrev,"",%progbits
 7638              	.Ldebug_abbrev0:
 7639 0000 01       		.uleb128 0x1
 7640 0001 11       		.uleb128 0x11
 7641 0002 01       		.byte	0x1
 7642 0003 25       		.uleb128 0x25
 7643 0004 0E       		.uleb128 0xe
 7644 0005 13       		.uleb128 0x13
 7645 0006 0B       		.uleb128 0xb
 7646 0007 03       		.uleb128 0x3
 7647 0008 0E       		.uleb128 0xe
 7648 0009 1B       		.uleb128 0x1b
 7649 000a 0E       		.uleb128 0xe
 7650 000b 11       		.uleb128 0x11
 7651 000c 01       		.uleb128 0x1
 7652 000d 12       		.uleb128 0x12
 7653 000e 01       		.uleb128 0x1
 7654 000f 10       		.uleb128 0x10
 7655 0010 06       		.uleb128 0x6
 7656 0011 00       		.byte	0
 7657 0012 00       		.byte	0
 7658 0013 02       		.uleb128 0x2
 7659 0014 24       		.uleb128 0x24
ARM GAS  C:\Users\claym\AppData\Local\Temp\cc2sTfd9.s 			page 163


 7660 0015 00       		.byte	0
 7661 0016 0B       		.uleb128 0xb
 7662 0017 0B       		.uleb128 0xb
 7663 0018 3E       		.uleb128 0x3e
 7664 0019 0B       		.uleb128 0xb
 7665 001a 03       		.uleb128 0x3
 7666 001b 0E       		.uleb128 0xe
 7667 001c 00       		.byte	0
 7668 001d 00       		.byte	0
 7669 001e 03       		.uleb128 0x3
 7670 001f 24       		.uleb128 0x24
 7671 0020 00       		.byte	0
 7672 0021 0B       		.uleb128 0xb
 7673 0022 0B       		.uleb128 0xb
 7674 0023 3E       		.uleb128 0x3e
 7675 0024 0B       		.uleb128 0xb
 7676 0025 03       		.uleb128 0x3
 7677 0026 08       		.uleb128 0x8
 7678 0027 00       		.byte	0
 7679 0028 00       		.byte	0
 7680 0029 04       		.uleb128 0x4
 7681 002a 16       		.uleb128 0x16
 7682 002b 00       		.byte	0
 7683 002c 03       		.uleb128 0x3
 7684 002d 0E       		.uleb128 0xe
 7685 002e 3A       		.uleb128 0x3a
 7686 002f 0B       		.uleb128 0xb
 7687 0030 3B       		.uleb128 0x3b
 7688 0031 0B       		.uleb128 0xb
 7689 0032 49       		.uleb128 0x49
 7690 0033 13       		.uleb128 0x13
 7691 0034 00       		.byte	0
 7692 0035 00       		.byte	0
 7693 0036 05       		.uleb128 0x5
 7694 0037 35       		.uleb128 0x35
 7695 0038 00       		.byte	0
 7696 0039 49       		.uleb128 0x49
 7697 003a 13       		.uleb128 0x13
 7698 003b 00       		.byte	0
 7699 003c 00       		.byte	0
 7700 003d 06       		.uleb128 0x6
 7701 003e 26       		.uleb128 0x26
 7702 003f 00       		.byte	0
 7703 0040 49       		.uleb128 0x49
 7704 0041 13       		.uleb128 0x13
 7705 0042 00       		.byte	0
 7706 0043 00       		.byte	0
 7707 0044 07       		.uleb128 0x7
 7708 0045 13       		.uleb128 0x13
 7709 0046 01       		.byte	0x1
 7710 0047 03       		.uleb128 0x3
 7711 0048 0E       		.uleb128 0xe
 7712 0049 0B       		.uleb128 0xb
 7713 004a 0B       		.uleb128 0xb
 7714 004b 3A       		.uleb128 0x3a
 7715 004c 0B       		.uleb128 0xb
 7716 004d 3B       		.uleb128 0x3b
ARM GAS  C:\Users\claym\AppData\Local\Temp\cc2sTfd9.s 			page 164


 7717 004e 0B       		.uleb128 0xb
 7718 004f 01       		.uleb128 0x1
 7719 0050 13       		.uleb128 0x13
 7720 0051 00       		.byte	0
 7721 0052 00       		.byte	0
 7722 0053 08       		.uleb128 0x8
 7723 0054 0D       		.uleb128 0xd
 7724 0055 00       		.byte	0
 7725 0056 03       		.uleb128 0x3
 7726 0057 08       		.uleb128 0x8
 7727 0058 3A       		.uleb128 0x3a
 7728 0059 0B       		.uleb128 0xb
 7729 005a 3B       		.uleb128 0x3b
 7730 005b 0B       		.uleb128 0xb
 7731 005c 49       		.uleb128 0x49
 7732 005d 13       		.uleb128 0x13
 7733 005e 38       		.uleb128 0x38
 7734 005f 0A       		.uleb128 0xa
 7735 0060 00       		.byte	0
 7736 0061 00       		.byte	0
 7737 0062 09       		.uleb128 0x9
 7738 0063 0D       		.uleb128 0xd
 7739 0064 00       		.byte	0
 7740 0065 03       		.uleb128 0x3
 7741 0066 0E       		.uleb128 0xe
 7742 0067 3A       		.uleb128 0x3a
 7743 0068 0B       		.uleb128 0xb
 7744 0069 3B       		.uleb128 0x3b
 7745 006a 0B       		.uleb128 0xb
 7746 006b 49       		.uleb128 0x49
 7747 006c 13       		.uleb128 0x13
 7748 006d 0B       		.uleb128 0xb
 7749 006e 0B       		.uleb128 0xb
 7750 006f 0D       		.uleb128 0xd
 7751 0070 0B       		.uleb128 0xb
 7752 0071 0C       		.uleb128 0xc
 7753 0072 0B       		.uleb128 0xb
 7754 0073 38       		.uleb128 0x38
 7755 0074 0A       		.uleb128 0xa
 7756 0075 00       		.byte	0
 7757 0076 00       		.byte	0
 7758 0077 0A       		.uleb128 0xa
 7759 0078 0F       		.uleb128 0xf
 7760 0079 00       		.byte	0
 7761 007a 0B       		.uleb128 0xb
 7762 007b 0B       		.uleb128 0xb
 7763 007c 49       		.uleb128 0x49
 7764 007d 13       		.uleb128 0x13
 7765 007e 00       		.byte	0
 7766 007f 00       		.byte	0
 7767 0080 0B       		.uleb128 0xb
 7768 0081 15       		.uleb128 0x15
 7769 0082 01       		.byte	0x1
 7770 0083 27       		.uleb128 0x27
 7771 0084 0C       		.uleb128 0xc
 7772 0085 01       		.uleb128 0x1
 7773 0086 13       		.uleb128 0x13
ARM GAS  C:\Users\claym\AppData\Local\Temp\cc2sTfd9.s 			page 165


 7774 0087 00       		.byte	0
 7775 0088 00       		.byte	0
 7776 0089 0C       		.uleb128 0xc
 7777 008a 05       		.uleb128 0x5
 7778 008b 00       		.byte	0
 7779 008c 49       		.uleb128 0x49
 7780 008d 13       		.uleb128 0x13
 7781 008e 00       		.byte	0
 7782 008f 00       		.byte	0
 7783 0090 0D       		.uleb128 0xd
 7784 0091 0D       		.uleb128 0xd
 7785 0092 00       		.byte	0
 7786 0093 03       		.uleb128 0x3
 7787 0094 0E       		.uleb128 0xe
 7788 0095 3A       		.uleb128 0x3a
 7789 0096 0B       		.uleb128 0xb
 7790 0097 3B       		.uleb128 0x3b
 7791 0098 0B       		.uleb128 0xb
 7792 0099 49       		.uleb128 0x49
 7793 009a 13       		.uleb128 0x13
 7794 009b 38       		.uleb128 0x38
 7795 009c 0A       		.uleb128 0xa
 7796 009d 00       		.byte	0
 7797 009e 00       		.byte	0
 7798 009f 0E       		.uleb128 0xe
 7799 00a0 15       		.uleb128 0x15
 7800 00a1 00       		.byte	0
 7801 00a2 27       		.uleb128 0x27
 7802 00a3 0C       		.uleb128 0xc
 7803 00a4 49       		.uleb128 0x49
 7804 00a5 13       		.uleb128 0x13
 7805 00a6 00       		.byte	0
 7806 00a7 00       		.byte	0
 7807 00a8 0F       		.uleb128 0xf
 7808 00a9 15       		.uleb128 0x15
 7809 00aa 01       		.byte	0x1
 7810 00ab 27       		.uleb128 0x27
 7811 00ac 0C       		.uleb128 0xc
 7812 00ad 49       		.uleb128 0x49
 7813 00ae 13       		.uleb128 0x13
 7814 00af 01       		.uleb128 0x1
 7815 00b0 13       		.uleb128 0x13
 7816 00b1 00       		.byte	0
 7817 00b2 00       		.byte	0
 7818 00b3 10       		.uleb128 0x10
 7819 00b4 34       		.uleb128 0x34
 7820 00b5 00       		.byte	0
 7821 00b6 03       		.uleb128 0x3
 7822 00b7 0E       		.uleb128 0xe
 7823 00b8 3A       		.uleb128 0x3a
 7824 00b9 0B       		.uleb128 0xb
 7825 00ba 3B       		.uleb128 0x3b
 7826 00bb 0B       		.uleb128 0xb
 7827 00bc 49       		.uleb128 0x49
 7828 00bd 13       		.uleb128 0x13
 7829 00be 3F       		.uleb128 0x3f
 7830 00bf 0C       		.uleb128 0xc
ARM GAS  C:\Users\claym\AppData\Local\Temp\cc2sTfd9.s 			page 166


 7831 00c0 3C       		.uleb128 0x3c
 7832 00c1 0C       		.uleb128 0xc
 7833 00c2 00       		.byte	0
 7834 00c3 00       		.byte	0
 7835 00c4 11       		.uleb128 0x11
 7836 00c5 13       		.uleb128 0x13
 7837 00c6 01       		.byte	0x1
 7838 00c7 0B       		.uleb128 0xb
 7839 00c8 05       		.uleb128 0x5
 7840 00c9 3A       		.uleb128 0x3a
 7841 00ca 0B       		.uleb128 0xb
 7842 00cb 3B       		.uleb128 0x3b
 7843 00cc 0B       		.uleb128 0xb
 7844 00cd 01       		.uleb128 0x1
 7845 00ce 13       		.uleb128 0x13
 7846 00cf 00       		.byte	0
 7847 00d0 00       		.byte	0
 7848 00d1 12       		.uleb128 0x12
 7849 00d2 01       		.uleb128 0x1
 7850 00d3 01       		.byte	0x1
 7851 00d4 49       		.uleb128 0x49
 7852 00d5 13       		.uleb128 0x13
 7853 00d6 01       		.uleb128 0x1
 7854 00d7 13       		.uleb128 0x13
 7855 00d8 00       		.byte	0
 7856 00d9 00       		.byte	0
 7857 00da 13       		.uleb128 0x13
 7858 00db 21       		.uleb128 0x21
 7859 00dc 00       		.byte	0
 7860 00dd 49       		.uleb128 0x49
 7861 00de 13       		.uleb128 0x13
 7862 00df 2F       		.uleb128 0x2f
 7863 00e0 05       		.uleb128 0x5
 7864 00e1 00       		.byte	0
 7865 00e2 00       		.byte	0
 7866 00e3 14       		.uleb128 0x14
 7867 00e4 13       		.uleb128 0x13
 7868 00e5 01       		.byte	0x1
 7869 00e6 0B       		.uleb128 0xb
 7870 00e7 05       		.uleb128 0x5
 7871 00e8 3A       		.uleb128 0x3a
 7872 00e9 0B       		.uleb128 0xb
 7873 00ea 3B       		.uleb128 0x3b
 7874 00eb 05       		.uleb128 0x5
 7875 00ec 01       		.uleb128 0x1
 7876 00ed 13       		.uleb128 0x13
 7877 00ee 00       		.byte	0
 7878 00ef 00       		.byte	0
 7879 00f0 15       		.uleb128 0x15
 7880 00f1 0D       		.uleb128 0xd
 7881 00f2 00       		.byte	0
 7882 00f3 03       		.uleb128 0x3
 7883 00f4 0E       		.uleb128 0xe
 7884 00f5 3A       		.uleb128 0x3a
 7885 00f6 0B       		.uleb128 0xb
 7886 00f7 3B       		.uleb128 0x3b
 7887 00f8 05       		.uleb128 0x5
ARM GAS  C:\Users\claym\AppData\Local\Temp\cc2sTfd9.s 			page 167


 7888 00f9 49       		.uleb128 0x49
 7889 00fa 13       		.uleb128 0x13
 7890 00fb 38       		.uleb128 0x38
 7891 00fc 0A       		.uleb128 0xa
 7892 00fd 00       		.byte	0
 7893 00fe 00       		.byte	0
 7894 00ff 16       		.uleb128 0x16
 7895 0100 16       		.uleb128 0x16
 7896 0101 00       		.byte	0
 7897 0102 03       		.uleb128 0x3
 7898 0103 0E       		.uleb128 0xe
 7899 0104 3A       		.uleb128 0x3a
 7900 0105 0B       		.uleb128 0xb
 7901 0106 3B       		.uleb128 0x3b
 7902 0107 05       		.uleb128 0x5
 7903 0108 49       		.uleb128 0x49
 7904 0109 13       		.uleb128 0x13
 7905 010a 00       		.byte	0
 7906 010b 00       		.byte	0
 7907 010c 17       		.uleb128 0x17
 7908 010d 21       		.uleb128 0x21
 7909 010e 00       		.byte	0
 7910 010f 49       		.uleb128 0x49
 7911 0110 13       		.uleb128 0x13
 7912 0111 2F       		.uleb128 0x2f
 7913 0112 0B       		.uleb128 0xb
 7914 0113 00       		.byte	0
 7915 0114 00       		.byte	0
 7916 0115 18       		.uleb128 0x18
 7917 0116 13       		.uleb128 0x13
 7918 0117 01       		.byte	0x1
 7919 0118 0B       		.uleb128 0xb
 7920 0119 0B       		.uleb128 0xb
 7921 011a 3A       		.uleb128 0x3a
 7922 011b 0B       		.uleb128 0xb
 7923 011c 3B       		.uleb128 0x3b
 7924 011d 0B       		.uleb128 0xb
 7925 011e 01       		.uleb128 0x1
 7926 011f 13       		.uleb128 0x13
 7927 0120 00       		.byte	0
 7928 0121 00       		.byte	0
 7929 0122 19       		.uleb128 0x19
 7930 0123 04       		.uleb128 0x4
 7931 0124 01       		.byte	0x1
 7932 0125 3E       		.uleb128 0x3e
 7933 0126 0B       		.uleb128 0xb
 7934 0127 0B       		.uleb128 0xb
 7935 0128 0B       		.uleb128 0xb
 7936 0129 49       		.uleb128 0x49
 7937 012a 13       		.uleb128 0x13
 7938 012b 3A       		.uleb128 0x3a
 7939 012c 0B       		.uleb128 0xb
 7940 012d 3B       		.uleb128 0x3b
 7941 012e 0B       		.uleb128 0xb
 7942 012f 01       		.uleb128 0x1
 7943 0130 13       		.uleb128 0x13
 7944 0131 00       		.byte	0
ARM GAS  C:\Users\claym\AppData\Local\Temp\cc2sTfd9.s 			page 168


 7945 0132 00       		.byte	0
 7946 0133 1A       		.uleb128 0x1a
 7947 0134 28       		.uleb128 0x28
 7948 0135 00       		.byte	0
 7949 0136 03       		.uleb128 0x3
 7950 0137 0E       		.uleb128 0xe
 7951 0138 1C       		.uleb128 0x1c
 7952 0139 0B       		.uleb128 0xb
 7953 013a 00       		.byte	0
 7954 013b 00       		.byte	0
 7955 013c 1B       		.uleb128 0x1b
 7956 013d 13       		.uleb128 0x13
 7957 013e 00       		.byte	0
 7958 013f 03       		.uleb128 0x3
 7959 0140 0E       		.uleb128 0xe
 7960 0141 3C       		.uleb128 0x3c
 7961 0142 0C       		.uleb128 0xc
 7962 0143 00       		.byte	0
 7963 0144 00       		.byte	0
 7964 0145 1C       		.uleb128 0x1c
 7965 0146 17       		.uleb128 0x17
 7966 0147 01       		.byte	0x1
 7967 0148 0B       		.uleb128 0xb
 7968 0149 0B       		.uleb128 0xb
 7969 014a 3A       		.uleb128 0x3a
 7970 014b 0B       		.uleb128 0xb
 7971 014c 3B       		.uleb128 0x3b
 7972 014d 0B       		.uleb128 0xb
 7973 014e 01       		.uleb128 0x1
 7974 014f 13       		.uleb128 0x13
 7975 0150 00       		.byte	0
 7976 0151 00       		.byte	0
 7977 0152 1D       		.uleb128 0x1d
 7978 0153 0D       		.uleb128 0xd
 7979 0154 00       		.byte	0
 7980 0155 03       		.uleb128 0x3
 7981 0156 0E       		.uleb128 0xe
 7982 0157 3A       		.uleb128 0x3a
 7983 0158 0B       		.uleb128 0xb
 7984 0159 3B       		.uleb128 0x3b
 7985 015a 0B       		.uleb128 0xb
 7986 015b 49       		.uleb128 0x49
 7987 015c 13       		.uleb128 0x13
 7988 015d 00       		.byte	0
 7989 015e 00       		.byte	0
 7990 015f 1E       		.uleb128 0x1e
 7991 0160 0F       		.uleb128 0xf
 7992 0161 00       		.byte	0
 7993 0162 0B       		.uleb128 0xb
 7994 0163 0B       		.uleb128 0xb
 7995 0164 00       		.byte	0
 7996 0165 00       		.byte	0
 7997 0166 1F       		.uleb128 0x1f
 7998 0167 13       		.uleb128 0x13
 7999 0168 01       		.byte	0x1
 8000 0169 03       		.uleb128 0x3
 8001 016a 0E       		.uleb128 0xe
ARM GAS  C:\Users\claym\AppData\Local\Temp\cc2sTfd9.s 			page 169


 8002 016b 0B       		.uleb128 0xb
 8003 016c 05       		.uleb128 0x5
 8004 016d 3A       		.uleb128 0x3a
 8005 016e 0B       		.uleb128 0xb
 8006 016f 3B       		.uleb128 0x3b
 8007 0170 0B       		.uleb128 0xb
 8008 0171 01       		.uleb128 0x1
 8009 0172 13       		.uleb128 0x13
 8010 0173 00       		.byte	0
 8011 0174 00       		.byte	0
 8012 0175 20       		.uleb128 0x20
 8013 0176 15       		.uleb128 0x15
 8014 0177 00       		.byte	0
 8015 0178 27       		.uleb128 0x27
 8016 0179 0C       		.uleb128 0xc
 8017 017a 00       		.byte	0
 8018 017b 00       		.byte	0
 8019 017c 21       		.uleb128 0x21
 8020 017d 13       		.uleb128 0x13
 8021 017e 01       		.byte	0x1
 8022 017f 03       		.uleb128 0x3
 8023 0180 0E       		.uleb128 0xe
 8024 0181 0B       		.uleb128 0xb
 8025 0182 05       		.uleb128 0x5
 8026 0183 3A       		.uleb128 0x3a
 8027 0184 0B       		.uleb128 0xb
 8028 0185 3B       		.uleb128 0x3b
 8029 0186 05       		.uleb128 0x5
 8030 0187 01       		.uleb128 0x1
 8031 0188 13       		.uleb128 0x13
 8032 0189 00       		.byte	0
 8033 018a 00       		.byte	0
 8034 018b 22       		.uleb128 0x22
 8035 018c 13       		.uleb128 0x13
 8036 018d 01       		.byte	0x1
 8037 018e 03       		.uleb128 0x3
 8038 018f 0E       		.uleb128 0xe
 8039 0190 0B       		.uleb128 0xb
 8040 0191 0B       		.uleb128 0xb
 8041 0192 3A       		.uleb128 0x3a
 8042 0193 0B       		.uleb128 0xb
 8043 0194 3B       		.uleb128 0x3b
 8044 0195 05       		.uleb128 0x5
 8045 0196 01       		.uleb128 0x1
 8046 0197 13       		.uleb128 0x13
 8047 0198 00       		.byte	0
 8048 0199 00       		.byte	0
 8049 019a 23       		.uleb128 0x23
 8050 019b 13       		.uleb128 0x13
 8051 019c 01       		.byte	0x1
 8052 019d 0B       		.uleb128 0xb
 8053 019e 0B       		.uleb128 0xb
 8054 019f 3A       		.uleb128 0x3a
 8055 01a0 0B       		.uleb128 0xb
 8056 01a1 3B       		.uleb128 0x3b
 8057 01a2 05       		.uleb128 0x5
 8058 01a3 01       		.uleb128 0x1
ARM GAS  C:\Users\claym\AppData\Local\Temp\cc2sTfd9.s 			page 170


 8059 01a4 13       		.uleb128 0x13
 8060 01a5 00       		.byte	0
 8061 01a6 00       		.byte	0
 8062 01a7 24       		.uleb128 0x24
 8063 01a8 17       		.uleb128 0x17
 8064 01a9 01       		.byte	0x1
 8065 01aa 0B       		.uleb128 0xb
 8066 01ab 0B       		.uleb128 0xb
 8067 01ac 3A       		.uleb128 0x3a
 8068 01ad 0B       		.uleb128 0xb
 8069 01ae 3B       		.uleb128 0x3b
 8070 01af 05       		.uleb128 0x5
 8071 01b0 01       		.uleb128 0x1
 8072 01b1 13       		.uleb128 0x13
 8073 01b2 00       		.byte	0
 8074 01b3 00       		.byte	0
 8075 01b4 25       		.uleb128 0x25
 8076 01b5 0D       		.uleb128 0xd
 8077 01b6 00       		.byte	0
 8078 01b7 03       		.uleb128 0x3
 8079 01b8 0E       		.uleb128 0xe
 8080 01b9 3A       		.uleb128 0x3a
 8081 01ba 0B       		.uleb128 0xb
 8082 01bb 3B       		.uleb128 0x3b
 8083 01bc 05       		.uleb128 0x5
 8084 01bd 49       		.uleb128 0x49
 8085 01be 13       		.uleb128 0x13
 8086 01bf 00       		.byte	0
 8087 01c0 00       		.byte	0
 8088 01c1 26       		.uleb128 0x26
 8089 01c2 34       		.uleb128 0x34
 8090 01c3 00       		.byte	0
 8091 01c4 03       		.uleb128 0x3
 8092 01c5 0E       		.uleb128 0xe
 8093 01c6 3A       		.uleb128 0x3a
 8094 01c7 0B       		.uleb128 0xb
 8095 01c8 3B       		.uleb128 0x3b
 8096 01c9 05       		.uleb128 0x5
 8097 01ca 49       		.uleb128 0x49
 8098 01cb 13       		.uleb128 0x13
 8099 01cc 3F       		.uleb128 0x3f
 8100 01cd 0C       		.uleb128 0xc
 8101 01ce 3C       		.uleb128 0x3c
 8102 01cf 0C       		.uleb128 0xc
 8103 01d0 00       		.byte	0
 8104 01d1 00       		.byte	0
 8105 01d2 27       		.uleb128 0x27
 8106 01d3 34       		.uleb128 0x34
 8107 01d4 00       		.byte	0
 8108 01d5 03       		.uleb128 0x3
 8109 01d6 0E       		.uleb128 0xe
 8110 01d7 3A       		.uleb128 0x3a
 8111 01d8 0B       		.uleb128 0xb
 8112 01d9 3B       		.uleb128 0x3b
 8113 01da 0B       		.uleb128 0xb
 8114 01db 49       		.uleb128 0x49
 8115 01dc 13       		.uleb128 0x13
ARM GAS  C:\Users\claym\AppData\Local\Temp\cc2sTfd9.s 			page 171


 8116 01dd 02       		.uleb128 0x2
 8117 01de 0A       		.uleb128 0xa
 8118 01df 00       		.byte	0
 8119 01e0 00       		.byte	0
 8120 01e1 28       		.uleb128 0x28
 8121 01e2 34       		.uleb128 0x34
 8122 01e3 00       		.byte	0
 8123 01e4 03       		.uleb128 0x3
 8124 01e5 0E       		.uleb128 0xe
 8125 01e6 3A       		.uleb128 0x3a
 8126 01e7 0B       		.uleb128 0xb
 8127 01e8 3B       		.uleb128 0x3b
 8128 01e9 0B       		.uleb128 0xb
 8129 01ea 49       		.uleb128 0x49
 8130 01eb 13       		.uleb128 0x13
 8131 01ec 3F       		.uleb128 0x3f
 8132 01ed 0C       		.uleb128 0xc
 8133 01ee 02       		.uleb128 0x2
 8134 01ef 0A       		.uleb128 0xa
 8135 01f0 00       		.byte	0
 8136 01f1 00       		.byte	0
 8137 01f2 29       		.uleb128 0x29
 8138 01f3 2E       		.uleb128 0x2e
 8139 01f4 01       		.byte	0x1
 8140 01f5 3F       		.uleb128 0x3f
 8141 01f6 0C       		.uleb128 0xc
 8142 01f7 03       		.uleb128 0x3
 8143 01f8 0E       		.uleb128 0xe
 8144 01f9 3A       		.uleb128 0x3a
 8145 01fa 0B       		.uleb128 0xb
 8146 01fb 3B       		.uleb128 0x3b
 8147 01fc 05       		.uleb128 0x5
 8148 01fd 27       		.uleb128 0x27
 8149 01fe 0C       		.uleb128 0xc
 8150 01ff 49       		.uleb128 0x49
 8151 0200 13       		.uleb128 0x13
 8152 0201 11       		.uleb128 0x11
 8153 0202 01       		.uleb128 0x1
 8154 0203 12       		.uleb128 0x12
 8155 0204 01       		.uleb128 0x1
 8156 0205 40       		.uleb128 0x40
 8157 0206 0A       		.uleb128 0xa
 8158 0207 9742     		.uleb128 0x2117
 8159 0209 0C       		.uleb128 0xc
 8160 020a 01       		.uleb128 0x1
 8161 020b 13       		.uleb128 0x13
 8162 020c 00       		.byte	0
 8163 020d 00       		.byte	0
 8164 020e 2A       		.uleb128 0x2a
 8165 020f 05       		.uleb128 0x5
 8166 0210 00       		.byte	0
 8167 0211 03       		.uleb128 0x3
 8168 0212 0E       		.uleb128 0xe
 8169 0213 3A       		.uleb128 0x3a
 8170 0214 0B       		.uleb128 0xb
 8171 0215 3B       		.uleb128 0x3b
 8172 0216 05       		.uleb128 0x5
ARM GAS  C:\Users\claym\AppData\Local\Temp\cc2sTfd9.s 			page 172


 8173 0217 49       		.uleb128 0x49
 8174 0218 13       		.uleb128 0x13
 8175 0219 02       		.uleb128 0x2
 8176 021a 06       		.uleb128 0x6
 8177 021b 00       		.byte	0
 8178 021c 00       		.byte	0
 8179 021d 2B       		.uleb128 0x2b
 8180 021e 2E       		.uleb128 0x2e
 8181 021f 01       		.byte	0x1
 8182 0220 3F       		.uleb128 0x3f
 8183 0221 0C       		.uleb128 0xc
 8184 0222 03       		.uleb128 0x3
 8185 0223 0E       		.uleb128 0xe
 8186 0224 3A       		.uleb128 0x3a
 8187 0225 0B       		.uleb128 0xb
 8188 0226 3B       		.uleb128 0x3b
 8189 0227 05       		.uleb128 0x5
 8190 0228 27       		.uleb128 0x27
 8191 0229 0C       		.uleb128 0xc
 8192 022a 11       		.uleb128 0x11
 8193 022b 01       		.uleb128 0x1
 8194 022c 12       		.uleb128 0x12
 8195 022d 01       		.uleb128 0x1
 8196 022e 40       		.uleb128 0x40
 8197 022f 06       		.uleb128 0x6
 8198 0230 9642     		.uleb128 0x2116
 8199 0232 0C       		.uleb128 0xc
 8200 0233 01       		.uleb128 0x1
 8201 0234 13       		.uleb128 0x13
 8202 0235 00       		.byte	0
 8203 0236 00       		.byte	0
 8204 0237 2C       		.uleb128 0x2c
 8205 0238 34       		.uleb128 0x34
 8206 0239 00       		.byte	0
 8207 023a 03       		.uleb128 0x3
 8208 023b 0E       		.uleb128 0xe
 8209 023c 3A       		.uleb128 0x3a
 8210 023d 0B       		.uleb128 0xb
 8211 023e 3B       		.uleb128 0x3b
 8212 023f 05       		.uleb128 0x5
 8213 0240 49       		.uleb128 0x49
 8214 0241 13       		.uleb128 0x13
 8215 0242 02       		.uleb128 0x2
 8216 0243 06       		.uleb128 0x6
 8217 0244 00       		.byte	0
 8218 0245 00       		.byte	0
 8219 0246 2D       		.uleb128 0x2d
 8220 0247 898201   		.uleb128 0x4109
 8221 024a 01       		.byte	0x1
 8222 024b 11       		.uleb128 0x11
 8223 024c 01       		.uleb128 0x1
 8224 024d 31       		.uleb128 0x31
 8225 024e 13       		.uleb128 0x13
 8226 024f 01       		.uleb128 0x1
 8227 0250 13       		.uleb128 0x13
 8228 0251 00       		.byte	0
 8229 0252 00       		.byte	0
ARM GAS  C:\Users\claym\AppData\Local\Temp\cc2sTfd9.s 			page 173


 8230 0253 2E       		.uleb128 0x2e
 8231 0254 8A8201   		.uleb128 0x410a
 8232 0257 00       		.byte	0
 8233 0258 02       		.uleb128 0x2
 8234 0259 0A       		.uleb128 0xa
 8235 025a 9142     		.uleb128 0x2111
 8236 025c 0A       		.uleb128 0xa
 8237 025d 00       		.byte	0
 8238 025e 00       		.byte	0
 8239 025f 2F       		.uleb128 0x2f
 8240 0260 898201   		.uleb128 0x4109
 8241 0263 01       		.byte	0x1
 8242 0264 11       		.uleb128 0x11
 8243 0265 01       		.uleb128 0x1
 8244 0266 01       		.uleb128 0x1
 8245 0267 13       		.uleb128 0x13
 8246 0268 00       		.byte	0
 8247 0269 00       		.byte	0
 8248 026a 30       		.uleb128 0x30
 8249 026b 898201   		.uleb128 0x4109
 8250 026e 01       		.byte	0x1
 8251 026f 11       		.uleb128 0x11
 8252 0270 01       		.uleb128 0x1
 8253 0271 31       		.uleb128 0x31
 8254 0272 13       		.uleb128 0x13
 8255 0273 00       		.byte	0
 8256 0274 00       		.byte	0
 8257 0275 31       		.uleb128 0x31
 8258 0276 2E       		.uleb128 0x2e
 8259 0277 01       		.byte	0x1
 8260 0278 3F       		.uleb128 0x3f
 8261 0279 0C       		.uleb128 0xc
 8262 027a 03       		.uleb128 0x3
 8263 027b 0E       		.uleb128 0xe
 8264 027c 3A       		.uleb128 0x3a
 8265 027d 0B       		.uleb128 0xb
 8266 027e 3B       		.uleb128 0x3b
 8267 027f 05       		.uleb128 0x5
 8268 0280 27       		.uleb128 0x27
 8269 0281 0C       		.uleb128 0xc
 8270 0282 49       		.uleb128 0x49
 8271 0283 13       		.uleb128 0x13
 8272 0284 11       		.uleb128 0x11
 8273 0285 01       		.uleb128 0x1
 8274 0286 12       		.uleb128 0x12
 8275 0287 01       		.uleb128 0x1
 8276 0288 40       		.uleb128 0x40
 8277 0289 06       		.uleb128 0x6
 8278 028a 9742     		.uleb128 0x2117
 8279 028c 0C       		.uleb128 0xc
 8280 028d 01       		.uleb128 0x1
 8281 028e 13       		.uleb128 0x13
 8282 028f 00       		.byte	0
 8283 0290 00       		.byte	0
 8284 0291 32       		.uleb128 0x32
 8285 0292 05       		.uleb128 0x5
 8286 0293 00       		.byte	0
ARM GAS  C:\Users\claym\AppData\Local\Temp\cc2sTfd9.s 			page 174


 8287 0294 03       		.uleb128 0x3
 8288 0295 08       		.uleb128 0x8
 8289 0296 3A       		.uleb128 0x3a
 8290 0297 0B       		.uleb128 0xb
 8291 0298 3B       		.uleb128 0x3b
 8292 0299 05       		.uleb128 0x5
 8293 029a 49       		.uleb128 0x49
 8294 029b 13       		.uleb128 0x13
 8295 029c 02       		.uleb128 0x2
 8296 029d 06       		.uleb128 0x6
 8297 029e 00       		.byte	0
 8298 029f 00       		.byte	0
 8299 02a0 33       		.uleb128 0x33
 8300 02a1 1D       		.uleb128 0x1d
 8301 02a2 01       		.byte	0x1
 8302 02a3 31       		.uleb128 0x31
 8303 02a4 13       		.uleb128 0x13
 8304 02a5 11       		.uleb128 0x11
 8305 02a6 01       		.uleb128 0x1
 8306 02a7 12       		.uleb128 0x12
 8307 02a8 01       		.uleb128 0x1
 8308 02a9 58       		.uleb128 0x58
 8309 02aa 0B       		.uleb128 0xb
 8310 02ab 59       		.uleb128 0x59
 8311 02ac 05       		.uleb128 0x5
 8312 02ad 01       		.uleb128 0x1
 8313 02ae 13       		.uleb128 0x13
 8314 02af 00       		.byte	0
 8315 02b0 00       		.byte	0
 8316 02b1 34       		.uleb128 0x34
 8317 02b2 05       		.uleb128 0x5
 8318 02b3 00       		.byte	0
 8319 02b4 31       		.uleb128 0x31
 8320 02b5 13       		.uleb128 0x13
 8321 02b6 02       		.uleb128 0x2
 8322 02b7 06       		.uleb128 0x6
 8323 02b8 00       		.byte	0
 8324 02b9 00       		.byte	0
 8325 02ba 35       		.uleb128 0x35
 8326 02bb 2E       		.uleb128 0x2e
 8327 02bc 01       		.byte	0x1
 8328 02bd 3F       		.uleb128 0x3f
 8329 02be 0C       		.uleb128 0xc
 8330 02bf 03       		.uleb128 0x3
 8331 02c0 0E       		.uleb128 0xe
 8332 02c1 3A       		.uleb128 0x3a
 8333 02c2 0B       		.uleb128 0xb
 8334 02c3 3B       		.uleb128 0x3b
 8335 02c4 05       		.uleb128 0x5
 8336 02c5 27       		.uleb128 0x27
 8337 02c6 0C       		.uleb128 0xc
 8338 02c7 49       		.uleb128 0x49
 8339 02c8 13       		.uleb128 0x13
 8340 02c9 20       		.uleb128 0x20
 8341 02ca 0B       		.uleb128 0xb
 8342 02cb 01       		.uleb128 0x1
 8343 02cc 13       		.uleb128 0x13
ARM GAS  C:\Users\claym\AppData\Local\Temp\cc2sTfd9.s 			page 175


 8344 02cd 00       		.byte	0
 8345 02ce 00       		.byte	0
 8346 02cf 36       		.uleb128 0x36
 8347 02d0 05       		.uleb128 0x5
 8348 02d1 00       		.byte	0
 8349 02d2 03       		.uleb128 0x3
 8350 02d3 08       		.uleb128 0x8
 8351 02d4 3A       		.uleb128 0x3a
 8352 02d5 0B       		.uleb128 0xb
 8353 02d6 3B       		.uleb128 0x3b
 8354 02d7 05       		.uleb128 0x5
 8355 02d8 49       		.uleb128 0x49
 8356 02d9 13       		.uleb128 0x13
 8357 02da 00       		.byte	0
 8358 02db 00       		.byte	0
 8359 02dc 37       		.uleb128 0x37
 8360 02dd 05       		.uleb128 0x5
 8361 02de 00       		.byte	0
 8362 02df 03       		.uleb128 0x3
 8363 02e0 0E       		.uleb128 0xe
 8364 02e1 3A       		.uleb128 0x3a
 8365 02e2 0B       		.uleb128 0xb
 8366 02e3 3B       		.uleb128 0x3b
 8367 02e4 05       		.uleb128 0x5
 8368 02e5 49       		.uleb128 0x49
 8369 02e6 13       		.uleb128 0x13
 8370 02e7 00       		.byte	0
 8371 02e8 00       		.byte	0
 8372 02e9 38       		.uleb128 0x38
 8373 02ea 2E       		.uleb128 0x2e
 8374 02eb 01       		.byte	0x1
 8375 02ec 3F       		.uleb128 0x3f
 8376 02ed 0C       		.uleb128 0xc
 8377 02ee 03       		.uleb128 0x3
 8378 02ef 0E       		.uleb128 0xe
 8379 02f0 3A       		.uleb128 0x3a
 8380 02f1 0B       		.uleb128 0xb
 8381 02f2 3B       		.uleb128 0x3b
 8382 02f3 0B       		.uleb128 0xb
 8383 02f4 27       		.uleb128 0x27
 8384 02f5 0C       		.uleb128 0xc
 8385 02f6 49       		.uleb128 0x49
 8386 02f7 13       		.uleb128 0x13
 8387 02f8 11       		.uleb128 0x11
 8388 02f9 01       		.uleb128 0x1
 8389 02fa 12       		.uleb128 0x12
 8390 02fb 01       		.uleb128 0x1
 8391 02fc 40       		.uleb128 0x40
 8392 02fd 06       		.uleb128 0x6
 8393 02fe 9742     		.uleb128 0x2117
 8394 0300 0C       		.uleb128 0xc
 8395 0301 01       		.uleb128 0x1
 8396 0302 13       		.uleb128 0x13
 8397 0303 00       		.byte	0
 8398 0304 00       		.byte	0
 8399 0305 39       		.uleb128 0x39
 8400 0306 05       		.uleb128 0x5
ARM GAS  C:\Users\claym\AppData\Local\Temp\cc2sTfd9.s 			page 176


 8401 0307 00       		.byte	0
 8402 0308 03       		.uleb128 0x3
 8403 0309 0E       		.uleb128 0xe
 8404 030a 3A       		.uleb128 0x3a
 8405 030b 0B       		.uleb128 0xb
 8406 030c 3B       		.uleb128 0x3b
 8407 030d 0B       		.uleb128 0xb
 8408 030e 49       		.uleb128 0x49
 8409 030f 13       		.uleb128 0x13
 8410 0310 02       		.uleb128 0x2
 8411 0311 06       		.uleb128 0x6
 8412 0312 00       		.byte	0
 8413 0313 00       		.byte	0
 8414 0314 3A       		.uleb128 0x3a
 8415 0315 05       		.uleb128 0x5
 8416 0316 00       		.byte	0
 8417 0317 03       		.uleb128 0x3
 8418 0318 08       		.uleb128 0x8
 8419 0319 3A       		.uleb128 0x3a
 8420 031a 0B       		.uleb128 0xb
 8421 031b 3B       		.uleb128 0x3b
 8422 031c 0B       		.uleb128 0xb
 8423 031d 49       		.uleb128 0x49
 8424 031e 13       		.uleb128 0x13
 8425 031f 02       		.uleb128 0x2
 8426 0320 06       		.uleb128 0x6
 8427 0321 00       		.byte	0
 8428 0322 00       		.byte	0
 8429 0323 3B       		.uleb128 0x3b
 8430 0324 34       		.uleb128 0x34
 8431 0325 00       		.byte	0
 8432 0326 03       		.uleb128 0x3
 8433 0327 0E       		.uleb128 0xe
 8434 0328 3A       		.uleb128 0x3a
 8435 0329 0B       		.uleb128 0xb
 8436 032a 3B       		.uleb128 0x3b
 8437 032b 0B       		.uleb128 0xb
 8438 032c 49       		.uleb128 0x49
 8439 032d 13       		.uleb128 0x13
 8440 032e 02       		.uleb128 0x2
 8441 032f 06       		.uleb128 0x6
 8442 0330 00       		.byte	0
 8443 0331 00       		.byte	0
 8444 0332 3C       		.uleb128 0x3c
 8445 0333 1D       		.uleb128 0x1d
 8446 0334 00       		.byte	0
 8447 0335 31       		.uleb128 0x31
 8448 0336 13       		.uleb128 0x13
 8449 0337 11       		.uleb128 0x11
 8450 0338 01       		.uleb128 0x1
 8451 0339 12       		.uleb128 0x12
 8452 033a 01       		.uleb128 0x1
 8453 033b 58       		.uleb128 0x58
 8454 033c 0B       		.uleb128 0xb
 8455 033d 59       		.uleb128 0x59
 8456 033e 0B       		.uleb128 0xb
 8457 033f 00       		.byte	0
ARM GAS  C:\Users\claym\AppData\Local\Temp\cc2sTfd9.s 			page 177


 8458 0340 00       		.byte	0
 8459 0341 3D       		.uleb128 0x3d
 8460 0342 898201   		.uleb128 0x4109
 8461 0345 00       		.byte	0
 8462 0346 11       		.uleb128 0x11
 8463 0347 01       		.uleb128 0x1
 8464 0348 31       		.uleb128 0x31
 8465 0349 13       		.uleb128 0x13
 8466 034a 00       		.byte	0
 8467 034b 00       		.byte	0
 8468 034c 3E       		.uleb128 0x3e
 8469 034d 05       		.uleb128 0x5
 8470 034e 00       		.byte	0
 8471 034f 03       		.uleb128 0x3
 8472 0350 0E       		.uleb128 0xe
 8473 0351 3A       		.uleb128 0x3a
 8474 0352 0B       		.uleb128 0xb
 8475 0353 3B       		.uleb128 0x3b
 8476 0354 0B       		.uleb128 0xb
 8477 0355 49       		.uleb128 0x49
 8478 0356 13       		.uleb128 0x13
 8479 0357 02       		.uleb128 0x2
 8480 0358 0A       		.uleb128 0xa
 8481 0359 00       		.byte	0
 8482 035a 00       		.byte	0
 8483 035b 3F       		.uleb128 0x3f
 8484 035c 2E       		.uleb128 0x2e
 8485 035d 01       		.byte	0x1
 8486 035e 3F       		.uleb128 0x3f
 8487 035f 0C       		.uleb128 0xc
 8488 0360 03       		.uleb128 0x3
 8489 0361 0E       		.uleb128 0xe
 8490 0362 3A       		.uleb128 0x3a
 8491 0363 0B       		.uleb128 0xb
 8492 0364 3B       		.uleb128 0x3b
 8493 0365 0B       		.uleb128 0xb
 8494 0366 27       		.uleb128 0x27
 8495 0367 0C       		.uleb128 0xc
 8496 0368 49       		.uleb128 0x49
 8497 0369 13       		.uleb128 0x13
 8498 036a 11       		.uleb128 0x11
 8499 036b 01       		.uleb128 0x1
 8500 036c 12       		.uleb128 0x12
 8501 036d 01       		.uleb128 0x1
 8502 036e 40       		.uleb128 0x40
 8503 036f 06       		.uleb128 0x6
 8504 0370 9642     		.uleb128 0x2116
 8505 0372 0C       		.uleb128 0xc
 8506 0373 01       		.uleb128 0x1
 8507 0374 13       		.uleb128 0x13
 8508 0375 00       		.byte	0
 8509 0376 00       		.byte	0
 8510 0377 40       		.uleb128 0x40
 8511 0378 34       		.uleb128 0x34
 8512 0379 00       		.byte	0
 8513 037a 03       		.uleb128 0x3
 8514 037b 0E       		.uleb128 0xe
ARM GAS  C:\Users\claym\AppData\Local\Temp\cc2sTfd9.s 			page 178


 8515 037c 3A       		.uleb128 0x3a
 8516 037d 0B       		.uleb128 0xb
 8517 037e 3B       		.uleb128 0x3b
 8518 037f 0B       		.uleb128 0xb
 8519 0380 49       		.uleb128 0x49
 8520 0381 13       		.uleb128 0x13
 8521 0382 1C       		.uleb128 0x1c
 8522 0383 0B       		.uleb128 0xb
 8523 0384 00       		.byte	0
 8524 0385 00       		.byte	0
 8525 0386 41       		.uleb128 0x41
 8526 0387 34       		.uleb128 0x34
 8527 0388 00       		.byte	0
 8528 0389 03       		.uleb128 0x3
 8529 038a 08       		.uleb128 0x8
 8530 038b 3A       		.uleb128 0x3a
 8531 038c 0B       		.uleb128 0xb
 8532 038d 3B       		.uleb128 0x3b
 8533 038e 0B       		.uleb128 0xb
 8534 038f 49       		.uleb128 0x49
 8535 0390 13       		.uleb128 0x13
 8536 0391 02       		.uleb128 0x2
 8537 0392 06       		.uleb128 0x6
 8538 0393 00       		.byte	0
 8539 0394 00       		.byte	0
 8540 0395 42       		.uleb128 0x42
 8541 0396 2E       		.uleb128 0x2e
 8542 0397 00       		.byte	0
 8543 0398 03       		.uleb128 0x3
 8544 0399 0E       		.uleb128 0xe
 8545 039a 3A       		.uleb128 0x3a
 8546 039b 0B       		.uleb128 0xb
 8547 039c 3B       		.uleb128 0x3b
 8548 039d 05       		.uleb128 0x5
 8549 039e 27       		.uleb128 0x27
 8550 039f 0C       		.uleb128 0xc
 8551 03a0 20       		.uleb128 0x20
 8552 03a1 0B       		.uleb128 0xb
 8553 03a2 00       		.byte	0
 8554 03a3 00       		.byte	0
 8555 03a4 43       		.uleb128 0x43
 8556 03a5 2E       		.uleb128 0x2e
 8557 03a6 01       		.byte	0x1
 8558 03a7 31       		.uleb128 0x31
 8559 03a8 13       		.uleb128 0x13
 8560 03a9 11       		.uleb128 0x11
 8561 03aa 01       		.uleb128 0x1
 8562 03ab 12       		.uleb128 0x12
 8563 03ac 01       		.uleb128 0x1
 8564 03ad 40       		.uleb128 0x40
 8565 03ae 0A       		.uleb128 0xa
 8566 03af 9742     		.uleb128 0x2117
 8567 03b1 0C       		.uleb128 0xc
 8568 03b2 01       		.uleb128 0x1
 8569 03b3 13       		.uleb128 0x13
 8570 03b4 00       		.byte	0
 8571 03b5 00       		.byte	0
ARM GAS  C:\Users\claym\AppData\Local\Temp\cc2sTfd9.s 			page 179


 8572 03b6 44       		.uleb128 0x44
 8573 03b7 05       		.uleb128 0x5
 8574 03b8 00       		.byte	0
 8575 03b9 31       		.uleb128 0x31
 8576 03ba 13       		.uleb128 0x13
 8577 03bb 02       		.uleb128 0x2
 8578 03bc 0A       		.uleb128 0xa
 8579 03bd 00       		.byte	0
 8580 03be 00       		.byte	0
 8581 03bf 45       		.uleb128 0x45
 8582 03c0 2E       		.uleb128 0x2e
 8583 03c1 01       		.byte	0x1
 8584 03c2 31       		.uleb128 0x31
 8585 03c3 13       		.uleb128 0x13
 8586 03c4 11       		.uleb128 0x11
 8587 03c5 01       		.uleb128 0x1
 8588 03c6 12       		.uleb128 0x12
 8589 03c7 01       		.uleb128 0x1
 8590 03c8 40       		.uleb128 0x40
 8591 03c9 06       		.uleb128 0x6
 8592 03ca 9742     		.uleb128 0x2117
 8593 03cc 0C       		.uleb128 0xc
 8594 03cd 01       		.uleb128 0x1
 8595 03ce 13       		.uleb128 0x13
 8596 03cf 00       		.byte	0
 8597 03d0 00       		.byte	0
 8598 03d1 46       		.uleb128 0x46
 8599 03d2 0B       		.uleb128 0xb
 8600 03d3 01       		.byte	0x1
 8601 03d4 31       		.uleb128 0x31
 8602 03d5 13       		.uleb128 0x13
 8603 03d6 11       		.uleb128 0x11
 8604 03d7 01       		.uleb128 0x1
 8605 03d8 12       		.uleb128 0x12
 8606 03d9 01       		.uleb128 0x1
 8607 03da 00       		.byte	0
 8608 03db 00       		.byte	0
 8609 03dc 47       		.uleb128 0x47
 8610 03dd 05       		.uleb128 0x5
 8611 03de 00       		.byte	0
 8612 03df 31       		.uleb128 0x31
 8613 03e0 13       		.uleb128 0x13
 8614 03e1 00       		.byte	0
 8615 03e2 00       		.byte	0
 8616 03e3 48       		.uleb128 0x48
 8617 03e4 2E       		.uleb128 0x2e
 8618 03e5 00       		.byte	0
 8619 03e6 3F       		.uleb128 0x3f
 8620 03e7 0C       		.uleb128 0xc
 8621 03e8 3C       		.uleb128 0x3c
 8622 03e9 0C       		.uleb128 0xc
 8623 03ea 8740     		.uleb128 0x2007
 8624 03ec 0E       		.uleb128 0xe
 8625 03ed 03       		.uleb128 0x3
 8626 03ee 0E       		.uleb128 0xe
 8627 03ef 3A       		.uleb128 0x3a
 8628 03f0 0B       		.uleb128 0xb
ARM GAS  C:\Users\claym\AppData\Local\Temp\cc2sTfd9.s 			page 180


 8629 03f1 3B       		.uleb128 0x3b
 8630 03f2 0B       		.uleb128 0xb
 8631 03f3 00       		.byte	0
 8632 03f4 00       		.byte	0
 8633 03f5 49       		.uleb128 0x49
 8634 03f6 2E       		.uleb128 0x2e
 8635 03f7 00       		.byte	0
 8636 03f8 3F       		.uleb128 0x3f
 8637 03f9 0C       		.uleb128 0xc
 8638 03fa 3C       		.uleb128 0x3c
 8639 03fb 0C       		.uleb128 0xc
 8640 03fc 8740     		.uleb128 0x2007
 8641 03fe 0E       		.uleb128 0xe
 8642 03ff 03       		.uleb128 0x3
 8643 0400 0E       		.uleb128 0xe
 8644 0401 3A       		.uleb128 0x3a
 8645 0402 0B       		.uleb128 0xb
 8646 0403 3B       		.uleb128 0x3b
 8647 0404 0B       		.uleb128 0xb
 8648 0405 8740     		.uleb128 0x2007
 8649 0407 0E       		.uleb128 0xe
 8650 0408 00       		.byte	0
 8651 0409 00       		.byte	0
 8652 040a 00       		.byte	0
 8653              		.section	.debug_loc,"",%progbits
 8654              	.Ldebug_loc0:
 8655              	.LLST89:
 8656 0000 100A0000 		.4byte	.LVL311-.Ltext0
 8657 0004 120A0000 		.4byte	.LVL312-.Ltext0
 8658 0008 0100     		.2byte	0x1
 8659 000a 50       		.byte	0x50
 8660 000b 120A0000 		.4byte	.LVL312-.Ltext0
 8661 000f 140A0000 		.4byte	.LFE66-.Ltext0
 8662 0013 0400     		.2byte	0x4
 8663 0015 F3       		.byte	0xf3
 8664 0016 01       		.uleb128 0x1
 8665 0017 50       		.byte	0x50
 8666 0018 9F       		.byte	0x9f
 8667 0019 00000000 		.4byte	0
 8668 001d 00000000 		.4byte	0
 8669              	.LLST88:
 8670 0021 0C0A0000 		.4byte	.LVL309-.Ltext0
 8671 0025 0E0A0000 		.4byte	.LVL310-.Ltext0
 8672 0029 0100     		.2byte	0x1
 8673 002b 50       		.byte	0x50
 8674 002c 0E0A0000 		.4byte	.LVL310-.Ltext0
 8675 0030 100A0000 		.4byte	.LFE65-.Ltext0
 8676 0034 0400     		.2byte	0x4
 8677 0036 F3       		.byte	0xf3
 8678 0037 01       		.uleb128 0x1
 8679 0038 50       		.byte	0x50
 8680 0039 9F       		.byte	0x9f
 8681 003a 00000000 		.4byte	0
 8682 003e 00000000 		.4byte	0
 8683              	.LLST82:
 8684 0042 5C080000 		.4byte	.LFB64-.Ltext0
 8685 0046 5E080000 		.4byte	.LCFI13-.Ltext0
ARM GAS  C:\Users\claym\AppData\Local\Temp\cc2sTfd9.s 			page 181


 8686 004a 0200     		.2byte	0x2
 8687 004c 7D       		.byte	0x7d
 8688 004d 00       		.sleb128 0
 8689 004e 5E080000 		.4byte	.LCFI13-.Ltext0
 8690 0052 0C0A0000 		.4byte	.LFE64-.Ltext0
 8691 0056 0200     		.2byte	0x2
 8692 0058 7D       		.byte	0x7d
 8693 0059 20       		.sleb128 32
 8694 005a 00000000 		.4byte	0
 8695 005e 00000000 		.4byte	0
 8696              	.LLST83:
 8697 0062 5C080000 		.4byte	.LVL281-.Ltext0
 8698 0066 76080000 		.4byte	.LVL285-.Ltext0
 8699 006a 0100     		.2byte	0x1
 8700 006c 50       		.byte	0x50
 8701 006d 76080000 		.4byte	.LVL285-.Ltext0
 8702 0071 AA080000 		.4byte	.LVL289-.Ltext0
 8703 0075 0100     		.2byte	0x1
 8704 0077 54       		.byte	0x54
 8705 0078 AA080000 		.4byte	.LVL289-.Ltext0
 8706 007c AC080000 		.4byte	.LVL291-.Ltext0
 8707 0080 0400     		.2byte	0x4
 8708 0082 F3       		.byte	0xf3
 8709 0083 01       		.uleb128 0x1
 8710 0084 50       		.byte	0x50
 8711 0085 9F       		.byte	0x9f
 8712 0086 AC080000 		.4byte	.LVL291-.Ltext0
 8713 008a 0C0A0000 		.4byte	.LFE64-.Ltext0
 8714 008e 0100     		.2byte	0x1
 8715 0090 54       		.byte	0x54
 8716 0091 00000000 		.4byte	0
 8717 0095 00000000 		.4byte	0
 8718              	.LLST84:
 8719 0099 5C080000 		.4byte	.LVL281-.Ltext0
 8720 009d A6080000 		.4byte	.LVL288-.Ltext0
 8721 00a1 0200     		.2byte	0x2
 8722 00a3 30       		.byte	0x30
 8723 00a4 9F       		.byte	0x9f
 8724 00a5 AC080000 		.4byte	.LVL291-.Ltext0
 8725 00a9 40090000 		.4byte	.LVL294-.Ltext0
 8726 00ad 0200     		.2byte	0x2
 8727 00af 30       		.byte	0x30
 8728 00b0 9F       		.byte	0x9f
 8729 00b1 44090000 		.4byte	.LVL296-.Ltext0
 8730 00b5 5A090000 		.4byte	.LVL297-.Ltext0
 8731 00b9 0200     		.2byte	0x2
 8732 00bb 30       		.byte	0x30
 8733 00bc 9F       		.byte	0x9f
 8734 00bd 5A090000 		.4byte	.LVL297-.Ltext0
 8735 00c1 0C0A0000 		.4byte	.LFE64-.Ltext0
 8736 00c5 0100     		.2byte	0x1
 8737 00c7 55       		.byte	0x55
 8738 00c8 00000000 		.4byte	0
 8739 00cc 00000000 		.4byte	0
 8740              	.LLST85:
 8741 00d0 68080000 		.4byte	.LVL282-.Ltext0
 8742 00d4 84080000 		.4byte	.LVL286-.Ltext0
ARM GAS  C:\Users\claym\AppData\Local\Temp\cc2sTfd9.s 			page 182


 8743 00d8 0100     		.2byte	0x1
 8744 00da 52       		.byte	0x52
 8745 00db AC080000 		.4byte	.LVL291-.Ltext0
 8746 00df 1C090000 		.4byte	.LVL292-.Ltext0
 8747 00e3 0100     		.2byte	0x1
 8748 00e5 52       		.byte	0x52
 8749 00e6 44090000 		.4byte	.LVL296-.Ltext0
 8750 00ea 76090000 		.4byte	.LVL301-.Ltext0
 8751 00ee 0100     		.2byte	0x1
 8752 00f0 52       		.byte	0x52
 8753 00f1 00000000 		.4byte	0
 8754 00f5 00000000 		.4byte	0
 8755              	.LLST86:
 8756 00f9 6E080000 		.4byte	.LVL283-.Ltext0
 8757 00fd 72080000 		.4byte	.LVL284-.Ltext0
 8758 0101 0100     		.2byte	0x1
 8759 0103 53       		.byte	0x53
 8760 0104 72080000 		.4byte	.LVL284-.Ltext0
 8761 0108 0C0A0000 		.4byte	.LFE64-.Ltext0
 8762 010c 0200     		.2byte	0x2
 8763 010e 91       		.byte	0x91
 8764 010f 64       		.sleb128 -28
 8765 0110 00000000 		.4byte	0
 8766 0114 00000000 		.4byte	0
 8767              	.LLST87:
 8768 0118 6E080000 		.4byte	.LVL283-.Ltext0
 8769 011c AA080000 		.4byte	.LVL290-.Ltext0
 8770 0120 0100     		.2byte	0x1
 8771 0122 56       		.byte	0x56
 8772 0123 AA080000 		.4byte	.LVL290-.Ltext0
 8773 0127 AC080000 		.4byte	.LVL291-.Ltext0
 8774 012b 0200     		.2byte	0x2
 8775 012d 73       		.byte	0x73
 8776 012e 34       		.sleb128 52
 8777 012f AC080000 		.4byte	.LVL291-.Ltext0
 8778 0133 0C0A0000 		.4byte	.LFE64-.Ltext0
 8779 0137 0100     		.2byte	0x1
 8780 0139 56       		.byte	0x56
 8781 013a 00000000 		.4byte	0
 8782 013e 00000000 		.4byte	0
 8783              	.LLST80:
 8784 0142 3C070000 		.4byte	.LFB63-.Ltext0
 8785 0146 42070000 		.4byte	.LCFI12-.Ltext0
 8786 014a 0200     		.2byte	0x2
 8787 014c 7D       		.byte	0x7d
 8788 014d 00       		.sleb128 0
 8789 014e 42070000 		.4byte	.LCFI12-.Ltext0
 8790 0152 5C080000 		.4byte	.LFE63-.Ltext0
 8791 0156 0200     		.2byte	0x2
 8792 0158 7D       		.byte	0x7d
 8793 0159 14       		.sleb128 20
 8794 015a 00000000 		.4byte	0
 8795 015e 00000000 		.4byte	0
 8796              	.LLST81:
 8797 0162 3C070000 		.4byte	.LVL279-.Ltext0
 8798 0166 5A080000 		.4byte	.LVL280-.Ltext0
 8799 016a 0100     		.2byte	0x1
ARM GAS  C:\Users\claym\AppData\Local\Temp\cc2sTfd9.s 			page 183


 8800 016c 50       		.byte	0x50
 8801 016d 5A080000 		.4byte	.LVL280-.Ltext0
 8802 0171 5C080000 		.4byte	.LFE63-.Ltext0
 8803 0175 0400     		.2byte	0x4
 8804 0177 F3       		.byte	0xf3
 8805 0178 01       		.uleb128 0x1
 8806 0179 50       		.byte	0x50
 8807 017a 9F       		.byte	0x9f
 8808 017b 00000000 		.4byte	0
 8809 017f 00000000 		.4byte	0
 8810              	.LLST72:
 8811 0183 4C060000 		.4byte	.LFB62-.Ltext0
 8812 0187 50060000 		.4byte	.LCFI11-.Ltext0
 8813 018b 0200     		.2byte	0x2
 8814 018d 7D       		.byte	0x7d
 8815 018e 00       		.sleb128 0
 8816 018f 50060000 		.4byte	.LCFI11-.Ltext0
 8817 0193 3C070000 		.4byte	.LFE62-.Ltext0
 8818 0197 0200     		.2byte	0x2
 8819 0199 7D       		.byte	0x7d
 8820 019a 08       		.sleb128 8
 8821 019b 00000000 		.4byte	0
 8822 019f 00000000 		.4byte	0
 8823              	.LLST73:
 8824 01a3 4C060000 		.4byte	.LVL229-.Ltext0
 8825 01a7 62060000 		.4byte	.LVL232-.Ltext0
 8826 01ab 0100     		.2byte	0x1
 8827 01ad 50       		.byte	0x50
 8828 01ae 62060000 		.4byte	.LVL232-.Ltext0
 8829 01b2 89060000 		.4byte	.LVL233-1-.Ltext0
 8830 01b6 0300     		.2byte	0x3
 8831 01b8 72       		.byte	0x72
 8832 01b9 01       		.sleb128 1
 8833 01ba 9F       		.byte	0x9f
 8834 01bb 89060000 		.4byte	.LVL233-1-.Ltext0
 8835 01bf 36070000 		.4byte	.LVL277-.Ltext0
 8836 01c3 0400     		.2byte	0x4
 8837 01c5 F3       		.byte	0xf3
 8838 01c6 01       		.uleb128 0x1
 8839 01c7 50       		.byte	0x50
 8840 01c8 9F       		.byte	0x9f
 8841 01c9 36070000 		.4byte	.LVL277-.Ltext0
 8842 01cd 38070000 		.4byte	.LVL278-.Ltext0
 8843 01d1 0100     		.2byte	0x1
 8844 01d3 50       		.byte	0x50
 8845 01d4 38070000 		.4byte	.LVL278-.Ltext0
 8846 01d8 3C070000 		.4byte	.LFE62-.Ltext0
 8847 01dc 0400     		.2byte	0x4
 8848 01de F3       		.byte	0xf3
 8849 01df 01       		.uleb128 0x1
 8850 01e0 50       		.byte	0x50
 8851 01e1 9F       		.byte	0x9f
 8852 01e2 00000000 		.4byte	0
 8853 01e6 00000000 		.4byte	0
 8854              	.LLST74:
 8855 01ea 4C060000 		.4byte	.LVL229-.Ltext0
 8856 01ee 52060000 		.4byte	.LVL230-.Ltext0
ARM GAS  C:\Users\claym\AppData\Local\Temp\cc2sTfd9.s 			page 184


 8857 01f2 0100     		.2byte	0x1
 8858 01f4 51       		.byte	0x51
 8859 01f5 52060000 		.4byte	.LVL230-.Ltext0
 8860 01f9 89060000 		.4byte	.LVL233-1-.Ltext0
 8861 01fd 0100     		.2byte	0x1
 8862 01ff 53       		.byte	0x53
 8863 0200 89060000 		.4byte	.LVL233-1-.Ltext0
 8864 0204 8C060000 		.4byte	.LVL234-.Ltext0
 8865 0208 0400     		.2byte	0x4
 8866 020a F3       		.byte	0xf3
 8867 020b 01       		.uleb128 0x1
 8868 020c 51       		.byte	0x51
 8869 020d 9F       		.byte	0x9f
 8870 020e 8C060000 		.4byte	.LVL234-.Ltext0
 8871 0212 91060000 		.4byte	.LVL235-1-.Ltext0
 8872 0216 0100     		.2byte	0x1
 8873 0218 53       		.byte	0x53
 8874 0219 91060000 		.4byte	.LVL235-1-.Ltext0
 8875 021d 94060000 		.4byte	.LVL236-.Ltext0
 8876 0221 0400     		.2byte	0x4
 8877 0223 F3       		.byte	0xf3
 8878 0224 01       		.uleb128 0x1
 8879 0225 51       		.byte	0x51
 8880 0226 9F       		.byte	0x9f
 8881 0227 94060000 		.4byte	.LVL236-.Ltext0
 8882 022b 99060000 		.4byte	.LVL237-1-.Ltext0
 8883 022f 0100     		.2byte	0x1
 8884 0231 53       		.byte	0x53
 8885 0232 99060000 		.4byte	.LVL237-1-.Ltext0
 8886 0236 9C060000 		.4byte	.LVL238-.Ltext0
 8887 023a 0400     		.2byte	0x4
 8888 023c F3       		.byte	0xf3
 8889 023d 01       		.uleb128 0x1
 8890 023e 51       		.byte	0x51
 8891 023f 9F       		.byte	0x9f
 8892 0240 9C060000 		.4byte	.LVL238-.Ltext0
 8893 0244 A1060000 		.4byte	.LVL239-1-.Ltext0
 8894 0248 0100     		.2byte	0x1
 8895 024a 53       		.byte	0x53
 8896 024b A1060000 		.4byte	.LVL239-1-.Ltext0
 8897 024f A4060000 		.4byte	.LVL240-.Ltext0
 8898 0253 0400     		.2byte	0x4
 8899 0255 F3       		.byte	0xf3
 8900 0256 01       		.uleb128 0x1
 8901 0257 51       		.byte	0x51
 8902 0258 9F       		.byte	0x9f
 8903 0259 A4060000 		.4byte	.LVL240-.Ltext0
 8904 025d A9060000 		.4byte	.LVL241-1-.Ltext0
 8905 0261 0100     		.2byte	0x1
 8906 0263 53       		.byte	0x53
 8907 0264 A9060000 		.4byte	.LVL241-1-.Ltext0
 8908 0268 AC060000 		.4byte	.LVL242-.Ltext0
 8909 026c 0400     		.2byte	0x4
 8910 026e F3       		.byte	0xf3
 8911 026f 01       		.uleb128 0x1
 8912 0270 51       		.byte	0x51
 8913 0271 9F       		.byte	0x9f
ARM GAS  C:\Users\claym\AppData\Local\Temp\cc2sTfd9.s 			page 185


 8914 0272 AC060000 		.4byte	.LVL242-.Ltext0
 8915 0276 B1060000 		.4byte	.LVL243-1-.Ltext0
 8916 027a 0100     		.2byte	0x1
 8917 027c 53       		.byte	0x53
 8918 027d B1060000 		.4byte	.LVL243-1-.Ltext0
 8919 0281 B4060000 		.4byte	.LVL244-.Ltext0
 8920 0285 0400     		.2byte	0x4
 8921 0287 F3       		.byte	0xf3
 8922 0288 01       		.uleb128 0x1
 8923 0289 51       		.byte	0x51
 8924 028a 9F       		.byte	0x9f
 8925 028b B4060000 		.4byte	.LVL244-.Ltext0
 8926 028f B9060000 		.4byte	.LVL245-1-.Ltext0
 8927 0293 0100     		.2byte	0x1
 8928 0295 53       		.byte	0x53
 8929 0296 B9060000 		.4byte	.LVL245-1-.Ltext0
 8930 029a BC060000 		.4byte	.LVL246-.Ltext0
 8931 029e 0400     		.2byte	0x4
 8932 02a0 F3       		.byte	0xf3
 8933 02a1 01       		.uleb128 0x1
 8934 02a2 51       		.byte	0x51
 8935 02a3 9F       		.byte	0x9f
 8936 02a4 BC060000 		.4byte	.LVL246-.Ltext0
 8937 02a8 C1060000 		.4byte	.LVL247-1-.Ltext0
 8938 02ac 0100     		.2byte	0x1
 8939 02ae 53       		.byte	0x53
 8940 02af C1060000 		.4byte	.LVL247-1-.Ltext0
 8941 02b3 C4060000 		.4byte	.LVL248-.Ltext0
 8942 02b7 0400     		.2byte	0x4
 8943 02b9 F3       		.byte	0xf3
 8944 02ba 01       		.uleb128 0x1
 8945 02bb 51       		.byte	0x51
 8946 02bc 9F       		.byte	0x9f
 8947 02bd C4060000 		.4byte	.LVL248-.Ltext0
 8948 02c1 C9060000 		.4byte	.LVL249-1-.Ltext0
 8949 02c5 0100     		.2byte	0x1
 8950 02c7 53       		.byte	0x53
 8951 02c8 C9060000 		.4byte	.LVL249-1-.Ltext0
 8952 02cc CC060000 		.4byte	.LVL250-.Ltext0
 8953 02d0 0400     		.2byte	0x4
 8954 02d2 F3       		.byte	0xf3
 8955 02d3 01       		.uleb128 0x1
 8956 02d4 51       		.byte	0x51
 8957 02d5 9F       		.byte	0x9f
 8958 02d6 CC060000 		.4byte	.LVL250-.Ltext0
 8959 02da D1060000 		.4byte	.LVL251-1-.Ltext0
 8960 02de 0100     		.2byte	0x1
 8961 02e0 53       		.byte	0x53
 8962 02e1 D1060000 		.4byte	.LVL251-1-.Ltext0
 8963 02e5 D4060000 		.4byte	.LVL252-.Ltext0
 8964 02e9 0400     		.2byte	0x4
 8965 02eb F3       		.byte	0xf3
 8966 02ec 01       		.uleb128 0x1
 8967 02ed 51       		.byte	0x51
 8968 02ee 9F       		.byte	0x9f
 8969 02ef D4060000 		.4byte	.LVL252-.Ltext0
 8970 02f3 D9060000 		.4byte	.LVL253-1-.Ltext0
ARM GAS  C:\Users\claym\AppData\Local\Temp\cc2sTfd9.s 			page 186


 8971 02f7 0100     		.2byte	0x1
 8972 02f9 53       		.byte	0x53
 8973 02fa D9060000 		.4byte	.LVL253-1-.Ltext0
 8974 02fe DC060000 		.4byte	.LVL254-.Ltext0
 8975 0302 0400     		.2byte	0x4
 8976 0304 F3       		.byte	0xf3
 8977 0305 01       		.uleb128 0x1
 8978 0306 51       		.byte	0x51
 8979 0307 9F       		.byte	0x9f
 8980 0308 DC060000 		.4byte	.LVL254-.Ltext0
 8981 030c E1060000 		.4byte	.LVL255-1-.Ltext0
 8982 0310 0100     		.2byte	0x1
 8983 0312 53       		.byte	0x53
 8984 0313 E1060000 		.4byte	.LVL255-1-.Ltext0
 8985 0317 E4060000 		.4byte	.LVL256-.Ltext0
 8986 031b 0400     		.2byte	0x4
 8987 031d F3       		.byte	0xf3
 8988 031e 01       		.uleb128 0x1
 8989 031f 51       		.byte	0x51
 8990 0320 9F       		.byte	0x9f
 8991 0321 E4060000 		.4byte	.LVL256-.Ltext0
 8992 0325 E9060000 		.4byte	.LVL257-1-.Ltext0
 8993 0329 0100     		.2byte	0x1
 8994 032b 53       		.byte	0x53
 8995 032c E9060000 		.4byte	.LVL257-1-.Ltext0
 8996 0330 EC060000 		.4byte	.LVL258-.Ltext0
 8997 0334 0400     		.2byte	0x4
 8998 0336 F3       		.byte	0xf3
 8999 0337 01       		.uleb128 0x1
 9000 0338 51       		.byte	0x51
 9001 0339 9F       		.byte	0x9f
 9002 033a EC060000 		.4byte	.LVL258-.Ltext0
 9003 033e F1060000 		.4byte	.LVL259-1-.Ltext0
 9004 0342 0100     		.2byte	0x1
 9005 0344 53       		.byte	0x53
 9006 0345 F1060000 		.4byte	.LVL259-1-.Ltext0
 9007 0349 F4060000 		.4byte	.LVL260-.Ltext0
 9008 034d 0400     		.2byte	0x4
 9009 034f F3       		.byte	0xf3
 9010 0350 01       		.uleb128 0x1
 9011 0351 51       		.byte	0x51
 9012 0352 9F       		.byte	0x9f
 9013 0353 F4060000 		.4byte	.LVL260-.Ltext0
 9014 0357 F9060000 		.4byte	.LVL261-1-.Ltext0
 9015 035b 0100     		.2byte	0x1
 9016 035d 53       		.byte	0x53
 9017 035e F9060000 		.4byte	.LVL261-1-.Ltext0
 9018 0362 FC060000 		.4byte	.LVL262-.Ltext0
 9019 0366 0400     		.2byte	0x4
 9020 0368 F3       		.byte	0xf3
 9021 0369 01       		.uleb128 0x1
 9022 036a 51       		.byte	0x51
 9023 036b 9F       		.byte	0x9f
 9024 036c FC060000 		.4byte	.LVL262-.Ltext0
 9025 0370 01070000 		.4byte	.LVL263-1-.Ltext0
 9026 0374 0100     		.2byte	0x1
 9027 0376 53       		.byte	0x53
ARM GAS  C:\Users\claym\AppData\Local\Temp\cc2sTfd9.s 			page 187


 9028 0377 01070000 		.4byte	.LVL263-1-.Ltext0
 9029 037b 04070000 		.4byte	.LVL264-.Ltext0
 9030 037f 0400     		.2byte	0x4
 9031 0381 F3       		.byte	0xf3
 9032 0382 01       		.uleb128 0x1
 9033 0383 51       		.byte	0x51
 9034 0384 9F       		.byte	0x9f
 9035 0385 04070000 		.4byte	.LVL264-.Ltext0
 9036 0389 09070000 		.4byte	.LVL265-1-.Ltext0
 9037 038d 0100     		.2byte	0x1
 9038 038f 53       		.byte	0x53
 9039 0390 09070000 		.4byte	.LVL265-1-.Ltext0
 9040 0394 0C070000 		.4byte	.LVL266-.Ltext0
 9041 0398 0400     		.2byte	0x4
 9042 039a F3       		.byte	0xf3
 9043 039b 01       		.uleb128 0x1
 9044 039c 51       		.byte	0x51
 9045 039d 9F       		.byte	0x9f
 9046 039e 0C070000 		.4byte	.LVL266-.Ltext0
 9047 03a2 11070000 		.4byte	.LVL267-1-.Ltext0
 9048 03a6 0100     		.2byte	0x1
 9049 03a8 53       		.byte	0x53
 9050 03a9 11070000 		.4byte	.LVL267-1-.Ltext0
 9051 03ad 14070000 		.4byte	.LVL268-.Ltext0
 9052 03b1 0400     		.2byte	0x4
 9053 03b3 F3       		.byte	0xf3
 9054 03b4 01       		.uleb128 0x1
 9055 03b5 51       		.byte	0x51
 9056 03b6 9F       		.byte	0x9f
 9057 03b7 14070000 		.4byte	.LVL268-.Ltext0
 9058 03bb 23070000 		.4byte	.LVL272-1-.Ltext0
 9059 03bf 0100     		.2byte	0x1
 9060 03c1 53       		.byte	0x53
 9061 03c2 23070000 		.4byte	.LVL272-1-.Ltext0
 9062 03c6 26070000 		.4byte	.LVL273-.Ltext0
 9063 03ca 0400     		.2byte	0x4
 9064 03cc F3       		.byte	0xf3
 9065 03cd 01       		.uleb128 0x1
 9066 03ce 51       		.byte	0x51
 9067 03cf 9F       		.byte	0x9f
 9068 03d0 26070000 		.4byte	.LVL273-.Ltext0
 9069 03d4 2B070000 		.4byte	.LVL274-1-.Ltext0
 9070 03d8 0100     		.2byte	0x1
 9071 03da 53       		.byte	0x53
 9072 03db 2B070000 		.4byte	.LVL274-1-.Ltext0
 9073 03df 2E070000 		.4byte	.LVL275-.Ltext0
 9074 03e3 0400     		.2byte	0x4
 9075 03e5 F3       		.byte	0xf3
 9076 03e6 01       		.uleb128 0x1
 9077 03e7 51       		.byte	0x51
 9078 03e8 9F       		.byte	0x9f
 9079 03e9 2E070000 		.4byte	.LVL275-.Ltext0
 9080 03ed 33070000 		.4byte	.LVL276-1-.Ltext0
 9081 03f1 0100     		.2byte	0x1
 9082 03f3 53       		.byte	0x53
 9083 03f4 33070000 		.4byte	.LVL276-1-.Ltext0
 9084 03f8 36070000 		.4byte	.LVL277-.Ltext0
ARM GAS  C:\Users\claym\AppData\Local\Temp\cc2sTfd9.s 			page 188


 9085 03fc 0400     		.2byte	0x4
 9086 03fe F3       		.byte	0xf3
 9087 03ff 01       		.uleb128 0x1
 9088 0400 51       		.byte	0x51
 9089 0401 9F       		.byte	0x9f
 9090 0402 36070000 		.4byte	.LVL277-.Ltext0
 9091 0406 3C070000 		.4byte	.LFE62-.Ltext0
 9092 040a 0100     		.2byte	0x1
 9093 040c 53       		.byte	0x53
 9094 040d 00000000 		.4byte	0
 9095 0411 00000000 		.4byte	0
 9096              	.LLST75:
 9097 0415 4C060000 		.4byte	.LVL229-.Ltext0
 9098 0419 58060000 		.4byte	.LVL231-.Ltext0
 9099 041d 0100     		.2byte	0x1
 9100 041f 52       		.byte	0x52
 9101 0420 58060000 		.4byte	.LVL231-.Ltext0
 9102 0424 89060000 		.4byte	.LVL233-1-.Ltext0
 9103 0428 0100     		.2byte	0x1
 9104 042a 51       		.byte	0x51
 9105 042b 89060000 		.4byte	.LVL233-1-.Ltext0
 9106 042f 8C060000 		.4byte	.LVL234-.Ltext0
 9107 0433 0400     		.2byte	0x4
 9108 0435 F3       		.byte	0xf3
 9109 0436 01       		.uleb128 0x1
 9110 0437 52       		.byte	0x52
 9111 0438 9F       		.byte	0x9f
 9112 0439 8C060000 		.4byte	.LVL234-.Ltext0
 9113 043d 91060000 		.4byte	.LVL235-1-.Ltext0
 9114 0441 0100     		.2byte	0x1
 9115 0443 51       		.byte	0x51
 9116 0444 91060000 		.4byte	.LVL235-1-.Ltext0
 9117 0448 94060000 		.4byte	.LVL236-.Ltext0
 9118 044c 0400     		.2byte	0x4
 9119 044e F3       		.byte	0xf3
 9120 044f 01       		.uleb128 0x1
 9121 0450 52       		.byte	0x52
 9122 0451 9F       		.byte	0x9f
 9123 0452 94060000 		.4byte	.LVL236-.Ltext0
 9124 0456 99060000 		.4byte	.LVL237-1-.Ltext0
 9125 045a 0100     		.2byte	0x1
 9126 045c 51       		.byte	0x51
 9127 045d 99060000 		.4byte	.LVL237-1-.Ltext0
 9128 0461 9C060000 		.4byte	.LVL238-.Ltext0
 9129 0465 0400     		.2byte	0x4
 9130 0467 F3       		.byte	0xf3
 9131 0468 01       		.uleb128 0x1
 9132 0469 52       		.byte	0x52
 9133 046a 9F       		.byte	0x9f
 9134 046b 9C060000 		.4byte	.LVL238-.Ltext0
 9135 046f A1060000 		.4byte	.LVL239-1-.Ltext0
 9136 0473 0100     		.2byte	0x1
 9137 0475 51       		.byte	0x51
 9138 0476 A1060000 		.4byte	.LVL239-1-.Ltext0
 9139 047a A4060000 		.4byte	.LVL240-.Ltext0
 9140 047e 0400     		.2byte	0x4
 9141 0480 F3       		.byte	0xf3
ARM GAS  C:\Users\claym\AppData\Local\Temp\cc2sTfd9.s 			page 189


 9142 0481 01       		.uleb128 0x1
 9143 0482 52       		.byte	0x52
 9144 0483 9F       		.byte	0x9f
 9145 0484 A4060000 		.4byte	.LVL240-.Ltext0
 9146 0488 A9060000 		.4byte	.LVL241-1-.Ltext0
 9147 048c 0100     		.2byte	0x1
 9148 048e 51       		.byte	0x51
 9149 048f A9060000 		.4byte	.LVL241-1-.Ltext0
 9150 0493 AC060000 		.4byte	.LVL242-.Ltext0
 9151 0497 0400     		.2byte	0x4
 9152 0499 F3       		.byte	0xf3
 9153 049a 01       		.uleb128 0x1
 9154 049b 52       		.byte	0x52
 9155 049c 9F       		.byte	0x9f
 9156 049d AC060000 		.4byte	.LVL242-.Ltext0
 9157 04a1 B1060000 		.4byte	.LVL243-1-.Ltext0
 9158 04a5 0100     		.2byte	0x1
 9159 04a7 51       		.byte	0x51
 9160 04a8 B1060000 		.4byte	.LVL243-1-.Ltext0
 9161 04ac B4060000 		.4byte	.LVL244-.Ltext0
 9162 04b0 0400     		.2byte	0x4
 9163 04b2 F3       		.byte	0xf3
 9164 04b3 01       		.uleb128 0x1
 9165 04b4 52       		.byte	0x52
 9166 04b5 9F       		.byte	0x9f
 9167 04b6 B4060000 		.4byte	.LVL244-.Ltext0
 9168 04ba B9060000 		.4byte	.LVL245-1-.Ltext0
 9169 04be 0100     		.2byte	0x1
 9170 04c0 51       		.byte	0x51
 9171 04c1 B9060000 		.4byte	.LVL245-1-.Ltext0
 9172 04c5 BC060000 		.4byte	.LVL246-.Ltext0
 9173 04c9 0400     		.2byte	0x4
 9174 04cb F3       		.byte	0xf3
 9175 04cc 01       		.uleb128 0x1
 9176 04cd 52       		.byte	0x52
 9177 04ce 9F       		.byte	0x9f
 9178 04cf BC060000 		.4byte	.LVL246-.Ltext0
 9179 04d3 C1060000 		.4byte	.LVL247-1-.Ltext0
 9180 04d7 0100     		.2byte	0x1
 9181 04d9 51       		.byte	0x51
 9182 04da C1060000 		.4byte	.LVL247-1-.Ltext0
 9183 04de C4060000 		.4byte	.LVL248-.Ltext0
 9184 04e2 0400     		.2byte	0x4
 9185 04e4 F3       		.byte	0xf3
 9186 04e5 01       		.uleb128 0x1
 9187 04e6 52       		.byte	0x52
 9188 04e7 9F       		.byte	0x9f
 9189 04e8 C4060000 		.4byte	.LVL248-.Ltext0
 9190 04ec C9060000 		.4byte	.LVL249-1-.Ltext0
 9191 04f0 0100     		.2byte	0x1
 9192 04f2 51       		.byte	0x51
 9193 04f3 C9060000 		.4byte	.LVL249-1-.Ltext0
 9194 04f7 CC060000 		.4byte	.LVL250-.Ltext0
 9195 04fb 0400     		.2byte	0x4
 9196 04fd F3       		.byte	0xf3
 9197 04fe 01       		.uleb128 0x1
 9198 04ff 52       		.byte	0x52
ARM GAS  C:\Users\claym\AppData\Local\Temp\cc2sTfd9.s 			page 190


 9199 0500 9F       		.byte	0x9f
 9200 0501 CC060000 		.4byte	.LVL250-.Ltext0
 9201 0505 D1060000 		.4byte	.LVL251-1-.Ltext0
 9202 0509 0100     		.2byte	0x1
 9203 050b 51       		.byte	0x51
 9204 050c D1060000 		.4byte	.LVL251-1-.Ltext0
 9205 0510 D4060000 		.4byte	.LVL252-.Ltext0
 9206 0514 0400     		.2byte	0x4
 9207 0516 F3       		.byte	0xf3
 9208 0517 01       		.uleb128 0x1
 9209 0518 52       		.byte	0x52
 9210 0519 9F       		.byte	0x9f
 9211 051a D4060000 		.4byte	.LVL252-.Ltext0
 9212 051e D9060000 		.4byte	.LVL253-1-.Ltext0
 9213 0522 0100     		.2byte	0x1
 9214 0524 51       		.byte	0x51
 9215 0525 D9060000 		.4byte	.LVL253-1-.Ltext0
 9216 0529 DC060000 		.4byte	.LVL254-.Ltext0
 9217 052d 0400     		.2byte	0x4
 9218 052f F3       		.byte	0xf3
 9219 0530 01       		.uleb128 0x1
 9220 0531 52       		.byte	0x52
 9221 0532 9F       		.byte	0x9f
 9222 0533 DC060000 		.4byte	.LVL254-.Ltext0
 9223 0537 E1060000 		.4byte	.LVL255-1-.Ltext0
 9224 053b 0100     		.2byte	0x1
 9225 053d 51       		.byte	0x51
 9226 053e E1060000 		.4byte	.LVL255-1-.Ltext0
 9227 0542 E4060000 		.4byte	.LVL256-.Ltext0
 9228 0546 0400     		.2byte	0x4
 9229 0548 F3       		.byte	0xf3
 9230 0549 01       		.uleb128 0x1
 9231 054a 52       		.byte	0x52
 9232 054b 9F       		.byte	0x9f
 9233 054c E4060000 		.4byte	.LVL256-.Ltext0
 9234 0550 E9060000 		.4byte	.LVL257-1-.Ltext0
 9235 0554 0100     		.2byte	0x1
 9236 0556 51       		.byte	0x51
 9237 0557 E9060000 		.4byte	.LVL257-1-.Ltext0
 9238 055b EC060000 		.4byte	.LVL258-.Ltext0
 9239 055f 0400     		.2byte	0x4
 9240 0561 F3       		.byte	0xf3
 9241 0562 01       		.uleb128 0x1
 9242 0563 52       		.byte	0x52
 9243 0564 9F       		.byte	0x9f
 9244 0565 EC060000 		.4byte	.LVL258-.Ltext0
 9245 0569 F1060000 		.4byte	.LVL259-1-.Ltext0
 9246 056d 0100     		.2byte	0x1
 9247 056f 51       		.byte	0x51
 9248 0570 F1060000 		.4byte	.LVL259-1-.Ltext0
 9249 0574 F4060000 		.4byte	.LVL260-.Ltext0
 9250 0578 0400     		.2byte	0x4
 9251 057a F3       		.byte	0xf3
 9252 057b 01       		.uleb128 0x1
 9253 057c 52       		.byte	0x52
 9254 057d 9F       		.byte	0x9f
 9255 057e F4060000 		.4byte	.LVL260-.Ltext0
ARM GAS  C:\Users\claym\AppData\Local\Temp\cc2sTfd9.s 			page 191


 9256 0582 F9060000 		.4byte	.LVL261-1-.Ltext0
 9257 0586 0100     		.2byte	0x1
 9258 0588 51       		.byte	0x51
 9259 0589 F9060000 		.4byte	.LVL261-1-.Ltext0
 9260 058d FC060000 		.4byte	.LVL262-.Ltext0
 9261 0591 0400     		.2byte	0x4
 9262 0593 F3       		.byte	0xf3
 9263 0594 01       		.uleb128 0x1
 9264 0595 52       		.byte	0x52
 9265 0596 9F       		.byte	0x9f
 9266 0597 FC060000 		.4byte	.LVL262-.Ltext0
 9267 059b 01070000 		.4byte	.LVL263-1-.Ltext0
 9268 059f 0100     		.2byte	0x1
 9269 05a1 51       		.byte	0x51
 9270 05a2 01070000 		.4byte	.LVL263-1-.Ltext0
 9271 05a6 04070000 		.4byte	.LVL264-.Ltext0
 9272 05aa 0400     		.2byte	0x4
 9273 05ac F3       		.byte	0xf3
 9274 05ad 01       		.uleb128 0x1
 9275 05ae 52       		.byte	0x52
 9276 05af 9F       		.byte	0x9f
 9277 05b0 04070000 		.4byte	.LVL264-.Ltext0
 9278 05b4 09070000 		.4byte	.LVL265-1-.Ltext0
 9279 05b8 0100     		.2byte	0x1
 9280 05ba 51       		.byte	0x51
 9281 05bb 09070000 		.4byte	.LVL265-1-.Ltext0
 9282 05bf 0C070000 		.4byte	.LVL266-.Ltext0
 9283 05c3 0400     		.2byte	0x4
 9284 05c5 F3       		.byte	0xf3
 9285 05c6 01       		.uleb128 0x1
 9286 05c7 52       		.byte	0x52
 9287 05c8 9F       		.byte	0x9f
 9288 05c9 0C070000 		.4byte	.LVL266-.Ltext0
 9289 05cd 11070000 		.4byte	.LVL267-1-.Ltext0
 9290 05d1 0100     		.2byte	0x1
 9291 05d3 51       		.byte	0x51
 9292 05d4 11070000 		.4byte	.LVL267-1-.Ltext0
 9293 05d8 14070000 		.4byte	.LVL268-.Ltext0
 9294 05dc 0400     		.2byte	0x4
 9295 05de F3       		.byte	0xf3
 9296 05df 01       		.uleb128 0x1
 9297 05e0 52       		.byte	0x52
 9298 05e1 9F       		.byte	0x9f
 9299 05e2 14070000 		.4byte	.LVL268-.Ltext0
 9300 05e6 23070000 		.4byte	.LVL272-1-.Ltext0
 9301 05ea 0100     		.2byte	0x1
 9302 05ec 51       		.byte	0x51
 9303 05ed 23070000 		.4byte	.LVL272-1-.Ltext0
 9304 05f1 26070000 		.4byte	.LVL273-.Ltext0
 9305 05f5 0400     		.2byte	0x4
 9306 05f7 F3       		.byte	0xf3
 9307 05f8 01       		.uleb128 0x1
 9308 05f9 52       		.byte	0x52
 9309 05fa 9F       		.byte	0x9f
 9310 05fb 26070000 		.4byte	.LVL273-.Ltext0
 9311 05ff 2B070000 		.4byte	.LVL274-1-.Ltext0
 9312 0603 0100     		.2byte	0x1
ARM GAS  C:\Users\claym\AppData\Local\Temp\cc2sTfd9.s 			page 192


 9313 0605 51       		.byte	0x51
 9314 0606 2B070000 		.4byte	.LVL274-1-.Ltext0
 9315 060a 2E070000 		.4byte	.LVL275-.Ltext0
 9316 060e 0400     		.2byte	0x4
 9317 0610 F3       		.byte	0xf3
 9318 0611 01       		.uleb128 0x1
 9319 0612 52       		.byte	0x52
 9320 0613 9F       		.byte	0x9f
 9321 0614 2E070000 		.4byte	.LVL275-.Ltext0
 9322 0618 33070000 		.4byte	.LVL276-1-.Ltext0
 9323 061c 0100     		.2byte	0x1
 9324 061e 51       		.byte	0x51
 9325 061f 33070000 		.4byte	.LVL276-1-.Ltext0
 9326 0623 36070000 		.4byte	.LVL277-.Ltext0
 9327 0627 0400     		.2byte	0x4
 9328 0629 F3       		.byte	0xf3
 9329 062a 01       		.uleb128 0x1
 9330 062b 52       		.byte	0x52
 9331 062c 9F       		.byte	0x9f
 9332 062d 36070000 		.4byte	.LVL277-.Ltext0
 9333 0631 3C070000 		.4byte	.LFE62-.Ltext0
 9334 0635 0100     		.2byte	0x1
 9335 0637 51       		.byte	0x51
 9336 0638 00000000 		.4byte	0
 9337 063c 00000000 		.4byte	0
 9338              	.LLST76:
 9339 0640 14070000 		.4byte	.LVL268-.Ltext0
 9340 0644 16070000 		.4byte	.LVL269-.Ltext0
 9341 0648 0100     		.2byte	0x1
 9342 064a 51       		.byte	0x51
 9343 064b 00000000 		.4byte	0
 9344 064f 00000000 		.4byte	0
 9345              	.LLST77:
 9346 0653 14070000 		.4byte	.LVL268-.Ltext0
 9347 0657 16070000 		.4byte	.LVL269-.Ltext0
 9348 065b 0100     		.2byte	0x1
 9349 065d 53       		.byte	0x53
 9350 065e 00000000 		.4byte	0
 9351 0662 00000000 		.4byte	0
 9352              	.LLST78:
 9353 0666 1A070000 		.4byte	.LVL270-.Ltext0
 9354 066a 1E070000 		.4byte	.LVL271-.Ltext0
 9355 066e 0100     		.2byte	0x1
 9356 0670 51       		.byte	0x51
 9357 0671 00000000 		.4byte	0
 9358 0675 00000000 		.4byte	0
 9359              	.LLST79:
 9360 0679 1A070000 		.4byte	.LVL270-.Ltext0
 9361 067d 1E070000 		.4byte	.LVL271-.Ltext0
 9362 0681 0100     		.2byte	0x1
 9363 0683 53       		.byte	0x53
 9364 0684 00000000 		.4byte	0
 9365 0688 00000000 		.4byte	0
 9366              	.LLST58:
 9367 068c AA050000 		.4byte	.LFB57-.Ltext0
 9368 0690 AC050000 		.4byte	.LCFI8-.Ltext0
 9369 0694 0200     		.2byte	0x2
ARM GAS  C:\Users\claym\AppData\Local\Temp\cc2sTfd9.s 			page 193


 9370 0696 7D       		.byte	0x7d
 9371 0697 00       		.sleb128 0
 9372 0698 AC050000 		.4byte	.LCFI8-.Ltext0
 9373 069c E4050000 		.4byte	.LFE57-.Ltext0
 9374 06a0 0200     		.2byte	0x2
 9375 06a2 7D       		.byte	0x7d
 9376 06a3 04       		.sleb128 4
 9377 06a4 00000000 		.4byte	0
 9378 06a8 00000000 		.4byte	0
 9379              	.LLST59:
 9380 06ac AA050000 		.4byte	.LVL207-.Ltext0
 9381 06b0 C8050000 		.4byte	.LVL209-.Ltext0
 9382 06b4 0100     		.2byte	0x1
 9383 06b6 50       		.byte	0x50
 9384 06b7 C8050000 		.4byte	.LVL209-.Ltext0
 9385 06bb CE050000 		.4byte	.LVL210-.Ltext0
 9386 06bf 0400     		.2byte	0x4
 9387 06c1 F3       		.byte	0xf3
 9388 06c2 01       		.uleb128 0x1
 9389 06c3 50       		.byte	0x50
 9390 06c4 9F       		.byte	0x9f
 9391 06c5 CE050000 		.4byte	.LVL210-.Ltext0
 9392 06c9 DC050000 		.4byte	.LVL212-.Ltext0
 9393 06cd 0100     		.2byte	0x1
 9394 06cf 50       		.byte	0x50
 9395 06d0 DC050000 		.4byte	.LVL212-.Ltext0
 9396 06d4 E0050000 		.4byte	.LVL213-.Ltext0
 9397 06d8 0400     		.2byte	0x4
 9398 06da F3       		.byte	0xf3
 9399 06db 01       		.uleb128 0x1
 9400 06dc 50       		.byte	0x50
 9401 06dd 9F       		.byte	0x9f
 9402 06de E0050000 		.4byte	.LVL213-.Ltext0
 9403 06e2 E2050000 		.4byte	.LVL214-.Ltext0
 9404 06e6 0100     		.2byte	0x1
 9405 06e8 50       		.byte	0x50
 9406 06e9 E2050000 		.4byte	.LVL214-.Ltext0
 9407 06ed E4050000 		.4byte	.LFE57-.Ltext0
 9408 06f1 0400     		.2byte	0x4
 9409 06f3 F3       		.byte	0xf3
 9410 06f4 01       		.uleb128 0x1
 9411 06f5 50       		.byte	0x50
 9412 06f6 9F       		.byte	0x9f
 9413 06f7 00000000 		.4byte	0
 9414 06fb 00000000 		.4byte	0
 9415              	.LLST60:
 9416 06ff AA050000 		.4byte	.LVL207-.Ltext0
 9417 0703 BC050000 		.4byte	.LVL208-.Ltext0
 9418 0707 0100     		.2byte	0x1
 9419 0709 51       		.byte	0x51
 9420 070a BC050000 		.4byte	.LVL208-.Ltext0
 9421 070e DA050000 		.4byte	.LVL211-.Ltext0
 9422 0712 0400     		.2byte	0x4
 9423 0714 F3       		.byte	0xf3
 9424 0715 01       		.uleb128 0x1
 9425 0716 51       		.byte	0x51
 9426 0717 9F       		.byte	0x9f
ARM GAS  C:\Users\claym\AppData\Local\Temp\cc2sTfd9.s 			page 194


 9427 0718 DA050000 		.4byte	.LVL211-.Ltext0
 9428 071c E4050000 		.4byte	.LFE57-.Ltext0
 9429 0720 0100     		.2byte	0x1
 9430 0722 51       		.byte	0x51
 9431 0723 00000000 		.4byte	0
 9432 0727 00000000 		.4byte	0
 9433              	.LLST56:
 9434 072b 80050000 		.4byte	.LVL200-.Ltext0
 9435 072f 9A050000 		.4byte	.LVL202-.Ltext0
 9436 0733 0100     		.2byte	0x1
 9437 0735 50       		.byte	0x50
 9438 0736 9A050000 		.4byte	.LVL202-.Ltext0
 9439 073a A0050000 		.4byte	.LVL203-.Ltext0
 9440 073e 0400     		.2byte	0x4
 9441 0740 F3       		.byte	0xf3
 9442 0741 01       		.uleb128 0x1
 9443 0742 50       		.byte	0x50
 9444 0743 9F       		.byte	0x9f
 9445 0744 A0050000 		.4byte	.LVL203-.Ltext0
 9446 0748 A2050000 		.4byte	.LVL204-.Ltext0
 9447 074c 0100     		.2byte	0x1
 9448 074e 50       		.byte	0x50
 9449 074f A2050000 		.4byte	.LVL204-.Ltext0
 9450 0753 A6050000 		.4byte	.LVL205-.Ltext0
 9451 0757 0400     		.2byte	0x4
 9452 0759 F3       		.byte	0xf3
 9453 075a 01       		.uleb128 0x1
 9454 075b 50       		.byte	0x50
 9455 075c 9F       		.byte	0x9f
 9456 075d A6050000 		.4byte	.LVL205-.Ltext0
 9457 0761 A8050000 		.4byte	.LVL206-.Ltext0
 9458 0765 0100     		.2byte	0x1
 9459 0767 50       		.byte	0x50
 9460 0768 A8050000 		.4byte	.LVL206-.Ltext0
 9461 076c AA050000 		.4byte	.LFE56-.Ltext0
 9462 0770 0400     		.2byte	0x4
 9463 0772 F3       		.byte	0xf3
 9464 0773 01       		.uleb128 0x1
 9465 0774 50       		.byte	0x50
 9466 0775 9F       		.byte	0x9f
 9467 0776 00000000 		.4byte	0
 9468 077a 00000000 		.4byte	0
 9469              	.LLST57:
 9470 077e 80050000 		.4byte	.LVL200-.Ltext0
 9471 0782 90050000 		.4byte	.LVL201-.Ltext0
 9472 0786 0100     		.2byte	0x1
 9473 0788 51       		.byte	0x51
 9474 0789 90050000 		.4byte	.LVL201-.Ltext0
 9475 078d A0050000 		.4byte	.LVL203-.Ltext0
 9476 0791 0400     		.2byte	0x4
 9477 0793 F3       		.byte	0xf3
 9478 0794 01       		.uleb128 0x1
 9479 0795 51       		.byte	0x51
 9480 0796 9F       		.byte	0x9f
 9481 0797 A0050000 		.4byte	.LVL203-.Ltext0
 9482 079b AA050000 		.4byte	.LFE56-.Ltext0
 9483 079f 0100     		.2byte	0x1
ARM GAS  C:\Users\claym\AppData\Local\Temp\cc2sTfd9.s 			page 195


 9484 07a1 51       		.byte	0x51
 9485 07a2 00000000 		.4byte	0
 9486 07a6 00000000 		.4byte	0
 9487              	.LLST54:
 9488 07aa 48050000 		.4byte	.LVL191-.Ltext0
 9489 07ae 5E050000 		.4byte	.LVL192-.Ltext0
 9490 07b2 0100     		.2byte	0x1
 9491 07b4 50       		.byte	0x50
 9492 07b5 5E050000 		.4byte	.LVL192-.Ltext0
 9493 07b9 68050000 		.4byte	.LVL194-.Ltext0
 9494 07bd 0400     		.2byte	0x4
 9495 07bf F3       		.byte	0xf3
 9496 07c0 01       		.uleb128 0x1
 9497 07c1 50       		.byte	0x50
 9498 07c2 9F       		.byte	0x9f
 9499 07c3 68050000 		.4byte	.LVL194-.Ltext0
 9500 07c7 74050000 		.4byte	.LVL197-.Ltext0
 9501 07cb 0100     		.2byte	0x1
 9502 07cd 50       		.byte	0x50
 9503 07ce 74050000 		.4byte	.LVL197-.Ltext0
 9504 07d2 78050000 		.4byte	.LVL198-.Ltext0
 9505 07d6 0400     		.2byte	0x4
 9506 07d8 F3       		.byte	0xf3
 9507 07d9 01       		.uleb128 0x1
 9508 07da 50       		.byte	0x50
 9509 07db 9F       		.byte	0x9f
 9510 07dc 78050000 		.4byte	.LVL198-.Ltext0
 9511 07e0 7A050000 		.4byte	.LVL199-.Ltext0
 9512 07e4 0100     		.2byte	0x1
 9513 07e6 50       		.byte	0x50
 9514 07e7 7A050000 		.4byte	.LVL199-.Ltext0
 9515 07eb 80050000 		.4byte	.LFE55-.Ltext0
 9516 07ef 0400     		.2byte	0x4
 9517 07f1 F3       		.byte	0xf3
 9518 07f2 01       		.uleb128 0x1
 9519 07f3 50       		.byte	0x50
 9520 07f4 9F       		.byte	0x9f
 9521 07f5 00000000 		.4byte	0
 9522 07f9 00000000 		.4byte	0
 9523              	.LLST55:
 9524 07fd 48050000 		.4byte	.LVL191-.Ltext0
 9525 0801 60050000 		.4byte	.LVL193-.Ltext0
 9526 0805 0100     		.2byte	0x1
 9527 0807 51       		.byte	0x51
 9528 0808 60050000 		.4byte	.LVL193-.Ltext0
 9529 080c 68050000 		.4byte	.LVL194-.Ltext0
 9530 0810 0400     		.2byte	0x4
 9531 0812 F3       		.byte	0xf3
 9532 0813 01       		.uleb128 0x1
 9533 0814 51       		.byte	0x51
 9534 0815 9F       		.byte	0x9f
 9535 0816 68050000 		.4byte	.LVL194-.Ltext0
 9536 081a 6C050000 		.4byte	.LVL195-.Ltext0
 9537 081e 0100     		.2byte	0x1
 9538 0820 51       		.byte	0x51
 9539 0821 6C050000 		.4byte	.LVL195-.Ltext0
 9540 0825 72050000 		.4byte	.LVL196-.Ltext0
ARM GAS  C:\Users\claym\AppData\Local\Temp\cc2sTfd9.s 			page 196


 9541 0829 0400     		.2byte	0x4
 9542 082b F3       		.byte	0xf3
 9543 082c 01       		.uleb128 0x1
 9544 082d 51       		.byte	0x51
 9545 082e 9F       		.byte	0x9f
 9546 082f 72050000 		.4byte	.LVL196-.Ltext0
 9547 0833 80050000 		.4byte	.LFE55-.Ltext0
 9548 0837 0100     		.2byte	0x1
 9549 0839 51       		.byte	0x51
 9550 083a 00000000 		.4byte	0
 9551 083e 00000000 		.4byte	0
 9552              	.LLST52:
 9553 0842 1E050000 		.4byte	.LVL184-.Ltext0
 9554 0846 38050000 		.4byte	.LVL186-.Ltext0
 9555 084a 0100     		.2byte	0x1
 9556 084c 50       		.byte	0x50
 9557 084d 38050000 		.4byte	.LVL186-.Ltext0
 9558 0851 3E050000 		.4byte	.LVL187-.Ltext0
 9559 0855 0400     		.2byte	0x4
 9560 0857 F3       		.byte	0xf3
 9561 0858 01       		.uleb128 0x1
 9562 0859 50       		.byte	0x50
 9563 085a 9F       		.byte	0x9f
 9564 085b 3E050000 		.4byte	.LVL187-.Ltext0
 9565 085f 40050000 		.4byte	.LVL188-.Ltext0
 9566 0863 0100     		.2byte	0x1
 9567 0865 50       		.byte	0x50
 9568 0866 40050000 		.4byte	.LVL188-.Ltext0
 9569 086a 44050000 		.4byte	.LVL189-.Ltext0
 9570 086e 0400     		.2byte	0x4
 9571 0870 F3       		.byte	0xf3
 9572 0871 01       		.uleb128 0x1
 9573 0872 50       		.byte	0x50
 9574 0873 9F       		.byte	0x9f
 9575 0874 44050000 		.4byte	.LVL189-.Ltext0
 9576 0878 46050000 		.4byte	.LVL190-.Ltext0
 9577 087c 0100     		.2byte	0x1
 9578 087e 50       		.byte	0x50
 9579 087f 46050000 		.4byte	.LVL190-.Ltext0
 9580 0883 48050000 		.4byte	.LFE54-.Ltext0
 9581 0887 0400     		.2byte	0x4
 9582 0889 F3       		.byte	0xf3
 9583 088a 01       		.uleb128 0x1
 9584 088b 50       		.byte	0x50
 9585 088c 9F       		.byte	0x9f
 9586 088d 00000000 		.4byte	0
 9587 0891 00000000 		.4byte	0
 9588              	.LLST53:
 9589 0895 1E050000 		.4byte	.LVL184-.Ltext0
 9590 0899 2E050000 		.4byte	.LVL185-.Ltext0
 9591 089d 0100     		.2byte	0x1
 9592 089f 51       		.byte	0x51
 9593 08a0 2E050000 		.4byte	.LVL185-.Ltext0
 9594 08a4 3E050000 		.4byte	.LVL187-.Ltext0
 9595 08a8 0400     		.2byte	0x4
 9596 08aa F3       		.byte	0xf3
 9597 08ab 01       		.uleb128 0x1
ARM GAS  C:\Users\claym\AppData\Local\Temp\cc2sTfd9.s 			page 197


 9598 08ac 51       		.byte	0x51
 9599 08ad 9F       		.byte	0x9f
 9600 08ae 3E050000 		.4byte	.LVL187-.Ltext0
 9601 08b2 48050000 		.4byte	.LFE54-.Ltext0
 9602 08b6 0100     		.2byte	0x1
 9603 08b8 51       		.byte	0x51
 9604 08b9 00000000 		.4byte	0
 9605 08bd 00000000 		.4byte	0
 9606              	.LLST50:
 9607 08c1 F4040000 		.4byte	.LVL177-.Ltext0
 9608 08c5 0E050000 		.4byte	.LVL179-.Ltext0
 9609 08c9 0100     		.2byte	0x1
 9610 08cb 50       		.byte	0x50
 9611 08cc 0E050000 		.4byte	.LVL179-.Ltext0
 9612 08d0 14050000 		.4byte	.LVL180-.Ltext0
 9613 08d4 0400     		.2byte	0x4
 9614 08d6 F3       		.byte	0xf3
 9615 08d7 01       		.uleb128 0x1
 9616 08d8 50       		.byte	0x50
 9617 08d9 9F       		.byte	0x9f
 9618 08da 14050000 		.4byte	.LVL180-.Ltext0
 9619 08de 16050000 		.4byte	.LVL181-.Ltext0
 9620 08e2 0100     		.2byte	0x1
 9621 08e4 50       		.byte	0x50
 9622 08e5 16050000 		.4byte	.LVL181-.Ltext0
 9623 08e9 1A050000 		.4byte	.LVL182-.Ltext0
 9624 08ed 0400     		.2byte	0x4
 9625 08ef F3       		.byte	0xf3
 9626 08f0 01       		.uleb128 0x1
 9627 08f1 50       		.byte	0x50
 9628 08f2 9F       		.byte	0x9f
 9629 08f3 1A050000 		.4byte	.LVL182-.Ltext0
 9630 08f7 1C050000 		.4byte	.LVL183-.Ltext0
 9631 08fb 0100     		.2byte	0x1
 9632 08fd 50       		.byte	0x50
 9633 08fe 1C050000 		.4byte	.LVL183-.Ltext0
 9634 0902 1E050000 		.4byte	.LFE53-.Ltext0
 9635 0906 0400     		.2byte	0x4
 9636 0908 F3       		.byte	0xf3
 9637 0909 01       		.uleb128 0x1
 9638 090a 50       		.byte	0x50
 9639 090b 9F       		.byte	0x9f
 9640 090c 00000000 		.4byte	0
 9641 0910 00000000 		.4byte	0
 9642              	.LLST51:
 9643 0914 F4040000 		.4byte	.LVL177-.Ltext0
 9644 0918 04050000 		.4byte	.LVL178-.Ltext0
 9645 091c 0100     		.2byte	0x1
 9646 091e 51       		.byte	0x51
 9647 091f 04050000 		.4byte	.LVL178-.Ltext0
 9648 0923 14050000 		.4byte	.LVL180-.Ltext0
 9649 0927 0400     		.2byte	0x4
 9650 0929 F3       		.byte	0xf3
 9651 092a 01       		.uleb128 0x1
 9652 092b 51       		.byte	0x51
 9653 092c 9F       		.byte	0x9f
 9654 092d 14050000 		.4byte	.LVL180-.Ltext0
ARM GAS  C:\Users\claym\AppData\Local\Temp\cc2sTfd9.s 			page 198


 9655 0931 1E050000 		.4byte	.LFE53-.Ltext0
 9656 0935 0100     		.2byte	0x1
 9657 0937 51       		.byte	0x51
 9658 0938 00000000 		.4byte	0
 9659 093c 00000000 		.4byte	0
 9660              	.LLST48:
 9661 0940 CA040000 		.4byte	.LVL170-.Ltext0
 9662 0944 E4040000 		.4byte	.LVL172-.Ltext0
 9663 0948 0100     		.2byte	0x1
 9664 094a 50       		.byte	0x50
 9665 094b E4040000 		.4byte	.LVL172-.Ltext0
 9666 094f EA040000 		.4byte	.LVL173-.Ltext0
 9667 0953 0400     		.2byte	0x4
 9668 0955 F3       		.byte	0xf3
 9669 0956 01       		.uleb128 0x1
 9670 0957 50       		.byte	0x50
 9671 0958 9F       		.byte	0x9f
 9672 0959 EA040000 		.4byte	.LVL173-.Ltext0
 9673 095d EC040000 		.4byte	.LVL174-.Ltext0
 9674 0961 0100     		.2byte	0x1
 9675 0963 50       		.byte	0x50
 9676 0964 EC040000 		.4byte	.LVL174-.Ltext0
 9677 0968 F0040000 		.4byte	.LVL175-.Ltext0
 9678 096c 0400     		.2byte	0x4
 9679 096e F3       		.byte	0xf3
 9680 096f 01       		.uleb128 0x1
 9681 0970 50       		.byte	0x50
 9682 0971 9F       		.byte	0x9f
 9683 0972 F0040000 		.4byte	.LVL175-.Ltext0
 9684 0976 F2040000 		.4byte	.LVL176-.Ltext0
 9685 097a 0100     		.2byte	0x1
 9686 097c 50       		.byte	0x50
 9687 097d F2040000 		.4byte	.LVL176-.Ltext0
 9688 0981 F4040000 		.4byte	.LFE52-.Ltext0
 9689 0985 0400     		.2byte	0x4
 9690 0987 F3       		.byte	0xf3
 9691 0988 01       		.uleb128 0x1
 9692 0989 50       		.byte	0x50
 9693 098a 9F       		.byte	0x9f
 9694 098b 00000000 		.4byte	0
 9695 098f 00000000 		.4byte	0
 9696              	.LLST49:
 9697 0993 CA040000 		.4byte	.LVL170-.Ltext0
 9698 0997 DA040000 		.4byte	.LVL171-.Ltext0
 9699 099b 0100     		.2byte	0x1
 9700 099d 51       		.byte	0x51
 9701 099e DA040000 		.4byte	.LVL171-.Ltext0
 9702 09a2 EA040000 		.4byte	.LVL173-.Ltext0
 9703 09a6 0400     		.2byte	0x4
 9704 09a8 F3       		.byte	0xf3
 9705 09a9 01       		.uleb128 0x1
 9706 09aa 51       		.byte	0x51
 9707 09ab 9F       		.byte	0x9f
 9708 09ac EA040000 		.4byte	.LVL173-.Ltext0
 9709 09b0 F4040000 		.4byte	.LFE52-.Ltext0
 9710 09b4 0100     		.2byte	0x1
 9711 09b6 51       		.byte	0x51
ARM GAS  C:\Users\claym\AppData\Local\Temp\cc2sTfd9.s 			page 199


 9712 09b7 00000000 		.4byte	0
 9713 09bb 00000000 		.4byte	0
 9714              	.LLST46:
 9715 09bf 8E040000 		.4byte	.LVL158-.Ltext0
 9716 09c3 A8040000 		.4byte	.LVL160-.Ltext0
 9717 09c7 0100     		.2byte	0x1
 9718 09c9 50       		.byte	0x50
 9719 09ca A8040000 		.4byte	.LVL160-.Ltext0
 9720 09ce AE040000 		.4byte	.LVL161-.Ltext0
 9721 09d2 0400     		.2byte	0x4
 9722 09d4 F3       		.byte	0xf3
 9723 09d5 01       		.uleb128 0x1
 9724 09d6 50       		.byte	0x50
 9725 09d7 9F       		.byte	0x9f
 9726 09d8 AE040000 		.4byte	.LVL161-.Ltext0
 9727 09dc B4040000 		.4byte	.LVL163-.Ltext0
 9728 09e0 0100     		.2byte	0x1
 9729 09e2 50       		.byte	0x50
 9730 09e3 B4040000 		.4byte	.LVL163-.Ltext0
 9731 09e7 B6040000 		.4byte	.LVL164-.Ltext0
 9732 09eb 0400     		.2byte	0x4
 9733 09ed F3       		.byte	0xf3
 9734 09ee 01       		.uleb128 0x1
 9735 09ef 50       		.byte	0x50
 9736 09f0 9F       		.byte	0x9f
 9737 09f1 B6040000 		.4byte	.LVL164-.Ltext0
 9738 09f5 C2040000 		.4byte	.LVL167-.Ltext0
 9739 09f9 0100     		.2byte	0x1
 9740 09fb 50       		.byte	0x50
 9741 09fc C2040000 		.4byte	.LVL167-.Ltext0
 9742 0a00 C6040000 		.4byte	.LVL168-.Ltext0
 9743 0a04 0400     		.2byte	0x4
 9744 0a06 F3       		.byte	0xf3
 9745 0a07 01       		.uleb128 0x1
 9746 0a08 50       		.byte	0x50
 9747 0a09 9F       		.byte	0x9f
 9748 0a0a C6040000 		.4byte	.LVL168-.Ltext0
 9749 0a0e C8040000 		.4byte	.LVL169-.Ltext0
 9750 0a12 0100     		.2byte	0x1
 9751 0a14 50       		.byte	0x50
 9752 0a15 C8040000 		.4byte	.LVL169-.Ltext0
 9753 0a19 CA040000 		.4byte	.LFE51-.Ltext0
 9754 0a1d 0400     		.2byte	0x4
 9755 0a1f F3       		.byte	0xf3
 9756 0a20 01       		.uleb128 0x1
 9757 0a21 50       		.byte	0x50
 9758 0a22 9F       		.byte	0x9f
 9759 0a23 00000000 		.4byte	0
 9760 0a27 00000000 		.4byte	0
 9761              	.LLST47:
 9762 0a2b 8E040000 		.4byte	.LVL158-.Ltext0
 9763 0a2f A6040000 		.4byte	.LVL159-.Ltext0
 9764 0a33 0100     		.2byte	0x1
 9765 0a35 51       		.byte	0x51
 9766 0a36 A6040000 		.4byte	.LVL159-.Ltext0
 9767 0a3a AE040000 		.4byte	.LVL161-.Ltext0
 9768 0a3e 0400     		.2byte	0x4
ARM GAS  C:\Users\claym\AppData\Local\Temp\cc2sTfd9.s 			page 200


 9769 0a40 F3       		.byte	0xf3
 9770 0a41 01       		.uleb128 0x1
 9771 0a42 51       		.byte	0x51
 9772 0a43 9F       		.byte	0x9f
 9773 0a44 AE040000 		.4byte	.LVL161-.Ltext0
 9774 0a48 B0040000 		.4byte	.LVL162-.Ltext0
 9775 0a4c 0100     		.2byte	0x1
 9776 0a4e 51       		.byte	0x51
 9777 0a4f B0040000 		.4byte	.LVL162-.Ltext0
 9778 0a53 B6040000 		.4byte	.LVL164-.Ltext0
 9779 0a57 0400     		.2byte	0x4
 9780 0a59 F3       		.byte	0xf3
 9781 0a5a 01       		.uleb128 0x1
 9782 0a5b 51       		.byte	0x51
 9783 0a5c 9F       		.byte	0x9f
 9784 0a5d B6040000 		.4byte	.LVL164-.Ltext0
 9785 0a61 B8040000 		.4byte	.LVL165-.Ltext0
 9786 0a65 0100     		.2byte	0x1
 9787 0a67 51       		.byte	0x51
 9788 0a68 B8040000 		.4byte	.LVL165-.Ltext0
 9789 0a6c C0040000 		.4byte	.LVL166-.Ltext0
 9790 0a70 0400     		.2byte	0x4
 9791 0a72 F3       		.byte	0xf3
 9792 0a73 01       		.uleb128 0x1
 9793 0a74 51       		.byte	0x51
 9794 0a75 9F       		.byte	0x9f
 9795 0a76 C0040000 		.4byte	.LVL166-.Ltext0
 9796 0a7a CA040000 		.4byte	.LFE51-.Ltext0
 9797 0a7e 0100     		.2byte	0x1
 9798 0a80 51       		.byte	0x51
 9799 0a81 00000000 		.4byte	0
 9800 0a85 00000000 		.4byte	0
 9801              	.LLST44:
 9802 0a89 5E040000 		.4byte	.LVL149-.Ltext0
 9803 0a8d 74040000 		.4byte	.LVL150-.Ltext0
 9804 0a91 0100     		.2byte	0x1
 9805 0a93 50       		.byte	0x50
 9806 0a94 74040000 		.4byte	.LVL150-.Ltext0
 9807 0a98 7A040000 		.4byte	.LVL152-.Ltext0
 9808 0a9c 0400     		.2byte	0x4
 9809 0a9e F3       		.byte	0xf3
 9810 0a9f 01       		.uleb128 0x1
 9811 0aa0 50       		.byte	0x50
 9812 0aa1 9F       		.byte	0x9f
 9813 0aa2 7A040000 		.4byte	.LVL152-.Ltext0
 9814 0aa6 86040000 		.4byte	.LVL155-.Ltext0
 9815 0aaa 0100     		.2byte	0x1
 9816 0aac 50       		.byte	0x50
 9817 0aad 86040000 		.4byte	.LVL155-.Ltext0
 9818 0ab1 8A040000 		.4byte	.LVL156-.Ltext0
 9819 0ab5 0400     		.2byte	0x4
 9820 0ab7 F3       		.byte	0xf3
 9821 0ab8 01       		.uleb128 0x1
 9822 0ab9 50       		.byte	0x50
 9823 0aba 9F       		.byte	0x9f
 9824 0abb 8A040000 		.4byte	.LVL156-.Ltext0
 9825 0abf 8C040000 		.4byte	.LVL157-.Ltext0
ARM GAS  C:\Users\claym\AppData\Local\Temp\cc2sTfd9.s 			page 201


 9826 0ac3 0100     		.2byte	0x1
 9827 0ac5 50       		.byte	0x50
 9828 0ac6 8C040000 		.4byte	.LVL157-.Ltext0
 9829 0aca 8E040000 		.4byte	.LFE50-.Ltext0
 9830 0ace 0400     		.2byte	0x4
 9831 0ad0 F3       		.byte	0xf3
 9832 0ad1 01       		.uleb128 0x1
 9833 0ad2 50       		.byte	0x50
 9834 0ad3 9F       		.byte	0x9f
 9835 0ad4 00000000 		.4byte	0
 9836 0ad8 00000000 		.4byte	0
 9837              	.LLST45:
 9838 0adc 5E040000 		.4byte	.LVL149-.Ltext0
 9839 0ae0 78040000 		.4byte	.LVL151-.Ltext0
 9840 0ae4 0100     		.2byte	0x1
 9841 0ae6 51       		.byte	0x51
 9842 0ae7 78040000 		.4byte	.LVL151-.Ltext0
 9843 0aeb 7A040000 		.4byte	.LVL152-.Ltext0
 9844 0aef 0400     		.2byte	0x4
 9845 0af1 F3       		.byte	0xf3
 9846 0af2 01       		.uleb128 0x1
 9847 0af3 51       		.byte	0x51
 9848 0af4 9F       		.byte	0x9f
 9849 0af5 7A040000 		.4byte	.LVL152-.Ltext0
 9850 0af9 7C040000 		.4byte	.LVL153-.Ltext0
 9851 0afd 0100     		.2byte	0x1
 9852 0aff 51       		.byte	0x51
 9853 0b00 7C040000 		.4byte	.LVL153-.Ltext0
 9854 0b04 84040000 		.4byte	.LVL154-.Ltext0
 9855 0b08 0400     		.2byte	0x4
 9856 0b0a F3       		.byte	0xf3
 9857 0b0b 01       		.uleb128 0x1
 9858 0b0c 51       		.byte	0x51
 9859 0b0d 9F       		.byte	0x9f
 9860 0b0e 84040000 		.4byte	.LVL154-.Ltext0
 9861 0b12 8E040000 		.4byte	.LFE50-.Ltext0
 9862 0b16 0100     		.2byte	0x1
 9863 0b18 51       		.byte	0x51
 9864 0b19 00000000 		.4byte	0
 9865 0b1d 00000000 		.4byte	0
 9866              	.LLST42:
 9867 0b21 2C040000 		.4byte	.LVL140-.Ltext0
 9868 0b25 42040000 		.4byte	.LVL141-.Ltext0
 9869 0b29 0100     		.2byte	0x1
 9870 0b2b 50       		.byte	0x50
 9871 0b2c 42040000 		.4byte	.LVL141-.Ltext0
 9872 0b30 4A040000 		.4byte	.LVL143-.Ltext0
 9873 0b34 0400     		.2byte	0x4
 9874 0b36 F3       		.byte	0xf3
 9875 0b37 01       		.uleb128 0x1
 9876 0b38 50       		.byte	0x50
 9877 0b39 9F       		.byte	0x9f
 9878 0b3a 4A040000 		.4byte	.LVL143-.Ltext0
 9879 0b3e 56040000 		.4byte	.LVL146-.Ltext0
 9880 0b42 0100     		.2byte	0x1
 9881 0b44 50       		.byte	0x50
 9882 0b45 56040000 		.4byte	.LVL146-.Ltext0
ARM GAS  C:\Users\claym\AppData\Local\Temp\cc2sTfd9.s 			page 202


 9883 0b49 5A040000 		.4byte	.LVL147-.Ltext0
 9884 0b4d 0400     		.2byte	0x4
 9885 0b4f F3       		.byte	0xf3
 9886 0b50 01       		.uleb128 0x1
 9887 0b51 50       		.byte	0x50
 9888 0b52 9F       		.byte	0x9f
 9889 0b53 5A040000 		.4byte	.LVL147-.Ltext0
 9890 0b57 5C040000 		.4byte	.LVL148-.Ltext0
 9891 0b5b 0100     		.2byte	0x1
 9892 0b5d 50       		.byte	0x50
 9893 0b5e 5C040000 		.4byte	.LVL148-.Ltext0
 9894 0b62 5E040000 		.4byte	.LFE49-.Ltext0
 9895 0b66 0400     		.2byte	0x4
 9896 0b68 F3       		.byte	0xf3
 9897 0b69 01       		.uleb128 0x1
 9898 0b6a 50       		.byte	0x50
 9899 0b6b 9F       		.byte	0x9f
 9900 0b6c 00000000 		.4byte	0
 9901 0b70 00000000 		.4byte	0
 9902              	.LLST43:
 9903 0b74 2C040000 		.4byte	.LVL140-.Ltext0
 9904 0b78 44040000 		.4byte	.LVL142-.Ltext0
 9905 0b7c 0100     		.2byte	0x1
 9906 0b7e 51       		.byte	0x51
 9907 0b7f 44040000 		.4byte	.LVL142-.Ltext0
 9908 0b83 4A040000 		.4byte	.LVL143-.Ltext0
 9909 0b87 0400     		.2byte	0x4
 9910 0b89 F3       		.byte	0xf3
 9911 0b8a 01       		.uleb128 0x1
 9912 0b8b 51       		.byte	0x51
 9913 0b8c 9F       		.byte	0x9f
 9914 0b8d 4A040000 		.4byte	.LVL143-.Ltext0
 9915 0b91 4C040000 		.4byte	.LVL144-.Ltext0
 9916 0b95 0100     		.2byte	0x1
 9917 0b97 51       		.byte	0x51
 9918 0b98 4C040000 		.4byte	.LVL144-.Ltext0
 9919 0b9c 54040000 		.4byte	.LVL145-.Ltext0
 9920 0ba0 0400     		.2byte	0x4
 9921 0ba2 F3       		.byte	0xf3
 9922 0ba3 01       		.uleb128 0x1
 9923 0ba4 51       		.byte	0x51
 9924 0ba5 9F       		.byte	0x9f
 9925 0ba6 54040000 		.4byte	.LVL145-.Ltext0
 9926 0baa 5E040000 		.4byte	.LFE49-.Ltext0
 9927 0bae 0100     		.2byte	0x1
 9928 0bb0 51       		.byte	0x51
 9929 0bb1 00000000 		.4byte	0
 9930 0bb5 00000000 		.4byte	0
 9931              	.LLST40:
 9932 0bb9 F4030000 		.4byte	.LVL131-.Ltext0
 9933 0bbd 0A040000 		.4byte	.LVL132-.Ltext0
 9934 0bc1 0100     		.2byte	0x1
 9935 0bc3 50       		.byte	0x50
 9936 0bc4 0A040000 		.4byte	.LVL132-.Ltext0
 9937 0bc8 14040000 		.4byte	.LVL134-.Ltext0
 9938 0bcc 0400     		.2byte	0x4
 9939 0bce F3       		.byte	0xf3
ARM GAS  C:\Users\claym\AppData\Local\Temp\cc2sTfd9.s 			page 203


 9940 0bcf 01       		.uleb128 0x1
 9941 0bd0 50       		.byte	0x50
 9942 0bd1 9F       		.byte	0x9f
 9943 0bd2 14040000 		.4byte	.LVL134-.Ltext0
 9944 0bd6 20040000 		.4byte	.LVL137-.Ltext0
 9945 0bda 0100     		.2byte	0x1
 9946 0bdc 50       		.byte	0x50
 9947 0bdd 20040000 		.4byte	.LVL137-.Ltext0
 9948 0be1 24040000 		.4byte	.LVL138-.Ltext0
 9949 0be5 0400     		.2byte	0x4
 9950 0be7 F3       		.byte	0xf3
 9951 0be8 01       		.uleb128 0x1
 9952 0be9 50       		.byte	0x50
 9953 0bea 9F       		.byte	0x9f
 9954 0beb 24040000 		.4byte	.LVL138-.Ltext0
 9955 0bef 26040000 		.4byte	.LVL139-.Ltext0
 9956 0bf3 0100     		.2byte	0x1
 9957 0bf5 50       		.byte	0x50
 9958 0bf6 26040000 		.4byte	.LVL139-.Ltext0
 9959 0bfa 2C040000 		.4byte	.LFE48-.Ltext0
 9960 0bfe 0400     		.2byte	0x4
 9961 0c00 F3       		.byte	0xf3
 9962 0c01 01       		.uleb128 0x1
 9963 0c02 50       		.byte	0x50
 9964 0c03 9F       		.byte	0x9f
 9965 0c04 00000000 		.4byte	0
 9966 0c08 00000000 		.4byte	0
 9967              	.LLST41:
 9968 0c0c F4030000 		.4byte	.LVL131-.Ltext0
 9969 0c10 0C040000 		.4byte	.LVL133-.Ltext0
 9970 0c14 0100     		.2byte	0x1
 9971 0c16 51       		.byte	0x51
 9972 0c17 0C040000 		.4byte	.LVL133-.Ltext0
 9973 0c1b 14040000 		.4byte	.LVL134-.Ltext0
 9974 0c1f 0400     		.2byte	0x4
 9975 0c21 F3       		.byte	0xf3
 9976 0c22 01       		.uleb128 0x1
 9977 0c23 51       		.byte	0x51
 9978 0c24 9F       		.byte	0x9f
 9979 0c25 14040000 		.4byte	.LVL134-.Ltext0
 9980 0c29 18040000 		.4byte	.LVL135-.Ltext0
 9981 0c2d 0100     		.2byte	0x1
 9982 0c2f 51       		.byte	0x51
 9983 0c30 18040000 		.4byte	.LVL135-.Ltext0
 9984 0c34 1E040000 		.4byte	.LVL136-.Ltext0
 9985 0c38 0400     		.2byte	0x4
 9986 0c3a F3       		.byte	0xf3
 9987 0c3b 01       		.uleb128 0x1
 9988 0c3c 51       		.byte	0x51
 9989 0c3d 9F       		.byte	0x9f
 9990 0c3e 1E040000 		.4byte	.LVL136-.Ltext0
 9991 0c42 2C040000 		.4byte	.LFE48-.Ltext0
 9992 0c46 0100     		.2byte	0x1
 9993 0c48 51       		.byte	0x51
 9994 0c49 00000000 		.4byte	0
 9995 0c4d 00000000 		.4byte	0
 9996              	.LLST38:
ARM GAS  C:\Users\claym\AppData\Local\Temp\cc2sTfd9.s 			page 204


 9997 0c51 BC030000 		.4byte	.LVL122-.Ltext0
 9998 0c55 D2030000 		.4byte	.LVL123-.Ltext0
 9999 0c59 0100     		.2byte	0x1
 10000 0c5b 50       		.byte	0x50
 10001 0c5c D2030000 		.4byte	.LVL123-.Ltext0
 10002 0c60 DC030000 		.4byte	.LVL125-.Ltext0
 10003 0c64 0400     		.2byte	0x4
 10004 0c66 F3       		.byte	0xf3
 10005 0c67 01       		.uleb128 0x1
 10006 0c68 50       		.byte	0x50
 10007 0c69 9F       		.byte	0x9f
 10008 0c6a DC030000 		.4byte	.LVL125-.Ltext0
 10009 0c6e E8030000 		.4byte	.LVL128-.Ltext0
 10010 0c72 0100     		.2byte	0x1
 10011 0c74 50       		.byte	0x50
 10012 0c75 E8030000 		.4byte	.LVL128-.Ltext0
 10013 0c79 EC030000 		.4byte	.LVL129-.Ltext0
 10014 0c7d 0400     		.2byte	0x4
 10015 0c7f F3       		.byte	0xf3
 10016 0c80 01       		.uleb128 0x1
 10017 0c81 50       		.byte	0x50
 10018 0c82 9F       		.byte	0x9f
 10019 0c83 EC030000 		.4byte	.LVL129-.Ltext0
 10020 0c87 EE030000 		.4byte	.LVL130-.Ltext0
 10021 0c8b 0100     		.2byte	0x1
 10022 0c8d 50       		.byte	0x50
 10023 0c8e EE030000 		.4byte	.LVL130-.Ltext0
 10024 0c92 F4030000 		.4byte	.LFE47-.Ltext0
 10025 0c96 0400     		.2byte	0x4
 10026 0c98 F3       		.byte	0xf3
 10027 0c99 01       		.uleb128 0x1
 10028 0c9a 50       		.byte	0x50
 10029 0c9b 9F       		.byte	0x9f
 10030 0c9c 00000000 		.4byte	0
 10031 0ca0 00000000 		.4byte	0
 10032              	.LLST39:
 10033 0ca4 BC030000 		.4byte	.LVL122-.Ltext0
 10034 0ca8 D4030000 		.4byte	.LVL124-.Ltext0
 10035 0cac 0100     		.2byte	0x1
 10036 0cae 51       		.byte	0x51
 10037 0caf D4030000 		.4byte	.LVL124-.Ltext0
 10038 0cb3 DC030000 		.4byte	.LVL125-.Ltext0
 10039 0cb7 0400     		.2byte	0x4
 10040 0cb9 F3       		.byte	0xf3
 10041 0cba 01       		.uleb128 0x1
 10042 0cbb 51       		.byte	0x51
 10043 0cbc 9F       		.byte	0x9f
 10044 0cbd DC030000 		.4byte	.LVL125-.Ltext0
 10045 0cc1 E0030000 		.4byte	.LVL126-.Ltext0
 10046 0cc5 0100     		.2byte	0x1
 10047 0cc7 51       		.byte	0x51
 10048 0cc8 E0030000 		.4byte	.LVL126-.Ltext0
 10049 0ccc E6030000 		.4byte	.LVL127-.Ltext0
 10050 0cd0 0400     		.2byte	0x4
 10051 0cd2 F3       		.byte	0xf3
 10052 0cd3 01       		.uleb128 0x1
 10053 0cd4 51       		.byte	0x51
ARM GAS  C:\Users\claym\AppData\Local\Temp\cc2sTfd9.s 			page 205


 10054 0cd5 9F       		.byte	0x9f
 10055 0cd6 E6030000 		.4byte	.LVL127-.Ltext0
 10056 0cda F4030000 		.4byte	.LFE47-.Ltext0
 10057 0cde 0100     		.2byte	0x1
 10058 0ce0 51       		.byte	0x51
 10059 0ce1 00000000 		.4byte	0
 10060 0ce5 00000000 		.4byte	0
 10061              	.LLST36:
 10062 0ce9 82030000 		.4byte	.LVL113-.Ltext0
 10063 0ced 98030000 		.4byte	.LVL114-.Ltext0
 10064 0cf1 0100     		.2byte	0x1
 10065 0cf3 50       		.byte	0x50
 10066 0cf4 98030000 		.4byte	.LVL114-.Ltext0
 10067 0cf8 A2030000 		.4byte	.LVL116-.Ltext0
 10068 0cfc 0400     		.2byte	0x4
 10069 0cfe F3       		.byte	0xf3
 10070 0cff 01       		.uleb128 0x1
 10071 0d00 50       		.byte	0x50
 10072 0d01 9F       		.byte	0x9f
 10073 0d02 A2030000 		.4byte	.LVL116-.Ltext0
 10074 0d06 AE030000 		.4byte	.LVL119-.Ltext0
 10075 0d0a 0100     		.2byte	0x1
 10076 0d0c 50       		.byte	0x50
 10077 0d0d AE030000 		.4byte	.LVL119-.Ltext0
 10078 0d11 B2030000 		.4byte	.LVL120-.Ltext0
 10079 0d15 0400     		.2byte	0x4
 10080 0d17 F3       		.byte	0xf3
 10081 0d18 01       		.uleb128 0x1
 10082 0d19 50       		.byte	0x50
 10083 0d1a 9F       		.byte	0x9f
 10084 0d1b B2030000 		.4byte	.LVL120-.Ltext0
 10085 0d1f B4030000 		.4byte	.LVL121-.Ltext0
 10086 0d23 0100     		.2byte	0x1
 10087 0d25 50       		.byte	0x50
 10088 0d26 B4030000 		.4byte	.LVL121-.Ltext0
 10089 0d2a BC030000 		.4byte	.LFE46-.Ltext0
 10090 0d2e 0400     		.2byte	0x4
 10091 0d30 F3       		.byte	0xf3
 10092 0d31 01       		.uleb128 0x1
 10093 0d32 50       		.byte	0x50
 10094 0d33 9F       		.byte	0x9f
 10095 0d34 00000000 		.4byte	0
 10096 0d38 00000000 		.4byte	0
 10097              	.LLST37:
 10098 0d3c 82030000 		.4byte	.LVL113-.Ltext0
 10099 0d40 9A030000 		.4byte	.LVL115-.Ltext0
 10100 0d44 0100     		.2byte	0x1
 10101 0d46 51       		.byte	0x51
 10102 0d47 9A030000 		.4byte	.LVL115-.Ltext0
 10103 0d4b A2030000 		.4byte	.LVL116-.Ltext0
 10104 0d4f 0400     		.2byte	0x4
 10105 0d51 F3       		.byte	0xf3
 10106 0d52 01       		.uleb128 0x1
 10107 0d53 51       		.byte	0x51
 10108 0d54 9F       		.byte	0x9f
 10109 0d55 A2030000 		.4byte	.LVL116-.Ltext0
 10110 0d59 A6030000 		.4byte	.LVL117-.Ltext0
ARM GAS  C:\Users\claym\AppData\Local\Temp\cc2sTfd9.s 			page 206


 10111 0d5d 0100     		.2byte	0x1
 10112 0d5f 51       		.byte	0x51
 10113 0d60 A6030000 		.4byte	.LVL117-.Ltext0
 10114 0d64 AC030000 		.4byte	.LVL118-.Ltext0
 10115 0d68 0400     		.2byte	0x4
 10116 0d6a F3       		.byte	0xf3
 10117 0d6b 01       		.uleb128 0x1
 10118 0d6c 51       		.byte	0x51
 10119 0d6d 9F       		.byte	0x9f
 10120 0d6e AC030000 		.4byte	.LVL118-.Ltext0
 10121 0d72 BC030000 		.4byte	.LFE46-.Ltext0
 10122 0d76 0100     		.2byte	0x1
 10123 0d78 51       		.byte	0x51
 10124 0d79 00000000 		.4byte	0
 10125 0d7d 00000000 		.4byte	0
 10126              	.LLST34:
 10127 0d81 50030000 		.4byte	.LVL104-.Ltext0
 10128 0d85 66030000 		.4byte	.LVL105-.Ltext0
 10129 0d89 0100     		.2byte	0x1
 10130 0d8b 50       		.byte	0x50
 10131 0d8c 66030000 		.4byte	.LVL105-.Ltext0
 10132 0d90 6E030000 		.4byte	.LVL107-.Ltext0
 10133 0d94 0400     		.2byte	0x4
 10134 0d96 F3       		.byte	0xf3
 10135 0d97 01       		.uleb128 0x1
 10136 0d98 50       		.byte	0x50
 10137 0d99 9F       		.byte	0x9f
 10138 0d9a 6E030000 		.4byte	.LVL107-.Ltext0
 10139 0d9e 7A030000 		.4byte	.LVL110-.Ltext0
 10140 0da2 0100     		.2byte	0x1
 10141 0da4 50       		.byte	0x50
 10142 0da5 7A030000 		.4byte	.LVL110-.Ltext0
 10143 0da9 7E030000 		.4byte	.LVL111-.Ltext0
 10144 0dad 0400     		.2byte	0x4
 10145 0daf F3       		.byte	0xf3
 10146 0db0 01       		.uleb128 0x1
 10147 0db1 50       		.byte	0x50
 10148 0db2 9F       		.byte	0x9f
 10149 0db3 7E030000 		.4byte	.LVL111-.Ltext0
 10150 0db7 80030000 		.4byte	.LVL112-.Ltext0
 10151 0dbb 0100     		.2byte	0x1
 10152 0dbd 50       		.byte	0x50
 10153 0dbe 80030000 		.4byte	.LVL112-.Ltext0
 10154 0dc2 82030000 		.4byte	.LFE45-.Ltext0
 10155 0dc6 0400     		.2byte	0x4
 10156 0dc8 F3       		.byte	0xf3
 10157 0dc9 01       		.uleb128 0x1
 10158 0dca 50       		.byte	0x50
 10159 0dcb 9F       		.byte	0x9f
 10160 0dcc 00000000 		.4byte	0
 10161 0dd0 00000000 		.4byte	0
 10162              	.LLST35:
 10163 0dd4 50030000 		.4byte	.LVL104-.Ltext0
 10164 0dd8 68030000 		.4byte	.LVL106-.Ltext0
 10165 0ddc 0100     		.2byte	0x1
 10166 0dde 51       		.byte	0x51
 10167 0ddf 68030000 		.4byte	.LVL106-.Ltext0
ARM GAS  C:\Users\claym\AppData\Local\Temp\cc2sTfd9.s 			page 207


 10168 0de3 6E030000 		.4byte	.LVL107-.Ltext0
 10169 0de7 0400     		.2byte	0x4
 10170 0de9 F3       		.byte	0xf3
 10171 0dea 01       		.uleb128 0x1
 10172 0deb 51       		.byte	0x51
 10173 0dec 9F       		.byte	0x9f
 10174 0ded 6E030000 		.4byte	.LVL107-.Ltext0
 10175 0df1 70030000 		.4byte	.LVL108-.Ltext0
 10176 0df5 0100     		.2byte	0x1
 10177 0df7 51       		.byte	0x51
 10178 0df8 70030000 		.4byte	.LVL108-.Ltext0
 10179 0dfc 78030000 		.4byte	.LVL109-.Ltext0
 10180 0e00 0400     		.2byte	0x4
 10181 0e02 F3       		.byte	0xf3
 10182 0e03 01       		.uleb128 0x1
 10183 0e04 51       		.byte	0x51
 10184 0e05 9F       		.byte	0x9f
 10185 0e06 78030000 		.4byte	.LVL109-.Ltext0
 10186 0e0a 82030000 		.4byte	.LFE45-.Ltext0
 10187 0e0e 0100     		.2byte	0x1
 10188 0e10 51       		.byte	0x51
 10189 0e11 00000000 		.4byte	0
 10190 0e15 00000000 		.4byte	0
 10191              	.LLST31:
 10192 0e19 0C030000 		.4byte	.LFB44-.Ltext0
 10193 0e1d 0E030000 		.4byte	.LCFI7-.Ltext0
 10194 0e21 0200     		.2byte	0x2
 10195 0e23 7D       		.byte	0x7d
 10196 0e24 00       		.sleb128 0
 10197 0e25 0E030000 		.4byte	.LCFI7-.Ltext0
 10198 0e29 50030000 		.4byte	.LFE44-.Ltext0
 10199 0e2d 0200     		.2byte	0x2
 10200 0e2f 7D       		.byte	0x7d
 10201 0e30 04       		.sleb128 4
 10202 0e31 00000000 		.4byte	0
 10203 0e35 00000000 		.4byte	0
 10204              	.LLST32:
 10205 0e39 0C030000 		.4byte	.LVL96-.Ltext0
 10206 0e3d 30030000 		.4byte	.LVL98-.Ltext0
 10207 0e41 0100     		.2byte	0x1
 10208 0e43 50       		.byte	0x50
 10209 0e44 30030000 		.4byte	.LVL98-.Ltext0
 10210 0e48 34030000 		.4byte	.LVL99-.Ltext0
 10211 0e4c 0400     		.2byte	0x4
 10212 0e4e F3       		.byte	0xf3
 10213 0e4f 01       		.uleb128 0x1
 10214 0e50 50       		.byte	0x50
 10215 0e51 9F       		.byte	0x9f
 10216 0e52 34030000 		.4byte	.LVL99-.Ltext0
 10217 0e56 48030000 		.4byte	.LVL101-.Ltext0
 10218 0e5a 0100     		.2byte	0x1
 10219 0e5c 50       		.byte	0x50
 10220 0e5d 48030000 		.4byte	.LVL101-.Ltext0
 10221 0e61 4C030000 		.4byte	.LVL102-.Ltext0
 10222 0e65 0400     		.2byte	0x4
 10223 0e67 F3       		.byte	0xf3
 10224 0e68 01       		.uleb128 0x1
ARM GAS  C:\Users\claym\AppData\Local\Temp\cc2sTfd9.s 			page 208


 10225 0e69 50       		.byte	0x50
 10226 0e6a 9F       		.byte	0x9f
 10227 0e6b 4C030000 		.4byte	.LVL102-.Ltext0
 10228 0e6f 4E030000 		.4byte	.LVL103-.Ltext0
 10229 0e73 0100     		.2byte	0x1
 10230 0e75 50       		.byte	0x50
 10231 0e76 4E030000 		.4byte	.LVL103-.Ltext0
 10232 0e7a 50030000 		.4byte	.LFE44-.Ltext0
 10233 0e7e 0400     		.2byte	0x4
 10234 0e80 F3       		.byte	0xf3
 10235 0e81 01       		.uleb128 0x1
 10236 0e82 50       		.byte	0x50
 10237 0e83 9F       		.byte	0x9f
 10238 0e84 00000000 		.4byte	0
 10239 0e88 00000000 		.4byte	0
 10240              	.LLST33:
 10241 0e8c 0C030000 		.4byte	.LVL96-.Ltext0
 10242 0e90 1C030000 		.4byte	.LVL97-.Ltext0
 10243 0e94 0100     		.2byte	0x1
 10244 0e96 51       		.byte	0x51
 10245 0e97 1C030000 		.4byte	.LVL97-.Ltext0
 10246 0e9b 46030000 		.4byte	.LVL100-.Ltext0
 10247 0e9f 0400     		.2byte	0x4
 10248 0ea1 F3       		.byte	0xf3
 10249 0ea2 01       		.uleb128 0x1
 10250 0ea3 51       		.byte	0x51
 10251 0ea4 9F       		.byte	0x9f
 10252 0ea5 46030000 		.4byte	.LVL100-.Ltext0
 10253 0ea9 48030000 		.4byte	.LVL101-.Ltext0
 10254 0ead 0100     		.2byte	0x1
 10255 0eaf 51       		.byte	0x51
 10256 0eb0 48030000 		.4byte	.LVL101-.Ltext0
 10257 0eb4 50030000 		.4byte	.LFE44-.Ltext0
 10258 0eb8 0400     		.2byte	0x4
 10259 0eba F3       		.byte	0xf3
 10260 0ebb 01       		.uleb128 0x1
 10261 0ebc 51       		.byte	0x51
 10262 0ebd 9F       		.byte	0x9f
 10263 0ebe 00000000 		.4byte	0
 10264 0ec2 00000000 		.4byte	0
 10265              	.LLST29:
 10266 0ec6 DA020000 		.4byte	.LVL87-.Ltext0
 10267 0eca F0020000 		.4byte	.LVL88-.Ltext0
 10268 0ece 0100     		.2byte	0x1
 10269 0ed0 50       		.byte	0x50
 10270 0ed1 F0020000 		.4byte	.LVL88-.Ltext0
 10271 0ed5 F8020000 		.4byte	.LVL90-.Ltext0
 10272 0ed9 0400     		.2byte	0x4
 10273 0edb F3       		.byte	0xf3
 10274 0edc 01       		.uleb128 0x1
 10275 0edd 50       		.byte	0x50
 10276 0ede 9F       		.byte	0x9f
 10277 0edf F8020000 		.4byte	.LVL90-.Ltext0
 10278 0ee3 04030000 		.4byte	.LVL93-.Ltext0
 10279 0ee7 0100     		.2byte	0x1
 10280 0ee9 50       		.byte	0x50
 10281 0eea 04030000 		.4byte	.LVL93-.Ltext0
ARM GAS  C:\Users\claym\AppData\Local\Temp\cc2sTfd9.s 			page 209


 10282 0eee 08030000 		.4byte	.LVL94-.Ltext0
 10283 0ef2 0400     		.2byte	0x4
 10284 0ef4 F3       		.byte	0xf3
 10285 0ef5 01       		.uleb128 0x1
 10286 0ef6 50       		.byte	0x50
 10287 0ef7 9F       		.byte	0x9f
 10288 0ef8 08030000 		.4byte	.LVL94-.Ltext0
 10289 0efc 0A030000 		.4byte	.LVL95-.Ltext0
 10290 0f00 0100     		.2byte	0x1
 10291 0f02 50       		.byte	0x50
 10292 0f03 0A030000 		.4byte	.LVL95-.Ltext0
 10293 0f07 0C030000 		.4byte	.LFE43-.Ltext0
 10294 0f0b 0400     		.2byte	0x4
 10295 0f0d F3       		.byte	0xf3
 10296 0f0e 01       		.uleb128 0x1
 10297 0f0f 50       		.byte	0x50
 10298 0f10 9F       		.byte	0x9f
 10299 0f11 00000000 		.4byte	0
 10300 0f15 00000000 		.4byte	0
 10301              	.LLST30:
 10302 0f19 DA020000 		.4byte	.LVL87-.Ltext0
 10303 0f1d F2020000 		.4byte	.LVL89-.Ltext0
 10304 0f21 0100     		.2byte	0x1
 10305 0f23 51       		.byte	0x51
 10306 0f24 F2020000 		.4byte	.LVL89-.Ltext0
 10307 0f28 F8020000 		.4byte	.LVL90-.Ltext0
 10308 0f2c 0400     		.2byte	0x4
 10309 0f2e F3       		.byte	0xf3
 10310 0f2f 01       		.uleb128 0x1
 10311 0f30 51       		.byte	0x51
 10312 0f31 9F       		.byte	0x9f
 10313 0f32 F8020000 		.4byte	.LVL90-.Ltext0
 10314 0f36 FA020000 		.4byte	.LVL91-.Ltext0
 10315 0f3a 0100     		.2byte	0x1
 10316 0f3c 51       		.byte	0x51
 10317 0f3d FA020000 		.4byte	.LVL91-.Ltext0
 10318 0f41 02030000 		.4byte	.LVL92-.Ltext0
 10319 0f45 0400     		.2byte	0x4
 10320 0f47 F3       		.byte	0xf3
 10321 0f48 01       		.uleb128 0x1
 10322 0f49 51       		.byte	0x51
 10323 0f4a 9F       		.byte	0x9f
 10324 0f4b 02030000 		.4byte	.LVL92-.Ltext0
 10325 0f4f 0C030000 		.4byte	.LFE43-.Ltext0
 10326 0f53 0100     		.2byte	0x1
 10327 0f55 51       		.byte	0x51
 10328 0f56 00000000 		.4byte	0
 10329 0f5a 00000000 		.4byte	0
 10330              	.LLST27:
 10331 0f5e A8020000 		.4byte	.LVL78-.Ltext0
 10332 0f62 BE020000 		.4byte	.LVL79-.Ltext0
 10333 0f66 0100     		.2byte	0x1
 10334 0f68 50       		.byte	0x50
 10335 0f69 BE020000 		.4byte	.LVL79-.Ltext0
 10336 0f6d C6020000 		.4byte	.LVL81-.Ltext0
 10337 0f71 0400     		.2byte	0x4
 10338 0f73 F3       		.byte	0xf3
ARM GAS  C:\Users\claym\AppData\Local\Temp\cc2sTfd9.s 			page 210


 10339 0f74 01       		.uleb128 0x1
 10340 0f75 50       		.byte	0x50
 10341 0f76 9F       		.byte	0x9f
 10342 0f77 C6020000 		.4byte	.LVL81-.Ltext0
 10343 0f7b D2020000 		.4byte	.LVL84-.Ltext0
 10344 0f7f 0100     		.2byte	0x1
 10345 0f81 50       		.byte	0x50
 10346 0f82 D2020000 		.4byte	.LVL84-.Ltext0
 10347 0f86 D6020000 		.4byte	.LVL85-.Ltext0
 10348 0f8a 0400     		.2byte	0x4
 10349 0f8c F3       		.byte	0xf3
 10350 0f8d 01       		.uleb128 0x1
 10351 0f8e 50       		.byte	0x50
 10352 0f8f 9F       		.byte	0x9f
 10353 0f90 D6020000 		.4byte	.LVL85-.Ltext0
 10354 0f94 D8020000 		.4byte	.LVL86-.Ltext0
 10355 0f98 0100     		.2byte	0x1
 10356 0f9a 50       		.byte	0x50
 10357 0f9b D8020000 		.4byte	.LVL86-.Ltext0
 10358 0f9f DA020000 		.4byte	.LFE42-.Ltext0
 10359 0fa3 0400     		.2byte	0x4
 10360 0fa5 F3       		.byte	0xf3
 10361 0fa6 01       		.uleb128 0x1
 10362 0fa7 50       		.byte	0x50
 10363 0fa8 9F       		.byte	0x9f
 10364 0fa9 00000000 		.4byte	0
 10365 0fad 00000000 		.4byte	0
 10366              	.LLST28:
 10367 0fb1 A8020000 		.4byte	.LVL78-.Ltext0
 10368 0fb5 C0020000 		.4byte	.LVL80-.Ltext0
 10369 0fb9 0100     		.2byte	0x1
 10370 0fbb 51       		.byte	0x51
 10371 0fbc C0020000 		.4byte	.LVL80-.Ltext0
 10372 0fc0 C6020000 		.4byte	.LVL81-.Ltext0
 10373 0fc4 0400     		.2byte	0x4
 10374 0fc6 F3       		.byte	0xf3
 10375 0fc7 01       		.uleb128 0x1
 10376 0fc8 51       		.byte	0x51
 10377 0fc9 9F       		.byte	0x9f
 10378 0fca C6020000 		.4byte	.LVL81-.Ltext0
 10379 0fce C8020000 		.4byte	.LVL82-.Ltext0
 10380 0fd2 0100     		.2byte	0x1
 10381 0fd4 51       		.byte	0x51
 10382 0fd5 C8020000 		.4byte	.LVL82-.Ltext0
 10383 0fd9 D0020000 		.4byte	.LVL83-.Ltext0
 10384 0fdd 0400     		.2byte	0x4
 10385 0fdf F3       		.byte	0xf3
 10386 0fe0 01       		.uleb128 0x1
 10387 0fe1 51       		.byte	0x51
 10388 0fe2 9F       		.byte	0x9f
 10389 0fe3 D0020000 		.4byte	.LVL83-.Ltext0
 10390 0fe7 DA020000 		.4byte	.LFE42-.Ltext0
 10391 0feb 0100     		.2byte	0x1
 10392 0fed 51       		.byte	0x51
 10393 0fee 00000000 		.4byte	0
 10394 0ff2 00000000 		.4byte	0
 10395              	.LLST25:
ARM GAS  C:\Users\claym\AppData\Local\Temp\cc2sTfd9.s 			page 211


 10396 0ff6 76020000 		.4byte	.LVL69-.Ltext0
 10397 0ffa 8C020000 		.4byte	.LVL70-.Ltext0
 10398 0ffe 0100     		.2byte	0x1
 10399 1000 50       		.byte	0x50
 10400 1001 8C020000 		.4byte	.LVL70-.Ltext0
 10401 1005 94020000 		.4byte	.LVL72-.Ltext0
 10402 1009 0400     		.2byte	0x4
 10403 100b F3       		.byte	0xf3
 10404 100c 01       		.uleb128 0x1
 10405 100d 50       		.byte	0x50
 10406 100e 9F       		.byte	0x9f
 10407 100f 94020000 		.4byte	.LVL72-.Ltext0
 10408 1013 A0020000 		.4byte	.LVL75-.Ltext0
 10409 1017 0100     		.2byte	0x1
 10410 1019 50       		.byte	0x50
 10411 101a A0020000 		.4byte	.LVL75-.Ltext0
 10412 101e A4020000 		.4byte	.LVL76-.Ltext0
 10413 1022 0400     		.2byte	0x4
 10414 1024 F3       		.byte	0xf3
 10415 1025 01       		.uleb128 0x1
 10416 1026 50       		.byte	0x50
 10417 1027 9F       		.byte	0x9f
 10418 1028 A4020000 		.4byte	.LVL76-.Ltext0
 10419 102c A6020000 		.4byte	.LVL77-.Ltext0
 10420 1030 0100     		.2byte	0x1
 10421 1032 50       		.byte	0x50
 10422 1033 A6020000 		.4byte	.LVL77-.Ltext0
 10423 1037 A8020000 		.4byte	.LFE41-.Ltext0
 10424 103b 0400     		.2byte	0x4
 10425 103d F3       		.byte	0xf3
 10426 103e 01       		.uleb128 0x1
 10427 103f 50       		.byte	0x50
 10428 1040 9F       		.byte	0x9f
 10429 1041 00000000 		.4byte	0
 10430 1045 00000000 		.4byte	0
 10431              	.LLST26:
 10432 1049 76020000 		.4byte	.LVL69-.Ltext0
 10433 104d 8E020000 		.4byte	.LVL71-.Ltext0
 10434 1051 0100     		.2byte	0x1
 10435 1053 51       		.byte	0x51
 10436 1054 8E020000 		.4byte	.LVL71-.Ltext0
 10437 1058 94020000 		.4byte	.LVL72-.Ltext0
 10438 105c 0400     		.2byte	0x4
 10439 105e F3       		.byte	0xf3
 10440 105f 01       		.uleb128 0x1
 10441 1060 51       		.byte	0x51
 10442 1061 9F       		.byte	0x9f
 10443 1062 94020000 		.4byte	.LVL72-.Ltext0
 10444 1066 96020000 		.4byte	.LVL73-.Ltext0
 10445 106a 0100     		.2byte	0x1
 10446 106c 51       		.byte	0x51
 10447 106d 96020000 		.4byte	.LVL73-.Ltext0
 10448 1071 9E020000 		.4byte	.LVL74-.Ltext0
 10449 1075 0400     		.2byte	0x4
 10450 1077 F3       		.byte	0xf3
 10451 1078 01       		.uleb128 0x1
 10452 1079 51       		.byte	0x51
ARM GAS  C:\Users\claym\AppData\Local\Temp\cc2sTfd9.s 			page 212


 10453 107a 9F       		.byte	0x9f
 10454 107b 9E020000 		.4byte	.LVL74-.Ltext0
 10455 107f A8020000 		.4byte	.LFE41-.Ltext0
 10456 1083 0100     		.2byte	0x1
 10457 1085 51       		.byte	0x51
 10458 1086 00000000 		.4byte	0
 10459 108a 00000000 		.4byte	0
 10460              	.LLST23:
 10461 108e 46020000 		.4byte	.LVL60-.Ltext0
 10462 1092 5C020000 		.4byte	.LVL61-.Ltext0
 10463 1096 0100     		.2byte	0x1
 10464 1098 50       		.byte	0x50
 10465 1099 5C020000 		.4byte	.LVL61-.Ltext0
 10466 109d 62020000 		.4byte	.LVL63-.Ltext0
 10467 10a1 0400     		.2byte	0x4
 10468 10a3 F3       		.byte	0xf3
 10469 10a4 01       		.uleb128 0x1
 10470 10a5 50       		.byte	0x50
 10471 10a6 9F       		.byte	0x9f
 10472 10a7 62020000 		.4byte	.LVL63-.Ltext0
 10473 10ab 6E020000 		.4byte	.LVL66-.Ltext0
 10474 10af 0100     		.2byte	0x1
 10475 10b1 50       		.byte	0x50
 10476 10b2 6E020000 		.4byte	.LVL66-.Ltext0
 10477 10b6 72020000 		.4byte	.LVL67-.Ltext0
 10478 10ba 0400     		.2byte	0x4
 10479 10bc F3       		.byte	0xf3
 10480 10bd 01       		.uleb128 0x1
 10481 10be 50       		.byte	0x50
 10482 10bf 9F       		.byte	0x9f
 10483 10c0 72020000 		.4byte	.LVL67-.Ltext0
 10484 10c4 74020000 		.4byte	.LVL68-.Ltext0
 10485 10c8 0100     		.2byte	0x1
 10486 10ca 50       		.byte	0x50
 10487 10cb 74020000 		.4byte	.LVL68-.Ltext0
 10488 10cf 76020000 		.4byte	.LFE40-.Ltext0
 10489 10d3 0400     		.2byte	0x4
 10490 10d5 F3       		.byte	0xf3
 10491 10d6 01       		.uleb128 0x1
 10492 10d7 50       		.byte	0x50
 10493 10d8 9F       		.byte	0x9f
 10494 10d9 00000000 		.4byte	0
 10495 10dd 00000000 		.4byte	0
 10496              	.LLST24:
 10497 10e1 46020000 		.4byte	.LVL60-.Ltext0
 10498 10e5 60020000 		.4byte	.LVL62-.Ltext0
 10499 10e9 0100     		.2byte	0x1
 10500 10eb 51       		.byte	0x51
 10501 10ec 60020000 		.4byte	.LVL62-.Ltext0
 10502 10f0 62020000 		.4byte	.LVL63-.Ltext0
 10503 10f4 0400     		.2byte	0x4
 10504 10f6 F3       		.byte	0xf3
 10505 10f7 01       		.uleb128 0x1
 10506 10f8 51       		.byte	0x51
 10507 10f9 9F       		.byte	0x9f
 10508 10fa 62020000 		.4byte	.LVL63-.Ltext0
 10509 10fe 64020000 		.4byte	.LVL64-.Ltext0
ARM GAS  C:\Users\claym\AppData\Local\Temp\cc2sTfd9.s 			page 213


 10510 1102 0100     		.2byte	0x1
 10511 1104 51       		.byte	0x51
 10512 1105 64020000 		.4byte	.LVL64-.Ltext0
 10513 1109 6C020000 		.4byte	.LVL65-.Ltext0
 10514 110d 0400     		.2byte	0x4
 10515 110f F3       		.byte	0xf3
 10516 1110 01       		.uleb128 0x1
 10517 1111 51       		.byte	0x51
 10518 1112 9F       		.byte	0x9f
 10519 1113 6C020000 		.4byte	.LVL65-.Ltext0
 10520 1117 76020000 		.4byte	.LFE40-.Ltext0
 10521 111b 0100     		.2byte	0x1
 10522 111d 51       		.byte	0x51
 10523 111e 00000000 		.4byte	0
 10524 1122 00000000 		.4byte	0
 10525              	.LLST16:
 10526 1126 60010000 		.4byte	.LFB39-.Ltext0
 10527 112a 62010000 		.4byte	.LCFI5-.Ltext0
 10528 112e 0200     		.2byte	0x2
 10529 1130 7D       		.byte	0x7d
 10530 1131 00       		.sleb128 0
 10531 1132 62010000 		.4byte	.LCFI5-.Ltext0
 10532 1136 64010000 		.4byte	.LCFI6-.Ltext0
 10533 113a 0200     		.2byte	0x2
 10534 113c 7D       		.byte	0x7d
 10535 113d 14       		.sleb128 20
 10536 113e 64010000 		.4byte	.LCFI6-.Ltext0
 10537 1142 46020000 		.4byte	.LFE39-.Ltext0
 10538 1146 0200     		.2byte	0x2
 10539 1148 7D       		.byte	0x7d
 10540 1149 28       		.sleb128 40
 10541 114a 00000000 		.4byte	0
 10542 114e 00000000 		.4byte	0
 10543              	.LLST17:
 10544 1152 60010000 		.4byte	.LVL41-.Ltext0
 10545 1156 80010000 		.4byte	.LVL43-.Ltext0
 10546 115a 0100     		.2byte	0x1
 10547 115c 50       		.byte	0x50
 10548 115d 80010000 		.4byte	.LVL43-.Ltext0
 10549 1161 3A020000 		.4byte	.LVL55-.Ltext0
 10550 1165 0200     		.2byte	0x2
 10551 1167 91       		.byte	0x91
 10552 1168 5C       		.sleb128 -36
 10553 1169 3A020000 		.4byte	.LVL55-.Ltext0
 10554 116d 3C020000 		.4byte	.LVL56-.Ltext0
 10555 1171 0100     		.2byte	0x1
 10556 1173 50       		.byte	0x50
 10557 1174 3C020000 		.4byte	.LVL56-.Ltext0
 10558 1178 3E020000 		.4byte	.LVL57-.Ltext0
 10559 117c 0200     		.2byte	0x2
 10560 117e 91       		.byte	0x91
 10561 117f 5C       		.sleb128 -36
 10562 1180 3E020000 		.4byte	.LVL57-.Ltext0
 10563 1184 40020000 		.4byte	.LVL58-.Ltext0
 10564 1188 0100     		.2byte	0x1
 10565 118a 50       		.byte	0x50
 10566 118b 40020000 		.4byte	.LVL58-.Ltext0
ARM GAS  C:\Users\claym\AppData\Local\Temp\cc2sTfd9.s 			page 214


 10567 118f 46020000 		.4byte	.LFE39-.Ltext0
 10568 1193 0200     		.2byte	0x2
 10569 1195 91       		.byte	0x91
 10570 1196 5C       		.sleb128 -36
 10571 1197 00000000 		.4byte	0
 10572 119b 00000000 		.4byte	0
 10573              	.LLST18:
 10574 119f 60010000 		.4byte	.LVL41-.Ltext0
 10575 11a3 7E010000 		.4byte	.LVL42-.Ltext0
 10576 11a7 0100     		.2byte	0x1
 10577 11a9 51       		.byte	0x51
 10578 11aa 7E010000 		.4byte	.LVL42-.Ltext0
 10579 11ae C6010000 		.4byte	.LVL48-.Ltext0
 10580 11b2 0200     		.2byte	0x2
 10581 11b4 7D       		.byte	0x7d
 10582 11b5 00       		.sleb128 0
 10583 11b6 C6010000 		.4byte	.LVL48-.Ltext0
 10584 11ba C8010000 		.4byte	.LVL50-.Ltext0
 10585 11be 0200     		.2byte	0x2
 10586 11c0 91       		.byte	0x91
 10587 11c1 58       		.sleb128 -40
 10588 11c2 C8010000 		.4byte	.LVL50-.Ltext0
 10589 11c6 3A020000 		.4byte	.LVL55-.Ltext0
 10590 11ca 0200     		.2byte	0x2
 10591 11cc 7D       		.byte	0x7d
 10592 11cd 00       		.sleb128 0
 10593 11ce 3A020000 		.4byte	.LVL55-.Ltext0
 10594 11d2 42020000 		.4byte	.LVL59-.Ltext0
 10595 11d6 0100     		.2byte	0x1
 10596 11d8 51       		.byte	0x51
 10597 11d9 42020000 		.4byte	.LVL59-.Ltext0
 10598 11dd 46020000 		.4byte	.LFE39-.Ltext0
 10599 11e1 0200     		.2byte	0x2
 10600 11e3 7D       		.byte	0x7d
 10601 11e4 00       		.sleb128 0
 10602 11e5 00000000 		.4byte	0
 10603 11e9 00000000 		.4byte	0
 10604              	.LLST19:
 10605 11ed 60010000 		.4byte	.LVL41-.Ltext0
 10606 11f1 83010000 		.4byte	.LVL44-1-.Ltext0
 10607 11f5 0100     		.2byte	0x1
 10608 11f7 52       		.byte	0x52
 10609 11f8 83010000 		.4byte	.LVL44-1-.Ltext0
 10610 11fc C6010000 		.4byte	.LVL49-.Ltext0
 10611 1200 0100     		.2byte	0x1
 10612 1202 54       		.byte	0x54
 10613 1203 C6010000 		.4byte	.LVL49-.Ltext0
 10614 1207 C8010000 		.4byte	.LVL50-.Ltext0
 10615 120b 0400     		.2byte	0x4
 10616 120d F3       		.byte	0xf3
 10617 120e 01       		.uleb128 0x1
 10618 120f 52       		.byte	0x52
 10619 1210 9F       		.byte	0x9f
 10620 1211 C8010000 		.4byte	.LVL50-.Ltext0
 10621 1215 3A020000 		.4byte	.LVL55-.Ltext0
 10622 1219 0100     		.2byte	0x1
 10623 121b 54       		.byte	0x54
ARM GAS  C:\Users\claym\AppData\Local\Temp\cc2sTfd9.s 			page 215


 10624 121c 3A020000 		.4byte	.LVL55-.Ltext0
 10625 1220 42020000 		.4byte	.LVL59-.Ltext0
 10626 1224 0100     		.2byte	0x1
 10627 1226 52       		.byte	0x52
 10628 1227 42020000 		.4byte	.LVL59-.Ltext0
 10629 122b 46020000 		.4byte	.LFE39-.Ltext0
 10630 122f 0100     		.2byte	0x1
 10631 1231 54       		.byte	0x54
 10632 1232 00000000 		.4byte	0
 10633 1236 00000000 		.4byte	0
 10634              	.LLST20:
 10635 123a AA010000 		.4byte	.LVL46-.Ltext0
 10636 123e C2010000 		.4byte	.LVL47-.Ltext0
 10637 1242 0100     		.2byte	0x1
 10638 1244 56       		.byte	0x56
 10639 1245 C8010000 		.4byte	.LVL50-.Ltext0
 10640 1249 0C020000 		.4byte	.LVL53-.Ltext0
 10641 124d 0100     		.2byte	0x1
 10642 124f 56       		.byte	0x56
 10643 1250 42020000 		.4byte	.LVL59-.Ltext0
 10644 1254 46020000 		.4byte	.LFE39-.Ltext0
 10645 1258 0100     		.2byte	0x1
 10646 125a 56       		.byte	0x56
 10647 125b 00000000 		.4byte	0
 10648 125f 00000000 		.4byte	0
 10649              	.LLST21:
 10650 1263 AA010000 		.4byte	.LVL46-.Ltext0
 10651 1267 C2010000 		.4byte	.LVL47-.Ltext0
 10652 126b 0200     		.2byte	0x2
 10653 126d 91       		.byte	0x91
 10654 126e 64       		.sleb128 -28
 10655 126f C8010000 		.4byte	.LVL50-.Ltext0
 10656 1273 0C020000 		.4byte	.LVL53-.Ltext0
 10657 1277 0200     		.2byte	0x2
 10658 1279 91       		.byte	0x91
 10659 127a 64       		.sleb128 -28
 10660 127b 42020000 		.4byte	.LVL59-.Ltext0
 10661 127f 46020000 		.4byte	.LFE39-.Ltext0
 10662 1283 0200     		.2byte	0x2
 10663 1285 91       		.byte	0x91
 10664 1286 64       		.sleb128 -28
 10665 1287 00000000 		.4byte	0
 10666 128b 00000000 		.4byte	0
 10667              	.LLST22:
 10668 128f A2010000 		.4byte	.LVL45-.Ltext0
 10669 1293 AA010000 		.4byte	.LVL46-.Ltext0
 10670 1297 0100     		.2byte	0x1
 10671 1299 50       		.byte	0x50
 10672 129a 00000000 		.4byte	0
 10673 129e 00000000 		.4byte	0
 10674              	.LLST10:
 10675 12a2 A6000000 		.4byte	.LFB38-.Ltext0
 10676 12a6 A8000000 		.4byte	.LCFI4-.Ltext0
 10677 12aa 0200     		.2byte	0x2
 10678 12ac 7D       		.byte	0x7d
 10679 12ad 00       		.sleb128 0
 10680 12ae A8000000 		.4byte	.LCFI4-.Ltext0
ARM GAS  C:\Users\claym\AppData\Local\Temp\cc2sTfd9.s 			page 216


 10681 12b2 60010000 		.4byte	.LFE38-.Ltext0
 10682 12b6 0200     		.2byte	0x2
 10683 12b8 7D       		.byte	0x7d
 10684 12b9 18       		.sleb128 24
 10685 12ba 00000000 		.4byte	0
 10686 12be 00000000 		.4byte	0
 10687              	.LLST11:
 10688 12c2 A6000000 		.4byte	.LVL19-.Ltext0
 10689 12c6 C2000000 		.4byte	.LVL21-.Ltext0
 10690 12ca 0100     		.2byte	0x1
 10691 12cc 50       		.byte	0x50
 10692 12cd C2000000 		.4byte	.LVL21-.Ltext0
 10693 12d1 4A010000 		.4byte	.LVL35-.Ltext0
 10694 12d5 0100     		.2byte	0x1
 10695 12d7 57       		.byte	0x57
 10696 12d8 4A010000 		.4byte	.LVL35-.Ltext0
 10697 12dc 4C010000 		.4byte	.LVL36-.Ltext0
 10698 12e0 0400     		.2byte	0x4
 10699 12e2 F3       		.byte	0xf3
 10700 12e3 01       		.uleb128 0x1
 10701 12e4 50       		.byte	0x50
 10702 12e5 9F       		.byte	0x9f
 10703 12e6 4C010000 		.4byte	.LVL36-.Ltext0
 10704 12ea 56010000 		.4byte	.LVL37-.Ltext0
 10705 12ee 0100     		.2byte	0x1
 10706 12f0 57       		.byte	0x57
 10707 12f1 56010000 		.4byte	.LVL37-.Ltext0
 10708 12f5 58010000 		.4byte	.LVL38-.Ltext0
 10709 12f9 0100     		.2byte	0x1
 10710 12fb 50       		.byte	0x50
 10711 12fc 58010000 		.4byte	.LVL38-.Ltext0
 10712 1300 5C010000 		.4byte	.LVL39-.Ltext0
 10713 1304 0100     		.2byte	0x1
 10714 1306 57       		.byte	0x57
 10715 1307 5C010000 		.4byte	.LVL39-.Ltext0
 10716 130b 5E010000 		.4byte	.LVL40-.Ltext0
 10717 130f 0100     		.2byte	0x1
 10718 1311 50       		.byte	0x50
 10719 1312 5E010000 		.4byte	.LVL40-.Ltext0
 10720 1316 60010000 		.4byte	.LFE38-.Ltext0
 10721 131a 0100     		.2byte	0x1
 10722 131c 57       		.byte	0x57
 10723 131d 00000000 		.4byte	0
 10724 1321 00000000 		.4byte	0
 10725              	.LLST12:
 10726 1325 A6000000 		.4byte	.LVL19-.Ltext0
 10727 1329 C0000000 		.4byte	.LVL20-.Ltext0
 10728 132d 0100     		.2byte	0x1
 10729 132f 51       		.byte	0x51
 10730 1330 C0000000 		.4byte	.LVL20-.Ltext0
 10731 1334 4A010000 		.4byte	.LVL34-.Ltext0
 10732 1338 0100     		.2byte	0x1
 10733 133a 56       		.byte	0x56
 10734 133b 4C010000 		.4byte	.LVL36-.Ltext0
 10735 133f 56010000 		.4byte	.LVL37-.Ltext0
 10736 1343 0100     		.2byte	0x1
 10737 1345 56       		.byte	0x56
ARM GAS  C:\Users\claym\AppData\Local\Temp\cc2sTfd9.s 			page 217


 10738 1346 56010000 		.4byte	.LVL37-.Ltext0
 10739 134a 60010000 		.4byte	.LFE38-.Ltext0
 10740 134e 0100     		.2byte	0x1
 10741 1350 51       		.byte	0x51
 10742 1351 00000000 		.4byte	0
 10743 1355 00000000 		.4byte	0
 10744              	.LLST13:
 10745 1359 A6000000 		.4byte	.LVL19-.Ltext0
 10746 135d C5000000 		.4byte	.LVL22-1-.Ltext0
 10747 1361 0100     		.2byte	0x1
 10748 1363 52       		.byte	0x52
 10749 1364 C5000000 		.4byte	.LVL22-1-.Ltext0
 10750 1368 4A010000 		.4byte	.LVL33-.Ltext0
 10751 136c 0100     		.2byte	0x1
 10752 136e 55       		.byte	0x55
 10753 136f 4A010000 		.4byte	.LVL33-.Ltext0
 10754 1373 4C010000 		.4byte	.LVL36-.Ltext0
 10755 1377 0400     		.2byte	0x4
 10756 1379 F3       		.byte	0xf3
 10757 137a 01       		.uleb128 0x1
 10758 137b 52       		.byte	0x52
 10759 137c 9F       		.byte	0x9f
 10760 137d 4C010000 		.4byte	.LVL36-.Ltext0
 10761 1381 56010000 		.4byte	.LVL37-.Ltext0
 10762 1385 0100     		.2byte	0x1
 10763 1387 55       		.byte	0x55
 10764 1388 56010000 		.4byte	.LVL37-.Ltext0
 10765 138c 60010000 		.4byte	.LFE38-.Ltext0
 10766 1390 0100     		.2byte	0x1
 10767 1392 52       		.byte	0x52
 10768 1393 00000000 		.4byte	0
 10769 1397 00000000 		.4byte	0
 10770              	.LLST14:
 10771 139b 12010000 		.4byte	.LVL25-.Ltext0
 10772 139f 22010000 		.4byte	.LVL27-.Ltext0
 10773 13a3 0100     		.2byte	0x1
 10774 13a5 52       		.byte	0x52
 10775 13a6 22010000 		.4byte	.LVL27-.Ltext0
 10776 13aa 2E010000 		.4byte	.LVL30-.Ltext0
 10777 13ae 0300     		.2byte	0x3
 10778 13b0 72       		.byte	0x72
 10779 13b1 01       		.sleb128 1
 10780 13b2 9F       		.byte	0x9f
 10781 13b3 2E010000 		.4byte	.LVL30-.Ltext0
 10782 13b7 46010000 		.4byte	.LVL32-.Ltext0
 10783 13bb 0100     		.2byte	0x1
 10784 13bd 52       		.byte	0x52
 10785 13be 4C010000 		.4byte	.LVL36-.Ltext0
 10786 13c2 56010000 		.4byte	.LVL37-.Ltext0
 10787 13c6 0100     		.2byte	0x1
 10788 13c8 52       		.byte	0x52
 10789 13c9 00000000 		.4byte	0
 10790 13cd 00000000 		.4byte	0
 10791              	.LLST15:
 10792 13d1 1A010000 		.4byte	.LVL26-.Ltext0
 10793 13d5 26010000 		.4byte	.LVL28-.Ltext0
 10794 13d9 0100     		.2byte	0x1
ARM GAS  C:\Users\claym\AppData\Local\Temp\cc2sTfd9.s 			page 218


 10795 13db 53       		.byte	0x53
 10796 13dc 00000000 		.4byte	0
 10797 13e0 00000000 		.4byte	0
 10798              	.LLST8:
 10799 13e4 76000000 		.4byte	.LFB37-.Ltext0
 10800 13e8 78000000 		.4byte	.LCFI3-.Ltext0
 10801 13ec 0200     		.2byte	0x2
 10802 13ee 7D       		.byte	0x7d
 10803 13ef 00       		.sleb128 0
 10804 13f0 78000000 		.4byte	.LCFI3-.Ltext0
 10805 13f4 A6000000 		.4byte	.LFE37-.Ltext0
 10806 13f8 0200     		.2byte	0x2
 10807 13fa 7D       		.byte	0x7d
 10808 13fb 08       		.sleb128 8
 10809 13fc 00000000 		.4byte	0
 10810 1400 00000000 		.4byte	0
 10811              	.LLST9:
 10812 1404 76000000 		.4byte	.LVL14-.Ltext0
 10813 1408 92000000 		.4byte	.LVL15-.Ltext0
 10814 140c 0100     		.2byte	0x1
 10815 140e 50       		.byte	0x50
 10816 140f 92000000 		.4byte	.LVL15-.Ltext0
 10817 1413 96000000 		.4byte	.LVL16-.Ltext0
 10818 1417 0400     		.2byte	0x4
 10819 1419 70       		.byte	0x70
 10820 141a C87E     		.sleb128 -184
 10821 141c 9F       		.byte	0x9f
 10822 141d 96000000 		.4byte	.LVL16-.Ltext0
 10823 1421 A0000000 		.4byte	.LVL17-.Ltext0
 10824 1425 0400     		.2byte	0x4
 10825 1427 F3       		.byte	0xf3
 10826 1428 01       		.uleb128 0x1
 10827 1429 50       		.byte	0x50
 10828 142a 9F       		.byte	0x9f
 10829 142b A0000000 		.4byte	.LVL17-.Ltext0
 10830 142f A2000000 		.4byte	.LVL18-.Ltext0
 10831 1433 0100     		.2byte	0x1
 10832 1435 50       		.byte	0x50
 10833 1436 A2000000 		.4byte	.LVL18-.Ltext0
 10834 143a A6000000 		.4byte	.LFE37-.Ltext0
 10835 143e 0400     		.2byte	0x4
 10836 1440 F3       		.byte	0xf3
 10837 1441 01       		.uleb128 0x1
 10838 1442 50       		.byte	0x50
 10839 1443 9F       		.byte	0x9f
 10840 1444 00000000 		.4byte	0
 10841 1448 00000000 		.4byte	0
 10842              	.LLST6:
 10843 144c 3C000000 		.4byte	.LFB36-.Ltext0
 10844 1450 3E000000 		.4byte	.LCFI2-.Ltext0
 10845 1454 0200     		.2byte	0x2
 10846 1456 7D       		.byte	0x7d
 10847 1457 00       		.sleb128 0
 10848 1458 3E000000 		.4byte	.LCFI2-.Ltext0
 10849 145c 76000000 		.4byte	.LFE36-.Ltext0
 10850 1460 0200     		.2byte	0x2
 10851 1462 7D       		.byte	0x7d
ARM GAS  C:\Users\claym\AppData\Local\Temp\cc2sTfd9.s 			page 219


 10852 1463 0C       		.sleb128 12
 10853 1464 00000000 		.4byte	0
 10854 1468 00000000 		.4byte	0
 10855              	.LLST7:
 10856 146c 3C000000 		.4byte	.LVL8-.Ltext0
 10857 1470 6A000000 		.4byte	.LVL9-.Ltext0
 10858 1474 0100     		.2byte	0x1
 10859 1476 50       		.byte	0x50
 10860 1477 6A000000 		.4byte	.LVL9-.Ltext0
 10861 147b 6C000000 		.4byte	.LVL10-.Ltext0
 10862 147f 0400     		.2byte	0x4
 10863 1481 F3       		.byte	0xf3
 10864 1482 01       		.uleb128 0x1
 10865 1483 50       		.byte	0x50
 10866 1484 9F       		.byte	0x9f
 10867 1485 6C000000 		.4byte	.LVL10-.Ltext0
 10868 1489 6E000000 		.4byte	.LVL11-.Ltext0
 10869 148d 0100     		.2byte	0x1
 10870 148f 50       		.byte	0x50
 10871 1490 6E000000 		.4byte	.LVL11-.Ltext0
 10872 1494 72000000 		.4byte	.LVL12-.Ltext0
 10873 1498 0400     		.2byte	0x4
 10874 149a F3       		.byte	0xf3
 10875 149b 01       		.uleb128 0x1
 10876 149c 50       		.byte	0x50
 10877 149d 9F       		.byte	0x9f
 10878 149e 72000000 		.4byte	.LVL12-.Ltext0
 10879 14a2 74000000 		.4byte	.LVL13-.Ltext0
 10880 14a6 0100     		.2byte	0x1
 10881 14a8 50       		.byte	0x50
 10882 14a9 74000000 		.4byte	.LVL13-.Ltext0
 10883 14ad 76000000 		.4byte	.LFE36-.Ltext0
 10884 14b1 0400     		.2byte	0x4
 10885 14b3 F3       		.byte	0xf3
 10886 14b4 01       		.uleb128 0x1
 10887 14b5 50       		.byte	0x50
 10888 14b6 9F       		.byte	0x9f
 10889 14b7 00000000 		.4byte	0
 10890 14bb 00000000 		.4byte	0
 10891              	.LLST5:
 10892 14bf 1E000000 		.4byte	.LFB35-.Ltext0
 10893 14c3 20000000 		.4byte	.LCFI1-.Ltext0
 10894 14c7 0200     		.2byte	0x2
 10895 14c9 7D       		.byte	0x7d
 10896 14ca 00       		.sleb128 0
 10897 14cb 20000000 		.4byte	.LCFI1-.Ltext0
 10898 14cf 3C000000 		.4byte	.LFE35-.Ltext0
 10899 14d3 0200     		.2byte	0x2
 10900 14d5 7D       		.byte	0x7d
 10901 14d6 10       		.sleb128 16
 10902 14d7 00000000 		.4byte	0
 10903 14db 00000000 		.4byte	0
 10904              	.LLST0:
 10905 14df 00000000 		.4byte	.LFB34-.Ltext0
 10906 14e3 02000000 		.4byte	.LCFI0-.Ltext0
 10907 14e7 0200     		.2byte	0x2
 10908 14e9 7D       		.byte	0x7d
ARM GAS  C:\Users\claym\AppData\Local\Temp\cc2sTfd9.s 			page 220


 10909 14ea 00       		.sleb128 0
 10910 14eb 02000000 		.4byte	.LCFI0-.Ltext0
 10911 14ef 1E000000 		.4byte	.LFE34-.Ltext0
 10912 14f3 0200     		.2byte	0x2
 10913 14f5 7D       		.byte	0x7d
 10914 14f6 10       		.sleb128 16
 10915 14f7 00000000 		.4byte	0
 10916 14fb 00000000 		.4byte	0
 10917              	.LLST1:
 10918 14ff 00000000 		.4byte	.LVL0-.Ltext0
 10919 1503 09000000 		.4byte	.LVL1-1-.Ltext0
 10920 1507 0100     		.2byte	0x1
 10921 1509 50       		.byte	0x50
 10922 150a 09000000 		.4byte	.LVL1-1-.Ltext0
 10923 150e 1C000000 		.4byte	.LVL6-.Ltext0
 10924 1512 0100     		.2byte	0x1
 10925 1514 55       		.byte	0x55
 10926 1515 1C000000 		.4byte	.LVL6-.Ltext0
 10927 1519 1E000000 		.4byte	.LFE34-.Ltext0
 10928 151d 0500     		.2byte	0x5
 10929 151f F3       		.byte	0xf3
 10930 1520 01       		.uleb128 0x1
 10931 1521 51       		.byte	0x51
 10932 1522 23       		.byte	0x23
 10933 1523 20       		.uleb128 0x20
 10934 1524 00000000 		.4byte	0
 10935 1528 00000000 		.4byte	0
 10936              	.LLST2:
 10937 152c 00000000 		.4byte	.LVL0-.Ltext0
 10938 1530 09000000 		.4byte	.LVL1-1-.Ltext0
 10939 1534 0100     		.2byte	0x1
 10940 1536 51       		.byte	0x51
 10941 1537 09000000 		.4byte	.LVL1-1-.Ltext0
 10942 153b 1C000000 		.4byte	.LVL5-.Ltext0
 10943 153f 0100     		.2byte	0x1
 10944 1541 54       		.byte	0x54
 10945 1542 1C000000 		.4byte	.LVL5-.Ltext0
 10946 1546 1E000000 		.4byte	.LFE34-.Ltext0
 10947 154a 0400     		.2byte	0x4
 10948 154c F3       		.byte	0xf3
 10949 154d 01       		.uleb128 0x1
 10950 154e 51       		.byte	0x51
 10951 154f 9F       		.byte	0x9f
 10952 1550 00000000 		.4byte	0
 10953 1554 00000000 		.4byte	0
 10954              	.LLST3:
 10955 1558 0A000000 		.4byte	.LVL1-.Ltext0
 10956 155c 0F000000 		.4byte	.LVL2-1-.Ltext0
 10957 1560 1000     		.2byte	0x10
 10958 1562 70       		.byte	0x70
 10959 1563 00       		.sleb128 0
 10960 1564 F7       		.byte	0xf7
 10961 1565 25       		.uleb128 0x25
 10962 1566 75       		.byte	0x75
 10963 1567 00       		.sleb128 0
 10964 1568 34       		.byte	0x34
 10965 1569 24       		.byte	0x24
ARM GAS  C:\Users\claym\AppData\Local\Temp\cc2sTfd9.s 			page 221


 10966 156a F7       		.byte	0xf7
 10967 156b 25       		.uleb128 0x25
 10968 156c 1B       		.byte	0x1b
 10969 156d F7       		.byte	0xf7
 10970 156e 00       		.uleb128 0
 10971 156f 37       		.byte	0x37
 10972 1570 24       		.byte	0x24
 10973 1571 9F       		.byte	0x9f
 10974 1572 00000000 		.4byte	0
 10975 1576 00000000 		.4byte	0
 10976              	.LLST4:
 10977 157a 16000000 		.4byte	.LVL3-.Ltext0
 10978 157e 1C000000 		.4byte	.LVL4-.Ltext0
 10979 1582 0100     		.2byte	0x1
 10980 1584 50       		.byte	0x50
 10981 1585 1C000000 		.4byte	.LVL4-.Ltext0
 10982 1589 1E000000 		.4byte	.LFE34-.Ltext0
 10983 158d 0200     		.2byte	0x2
 10984 158f 73       		.byte	0x73
 10985 1590 0C       		.sleb128 12
 10986 1591 00000000 		.4byte	0
 10987 1595 00000000 		.4byte	0
 10988              	.LLST61:
 10989 1599 E4050000 		.4byte	.LVL215-.Ltext0
 10990 159d E8050000 		.4byte	.LVL216-.Ltext0
 10991 15a1 0100     		.2byte	0x1
 10992 15a3 50       		.byte	0x50
 10993 15a4 E8050000 		.4byte	.LVL216-.Ltext0
 10994 15a8 EA050000 		.4byte	.LFE58-.Ltext0
 10995 15ac 0200     		.2byte	0x2
 10996 15ae 71       		.byte	0x71
 10997 15af 18       		.sleb128 24
 10998 15b0 00000000 		.4byte	0
 10999 15b4 00000000 		.4byte	0
 11000              	.LLST62:
 11001 15b8 EA050000 		.4byte	.LVL217-.Ltext0
 11002 15bc EE050000 		.4byte	.LVL218-.Ltext0
 11003 15c0 0100     		.2byte	0x1
 11004 15c2 50       		.byte	0x50
 11005 15c3 EE050000 		.4byte	.LVL218-.Ltext0
 11006 15c7 F0050000 		.4byte	.LFE59-.Ltext0
 11007 15cb 0200     		.2byte	0x2
 11008 15cd 71       		.byte	0x71
 11009 15ce 1C       		.sleb128 28
 11010 15cf 00000000 		.4byte	0
 11011 15d3 00000000 		.4byte	0
 11012              	.LLST63:
 11013 15d7 F0050000 		.4byte	.LFB60-.Ltext0
 11014 15db F6050000 		.4byte	.LCFI9-.Ltext0
 11015 15df 0200     		.2byte	0x2
 11016 15e1 7D       		.byte	0x7d
 11017 15e2 00       		.sleb128 0
 11018 15e3 F6050000 		.4byte	.LCFI9-.Ltext0
 11019 15e7 1E060000 		.4byte	.LFE60-.Ltext0
 11020 15eb 0200     		.2byte	0x2
 11021 15ed 7D       		.byte	0x7d
 11022 15ee 08       		.sleb128 8
ARM GAS  C:\Users\claym\AppData\Local\Temp\cc2sTfd9.s 			page 222


 11023 15ef 00000000 		.4byte	0
 11024 15f3 00000000 		.4byte	0
 11025              	.LLST64:
 11026 15f7 F0050000 		.4byte	.LVL219-.Ltext0
 11027 15fb F2050000 		.4byte	.LVL220-.Ltext0
 11028 15ff 0100     		.2byte	0x1
 11029 1601 50       		.byte	0x50
 11030 1602 F2050000 		.4byte	.LVL220-.Ltext0
 11031 1606 1E060000 		.4byte	.LFE60-.Ltext0
 11032 160a 0400     		.2byte	0x4
 11033 160c F3       		.byte	0xf3
 11034 160d 01       		.uleb128 0x1
 11035 160e 50       		.byte	0x50
 11036 160f 9F       		.byte	0x9f
 11037 1610 00000000 		.4byte	0
 11038 1614 00000000 		.4byte	0
 11039              	.LLST65:
 11040 1618 F0050000 		.4byte	.LVL219-.Ltext0
 11041 161c 14060000 		.4byte	.LVL222-.Ltext0
 11042 1620 0100     		.2byte	0x1
 11043 1622 51       		.byte	0x51
 11044 1623 14060000 		.4byte	.LVL222-.Ltext0
 11045 1627 1E060000 		.4byte	.LFE60-.Ltext0
 11046 162b 0400     		.2byte	0x4
 11047 162d F3       		.byte	0xf3
 11048 162e 01       		.uleb128 0x1
 11049 162f 51       		.byte	0x51
 11050 1630 9F       		.byte	0x9f
 11051 1631 00000000 		.4byte	0
 11052 1635 00000000 		.4byte	0
 11053              	.LLST66:
 11054 1639 12060000 		.4byte	.LVL221-.Ltext0
 11055 163d 1A060000 		.4byte	.LVL223-.Ltext0
 11056 1641 0400     		.2byte	0x4
 11057 1643 F3       		.byte	0xf3
 11058 1644 01       		.uleb128 0x1
 11059 1645 50       		.byte	0x50
 11060 1646 9F       		.byte	0x9f
 11061 1647 00000000 		.4byte	0
 11062 164b 00000000 		.4byte	0
 11063              	.LLST67:
 11064 164f 12060000 		.4byte	.LVL221-.Ltext0
 11065 1653 14060000 		.4byte	.LVL222-.Ltext0
 11066 1657 0100     		.2byte	0x1
 11067 1659 51       		.byte	0x51
 11068 165a 14060000 		.4byte	.LVL222-.Ltext0
 11069 165e 1A060000 		.4byte	.LVL223-.Ltext0
 11070 1662 0400     		.2byte	0x4
 11071 1664 F3       		.byte	0xf3
 11072 1665 01       		.uleb128 0x1
 11073 1666 51       		.byte	0x51
 11074 1667 9F       		.byte	0x9f
 11075 1668 00000000 		.4byte	0
 11076 166c 00000000 		.4byte	0
 11077              	.LLST68:
 11078 1670 1E060000 		.4byte	.LFB61-.Ltext0
 11079 1674 24060000 		.4byte	.LCFI10-.Ltext0
ARM GAS  C:\Users\claym\AppData\Local\Temp\cc2sTfd9.s 			page 223


 11080 1678 0200     		.2byte	0x2
 11081 167a 7D       		.byte	0x7d
 11082 167b 00       		.sleb128 0
 11083 167c 24060000 		.4byte	.LCFI10-.Ltext0
 11084 1680 4C060000 		.4byte	.LFE61-.Ltext0
 11085 1684 0200     		.2byte	0x2
 11086 1686 7D       		.byte	0x7d
 11087 1687 08       		.sleb128 8
 11088 1688 00000000 		.4byte	0
 11089 168c 00000000 		.4byte	0
 11090              	.LLST69:
 11091 1690 1E060000 		.4byte	.LVL224-.Ltext0
 11092 1694 20060000 		.4byte	.LVL225-.Ltext0
 11093 1698 0100     		.2byte	0x1
 11094 169a 50       		.byte	0x50
 11095 169b 20060000 		.4byte	.LVL225-.Ltext0
 11096 169f 4C060000 		.4byte	.LFE61-.Ltext0
 11097 16a3 0400     		.2byte	0x4
 11098 16a5 F3       		.byte	0xf3
 11099 16a6 01       		.uleb128 0x1
 11100 16a7 50       		.byte	0x50
 11101 16a8 9F       		.byte	0x9f
 11102 16a9 00000000 		.4byte	0
 11103 16ad 00000000 		.4byte	0
 11104              	.LLST70:
 11105 16b1 1E060000 		.4byte	.LVL224-.Ltext0
 11106 16b5 42060000 		.4byte	.LVL227-.Ltext0
 11107 16b9 0100     		.2byte	0x1
 11108 16bb 51       		.byte	0x51
 11109 16bc 42060000 		.4byte	.LVL227-.Ltext0
 11110 16c0 4C060000 		.4byte	.LFE61-.Ltext0
 11111 16c4 0400     		.2byte	0x4
 11112 16c6 F3       		.byte	0xf3
 11113 16c7 01       		.uleb128 0x1
 11114 16c8 51       		.byte	0x51
 11115 16c9 9F       		.byte	0x9f
 11116 16ca 00000000 		.4byte	0
 11117 16ce 00000000 		.4byte	0
 11118              	.LLST71:
 11119 16d2 40060000 		.4byte	.LVL226-.Ltext0
 11120 16d6 42060000 		.4byte	.LVL227-.Ltext0
 11121 16da 0100     		.2byte	0x1
 11122 16dc 51       		.byte	0x51
 11123 16dd 42060000 		.4byte	.LVL227-.Ltext0
 11124 16e1 48060000 		.4byte	.LVL228-.Ltext0
 11125 16e5 0400     		.2byte	0x4
 11126 16e7 F3       		.byte	0xf3
 11127 16e8 01       		.uleb128 0x1
 11128 16e9 51       		.byte	0x51
 11129 16ea 9F       		.byte	0x9f
 11130 16eb 00000000 		.4byte	0
 11131 16ef 00000000 		.4byte	0
 11132              		.section	.debug_aranges,"",%progbits
 11133 0000 1C000000 		.4byte	0x1c
 11134 0004 0200     		.2byte	0x2
 11135 0006 00000000 		.4byte	.Ldebug_info0
 11136 000a 04       		.byte	0x4
ARM GAS  C:\Users\claym\AppData\Local\Temp\cc2sTfd9.s 			page 224


 11137 000b 00       		.byte	0
 11138 000c 0000     		.2byte	0
 11139 000e 0000     		.2byte	0
 11140 0010 00000000 		.4byte	.Ltext0
 11141 0014 140A0000 		.4byte	.Letext0-.Ltext0
 11142 0018 00000000 		.4byte	0
 11143 001c 00000000 		.4byte	0
 11144              		.section	.debug_line,"",%progbits
 11145              	.Ldebug_line0:
 11146 0000 F3050000 		.section	.debug_str,"MS",%progbits,1
 11146      02003B02 
 11146      00000201 
 11146      FB0E0D00 
 11146      01010101 
 11147              	.LASF42:
 11148 0000 556E696E 		.ascii	"Uninitialize\000"
 11148      69746961 
 11148      6C697A65 
 11148      00
 11149              	.LASF274:
 11150 000d 564F525F 		.ascii	"VOR_UART_LoopBack\000"
 11150      55415254 
 11150      5F4C6F6F 
 11150      70426163 
 11150      6B00
 11151              	.LASF109:
 11152 001f 5F554152 		.ascii	"_UART_INFO\000"
 11152      545F494E 
 11152      464F00
 11153              	.LASF127:
 11154 002a 564F525F 		.ascii	"VOR_IRQ_GPIOA\000"
 11154      4952515F 
 11154      4750494F 
 11154      4100
 11155              	.LASF128:
 11156 0038 564F525F 		.ascii	"VOR_IRQ_GPIOB\000"
 11156      4952515F 
 11156      4750494F 
 11156      4200
 11157              	.LASF144:
 11158 0046 63686172 		.ascii	"char\000"
 11158      00
 11159              	.LASF161:
 11160 004b 5F6F6E5F 		.ascii	"_on_exit_args\000"
 11160      65786974 
 11160      5F617267 
 11160      7300
 11161              	.LASF21:
 11162 0059 52585F52 		.ascii	"RX_RDAVL\000"
 11162      4441564C 
 11162      00
 11163              	.LASF115:
 11164 0062 62617564 		.ascii	"baudrate\000"
 11164      72617465 
 11164      00
 11165              	.LASF228:
 11166 006b 5F776374 		.ascii	"_wctomb_state\000"
ARM GAS  C:\Users\claym\AppData\Local\Temp\cc2sTfd9.s 			page 225


 11166      6F6D625F 
 11166      73746174 
 11166      6500
 11167              	.LASF239:
 11168 0079 5F6E6D61 		.ascii	"_nmalloc\000"
 11168      6C6C6F63 
 11168      00
 11169              	.LASF261:
 11170 0082 564F525F 		.ascii	"VOR_UART_PollMode\000"
 11170      55415254 
 11170      5F506F6C 
 11170      6C4D6F64 
 11170      6500
 11171              	.LASF112:
 11172 0094 666C6167 		.ascii	"flags\000"
 11172      7300
 11173              	.LASF225:
 11174 009a 5F723438 		.ascii	"_r48\000"
 11174      00
 11175              	.LASF96:
 11176 009f 52585354 		.ascii	"RXSTATUS\000"
 11176      41545553 
 11176      00
 11177              	.LASF79:
 11178 00a8 524F4D5F 		.ascii	"ROM_RETRIES\000"
 11178      52455452 
 11178      49455300 
 11179              	.LASF230:
 11180 00b4 5F736967 		.ascii	"_signal_buf\000"
 11180      6E616C5F 
 11180      62756600 
 11181              	.LASF257:
 11182 00c0 636F6E74 		.ascii	"control\000"
 11182      726F6C00 
 11183              	.LASF0:
 11184 00c8 756E7369 		.ascii	"unsigned int\000"
 11184      676E6564 
 11184      20696E74 
 11184      00
 11185              	.LASF66:
 11186 00d5 4952515F 		.ascii	"IRQ_CLR\000"
 11186      434C5200 
 11187              	.LASF175:
 11188 00dd 5F6C6266 		.ascii	"_lbfsize\000"
 11188      73697A65 
 11188      00
 11189              	.LASF173:
 11190 00e6 5F666C61 		.ascii	"_flags\000"
 11190      677300
 11191              	.LASF39:
 11192 00ed 5F564F52 		.ascii	"_VOR_DRIVER_UART\000"
 11192      5F445249 
 11192      5645525F 
 11192      55415254 
 11192      00
 11193              	.LASF140:
 11194 00fe 5F5F636F 		.ascii	"__count\000"
ARM GAS  C:\Users\claym\AppData\Local\Temp\cc2sTfd9.s 			page 226


 11194      756E7400 
 11195              	.LASF9:
 11196 0106 5F5F696E 		.ascii	"__int32_t\000"
 11196      7433325F 
 11196      7400
 11197              	.LASF267:
 11198 0110 564F525F 		.ascii	"VOR_UART_RXFIFOIRQTRG\000"
 11198      55415254 
 11198      5F525846 
 11198      49464F49 
 11198      52515452 
 11199              	.LASF190:
 11200 0126 5F657272 		.ascii	"_errno\000"
 11200      6E6F00
 11201              	.LASF45:
 11202 012d 47657454 		.ascii	"GetTxCount\000"
 11202      78436F75 
 11202      6E7400
 11203              	.LASF255:
 11204 0138 55415254 		.ascii	"UART_GetStatus\000"
 11204      5F476574 
 11204      53746174 
 11204      757300
 11205              	.LASF188:
 11206 0147 5F666C61 		.ascii	"_flags2\000"
 11206      67733200 
 11207              	.LASF298:
 11208 014f 2E5C6472 		.ascii	".\\driver\\src\\uart_va108xx.c\000"
 11208      69766572 
 11208      5C737263 
 11208      5C756172 
 11208      745F7661 
 11209              	.LASF216:
 11210 016b 5F736565 		.ascii	"_seed\000"
 11210      6400
 11211              	.LASF242:
 11212 0171 5F5F6C6F 		.ascii	"__locale_t\000"
 11212      63616C65 
 11212      5F7400
 11213              	.LASF187:
 11214 017c 5F6D6273 		.ascii	"_mbstate\000"
 11214      74617465 
 11214      00
 11215              	.LASF95:
 11216 0185 434C4B53 		.ascii	"CLKSCALE\000"
 11216      43414C45 
 11216      00
 11217              	.LASF233:
 11218 018e 5F6D6272 		.ascii	"_mbrtowc_state\000"
 11218      746F7763 
 11218      5F737461 
 11218      746500
 11219              	.LASF118:
 11220 019d 74786964 		.ascii	"txidx\000"
 11220      7800
 11221              	.LASF177:
 11222 01a3 5F726561 		.ascii	"_read\000"
ARM GAS  C:\Users\claym\AppData\Local\Temp\cc2sTfd9.s 			page 227


 11222      6400
 11223              	.LASF84:
 11224 01a9 50455249 		.ascii	"PERIPHERAL_CLK_ENABLE\000"
 11224      50484552 
 11224      414C5F43 
 11224      4C4B5F45 
 11224      4E41424C 
 11225              	.LASF232:
 11226 01bf 5F6D6272 		.ascii	"_mbrlen_state\000"
 11226      6C656E5F 
 11226      73746174 
 11226      6500
 11227              	.LASF133:
 11228 01cd 564F525F 		.ascii	"VOR_IRQ_I2C_SL\000"
 11228      4952515F 
 11228      4932435F 
 11228      534C00
 11229              	.LASF303:
 11230 01dc 5F5F6275 		.ascii	"__builtin_memcpy\000"
 11230      696C7469 
 11230      6E5F6D65 
 11230      6D637079 
 11230      00
 11231              	.LASF297:
 11232 01ed 474E5520 		.ascii	"GNU C11 7.2.1 20170904 (release) [ARM/embedded-7-br"
 11232      43313120 
 11232      372E322E 
 11232      31203230 
 11232      31373039 
 11233 0220 616E6368 		.ascii	"anch revision 255204] -mcpu=cortex-m0 -mthumb -gdwa"
 11233      20726576 
 11233      6973696F 
 11233      6E203235 
 11233      35323034 
 11234 0253 72662D32 		.ascii	"rf-2 -Os -fomit-frame-pointer\000"
 11234      202D4F73 
 11234      202D666F 
 11234      6D69742D 
 11234      6672616D 
 11235              	.LASF20:
 11236 0271 5F564F52 		.ascii	"_VOR_UART_STATUS\000"
 11236      5F554152 
 11236      545F5354 
 11236      41545553 
 11236      00
 11237              	.LASF92:
 11238 0282 44415441 		.ascii	"DATA\000"
 11238      00
 11239              	.LASF136:
 11240 0287 5F66706F 		.ascii	"_fpos_t\000"
 11240      735F7400 
 11241              	.LASF106:
 11242 028f 564F525F 		.ascii	"VOR_UART_PERIPHERAL_Type\000"
 11242      55415254 
 11242      5F504552 
 11242      49504845 
 11242      52414C5F 
ARM GAS  C:\Users\claym\AppData\Local\Temp\cc2sTfd9.s 			page 228


 11243              	.LASF168:
 11244 02a8 5F666E73 		.ascii	"_fns\000"
 11244      00
 11245              	.LASF176:
 11246 02ad 5F636F6F 		.ascii	"_cookie\000"
 11246      6B696500 
 11247              	.LASF252:
 11248 02b5 72785F73 		.ascii	"rx_status\000"
 11248      74617475 
 11248      7300
 11249              	.LASF293:
 11250 02bf 564F525F 		.ascii	"VOR_Disable_Irq\000"
 11250      44697361 
 11250      626C655F 
 11250      49727100 
 11251              	.LASF146:
 11252 02cf 5F426967 		.ascii	"_Bigint\000"
 11252      696E7400 
 11253              	.LASF158:
 11254 02d7 5F5F746D 		.ascii	"__tm_wday\000"
 11254      5F776461 
 11254      7900
 11255              	.LASF200:
 11256 02e1 5F726573 		.ascii	"_result\000"
 11256      756C7400 
 11257              	.LASF211:
 11258 02e9 5F5F4649 		.ascii	"__FILE\000"
 11258      4C4500
 11259              	.LASF17:
 11260 02f0 75696E74 		.ascii	"uint32_t\000"
 11260      33325F74 
 11260      00
 11261              	.LASF154:
 11262 02f9 5F5F746D 		.ascii	"__tm_hour\000"
 11262      5F686F75 
 11262      7200
 11263              	.LASF272:
 11264 0303 564F525F 		.ascii	"VOR_UART_DEFRTS\000"
 11264      55415254 
 11264      5F444546 
 11264      52545300 
 11265              	.LASF122:
 11266 0313 55415254 		.ascii	"UART_INFO\000"
 11266      5F494E46 
 11266      4F00
 11267              	.LASF38:
 11268 031d 564F525F 		.ascii	"VOR_UART_SignalEvent_t\000"
 11268      55415254 
 11268      5F536967 
 11268      6E616C45 
 11268      76656E74 
 11269              	.LASF251:
 11270 0334 6576656E 		.ascii	"event\000"
 11270      7400
 11271              	.LASF153:
 11272 033a 5F5F746D 		.ascii	"__tm_min\000"
 11272      5F6D696E 
ARM GAS  C:\Users\claym\AppData\Local\Temp\cc2sTfd9.s 			page 229


 11272      00
 11273              	.LASF243:
 11274 0343 5F696D70 		.ascii	"_impure_ptr\000"
 11274      7572655F 
 11274      70747200 
 11275              	.LASF238:
 11276 034f 5F6E6578 		.ascii	"_nextf\000"
 11276      746600
 11277              	.LASF47:
 11278 0356 436F6E74 		.ascii	"Control\000"
 11278      726F6C00 
 11279              	.LASF215:
 11280 035e 5F72616E 		.ascii	"_rand48\000"
 11280      64343800 
 11281              	.LASF201:
 11282 0366 5F726573 		.ascii	"_result_k\000"
 11282      756C745F 
 11282      6B00
 11283              	.LASF13:
 11284 0370 6C6F6E67 		.ascii	"long long unsigned int\000"
 11284      206C6F6E 
 11284      6720756E 
 11284      7369676E 
 11284      65642069 
 11285              	.LASF116:
 11286 0387 7478636E 		.ascii	"txcnt\000"
 11286      7400
 11287              	.LASF286:
 11288 038d 74787374 		.ascii	"txsts\000"
 11288      7300
 11289              	.LASF221:
 11290 0393 5F617363 		.ascii	"_asctime_buf\000"
 11290      74696D65 
 11290      5F627566 
 11290      00
 11291              	.LASF172:
 11292 03a0 5F5F7346 		.ascii	"__sFILE\000"
 11292      494C4500 
 11293              	.LASF150:
 11294 03a8 5F776473 		.ascii	"_wds\000"
 11294      00
 11295              	.LASF90:
 11296 03ad 50455249 		.ascii	"PERID\000"
 11296      4400
 11297              	.LASF73:
 11298 03b3 494F434F 		.ascii	"IOCONFIG_CLKDIV2\000"
 11298      4E464947 
 11298      5F434C4B 
 11298      44495632 
 11298      00
 11299              	.LASF7:
 11300 03c4 5F5F7569 		.ascii	"__uint16_t\000"
 11300      6E743136 
 11300      5F7400
 11301              	.LASF18:
 11302 03cf 564F525F 		.ascii	"VOR_DRIVER_VERSION\000"
 11302      44524956 
ARM GAS  C:\Users\claym\AppData\Local\Temp\cc2sTfd9.s 			page 230


 11302      45525F56 
 11302      45525349 
 11302      4F4E00
 11303              	.LASF237:
 11304 03e2 5F685F65 		.ascii	"_h_errno\000"
 11304      72726E6F 
 11304      00
 11305              	.LASF184:
 11306 03eb 5F6F6666 		.ascii	"_offset\000"
 11306      73657400 
 11307              	.LASF181:
 11308 03f3 5F756275 		.ascii	"_ubuf\000"
 11308      6600
 11309              	.LASF195:
 11310 03f9 5F656D65 		.ascii	"_emergency\000"
 11310      7267656E 
 11310      637900
 11311              	.LASF59:
 11312 0404 524F4D5F 		.ascii	"ROM_TRAP_ADDR\000"
 11312      54524150 
 11312      5F414444 
 11312      5200
 11313              	.LASF25:
 11314 0412 52585F4F 		.ascii	"RX_OVR\000"
 11314      565200
 11315              	.LASF64:
 11316 0419 4952515F 		.ascii	"IRQ_RAW\000"
 11316      52415700 
 11317              	.LASF69:
 11318 0421 524F4D5F 		.ascii	"ROM_SBE\000"
 11318      53424500 
 11319              	.LASF83:
 11320 0429 50455249 		.ascii	"PERIPHERAL_RESET\000"
 11320      50484552 
 11320      414C5F52 
 11320      45534554 
 11320      00
 11321              	.LASF263:
 11322 043a 564F525F 		.ascii	"VOR_UART_ADDR9MSK\000"
 11322      55415254 
 11322      5F414444 
 11322      52394D53 
 11322      4B00
 11323              	.LASF48:
 11324 044c 47657453 		.ascii	"GetStatus\000"
 11324      74617475 
 11324      7300
 11325              	.LASF22:
 11326 0456 52585F52 		.ascii	"RX_RDNFULL\000"
 11326      444E4655 
 11326      4C4C00
 11327              	.LASF27:
 11328 0461 52585F50 		.ascii	"RX_PAR\000"
 11328      415200
 11329              	.LASF152:
 11330 0468 5F5F746D 		.ascii	"__tm_sec\000"
 11330      5F736563 
ARM GAS  C:\Users\claym\AppData\Local\Temp\cc2sTfd9.s 			page 231


 11330      00
 11331              	.LASF268:
 11332 0471 564F525F 		.ascii	"VOR_UART_Break\000"
 11332      55415254 
 11332      5F427265 
 11332      616B00
 11333              	.LASF159:
 11334 0480 5F5F746D 		.ascii	"__tm_yday\000"
 11334      5F796461 
 11334      7900
 11335              	.LASF194:
 11336 048a 5F696E63 		.ascii	"_inc\000"
 11336      00
 11337              	.LASF167:
 11338 048f 5F696E64 		.ascii	"_ind\000"
 11338      00
 11339              	.LASF147:
 11340 0494 5F6E6578 		.ascii	"_next\000"
 11340      7400
 11341              	.LASF234:
 11342 049a 5F6D6273 		.ascii	"_mbsrtowcs_state\000"
 11342      72746F77 
 11342      63735F73 
 11342      74617465 
 11342      00
 11343              	.LASF126:
 11344 04ab 55415254 		.ascii	"UART_RESOURCES\000"
 11344      5F524553 
 11344      4F555243 
 11344      455300
 11345              	.LASF31:
 11346 04ba 52585F52 		.ascii	"RX_RTS\000"
 11346      545300
 11347              	.LASF246:
 11348 04c1 55415254 		.ascii	"UART1_Resources\000"
 11348      315F5265 
 11348      736F7572 
 11348      63657300 
 11349              	.LASF89:
 11350 04d1 50524F43 		.ascii	"PROCID\000"
 11350      494400
 11351              	.LASF258:
 11352 04d8 564F525F 		.ascii	"VOR_UART_abort_recv\000"
 11352      55415254 
 11352      5F61626F 
 11352      72745F72 
 11352      65637600 
 11353              	.LASF300:
 11354 04ec 55415254 		.ascii	"UART_IRQHandler\000"
 11354      5F495251 
 11354      48616E64 
 11354      6C657200 
 11355              	.LASF61:
 11356 04fc 52414D5F 		.ascii	"RAM_TRAP_ADDR\000"
 11356      54524150 
 11356      5F414444 
 11356      5200
ARM GAS  C:\Users\claym\AppData\Local\Temp\cc2sTfd9.s 			page 232


 11357              	.LASF141:
 11358 050a 5F5F7661 		.ascii	"__value\000"
 11358      6C756500 
 11359              	.LASF276:
 11360 0512 564F525F 		.ascii	"VOR_UART_StopBit\000"
 11360      55415254 
 11360      5F53746F 
 11360      70426974 
 11360      00
 11361              	.LASF253:
 11362 0523 74785F73 		.ascii	"tx_status\000"
 11362      74617475 
 11362      7300
 11363              	.LASF202:
 11364 052d 5F703573 		.ascii	"_p5s\000"
 11364      00
 11365              	.LASF282:
 11366 0532 636F756E 		.ascii	"count\000"
 11366      7400
 11367              	.LASF236:
 11368 0538 5F776373 		.ascii	"_wcsrtombs_state\000"
 11368      72746F6D 
 11368      62735F73 
 11368      74617465 
 11368      00
 11369              	.LASF226:
 11370 0549 5F6D626C 		.ascii	"_mblen_state\000"
 11370      656E5F73 
 11370      74617465 
 11370      00
 11371              	.LASF292:
 11372 0556 52656769 		.ascii	"Register\000"
 11372      73746572 
 11372      00
 11373              	.LASF52:
 11374 055f 53797374 		.ascii	"SystemCoreClock\000"
 11374      656D436F 
 11374      7265436C 
 11374      6F636B00 
 11375              	.LASF155:
 11376 056f 5F5F746D 		.ascii	"__tm_mday\000"
 11376      5F6D6461 
 11376      7900
 11377              	.LASF208:
 11378 0579 5F736967 		.ascii	"_sig_func\000"
 11378      5F66756E 
 11378      6300
 11379              	.LASF24:
 11380 0583 52585F54 		.ascii	"RX_TO\000"
 11380      4F00
 11381              	.LASF207:
 11382 0589 5F617465 		.ascii	"_atexit0\000"
 11382      78697430 
 11382      00
 11383              	.LASF85:
 11384 0592 4C4F434B 		.ascii	"LOCKUP_RESET\000"
 11384      55505F52 
ARM GAS  C:\Users\claym\AppData\Local\Temp\cc2sTfd9.s 			page 233


 11384      45534554 
 11384      00
 11385              	.LASF264:
 11386 059f 564F525F 		.ascii	"VOR_UART_ENB9BIT\000"
 11386      55415254 
 11386      5F454E42 
 11386      39424954 
 11386      00
 11387              	.LASF277:
 11388 05b0 564F525F 		.ascii	"VOR_UART_ManualParity\000"
 11388      55415254 
 11388      5F4D616E 
 11388      75616C50 
 11388      61726974 
 11389              	.LASF143:
 11390 05c6 5F666C6F 		.ascii	"_flock_t\000"
 11390      636B5F74 
 11390      00
 11391              	.LASF80:
 11392 05cf 52454652 		.ascii	"REFRESH_CONFIG\000"
 11392      4553485F 
 11392      434F4E46 
 11392      494700
 11393              	.LASF138:
 11394 05de 5F5F7763 		.ascii	"__wch\000"
 11394      6800
 11395              	.LASF214:
 11396 05e4 5F696F62 		.ascii	"_iobs\000"
 11396      7300
 11397              	.LASF14:
 11398 05ea 75696E74 		.ascii	"uint8_t\000"
 11398      385F7400 
 11399              	.LASF111:
 11400 05f2 73746174 		.ascii	"status\000"
 11400      757300
 11401              	.LASF247:
 11402 05f9 564F525F 		.ascii	"VOR_UART_GetRxCount\000"
 11402      55415254 
 11402      5F476574 
 11402      5278436F 
 11402      756E7400 
 11403              	.LASF180:
 11404 060d 5F636C6F 		.ascii	"_close\000"
 11404      736500
 11405              	.LASF26:
 11406 0614 52585F46 		.ascii	"RX_FRM\000"
 11406      524D00
 11407              	.LASF198:
 11408 061b 5F5F7364 		.ascii	"__sdidinit\000"
 11408      6964696E 
 11408      697400
 11409              	.LASF249:
 11410 0626 55415254 		.ascii	"UART\000"
 11410      00
 11411              	.LASF49:
 11412 062b 564F525F 		.ascii	"VOR_DRIVER_UART\000"
 11412      44524956 
ARM GAS  C:\Users\claym\AppData\Local\Temp\cc2sTfd9.s 			page 234


 11412      45525F55 
 11412      41525400 
 11413              	.LASF191:
 11414 063b 5F737464 		.ascii	"_stdin\000"
 11414      696E00
 11415              	.LASF223:
 11416 0642 5F67616D 		.ascii	"_gamma_signgam\000"
 11416      6D615F73 
 11416      69676E67 
 11416      616D00
 11417              	.LASF289:
 11418 0651 55415254 		.ascii	"UARTx_GetVersion\000"
 11418      785F4765 
 11418      74566572 
 11418      73696F6E 
 11418      00
 11419              	.LASF1:
 11420 0662 6C6F6E67 		.ascii	"long long int\000"
 11420      206C6F6E 
 11420      6720696E 
 11420      7400
 11421              	.LASF97:
 11422 0670 54585354 		.ascii	"TXSTATUS\000"
 11422      41545553 
 11422      00
 11423              	.LASF170:
 11424 0679 5F626173 		.ascii	"_base\000"
 11424      6500
 11425              	.LASF203:
 11426 067f 5F667265 		.ascii	"_freelist\000"
 11426      656C6973 
 11426      7400
 11427              	.LASF217:
 11428 0689 5F6D756C 		.ascii	"_mult\000"
 11428      7400
 11429              	.LASF145:
 11430 068f 5F5F554C 		.ascii	"__ULong\000"
 11430      6F6E6700 
 11431              	.LASF269:
 11432 0697 564F525F 		.ascii	"VOR_UART_RX\000"
 11432      55415254 
 11432      5F525800 
 11433              	.LASF290:
 11434 06a3 55415254 		.ascii	"UART_SetBaudrate\000"
 11434      5F536574 
 11434      42617564 
 11434      72617465 
 11434      00
 11435              	.LASF33:
 11436 06b4 54585F57 		.ascii	"TX_WRBUSY\000"
 11436      52425553 
 11436      5900
 11437              	.LASF235:
 11438 06be 5F776372 		.ascii	"_wcrtomb_state\000"
 11438      746F6D62 
 11438      5F737461 
 11438      746500
ARM GAS  C:\Users\claym\AppData\Local\Temp\cc2sTfd9.s 			page 235


 11439              	.LASF58:
 11440 06cd 52414D5F 		.ascii	"RAM_SCRUB\000"
 11440      53435255 
 11440      4200
 11441              	.LASF174:
 11442 06d7 5F66696C 		.ascii	"_file\000"
 11442      6500
 11443              	.LASF68:
 11444 06dd 52414D5F 		.ascii	"RAM_MBE\000"
 11444      4D424500 
 11445              	.LASF259:
 11446 06e5 564F525F 		.ascii	"VOR_UART_abort_send\000"
 11446      55415254 
 11446      5F61626F 
 11446      72745F73 
 11446      656E6400 
 11447              	.LASF121:
 11448 06f9 72786461 		.ascii	"rxdata\000"
 11448      746100
 11449              	.LASF30:
 11450 0700 52585F41 		.ascii	"RX_ADDR9\000"
 11450      44445239 
 11450      00
 11451              	.LASF37:
 11452 0709 564F525F 		.ascii	"VOR_UART_STATUS\000"
 11452      55415254 
 11452      5F535441 
 11452      54555300 
 11453              	.LASF199:
 11454 0719 5F5F636C 		.ascii	"__cleanup\000"
 11454      65616E75 
 11454      7000
 11455              	.LASF295:
 11456 0723 564F525F 		.ascii	"VOR_Enable_Irq\000"
 11456      456E6162 
 11456      6C655F49 
 11456      727100
 11457              	.LASF142:
 11458 0732 5F6D6273 		.ascii	"_mbstate_t\000"
 11458      74617465 
 11458      5F7400
 11459              	.LASF162:
 11460 073d 5F666E61 		.ascii	"_fnargs\000"
 11460      72677300 
 11461              	.LASF284:
 11462 0745 73746172 		.ascii	"start_time\000"
 11462      745F7469 
 11462      6D6500
 11463              	.LASF160:
 11464 0750 5F5F746D 		.ascii	"__tm_isdst\000"
 11464      5F697364 
 11464      737400
 11465              	.LASF113:
 11466 075b 706F6C6C 		.ascii	"poll_mode\000"
 11466      5F6D6F64 
 11466      6500
 11467              	.LASF250:
ARM GAS  C:\Users\claym\AppData\Local\Temp\cc2sTfd9.s 			page 236


 11468 0765 75617274 		.ascii	"uart_driver_version\000"
 11468      5F647269 
 11468      7665725F 
 11468      76657273 
 11468      696F6E00 
 11469              	.LASF44:
 11470 0779 52656365 		.ascii	"Receive\000"
 11470      69766500 
 11471              	.LASF88:
 11472 0781 45465F49 		.ascii	"EF_ID\000"
 11472      4400
 11473              	.LASF248:
 11474 0787 564F525F 		.ascii	"VOR_UART_GetTxCount\000"
 11474      55415254 
 11474      5F476574 
 11474      5478436F 
 11474      756E7400 
 11475              	.LASF271:
 11476 079b 564F525F 		.ascii	"VOR_UART_AutoRTS\000"
 11476      55415254 
 11476      5F417574 
 11476      6F525453 
 11476      00
 11477              	.LASF32:
 11478 07ac 54585F57 		.ascii	"TX_WRRDY\000"
 11478      52524459 
 11478      00
 11479              	.LASF99:
 11480 07b5 54584252 		.ascii	"TXBREAK\000"
 11480      45414B00 
 11481              	.LASF54:
 11482 07bd 5253545F 		.ascii	"RST_CNTL_ROM\000"
 11482      434E544C 
 11482      5F524F4D 
 11482      00
 11483              	.LASF281:
 11484 07ca 64617461 		.ascii	"data\000"
 11484      00
 11485              	.LASF156:
 11486 07cf 5F5F746D 		.ascii	"__tm_mon\000"
 11486      5F6D6F6E 
 11486      00
 11487              	.LASF107:
 11488 07d8 42414E4B 		.ascii	"BANK\000"
 11488      00
 11489              	.LASF256:
 11490 07dd 55415254 		.ascii	"UART_Control\000"
 11490      5F436F6E 
 11490      74726F6C 
 11490      00
 11491              	.LASF2:
 11492 07ea 6C6F6E67 		.ascii	"long double\000"
 11492      20646F75 
 11492      626C6500 
 11493              	.LASF134:
 11494 07f6 5F4C4F43 		.ascii	"_LOCK_T\000"
 11494      4B5F5400 
ARM GAS  C:\Users\claym\AppData\Local\Temp\cc2sTfd9.s 			page 237


 11495              	.LASF15:
 11496 07fe 75696E74 		.ascii	"uint16_t\000"
 11496      31365F74 
 11496      00
 11497              	.LASF178:
 11498 0807 5F777269 		.ascii	"_write\000"
 11498      746500
 11499              	.LASF270:
 11500 080e 564F525F 		.ascii	"VOR_UART_TX\000"
 11500      55415254 
 11500      5F545800 
 11501              	.LASF224:
 11502 081a 5F72616E 		.ascii	"_rand_next\000"
 11502      645F6E65 
 11502      787400
 11503              	.LASF108:
 11504 0825 564F525F 		.ascii	"VOR_UART_PERIPHERAL_BANK_Type\000"
 11504      55415254 
 11504      5F504552 
 11504      49504845 
 11504      52414C5F 
 11505              	.LASF166:
 11506 0843 5F617465 		.ascii	"_atexit\000"
 11506      78697400 
 11507              	.LASF60:
 11508 084b 524F4D5F 		.ascii	"ROM_TRAP_SYND\000"
 11508      54524150 
 11508      5F53594E 
 11508      4400
 11509              	.LASF103:
 11510 0859 54584649 		.ascii	"TXFIFOIRQTRG\000"
 11510      464F4952 
 11510      51545247 
 11510      00
 11511              	.LASF227:
 11512 0866 5F6D6274 		.ascii	"_mbtowc_state\000"
 11512      6F77635F 
 11512      73746174 
 11512      6500
 11513              	.LASF57:
 11514 0874 524F4D5F 		.ascii	"ROM_SCRUB\000"
 11514      53435255 
 11514      4200
 11515              	.LASF86:
 11516 087e 52455345 		.ascii	"RESERVED0\000"
 11516      52564544 
 11516      3000
 11517              	.LASF23:
 11518 0888 52585F42 		.ascii	"RX_BUSY\000"
 11518      55535900 
 11519              	.LASF119:
 11520 0890 72786964 		.ascii	"rxidx\000"
 11520      7800
 11521              	.LASF5:
 11522 0896 73686F72 		.ascii	"short int\000"
 11522      7420696E 
 11522      7400
ARM GAS  C:\Users\claym\AppData\Local\Temp\cc2sTfd9.s 			page 238


 11523              	.LASF299:
 11524 08a0 433A5C44 		.ascii	"C:\\Development\\New_Mar8\\Workspace-Vorago - REB1\\"
 11524      6576656C 
 11524      6F706D65 
 11524      6E745C4E 
 11524      65775F4D 
 11525 08d0 766F7261 		.ascii	"vorago_try311\000"
 11525      676F5F74 
 11525      72793331 
 11525      3100
 11526              	.LASF291:
 11527 08de 62617564 		.ascii	"baudmode\000"
 11527      6D6F6465 
 11527      00
 11528              	.LASF10:
 11529 08e7 6C6F6E67 		.ascii	"long int\000"
 11529      20696E74 
 11529      00
 11530              	.LASF36:
 11531 08f0 54585F43 		.ascii	"TX_CTS\000"
 11531      545300
 11532              	.LASF55:
 11533 08f7 5253545F 		.ascii	"RST_CNTL_RAM\000"
 11533      434E544C 
 11533      5F52414D 
 11533      00
 11534              	.LASF296:
 11535 0904 564F525F 		.ascii	"VOR_Get_ClockFreq\000"
 11535      4765745F 
 11535      436C6F63 
 11535      6B467265 
 11535      7100
 11536              	.LASF210:
 11537 0916 5F5F7366 		.ascii	"__sf\000"
 11537      00
 11538              	.LASF149:
 11539 091b 5F736967 		.ascii	"_sign\000"
 11539      6E00
 11540              	.LASF185:
 11541 0921 5F646174 		.ascii	"_data\000"
 11541      6100
 11542              	.LASF273:
 11543 0927 564F525F 		.ascii	"VOR_UART_AutoCTS\000"
 11543      55415254 
 11543      5F417574 
 11543      6F435453 
 11543      00
 11544              	.LASF139:
 11545 0938 5F5F7763 		.ascii	"__wchb\000"
 11545      686200
 11546              	.LASF244:
 11547 093f 5F676C6F 		.ascii	"_global_impure_ptr\000"
 11547      62616C5F 
 11547      696D7075 
 11547      72655F70 
 11547      747200
 11548              	.LASF125:
ARM GAS  C:\Users\claym\AppData\Local\Temp\cc2sTfd9.s 			page 239


 11549 0952 75617274 		.ascii	"uartClkEn\000"
 11549      436C6B45 
 11549      6E00
 11550              	.LASF287:
 11551 095c 55415254 		.ascii	"UART_Uninitialize\000"
 11551      5F556E69 
 11551      6E697469 
 11551      616C697A 
 11551      6500
 11552              	.LASF157:
 11553 096e 5F5F746D 		.ascii	"__tm_year\000"
 11553      5F796561 
 11553      7200
 11554              	.LASF91:
 11555 0978 564F525F 		.ascii	"VOR_SYSCONFIG_Type\000"
 11555      53595343 
 11555      4F4E4649 
 11555      475F5479 
 11555      706500
 11556              	.LASF62:
 11557 098b 52414D5F 		.ascii	"RAM_TRAP_SYND\000"
 11557      54524150 
 11557      5F53594E 
 11557      4400
 11558              	.LASF41:
 11559 0999 496E6974 		.ascii	"Initialize\000"
 11559      69616C69 
 11559      7A6500
 11560              	.LASF222:
 11561 09a4 5F6C6F63 		.ascii	"_localtime_buf\000"
 11561      616C7469 
 11561      6D655F62 
 11561      756600
 11562              	.LASF114:
 11563 09b3 706F6C6C 		.ascii	"poll_tout\000"
 11563      5F746F75 
 11563      7400
 11564              	.LASF240:
 11565 09bd 5F756E75 		.ascii	"_unused\000"
 11565      73656400 
 11566              	.LASF6:
 11567 09c5 5F5F7569 		.ascii	"__uint8_t\000"
 11567      6E74385F 
 11567      7400
 11568              	.LASF285:
 11569 09cf 55415254 		.ascii	"UART_Send\000"
 11569      5F53656E 
 11569      6400
 11570              	.LASF206:
 11571 09d9 5F6E6577 		.ascii	"_new\000"
 11571      00
 11572              	.LASF204:
 11573 09de 5F637674 		.ascii	"_cvtlen\000"
 11573      6C656E00 
 11574              	.LASF148:
 11575 09e6 5F6D6178 		.ascii	"_maxwds\000"
 11575      77647300 
ARM GAS  C:\Users\claym\AppData\Local\Temp\cc2sTfd9.s 			page 240


 11576              	.LASF229:
 11577 09ee 5F6C3634 		.ascii	"_l64a_buf\000"
 11577      615F6275 
 11577      6600
 11578              	.LASF266:
 11579 09f8 564F525F 		.ascii	"VOR_UART_TXFIFOIRQTRG\000"
 11579      55415254 
 11579      5F545846 
 11579      49464F49 
 11579      52515452 
 11580              	.LASF132:
 11581 0a0e 564F525F 		.ascii	"VOR_IRQ_I2C_MS\000"
 11581      4952515F 
 11581      4932435F 
 11581      4D5300
 11582              	.LASF186:
 11583 0a1d 5F6C6F63 		.ascii	"_lock\000"
 11583      6B00
 11584              	.LASF183:
 11585 0a23 5F626C6B 		.ascii	"_blksize\000"
 11585      73697A65 
 11585      00
 11586              	.LASF151:
 11587 0a2c 5F5F746D 		.ascii	"__tm\000"
 11587      00
 11588              	.LASF104:
 11589 0a31 52584649 		.ascii	"RXFIFORTSTRG\000"
 11589      464F5254 
 11589      53545247 
 11589      00
 11590              	.LASF93:
 11591 0a3e 454E4142 		.ascii	"ENABLE\000"
 11591      4C4500
 11592              	.LASF12:
 11593 0a45 6C6F6E67 		.ascii	"long unsigned int\000"
 11593      20756E73 
 11593      69676E65 
 11593      6420696E 
 11593      7400
 11594              	.LASF245:
 11595 0a57 55415254 		.ascii	"UART0_Resources\000"
 11595      305F5265 
 11595      736F7572 
 11595      63657300 
 11596              	.LASF213:
 11597 0a67 5F6E696F 		.ascii	"_niobs\000"
 11597      627300
 11598              	.LASF34:
 11599 0a6e 54585F42 		.ascii	"TX_BUSY\000"
 11599      55535900 
 11600              	.LASF129:
 11601 0a76 564F525F 		.ascii	"VOR_IRQ_TIM\000"
 11601      4952515F 
 11601      54494D00 
 11602              	.LASF16:
 11603 0a82 696E7433 		.ascii	"int32_t\000"
 11603      325F7400 
ARM GAS  C:\Users\claym\AppData\Local\Temp\cc2sTfd9.s 			page 241


 11604              	.LASF53:
 11605 0a8a 5253545F 		.ascii	"RST_STAT\000"
 11605      53544154 
 11605      00
 11606              	.LASF29:
 11607 0a93 52585F42 		.ascii	"RX_BUSYBRK\000"
 11607      55535942 
 11607      524B00
 11608              	.LASF120:
 11609 0a9e 74786461 		.ascii	"txdata\000"
 11609      746100
 11610              	.LASF241:
 11611 0aa5 5F5F6C6F 		.ascii	"__lock\000"
 11611      636B00
 11612              	.LASF260:
 11613 0aac 564F525F 		.ascii	"VOR_UART_PollTimeOut\000"
 11613      55415254 
 11613      5F506F6C 
 11613      6C54696D 
 11613      654F7574 
 11614              	.LASF163:
 11615 0ac1 5F64736F 		.ascii	"_dso_handle\000"
 11615      5F68616E 
 11615      646C6500 
 11616              	.LASF288:
 11617 0acd 55415254 		.ascii	"UART_Initialize\000"
 11617      5F496E69 
 11617      7469616C 
 11617      697A6500 
 11618              	.LASF283:
 11619 0add 706F6C6C 		.ascii	"poll_time\000"
 11619      5F74696D 
 11619      6500
 11620              	.LASF192:
 11621 0ae7 5F737464 		.ascii	"_stdout\000"
 11621      6F757400 
 11622              	.LASF205:
 11623 0aef 5F637674 		.ascii	"_cvtbuf\000"
 11623      62756600 
 11624              	.LASF43:
 11625 0af7 53656E64 		.ascii	"Send\000"
 11625      00
 11626              	.LASF4:
 11627 0afc 756E7369 		.ascii	"unsigned char\000"
 11627      676E6564 
 11627      20636861 
 11627      7200
 11628              	.LASF51:
 11629 0b0a 44726976 		.ascii	"Driver_UART0\000"
 11629      65725F55 
 11629      41525430 
 11629      00
 11630              	.LASF50:
 11631 0b17 44726976 		.ascii	"Driver_UART1\000"
 11631      65725F55 
 11631      41525431 
 11631      00
ARM GAS  C:\Users\claym\AppData\Local\Temp\cc2sTfd9.s 			page 242


 11632              	.LASF11:
 11633 0b24 5F5F7569 		.ascii	"__uint32_t\000"
 11633      6E743332 
 11633      5F7400
 11634              	.LASF231:
 11635 0b2f 5F676574 		.ascii	"_getdate_err\000"
 11635      64617465 
 11635      5F657272 
 11635      00
 11636              	.LASF105:
 11637 0b3c 53544154 		.ascii	"STATE\000"
 11637      4500
 11638              	.LASF301:
 11639 0b42 5F5F4E4F 		.ascii	"__NOP\000"
 11639      5000
 11640              	.LASF81:
 11641 0b48 54494D5F 		.ascii	"TIM_RESET\000"
 11641      52455345 
 11641      5400
 11642              	.LASF131:
 11643 0b52 564F525F 		.ascii	"VOR_IRQ_SPI\000"
 11643      4952515F 
 11643      53504900 
 11644              	.LASF218:
 11645 0b5e 5F616464 		.ascii	"_add\000"
 11645      00
 11646              	.LASF110:
 11647 0b63 63625F65 		.ascii	"cb_event\000"
 11647      76656E74 
 11647      00
 11648              	.LASF169:
 11649 0b6c 5F5F7362 		.ascii	"__sbuf\000"
 11649      756600
 11650              	.LASF87:
 11651 0b73 45465F43 		.ascii	"EF_CONFIG\000"
 11651      4F4E4649 
 11651      4700
 11652              	.LASF254:
 11653 0b7d 6972715F 		.ascii	"irq_end\000"
 11653      656E6400 
 11654              	.LASF28:
 11655 0b85 52585F42 		.ascii	"RX_BRK\000"
 11655      524B00
 11656              	.LASF212:
 11657 0b8c 5F676C75 		.ascii	"_glue\000"
 11657      6500
 11658              	.LASF101:
 11659 0b92 41444452 		.ascii	"ADDR9MASK\000"
 11659      394D4153 
 11659      4B00
 11660              	.LASF124:
 11661 0b9c 696E666F 		.ascii	"info\000"
 11661      00
 11662              	.LASF209:
 11663 0ba1 5F5F7367 		.ascii	"__sglue\000"
 11663      6C756500 
 11664              	.LASF102:
ARM GAS  C:\Users\claym\AppData\Local\Temp\cc2sTfd9.s 			page 243


 11665 0ba9 52584649 		.ascii	"RXFIFOIRQTRG\000"
 11665      464F4952 
 11665      51545247 
 11665      00
 11666              	.LASF220:
 11667 0bb6 5F737472 		.ascii	"_strtok_last\000"
 11667      746F6B5F 
 11667      6C617374 
 11667      00
 11668              	.LASF35:
 11669 0bc3 54585F57 		.ascii	"TX_WRLOST\000"
 11669      524C4F53 
 11669      5400
 11670              	.LASF262:
 11671 0bcd 564F525F 		.ascii	"VOR_UART_FIFOCLR\000"
 11671      55415254 
 11671      5F464946 
 11671      4F434C52 
 11671      00
 11672              	.LASF19:
 11673 0bde 5F564F52 		.ascii	"_VOR_DRIVER_VERSION\000"
 11673      5F445249 
 11673      5645525F 
 11673      56455253 
 11673      494F4E00 
 11674              	.LASF280:
 11675 0bf2 55415254 		.ascii	"UART_Receive\000"
 11675      5F526563 
 11675      65697665 
 11675      00
 11676              	.LASF67:
 11677 0bff 52414D5F 		.ascii	"RAM_SBE\000"
 11677      53424500 
 11678              	.LASF130:
 11679 0c07 564F525F 		.ascii	"VOR_IRQ_UART\000"
 11679      4952515F 
 11679      55415254 
 11679      00
 11680              	.LASF3:
 11681 0c14 7369676E 		.ascii	"signed char\000"
 11681      65642063 
 11681      68617200 
 11682              	.LASF189:
 11683 0c20 5F726565 		.ascii	"_reent\000"
 11683      6E7400
 11684              	.LASF8:
 11685 0c27 73686F72 		.ascii	"short unsigned int\000"
 11685      7420756E 
 11685      7369676E 
 11685      65642069 
 11685      6E7400
 11686              	.LASF197:
 11687 0c3a 5F6C6F63 		.ascii	"_locale\000"
 11687      616C6500 
 11688              	.LASF302:
 11689 0c42 6D656D63 		.ascii	"memcpy\000"
 11689      707900
ARM GAS  C:\Users\claym\AppData\Local\Temp\cc2sTfd9.s 			page 244


 11690              	.LASF123:
 11691 0c49 75617274 		.ascii	"uart_id\000"
 11691      5F696400 
 11692              	.LASF279:
 11693 0c51 564F525F 		.ascii	"VOR_UART_SetParity\000"
 11693      55415254 
 11693      5F536574 
 11693      50617269 
 11693      747900
 11694              	.LASF275:
 11695 0c64 564F525F 		.ascii	"VOR_UART_DataBits\000"
 11695      55415254 
 11695      5F446174 
 11695      61426974 
 11695      7300
 11696              	.LASF70:
 11697 0c76 524F4D5F 		.ascii	"ROM_MBE\000"
 11697      4D424500 
 11698              	.LASF164:
 11699 0c7e 5F666E74 		.ascii	"_fntypes\000"
 11699      79706573 
 11699      00
 11700              	.LASF98:
 11701 0c87 4649464F 		.ascii	"FIFO_CLR\000"
 11701      5F434C52 
 11701      00
 11702              	.LASF171:
 11703 0c90 5F73697A 		.ascii	"_size\000"
 11703      6500
 11704              	.LASF117:
 11705 0c96 7278636E 		.ascii	"rxcnt\000"
 11705      7400
 11706              	.LASF100:
 11707 0c9c 41444452 		.ascii	"ADDR9\000"
 11707      3900
 11708              	.LASF135:
 11709 0ca2 5F6F6666 		.ascii	"_off_t\000"
 11709      5F7400
 11710              	.LASF278:
 11711 0ca9 564F525F 		.ascii	"VOR_UART_SelectParity\000"
 11711      55415254 
 11711      5F53656C 
 11711      65637450 
 11711      61726974 
 11712              	.LASF40:
 11713 0cbf 47657456 		.ascii	"GetVersion\000"
 11713      65727369 
 11713      6F6E00
 11714              	.LASF182:
 11715 0cca 5F6E6275 		.ascii	"_nbuf\000"
 11715      6600
 11716              	.LASF219:
 11717 0cd0 5F756E75 		.ascii	"_unused_rand\000"
 11717      7365645F 
 11717      72616E64 
 11717      00
 11718              	.LASF196:
ARM GAS  C:\Users\claym\AppData\Local\Temp\cc2sTfd9.s 			page 245


 11719 0cdd 5F756E73 		.ascii	"_unspecified_locale_info\000"
 11719      70656369 
 11719      66696564 
 11719      5F6C6F63 
 11719      616C655F 
 11720              	.LASF294:
 11721 0cf6 564F525F 		.ascii	"VOR_Get_SysTime\000"
 11721      4765745F 
 11721      53797354 
 11721      696D6500 
 11722              	.LASF82:
 11723 0d06 54494D5F 		.ascii	"TIM_CLK_ENABLE\000"
 11723      434C4B5F 
 11723      454E4142 
 11723      4C4500
 11724              	.LASF165:
 11725 0d15 5F69735F 		.ascii	"_is_cxa\000"
 11725      63786100 
 11726              	.LASF71:
 11727 0d1d 494F434F 		.ascii	"IOCONFIG_CLKDIV0\000"
 11727      4E464947 
 11727      5F434C4B 
 11727      44495630 
 11727      00
 11728              	.LASF72:
 11729 0d2e 494F434F 		.ascii	"IOCONFIG_CLKDIV1\000"
 11729      4E464947 
 11729      5F434C4B 
 11729      44495631 
 11729      00
 11730              	.LASF46:
 11731 0d3f 47657452 		.ascii	"GetRxCount\000"
 11731      78436F75 
 11731      6E7400
 11732              	.LASF74:
 11733 0d4a 494F434F 		.ascii	"IOCONFIG_CLKDIV3\000"
 11733      4E464947 
 11733      5F434C4B 
 11733      44495633 
 11733      00
 11734              	.LASF75:
 11735 0d5b 494F434F 		.ascii	"IOCONFIG_CLKDIV4\000"
 11735      4E464947 
 11735      5F434C4B 
 11735      44495634 
 11735      00
 11736              	.LASF76:
 11737 0d6c 494F434F 		.ascii	"IOCONFIG_CLKDIV5\000"
 11737      4E464947 
 11737      5F434C4B 
 11737      44495635 
 11737      00
 11738              	.LASF77:
 11739 0d7d 494F434F 		.ascii	"IOCONFIG_CLKDIV6\000"
 11739      4E464947 
 11739      5F434C4B 
 11739      44495636 
ARM GAS  C:\Users\claym\AppData\Local\Temp\cc2sTfd9.s 			page 246


 11739      00
 11740              	.LASF78:
 11741 0d8e 494F434F 		.ascii	"IOCONFIG_CLKDIV7\000"
 11741      4E464947 
 11741      5F434C4B 
 11741      44495637 
 11741      00
 11742              	.LASF179:
 11743 0d9f 5F736565 		.ascii	"_seek\000"
 11743      6B00
 11744              	.LASF265:
 11745 0da5 564F525F 		.ascii	"VOR_UART_RXFIFORTSTRG\000"
 11745      55415254 
 11745      5F525846 
 11745      49464F52 
 11745      54535452 
 11746              	.LASF193:
 11747 0dbb 5F737464 		.ascii	"_stderr\000"
 11747      65727200 
 11748              	.LASF63:
 11749 0dc3 4952515F 		.ascii	"IRQ_ENB\000"
 11749      454E4200 
 11750              	.LASF137:
 11751 0dcb 77696E74 		.ascii	"wint_t\000"
 11751      5F7400
 11752              	.LASF65:
 11753 0dd2 4952515F 		.ascii	"IRQ_END\000"
 11753      454E4400 
 11754              	.LASF94:
 11755 0dda 4354524C 		.ascii	"CTRL\000"
 11755      00
 11756              	.LASF56:
 11757 0ddf 524F4D5F 		.ascii	"ROM_PROT\000"
 11757      50524F54 
 11757      00
 11758              		.ident	"GCC: (GNU Tools for Arm Embedded Processors 7-2017-q4-major) 7.2.1 20170904 (release) [ARM
ARM GAS  C:\Users\claym\AppData\Local\Temp\cc2sTfd9.s 			page 247


DEFINED SYMBOLS
                            *ABS*:00000000 uart_va108xx.c
C:\Users\claym\AppData\Local\Temp\cc2sTfd9.s:74     .text:00000000 $t
C:\Users\claym\AppData\Local\Temp\cc2sTfd9.s:81     .text:00000000 UART_SetBaudrate
C:\Users\claym\AppData\Local\Temp\cc2sTfd9.s:143    .text:0000001e UARTx_GetVersion
C:\Users\claym\AppData\Local\Temp\cc2sTfd9.s:175    .text:00000038 $d
C:\Users\claym\AppData\Local\Temp\cc2sTfd9.s:179    .text:0000003c $t
C:\Users\claym\AppData\Local\Temp\cc2sTfd9.s:186    .text:0000003c UART_Initialize
C:\Users\claym\AppData\Local\Temp\cc2sTfd9.s:267    .text:00000076 UART_Uninitialize
C:\Users\claym\AppData\Local\Temp\cc2sTfd9.s:341    .text:000000a6 UART_Send
C:\Users\claym\AppData\Local\Temp\cc2sTfd9.s:674    .text:00000160 UART_Receive
C:\Users\claym\AppData\Local\Temp\cc2sTfd9.s:956    .text:00000246 VOR_UART_SetParity
C:\Users\claym\AppData\Local\Temp\cc2sTfd9.s:1030   .text:00000276 VOR_UART_SelectParity
C:\Users\claym\AppData\Local\Temp\cc2sTfd9.s:1107   .text:000002a8 VOR_UART_ManualParity
C:\Users\claym\AppData\Local\Temp\cc2sTfd9.s:1184   .text:000002da VOR_UART_StopBit
C:\Users\claym\AppData\Local\Temp\cc2sTfd9.s:1261   .text:0000030c VOR_UART_DataBits
C:\Users\claym\AppData\Local\Temp\cc2sTfd9.s:1294   .text:00000328 $d
C:\Users\claym\AppData\Local\Temp\cc2sTfd9.s:1298   .text:0000032c $t
C:\Users\claym\AppData\Local\Temp\cc2sTfd9.s:1364   .text:00000350 VOR_UART_LoopBack
C:\Users\claym\AppData\Local\Temp\cc2sTfd9.s:1441   .text:00000382 VOR_UART_AutoCTS
C:\Users\claym\AppData\Local\Temp\cc2sTfd9.s:1512   .text:000003b8 $d
C:\Users\claym\AppData\Local\Temp\cc2sTfd9.s:1516   .text:000003bc $t
C:\Users\claym\AppData\Local\Temp\cc2sTfd9.s:1523   .text:000003bc VOR_UART_DEFRTS
C:\Users\claym\AppData\Local\Temp\cc2sTfd9.s:1594   .text:000003f0 $d
C:\Users\claym\AppData\Local\Temp\cc2sTfd9.s:1598   .text:000003f4 $t
C:\Users\claym\AppData\Local\Temp\cc2sTfd9.s:1605   .text:000003f4 VOR_UART_AutoRTS
C:\Users\claym\AppData\Local\Temp\cc2sTfd9.s:1676   .text:00000428 $d
C:\Users\claym\AppData\Local\Temp\cc2sTfd9.s:1680   .text:0000042c $t
C:\Users\claym\AppData\Local\Temp\cc2sTfd9.s:1687   .text:0000042c VOR_UART_TX
C:\Users\claym\AppData\Local\Temp\cc2sTfd9.s:1764   .text:0000045e VOR_UART_RX
C:\Users\claym\AppData\Local\Temp\cc2sTfd9.s:1838   .text:0000048e VOR_UART_Break
C:\Users\claym\AppData\Local\Temp\cc2sTfd9.s:1933   .text:000004ca VOR_UART_RXFIFOIRQTRG
C:\Users\claym\AppData\Local\Temp\cc2sTfd9.s:2001   .text:000004f4 VOR_UART_TXFIFOIRQTRG
C:\Users\claym\AppData\Local\Temp\cc2sTfd9.s:2069   .text:0000051e VOR_UART_RXFIFORTSTRG
C:\Users\claym\AppData\Local\Temp\cc2sTfd9.s:2137   .text:00000548 VOR_UART_ENB9BIT
C:\Users\claym\AppData\Local\Temp\cc2sTfd9.s:2208   .text:0000057c $d
C:\Users\claym\AppData\Local\Temp\cc2sTfd9.s:2212   .text:00000580 $t
C:\Users\claym\AppData\Local\Temp\cc2sTfd9.s:2219   .text:00000580 VOR_UART_ADDR9MSK
C:\Users\claym\AppData\Local\Temp\cc2sTfd9.s:2287   .text:000005aa VOR_UART_FIFOCLR
C:\Users\claym\AppData\Local\Temp\cc2sTfd9.s:2319   .text:000005c0 $d
C:\Users\claym\AppData\Local\Temp\cc2sTfd9.s:2323   .text:000005c4 $t
C:\Users\claym\AppData\Local\Temp\cc2sTfd9.s:2384   .text:000005e4 VOR_UART_PollMode
C:\Users\claym\AppData\Local\Temp\cc2sTfd9.s:2411   .text:000005ea VOR_UART_PollTimeOut
C:\Users\claym\AppData\Local\Temp\cc2sTfd9.s:2438   .text:000005f0 VOR_UART_abort_send
C:\Users\claym\AppData\Local\Temp\cc2sTfd9.s:2511   .text:0000061e VOR_UART_abort_recv
C:\Users\claym\AppData\Local\Temp\cc2sTfd9.s:2584   .text:0000064c UART_Control
C:\Users\claym\AppData\Local\Temp\cc2sTfd9.s:2628   .text:0000066c $d
C:\Users\claym\AppData\Local\Temp\cc2sTfd9.s:2866   .text:0000073c UART_GetStatus
C:\Users\claym\AppData\Local\Temp\cc2sTfd9.s:3092   .text:0000085c UART_IRQHandler
C:\Users\claym\AppData\Local\Temp\cc2sTfd9.s:3551   .text:00000a0c VOR_UART_GetTxCount
C:\Users\claym\AppData\Local\Temp\cc2sTfd9.s:3577   .text:00000a10 VOR_UART_GetRxCount
C:\Users\claym\AppData\Local\Temp\cc2sTfd9.s:3612   .data:00000000 UART1_Resources
C:\Users\claym\AppData\Local\Temp\cc2sTfd9.s:3627   .data:000000bc UART0_Resources
C:\Users\claym\AppData\Local\Temp\cc2sTfd9.s:3599   .rodata:00000000 $d
C:\Users\claym\AppData\Local\Temp\cc2sTfd9.s:3603   .rodata:00000000 uart_driver_version
C:\Users\claym\AppData\Local\Temp\cc2sTfd9.s:3609   .data:00000000 $d
C:\Users\claym\AppData\Local\Temp\cc2sTfd9.s:2651   .text:00000683 $d
ARM GAS  C:\Users\claym\AppData\Local\Temp\cc2sTfd9.s 			page 248


C:\Users\claym\AppData\Local\Temp\cc2sTfd9.s:2651   .text:00000684 $t

UNDEFINED SYMBOLS
__aeabi_uidiv
VOR_Get_ClockFreq
memcpy
VOR_Disable_Irq
VOR_Enable_Irq
VOR_Get_SysTime
__gnu_thumb1_case_uqi
Driver_UART1
Driver_UART0
