ARM GAS  C:\Users\claym\AppData\Local\Temp\cc2sTfd9.s 			page 1


   1              		.cpu cortex-m0
   2              		.eabi_attribute 20, 1	@ Tag_ABI_FP_denormal
   3              		.eabi_attribute 21, 1	@ Tag_ABI_FP_exceptions
   4              		.eabi_attribute 23, 3	@ Tag_ABI_FP_number_model
   5              		.eabi_attribute 24, 1	@ Tag_ABI_align8_needed
   6              		.eabi_attribute 25, 1	@ Tag_ABI_align8_preserved
   7              		.eabi_attribute 26, 1	@ Tag_ABI_enum_size
   8              		.eabi_attribute 30, 4	@ Tag_ABI_optimization_goals
   9              		.eabi_attribute 34, 0	@ Tag_CPU_unaligned_access
  10              		.eabi_attribute 18, 4	@ Tag_ABI_PCS_wchar_t
  11              		.file	"uart_va108xx.c"
  12              	@ GNU C11 (GNU Tools for Arm Embedded Processors 7-2017-q4-major) version 7.2.1 20170904 (release) 
  13              	@	compiled by GNU C version 5.3.1 20160211, GMP version 6.1.0, MPFR version 3.1.4, MPC version 1.0.
  14              	
  15              	@ GGC heuristics: --param ggc-min-expand=100 --param ggc-min-heapsize=131072
  16              	@ options passed:  -I . -I .\common\hdr -I .\driver\hdr -I .\utilities\hdr
  17              	@ -I .\inc -I .\driver\hdr -I .\hdr -imultilib thumb/v6-m
  18              	@ -iprefix c:\program files (x86)\gnu tools arm embedded\7 2017-q4-major\bin\../lib/gcc/arm-none-ea
  19              	@ -isysroot c:\program files (x86)\gnu tools arm embedded\7 2017-q4-major\bin\../arm-none-eabi
  20              	@ -D__USES_INITFINI__ -D RUN_FROM_FLASH=1 .\driver\src\uart_va108xx.c
  21              	@ -mcpu=cortex-m0 -mthumb -auxbase-strip .\driver\src\uart_va108xx.o
  22              	@ -gdwarf-2 -Os -Wall -Wstrict-prototypes -fomit-frame-pointer
  23              	@ -fverbose-asm
  24              	@ options enabled:  -faggressive-loop-optimizations -falign-jumps
  25              	@ -falign-labels -falign-loops -fauto-inc-dec -fbranch-count-reg
  26              	@ -fcaller-saves -fchkp-check-incomplete-type -fchkp-check-read
  27              	@ -fchkp-check-write -fchkp-instrument-calls -fchkp-narrow-bounds
  28              	@ -fchkp-optimize -fchkp-store-bounds -fchkp-use-static-bounds
  29              	@ -fchkp-use-static-const-bounds -fchkp-use-wrappers -fcode-hoisting
  30              	@ -fcombine-stack-adjustments -fcommon -fcompare-elim -fcprop-registers
  31              	@ -fcrossjumping -fcse-follow-jumps -fdefer-pop
  32              	@ -fdelete-null-pointer-checks -fdevirtualize -fdevirtualize-speculatively
  33              	@ -fdwarf2-cfi-asm -fearly-inlining -feliminate-unused-debug-types
  34              	@ -fexpensive-optimizations -fforward-propagate -ffp-int-builtin-inexact
  35              	@ -ffunction-cse -fgcse -fgcse-lm -fgnu-runtime -fgnu-unique
  36              	@ -fguess-branch-probability -fhoist-adjacent-loads -fident -fif-conversion
  37              	@ -fif-conversion2 -findirect-inlining -finline -finline-atomics
  38              	@ -finline-functions -finline-functions-called-once
  39              	@ -finline-small-functions -fipa-bit-cp -fipa-cp -fipa-icf
  40              	@ -fipa-icf-functions -fipa-icf-variables -fipa-profile -fipa-pure-const
  41              	@ -fipa-reference -fipa-sra -fipa-vrp -fira-hoist-pressure
  42              	@ -fira-share-save-slots -fira-share-spill-slots
  43              	@ -fisolate-erroneous-paths-dereference -fivopts -fkeep-static-consts
  44              	@ -fleading-underscore -flifetime-dse -flra-remat -flto-odr-type-merging
  45              	@ -fmath-errno -fmerge-constants -fmerge-debug-strings
  46              	@ -fmove-loop-invariants -fomit-frame-pointer -foptimize-sibling-calls
  47              	@ -fpartial-inlining -fpeephole -fpeephole2 -fplt -fprefetch-loop-arrays
  48              	@ -freg-struct-return -freorder-blocks -freorder-functions
  49              	@ -frerun-cse-after-loop -fsched-critical-path-heuristic
  50              	@ -fsched-dep-count-heuristic -fsched-group-heuristic -fsched-interblock
  51              	@ -fsched-last-insn-heuristic -fsched-pressure -fsched-rank-heuristic
  52              	@ -fsched-spec -fsched-spec-insn-heuristic -fsched-stalled-insns-dep
  53              	@ -fschedule-insns2 -fsection-anchors -fsemantic-interposition
  54              	@ -fshow-column -fshrink-wrap -fshrink-wrap-separate -fsigned-zeros
  55              	@ -fsplit-ivs-in-unroller -fsplit-wide-types -fssa-backprop -fssa-phiopt
  56              	@ -fstdarg-opt -fstore-merging -fstrict-aliasing -fstrict-overflow
  57              	@ -fstrict-volatile-bitfields -fsync-libcalls -fthread-jumps
ARM GAS  C:\Users\claym\AppData\Local\Temp\cc2sTfd9.s 			page 2


  58              	@ -ftoplevel-reorder -ftrapping-math -ftree-bit-ccp -ftree-builtin-call-dce
  59              	@ -ftree-ccp -ftree-ch -ftree-coalesce-vars -ftree-copy-prop -ftree-cselim
  60              	@ -ftree-dce -ftree-dominator-opts -ftree-dse -ftree-forwprop -ftree-fre
  61              	@ -ftree-loop-if-convert -ftree-loop-im -ftree-loop-ivcanon
  62              	@ -ftree-loop-optimize -ftree-parallelize-loops= -ftree-phiprop -ftree-pre
  63              	@ -ftree-pta -ftree-reassoc -ftree-scev-cprop -ftree-sink -ftree-slsr
  64              	@ -ftree-sra -ftree-switch-conversion -ftree-tail-merge -ftree-ter
  65              	@ -ftree-vrp -funit-at-a-time -fvar-tracking -fvar-tracking-assignments
  66              	@ -fverbose-asm -fzero-initialized-in-bss -mlittle-endian
  67              	@ -mpic-data-is-text-relative -msched-prolog -mthumb
  68              	@ -mvectorize-with-neon-quad
  69              	
  70              		.text
  71              	.Ltext0:
  72              		.cfi_sections	.debug_frame
  73              		.global	__aeabi_uidiv
  74              		.align	1
  75              		.global	UART_SetBaudrate
  76              		.syntax unified
  77              		.code	16
  78              		.thumb_func
  79              		.fpu softvfp
  80              		.type	UART_SetBaudrate, %function
  81              	UART_SetBaudrate:
  82              	.LFB34:
  83              		.file 1 ".\\driver\\src\\uart_va108xx.c"
   1:.\driver\src/uart_va108xx.c **** /***************************************************************************************
   2:.\driver\src/uart_va108xx.c ****  * @file     uart_va108xx.c
   3:.\driver\src/uart_va108xx.c ****  * @version  V1.0
   4:.\driver\src/uart_va108xx.c ****  * @date     31. March 2016
   5:.\driver\src/uart_va108xx.c ****  *
   6:.\driver\src/uart_va108xx.c ****  * @note
   7:.\driver\src/uart_va108xx.c ****  * VORAGO Technologies 
   8:.\driver\src/uart_va108xx.c ****  *
   9:.\driver\src/uart_va108xx.c ****  * @note
  10:.\driver\src/uart_va108xx.c ****  * Copyright (c) 2013-2016 VORAGO Technologies. 
  11:.\driver\src/uart_va108xx.c ****  *
  12:.\driver\src/uart_va108xx.c ****  * @par
  13:.\driver\src/uart_va108xx.c ****  * BY DOWNLOADING, INSTALLING OR USING THIS SOFTWARE, YOU AGREE TO BE BOUND BY 
  14:.\driver\src/uart_va108xx.c ****  * ALL THE TERMS AND CONDITIONS OF THE VORAGO TECHNOLOGIES END USER LICENSE AGREEMENT. 
  15:.\driver\src/uart_va108xx.c ****  * THIS SOFTWARE IS PROVIDED "AS IS". NO WARRANTIES, WHETHER EXPRESS, IMPLIED
  16:.\driver\src/uart_va108xx.c ****  * OR STATUTORY, INCLUDING, BUT NOT LIMITED TO, IMPLIED WARRANTIES OF MERCHANTABILITY 
  17:.\driver\src/uart_va108xx.c ****  * AND FITNESS FOR A PARTICULAR PURPOSE APPLY TO THIS SOFTWARE. VORAGO TECHNOLOGIES 
  18:.\driver\src/uart_va108xx.c ****  * SHALL NOT, IN ANY CIRCUMSTANCES, BE LIABLE FOR SPECIAL, INCIDENTAL, OR CONSEQUENTIAL 
  19:.\driver\src/uart_va108xx.c ****  * DAMAGES, FOR ANY REASON WHATSOEVER.
  20:.\driver\src/uart_va108xx.c ****  *
  21:.\driver\src/uart_va108xx.c ****  ****************************************************************************************/
  22:.\driver\src/uart_va108xx.c **** #include "uart_va108xx.h"
  23:.\driver\src/uart_va108xx.c **** #include "driver_common.h"
  24:.\driver\src/uart_va108xx.c **** #include "driver_uart.h"
  25:.\driver\src/uart_va108xx.c **** #include "irq_va108xx.h"
  26:.\driver\src/uart_va108xx.c **** #include "string.h"
  27:.\driver\src/uart_va108xx.c **** 
  28:.\driver\src/uart_va108xx.c **** #ifndef RTT_LOG
  29:.\driver\src/uart_va108xx.c **** 
  30:.\driver\src/uart_va108xx.c **** // Driver Version
  31:.\driver\src/uart_va108xx.c **** static const VOR_DRIVER_VERSION uart_driver_version = { VOR_UART_API_VERSION, VOR_UART_DRV_VERSION 
ARM GAS  C:\Users\claym\AppData\Local\Temp\cc2sTfd9.s 			page 3


  32:.\driver\src/uart_va108xx.c **** 
  33:.\driver\src/uart_va108xx.c **** // UART0
  34:.\driver\src/uart_va108xx.c **** // UART0 Resources
  35:.\driver\src/uart_va108xx.c **** UART_RESOURCES UART0_Resources = {
  36:.\driver\src/uart_va108xx.c ****   0,
  37:.\driver\src/uart_va108xx.c **** 	&VOR_UART->BANK[0],
  38:.\driver\src/uart_va108xx.c ****   &Driver_UART0,
  39:.\driver\src/uart_va108xx.c **** 	{0},
  40:.\driver\src/uart_va108xx.c **** 	UART0_CLK_EN_MASK
  41:.\driver\src/uart_va108xx.c **** };
  42:.\driver\src/uart_va108xx.c **** 
  43:.\driver\src/uart_va108xx.c **** // UART1
  44:.\driver\src/uart_va108xx.c **** // UART1 Resources
  45:.\driver\src/uart_va108xx.c **** UART_RESOURCES UART1_Resources = {
  46:.\driver\src/uart_va108xx.c **** 	1,
  47:.\driver\src/uart_va108xx.c **** 	&VOR_UART->BANK[1],
  48:.\driver\src/uart_va108xx.c ****   &Driver_UART1,
  49:.\driver\src/uart_va108xx.c **** 	{0},
  50:.\driver\src/uart_va108xx.c **** 	UART1_CLK_EN_MASK
  51:.\driver\src/uart_va108xx.c **** };
  52:.\driver\src/uart_va108xx.c **** 
  53:.\driver\src/uart_va108xx.c **** extern uint32_t VOR_Get_ClockFreq (void);
  54:.\driver\src/uart_va108xx.c **** 
  55:.\driver\src/uart_va108xx.c **** // Local Function
  56:.\driver\src/uart_va108xx.c **** /**
  57:.\driver\src/uart_va108xx.c ****   function:    int32_t UART_SetBaudrate (uint32_t         baudrate,
  58:.\driver\src/uart_va108xx.c ****                                           UART_RESOURCES *UART)
  59:.\driver\src/uart_va108xx.c ****   brief:       Set baudrate dividers
  60:.\driver\src/uart_va108xx.c ****   Input:       baudrate  UART baudrate
  61:.\driver\src/uart_va108xx.c ****   Input:       UART     Pointer to UART resources)
  62:.\driver\src/uart_va108xx.c ****   return:s
  63:.\driver\src/uart_va108xx.c ****    -   0: function succeeded
  64:.\driver\src/uart_va108xx.c ****    -  -1: function failed
  65:.\driver\src/uart_va108xx.c **** */
  66:.\driver\src/uart_va108xx.c **** uint32_t UART_SetBaudrate (uint32_t  baudrate, UART_RESOURCES *UART)  
  67:.\driver\src/uart_va108xx.c **** {
  84              		.loc 1 67 0
  85              		.cfi_startproc
  86              		@ args = 0, pretend = 0, frame = 0
  87              		@ frame_needed = 0, uses_anonymous_args = 0
  88              	.LVL0:
  89 0000 70B5     		push	{r4, r5, r6, lr}	@
  90              	.LCFI0:
  91              		.cfi_def_cfa_offset 16
  92              		.cfi_offset 4, -16
  93              		.cfi_offset 5, -12
  94              		.cfi_offset 6, -8
  95              		.cfi_offset 14, -4
  96              	@ .\driver\src\uart_va108xx.c:67: {
  97              		.loc 1 67 0
  98 0002 0500     		movs	r5, r0	@ baudrate, baudrate
  99 0004 0C00     		movs	r4, r1	@ UART, UART
 100              	@ .\driver\src\uart_va108xx.c:69: 	x = (VOR_Get_ClockFreq()/(baudrate * baudmode))*128;
  68:.\driver\src/uart_va108xx.c ****   uint32_t baudmode = 16, x, Register;
  69:.\driver\src/uart_va108xx.c **** 	x = (VOR_Get_ClockFreq()/(baudrate * baudmode))*128;
 101              		.loc 1 69 0
 102 0006 FFF7FEFF 		bl	VOR_Get_ClockFreq	@
ARM GAS  C:\Users\claym\AppData\Local\Temp\cc2sTfd9.s 			page 4


 103              	.LVL1:
 104 000a 2901     		lsls	r1, r5, #4	@ tmp120, baudrate,
 105 000c FFF7FEFF 		bl	__aeabi_uidiv	@
 106              	.LVL2:
 107              	@ .\driver\src\uart_va108xx.c:71: 	UART->reg->CLKSCALE = Register;
  70:.\driver\src/uart_va108xx.c ****   Register = (x+1)/2;
  71:.\driver\src/uart_va108xx.c **** 	UART->reg->CLKSCALE = Register;
 108              		.loc 1 71 0
 109 0010 6368     		ldr	r3, [r4, #4]	@ _5, UART_11(D)->reg
 110              	@ .\driver\src\uart_va108xx.c:69: 	x = (VOR_Get_ClockFreq()/(baudrate * baudmode))*128;
  69:.\driver\src/uart_va108xx.c ****   Register = (x+1)/2;
 111              		.loc 1 69 0
 112 0012 C001     		lsls	r0, r0, #7	@ x, tmp124,
 113              	@ .\driver\src\uart_va108xx.c:70:   Register = (x+1)/2;
  70:.\driver\src/uart_va108xx.c ****   Register = (x+1)/2;
 114              		.loc 1 70 0
 115 0014 4008     		lsrs	r0, r0, #1	@ Register, x,
 116              	.LVL3:
 117              	@ .\driver\src\uart_va108xx.c:71: 	UART->reg->CLKSCALE = Register;
 118              		.loc 1 71 0
 119 0016 D860     		str	r0, [r3, #12]	@ Register, _5->CLKSCALE
 120              	@ .\driver\src\uart_va108xx.c:74: }
  72:.\driver\src/uart_va108xx.c ****   UART->info.baudrate = baudrate;
  73:.\driver\src/uart_va108xx.c ****   return 0;
  74:.\driver\src/uart_va108xx.c **** }
 121              		.loc 1 74 0
 122              		@ sp needed	@
 123              	@ .\driver\src\uart_va108xx.c:72:   UART->info.baudrate = baudrate;
  72:.\driver\src/uart_va108xx.c ****   UART->info.baudrate = baudrate;
 124              		.loc 1 72 0
 125 0018 2562     		str	r5, [r4, #32]	@ baudrate, UART_11(D)->info.baudrate
 126              	@ .\driver\src\uart_va108xx.c:74: }
 127              		.loc 1 74 0
 128 001a 0020     		movs	r0, #0	@,
 129              	.LVL4:
 130              	.LVL5:
 131              	.LVL6:
 132 001c 70BD     		pop	{r4, r5, r6, pc}
 133              		.cfi_endproc
 134              	.LFE34:
 135              		.size	UART_SetBaudrate, .-UART_SetBaudrate
 136              		.align	1
 137              		.global	UARTx_GetVersion
 138              		.syntax unified
 139              		.code	16
 140              		.thumb_func
 141              		.fpu softvfp
 142              		.type	UARTx_GetVersion, %function
 143              	UARTx_GetVersion:
 144              	.LFB35:
  75:.\driver\src/uart_va108xx.c **** 
  76:.\driver\src/uart_va108xx.c **** /**
  77:.\driver\src/uart_va108xx.c ****   function:    VOR_DRIVER_VERSION UARTx_GetVersion (void)
  78:.\driver\src/uart_va108xx.c ****   brief:       Get driver version.
  79:.\driver\src/uart_va108xx.c ****   return:      VOR_DRIVER_VERSION
  80:.\driver\src/uart_va108xx.c **** */
  81:.\driver\src/uart_va108xx.c **** VOR_DRIVER_VERSION UARTx_GetVersion (void) {
ARM GAS  C:\Users\claym\AppData\Local\Temp\cc2sTfd9.s 			page 5


 145              		.loc 1 81 0
 146              		.cfi_startproc
 147              		@ args = 0, pretend = 0, frame = 8
 148              		@ frame_needed = 0, uses_anonymous_args = 0
 149 001e 13B5     		push	{r0, r1, r4, lr}	@
 150              	.LCFI1:
 151              		.cfi_def_cfa_offset 16
 152              		.cfi_offset 0, -16
 153              		.cfi_offset 1, -12
 154              		.cfi_offset 4, -8
 155              		.cfi_offset 14, -4
 156              	@ .\driver\src\uart_va108xx.c:82:   return uart_driver_version;
  82:.\driver\src/uart_va108xx.c ****   return uart_driver_version;
 157              		.loc 1 82 0
 158 0020 01AC     		add	r4, sp, #4	@ tmp111,,
 159 0022 0422     		movs	r2, #4	@,
 160 0024 0449     		ldr	r1, .L3	@,
 161 0026 2000     		movs	r0, r4	@, tmp111
 162 0028 FFF7FEFF 		bl	memcpy	@
 163              	.LVL7:
 164 002c 6388     		ldrh	r3, [r4, #2]	@ D.5432, D.5432
 165 002e 2088     		ldrh	r0, [r4]	@ tmp128, D.5432
 166 0030 1B04     		lsls	r3, r3, #16	@ tmp127, D.5432,
 167 0032 1843     		orrs	r0, r3	@ tmp130, tmp127
 168              	@ .\driver\src\uart_va108xx.c:83: }
  83:.\driver\src/uart_va108xx.c **** }
 169              		.loc 1 83 0
 170              		@ sp needed	@
 171 0034 16BD     		pop	{r1, r2, r4, pc}
 172              	.L4:
 173 0036 C046     		.align	2
 174              	.L3:
 175 0038 00000000 		.word	.LANCHOR0
 176              		.cfi_endproc
 177              	.LFE35:
 178              		.size	UARTx_GetVersion, .-UARTx_GetVersion
 179              		.align	1
 180              		.global	UART_Initialize
 181              		.syntax unified
 182              		.code	16
 183              		.thumb_func
 184              		.fpu softvfp
 185              		.type	UART_Initialize, %function
 186              	UART_Initialize:
 187              	.LFB36:
  84:.\driver\src/uart_va108xx.c **** 
  85:.\driver\src/uart_va108xx.c **** /**
  86:.\driver\src/uart_va108xx.c ****   function:    int32_t UART_Initialize (VOR_UART_SignalEvent_t  cb_event
  87:.\driver\src/uart_va108xx.c ****                                          UART_RESOURCES         *UART)
  88:.\driver\src/uart_va108xx.c ****   brief:       Initialize UART Interface.
  89:.\driver\src/uart_va108xx.c ****   Input:       cb_event  Pointer to VOR_UART_SignalEvent
  90:.\driver\src/uart_va108xx.c ****   Input:       UART     Pointer to UART resources
  91:.\driver\src/uart_va108xx.c ****   return:      execution_status
  92:.\driver\src/uart_va108xx.c **** */
  93:.\driver\src/uart_va108xx.c **** int32_t UART_Initialize (VOR_UART_SignalEvent_t  cb_event, UART_RESOURCES *UART)
  94:.\driver\src/uart_va108xx.c **** {
 188              		.loc 1 94 0
ARM GAS  C:\Users\claym\AppData\Local\Temp\cc2sTfd9.s 			page 6


 189              		.cfi_startproc
 190              		@ args = 0, pretend = 0, frame = 0
 191              		@ frame_needed = 0, uses_anonymous_args = 0
 192              	.LVL8:
 193 003c 30B5     		push	{r4, r5, lr}	@
 194              	.LCFI2:
 195              		.cfi_def_cfa_offset 12
 196              		.cfi_offset 4, -12
 197              		.cfi_offset 5, -8
 198              		.cfi_offset 14, -4
 199              	@ .\driver\src\uart_va108xx.c:95: 	if((UART == NULL) || (UART->reg ==NULL))
  95:.\driver\src/uart_va108xx.c **** 	if((UART == NULL) || (UART->reg ==NULL))
 200              		.loc 1 95 0
 201 003e 0029     		cmp	r1, #0	@ UART,
 202 0040 14D0     		beq	.L8	@,
 203              	@ .\driver\src\uart_va108xx.c:95: 	if((UART == NULL) || (UART->reg ==NULL))
 204              		.loc 1 95 0 is_stmt 0 discriminator 1
 205 0042 4B68     		ldr	r3, [r1, #4]	@ tmp136, UART_10(D)->reg
 206 0044 002B     		cmp	r3, #0	@ tmp136,
 207 0046 11D0     		beq	.L8	@,
 208              	@ .\driver\src\uart_va108xx.c:98: 		UART->info.flags |= UART_FLAG_INIT; 
  96:.\driver\src/uart_va108xx.c **** 	return VOR_DRIVER_ERROR_PARAMETER;
  97:.\driver\src/uart_va108xx.c **** 	
  98:.\driver\src/uart_va108xx.c **** 		UART->info.flags |= UART_FLAG_INIT; 
 209              		.loc 1 98 0 is_stmt 1
 210 0048 0123     		movs	r3, #1	@ tmp123,
 211 004a 4A69     		ldr	r2, [r1, #20]	@ tmp137, UART_10(D)->info.flags
 212 004c 1343     		orrs	r3, r2	@ tmp121, tmp137
 213 004e 4B61     		str	r3, [r1, #20]	@ tmp121, UART_10(D)->info.flags
 214              	@ .\driver\src\uart_va108xx.c:100:   if(UART->info.cb_event != NULL)
  99:.\driver\src/uart_va108xx.c **** 	
 100:.\driver\src/uart_va108xx.c ****   if(UART->info.cb_event != NULL)
 215              		.loc 1 100 0
 216 0050 CB68     		ldr	r3, [r1, #12]	@ UART_10(D)->info.cb_event, UART_10(D)->info.cb_event
 217 0052 002B     		cmp	r3, #0	@ UART_10(D)->info.cb_event,
 218 0054 0DD1     		bne	.L9	@,
 219              	@ .\driver\src\uart_va108xx.c:104: 	VOR_SYSCONFIG->PERIPHERAL_CLK_ENABLE |=  UART->uartClkEn; 
 101:.\driver\src/uart_va108xx.c **** 	return VOR_UART_ERROR_MULTIPLEINIT; 
 102:.\driver\src/uart_va108xx.c **** 
 103:.\driver\src/uart_va108xx.c **** 	// Switch-on clocks to UART module 
 104:.\driver\src/uart_va108xx.c **** 	VOR_SYSCONFIG->PERIPHERAL_CLK_ENABLE |=  UART->uartClkEn; 
 220              		.loc 1 104 0
 221 0056 8024     		movs	r4, #128	@ tmp125,
 222 0058 0D00     		movs	r5, r1	@ tmp128, UART
 223 005a E405     		lsls	r4, r4, #23	@ tmp125, tmp125,
 224 005c B835     		adds	r5, r5, #184	@ tmp128,
 225 005e E26F     		ldr	r2, [r4, #124]	@ _5, MEM[(struct VOR_SYSCONFIG_Type *)1073741824B].PERIPHERAL_CLK_ENABLE
 226 0060 2D68     		ldr	r5, [r5]	@ UART_10(D)->uartClkEn, UART_10(D)->uartClkEn
 227 0062 2A43     		orrs	r2, r5	@ _7, UART_10(D)->uartClkEn
 228 0064 E267     		str	r2, [r4, #124]	@ _7, MEM[(struct VOR_SYSCONFIG_Type *)1073741824B].PERIPHERAL_CLK_ENABLE
 229              	@ .\driver\src\uart_va108xx.c:106: 	UART->info.cb_event = cb_event;  
 105:.\driver\src/uart_va108xx.c **** 	
 106:.\driver\src/uart_va108xx.c **** 	UART->info.cb_event = cb_event;  
 230              		.loc 1 106 0
 231 0066 C860     		str	r0, [r1, #12]	@ cb_event, UART_10(D)->info.cb_event
 232              	@ .\driver\src\uart_va108xx.c:107:   return VOR_DRIVER_OK;
 107:.\driver\src/uart_va108xx.c ****   return VOR_DRIVER_OK;
ARM GAS  C:\Users\claym\AppData\Local\Temp\cc2sTfd9.s 			page 7


 233              		.loc 1 107 0
 234 0068 1800     		movs	r0, r3	@ <retval>, UART_10(D)->info.cb_event
 235              	.LVL9:
 236              	.L5:
 237              	@ .\driver\src\uart_va108xx.c:108: }
 108:.\driver\src/uart_va108xx.c **** }
 238              		.loc 1 108 0
 239              		@ sp needed	@
 240 006a 30BD     		pop	{r4, r5, pc}
 241              	.LVL10:
 242              	.L8:
 243              	@ .\driver\src\uart_va108xx.c:96: 	return VOR_DRIVER_ERROR_PARAMETER;
  96:.\driver\src/uart_va108xx.c **** 	
 244              		.loc 1 96 0
 245 006c 0520     		movs	r0, #5	@ <retval>,
 246              	.LVL11:
 247              	.L10:
 248              	@ .\driver\src\uart_va108xx.c:101: 	return VOR_UART_ERROR_MULTIPLEINIT; 
 101:.\driver\src/uart_va108xx.c **** 
 249              		.loc 1 101 0
 250 006e 4042     		rsbs	r0, r0, #0	@ <retval>, <retval>
 251 0070 FBE7     		b	.L5	@
 252              	.LVL12:
 253              	.L9:
 254 0072 0D20     		movs	r0, #13	@ <retval>,
 255              	.LVL13:
 256 0074 FBE7     		b	.L10	@
 257              		.cfi_endproc
 258              	.LFE36:
 259              		.size	UART_Initialize, .-UART_Initialize
 260              		.align	1
 261              		.global	UART_Uninitialize
 262              		.syntax unified
 263              		.code	16
 264              		.thumb_func
 265              		.fpu softvfp
 266              		.type	UART_Uninitialize, %function
 267              	UART_Uninitialize:
 268              	.LFB37:
 109:.\driver\src/uart_va108xx.c **** 
 110:.\driver\src/uart_va108xx.c **** /**
 111:.\driver\src/uart_va108xx.c ****   function:    int32_t UART_Uninitialize (UART_RESOURCES *UART)
 112:.\driver\src/uart_va108xx.c ****   brief:       De-initialize UART Interface.
 113:.\driver\src/uart_va108xx.c ****   Input:       UART     Pointer to UART resources
 114:.\driver\src/uart_va108xx.c ****   return:      execution_status
 115:.\driver\src/uart_va108xx.c **** */
 116:.\driver\src/uart_va108xx.c **** int32_t UART_Uninitialize (UART_RESOURCES *UART) {
 269              		.loc 1 116 0
 270              		.cfi_startproc
 271              		@ args = 0, pretend = 0, frame = 0
 272              		@ frame_needed = 0, uses_anonymous_args = 0
 273              	.LVL14:
 274 0076 10B5     		push	{r4, lr}	@
 275              	.LCFI3:
 276              		.cfi_def_cfa_offset 8
 277              		.cfi_offset 4, -8
 278              		.cfi_offset 14, -4
ARM GAS  C:\Users\claym\AppData\Local\Temp\cc2sTfd9.s 			page 8


 279              	@ .\driver\src\uart_va108xx.c:118:   if((UART == NULL) || (UART->reg ==NULL))
 117:.\driver\src/uart_va108xx.c **** 
 118:.\driver\src/uart_va108xx.c ****   if((UART == NULL) || (UART->reg ==NULL))
 280              		.loc 1 118 0
 281 0078 0028     		cmp	r0, #0	@ UART,
 282 007a 11D0     		beq	.L14	@,
 283              	@ .\driver\src\uart_va108xx.c:118:   if((UART == NULL) || (UART->reg ==NULL))
 284              		.loc 1 118 0 is_stmt 0 discriminator 1
 285 007c 4368     		ldr	r3, [r0, #4]	@ tmp135, UART_10(D)->reg
 286 007e 002B     		cmp	r3, #0	@ tmp135,
 287 0080 0ED0     		beq	.L14	@,
 288              	@ .\driver\src\uart_va108xx.c:121: 	UART->info.flags &= ~UART_FLAG_INIT;  
 119:.\driver\src/uart_va108xx.c ****    	{return VOR_DRIVER_ERROR_PARAMETER;}
 120:.\driver\src/uart_va108xx.c **** 	
 121:.\driver\src/uart_va108xx.c **** 	UART->info.flags &= ~UART_FLAG_INIT;  
 289              		.loc 1 121 0 is_stmt 1
 290 0082 0123     		movs	r3, #1	@ tmp122,
 291 0084 4269     		ldr	r2, [r0, #20]	@ tmp120, UART_10(D)->info.flags
 292              	@ .\driver\src\uart_va108xx.c:125: 	VOR_SYSCONFIG->PERIPHERAL_CLK_ENABLE &=  ~UART->uartClkEn; 
 122:.\driver\src/uart_va108xx.c **** 
 123:.\driver\src/uart_va108xx.c ****   UART->info.cb_event = NULL;
 124:.\driver\src/uart_va108xx.c **** 	// Switch-off clocks to UART module 
 125:.\driver\src/uart_va108xx.c **** 	VOR_SYSCONFIG->PERIPHERAL_CLK_ENABLE &=  ~UART->uartClkEn; 
 293              		.loc 1 125 0
 294 0086 8024     		movs	r4, #128	@ tmp124,
 295              	@ .\driver\src\uart_va108xx.c:121: 	UART->info.flags &= ~UART_FLAG_INIT;  
 121:.\driver\src/uart_va108xx.c **** 
 296              		.loc 1 121 0
 297 0088 9A43     		bics	r2, r3	@ tmp120, tmp122
 298 008a 4261     		str	r2, [r0, #20]	@ tmp120, UART_10(D)->info.flags
 299              	@ .\driver\src\uart_va108xx.c:123:   UART->info.cb_event = NULL;
 123:.\driver\src/uart_va108xx.c **** 	// Switch-off clocks to UART module 
 300              		.loc 1 123 0
 301 008c 0022     		movs	r2, #0	@ tmp123,
 302 008e C260     		str	r2, [r0, #12]	@ tmp123, UART_10(D)->info.cb_event
 303              	@ .\driver\src\uart_va108xx.c:125: 	VOR_SYSCONFIG->PERIPHERAL_CLK_ENABLE &=  ~UART->uartClkEn; 
 304              		.loc 1 125 0
 305 0090 B830     		adds	r0, r0, #184	@ tmp127,
 306              	.LVL15:
 307 0092 0368     		ldr	r3, [r0]	@ UART_10(D)->uartClkEn, UART_10(D)->uartClkEn
 308              	@ .\driver\src\uart_va108xx.c:127: 	return VOR_DRIVER_OK;
 126:.\driver\src/uart_va108xx.c ****   
 127:.\driver\src/uart_va108xx.c **** 	return VOR_DRIVER_OK;
 309              		.loc 1 127 0
 310 0094 1000     		movs	r0, r2	@ <retval>, tmp123
 311              	.LVL16:
 312              	@ .\driver\src\uart_va108xx.c:125: 	VOR_SYSCONFIG->PERIPHERAL_CLK_ENABLE &=  ~UART->uartClkEn; 
 125:.\driver\src/uart_va108xx.c ****   
 313              		.loc 1 125 0
 314 0096 E405     		lsls	r4, r4, #23	@ tmp124, tmp124,
 315 0098 E16F     		ldr	r1, [r4, #124]	@ _4, MEM[(struct VOR_SYSCONFIG_Type *)1073741824B].PERIPHERAL_CLK_ENABLE
 316 009a 9943     		bics	r1, r3	@ _7, UART_10(D)->uartClkEn
 317 009c E167     		str	r1, [r4, #124]	@ _7, MEM[(struct VOR_SYSCONFIG_Type *)1073741824B].PERIPHERAL_CLK_ENABLE
 318              	.L11:
 319              	@ .\driver\src\uart_va108xx.c:128: }
 128:.\driver\src/uart_va108xx.c **** }
 320              		.loc 1 128 0
ARM GAS  C:\Users\claym\AppData\Local\Temp\cc2sTfd9.s 			page 9


 321              		@ sp needed	@
 322 009e 10BD     		pop	{r4, pc}
 323              	.LVL17:
 324              	.L14:
 325              	@ .\driver\src\uart_va108xx.c:119:    	{return VOR_DRIVER_ERROR_PARAMETER;}
 119:.\driver\src/uart_va108xx.c **** 	
 326              		.loc 1 119 0
 327 00a0 0520     		movs	r0, #5	@ <retval>,
 328              	.LVL18:
 329 00a2 4042     		rsbs	r0, r0, #0	@ <retval>, <retval>
 330 00a4 FBE7     		b	.L11	@
 331              		.cfi_endproc
 332              	.LFE37:
 333              		.size	UART_Uninitialize, .-UART_Uninitialize
 334              		.align	1
 335              		.global	UART_Send
 336              		.syntax unified
 337              		.code	16
 338              		.thumb_func
 339              		.fpu softvfp
 340              		.type	UART_Send, %function
 341              	UART_Send:
 342              	.LFB38:
 129:.\driver\src/uart_va108xx.c **** 
 130:.\driver\src/uart_va108xx.c **** /**
 131:.\driver\src/uart_va108xx.c ****   function:    int32_t UART_Send (const void            *data,
 132:.\driver\src/uart_va108xx.c ****                                          uint32_t         num,
 133:.\driver\src/uart_va108xx.c ****                                          UART_RESOURCES *UART)
 134:.\driver\src/uart_va108xx.c ****   brief:       Start sending data to UART transmitter.
 135:.\driver\src/uart_va108xx.c ****   Input:       data  Pointer to buffer with data to send to UART transmitter
 136:.\driver\src/uart_va108xx.c ****   Input:       num   Number of data items to send
 137:.\driver\src/uart_va108xx.c ****   Input:       UART Pointer to UART resources
 138:.\driver\src/uart_va108xx.c ****   return:      execution_status
 139:.\driver\src/uart_va108xx.c **** */
 140:.\driver\src/uart_va108xx.c **** int32_t UART_Send (uint8_t *data, uint32_t num, UART_RESOURCES *UART)
 141:.\driver\src/uart_va108xx.c **** {	
 343              		.loc 1 141 0
 344              		.cfi_startproc
 345              		@ args = 0, pretend = 0, frame = 0
 346              		@ frame_needed = 0, uses_anonymous_args = 0
 347              	.LVL19:
 348 00a6 F8B5     		push	{r3, r4, r5, r6, r7, lr}	@
 349              	.LCFI4:
 350              		.cfi_def_cfa_offset 24
 351              		.cfi_offset 3, -24
 352              		.cfi_offset 4, -20
 353              		.cfi_offset 5, -16
 354              		.cfi_offset 6, -12
 355              		.cfi_offset 7, -8
 356              		.cfi_offset 14, -4
 357              	@ .\driver\src\uart_va108xx.c:141: {	
 358              		.loc 1 141 0
 359 00a8 0700     		movs	r7, r0	@ data, data
 360 00aa 0E00     		movs	r6, r1	@ num, num
 361 00ac 1500     		movs	r5, r2	@ UART, UART
 362              	@ .\driver\src\uart_va108xx.c:145:  		if (!data || (num > UART_MAX_TXDATA)) {
 142:.\driver\src/uart_va108xx.c **** 		uint32_t count;
ARM GAS  C:\Users\claym\AppData\Local\Temp\cc2sTfd9.s 			page 10


 143:.\driver\src/uart_va108xx.c **** 		// uint32_t poll_time, start_time;
 144:.\driver\src/uart_va108xx.c **** 		uint32_t txsts;
 145:.\driver\src/uart_va108xx.c ****  		if (!data || (num > UART_MAX_TXDATA)) {
 363              		.loc 1 145 0
 364 00ae 0028     		cmp	r0, #0	@ data,
 365 00b0 51D0     		beq	.L24	@,
 366              	@ .\driver\src\uart_va108xx.c:145:  		if (!data || (num > UART_MAX_TXDATA)) {
 367              		.loc 1 145 0 is_stmt 0 discriminator 1
 368 00b2 8029     		cmp	r1, #128	@ num,
 369 00b4 4FD8     		bhi	.L24	@,
 370              	@ .\driver\src\uart_va108xx.c:150: 		if (!(UART->info.flags & UART_FLAG_INIT)) {
 146:.\driver\src/uart_va108xx.c **** 			/* Invalid parameters */
 147:.\driver\src/uart_va108xx.c **** 			return VOR_DRIVER_ERROR_PARAMETER;
 148:.\driver\src/uart_va108xx.c **** 		}
 149:.\driver\src/uart_va108xx.c **** 
 150:.\driver\src/uart_va108xx.c **** 		if (!(UART->info.flags & UART_FLAG_INIT)) {
 371              		.loc 1 150 0 is_stmt 1
 372 00b6 0124     		movs	r4, #1	@ tmp177,
 373 00b8 5369     		ldr	r3, [r2, #20]	@ tmp176, UART_39(D)->info.flags
 374 00ba 2342     		tst	r3, r4	@ tmp176, tmp177
 375 00bc 4ED0     		beq	.L25	@,
 376              	@ .\driver\src\uart_va108xx.c:155: 		VOR_Disable_Irq(VOR_IRQ_UART, UART->uart_id);
 151:.\driver\src/uart_va108xx.c **** 			/* Driver not yet configured */
 152:.\driver\src/uart_va108xx.c **** 			return VOR_DRIVER_ERROR;
 153:.\driver\src/uart_va108xx.c **** 		}
 154:.\driver\src/uart_va108xx.c **** 
 155:.\driver\src/uart_va108xx.c **** 		VOR_Disable_Irq(VOR_IRQ_UART, UART->uart_id);
 377              		.loc 1 155 0
 378 00be 1168     		ldr	r1, [r2]	@, UART_39(D)->uart_id
 379              	.LVL20:
 380 00c0 0320     		movs	r0, #3	@,
 381              	.LVL21:
 382 00c2 FFF7FEFF 		bl	VOR_Disable_Irq	@
 383              	.LVL22:
 384              	@ .\driver\src\uart_va108xx.c:156: 		UART->reg->IRQ_ENB = 0;
 156:.\driver\src/uart_va108xx.c **** 		UART->reg->IRQ_ENB = 0;
 385              		.loc 1 156 0
 386 00c6 0022     		movs	r2, #0	@ tmp145,
 387              	@ .\driver\src\uart_va108xx.c:158: 	  UART->reg->ENABLE |= UART_PERIPHERAL_ENABLE_TXENABLE_Msk;
 157:.\driver\src/uart_va108xx.c ****     UART->info.txidx = 0;
 158:.\driver\src/uart_va108xx.c **** 	  UART->reg->ENABLE |= UART_PERIPHERAL_ENABLE_TXENABLE_Msk;
 388              		.loc 1 158 0
 389 00c8 0221     		movs	r1, #2	@ tmp147,
 390              	@ .\driver\src\uart_va108xx.c:156: 		UART->reg->IRQ_ENB = 0;
 156:.\driver\src/uart_va108xx.c **** 		UART->reg->IRQ_ENB = 0;
 391              		.loc 1 156 0
 392 00ca 6B68     		ldr	r3, [r5, #4]	@ _4, UART_39(D)->reg
 393 00cc 9A62     		str	r2, [r3, #40]	@ tmp145, _4->IRQ_ENB
 394              	@ .\driver\src\uart_va108xx.c:158: 	  UART->reg->ENABLE |= UART_PERIPHERAL_ENABLE_TXENABLE_Msk;
 395              		.loc 1 158 0
 396 00ce 5868     		ldr	r0, [r3, #4]	@ _5, _4->ENABLE
 397              	@ .\driver\src\uart_va108xx.c:157:     UART->info.txidx = 0;
 157:.\driver\src/uart_va108xx.c ****     UART->info.txidx = 0;
 398              		.loc 1 157 0
 399 00d0 EA62     		str	r2, [r5, #44]	@ tmp145, UART_39(D)->info.txidx
 400              	@ .\driver\src\uart_va108xx.c:158: 	  UART->reg->ENABLE |= UART_PERIPHERAL_ENABLE_TXENABLE_Msk;
 401              		.loc 1 158 0
ARM GAS  C:\Users\claym\AppData\Local\Temp\cc2sTfd9.s 			page 11


 402 00d2 0143     		orrs	r1, r0	@ _6, _5
 403 00d4 5960     		str	r1, [r3, #4]	@ _6, _4->ENABLE
 404              	@ .\driver\src\uart_va108xx.c:159: 	  UART->reg->ENABLE &= ~UART_PERIPHERAL_ENABLE_RXENABLE_Msk;
 159:.\driver\src/uart_va108xx.c **** 	  UART->reg->ENABLE &= ~UART_PERIPHERAL_ENABLE_RXENABLE_Msk;
 405              		.loc 1 159 0
 406 00d6 5968     		ldr	r1, [r3, #4]	@ _7, _4->ENABLE
 407 00d8 A143     		bics	r1, r4	@ _8, tmp178
 408              	@ .\driver\src\uart_va108xx.c:160: 		if(UART->info.poll_mode){
 160:.\driver\src/uart_va108xx.c **** 		if(UART->info.poll_mode){
 409              		.loc 1 160 0
 410 00da AC69     		ldr	r4, [r5, #24]	@ UART_39(D)->info.poll_mode, UART_39(D)->info.poll_mode
 411              	@ .\driver\src\uart_va108xx.c:159: 	  UART->reg->ENABLE &= ~UART_PERIPHERAL_ENABLE_RXENABLE_Msk;
 159:.\driver\src/uart_va108xx.c **** 	  UART->reg->ENABLE &= ~UART_PERIPHERAL_ENABLE_RXENABLE_Msk;
 412              		.loc 1 159 0
 413 00dc 5960     		str	r1, [r3, #4]	@ _8, _4->ENABLE
 414              	@ .\driver\src\uart_va108xx.c:169: 			  if((txsts & UART_PERIPHERAL_TXSTATUS_WRRDY_Msk) && (~(txsts
 161:.\driver\src/uart_va108xx.c **** 			
 162:.\driver\src/uart_va108xx.c **** 	  	/* start_time = VOR_Get_SysTime();
 163:.\driver\src/uart_va108xx.c **** 		  poll_time  = start_time - UART->info.poll_tout;*/ 
 164:.\driver\src/uart_va108xx.c **** 			count = 0;
 165:.\driver\src/uart_va108xx.c **** 		  while((num !=0) /*&& (poll_time <= VOR_Get_SysTime()) */ ) {
 166:.\driver\src/uart_va108xx.c **** 			  __NOP( ); 
 167:.\driver\src/uart_va108xx.c **** 			  __NOP( ); 
 168:.\driver\src/uart_va108xx.c **** 			  txsts = UART->reg->TXSTATUS;
 169:.\driver\src/uart_va108xx.c **** 			  if((txsts & UART_PERIPHERAL_TXSTATUS_WRRDY_Msk) && (~(txsts & UART_PERIPHERAL_TXSTATUS_TXBUSY_
 415              		.loc 1 169 0
 416 00de 0121     		movs	r1, #1	@ tmp171,
 417              	@ .\driver\src\uart_va108xx.c:160: 		if(UART->info.poll_mode){
 160:.\driver\src/uart_va108xx.c **** 		if(UART->info.poll_mode){
 418              		.loc 1 160 0
 419 00e0 9442     		cmp	r4, r2	@ UART_39(D)->info.poll_mode,
 420 00e2 28D1     		bne	.L17	@,
 421              	@ .\driver\src\uart_va108xx.c:194: 		  UART->reg->IRQ_CLR = 0xffffffff;
 170:.\driver\src/uart_va108xx.c **** 			       __NOP( ); 
 171:.\driver\src/uart_va108xx.c **** 			       __NOP( ); 
 172:.\driver\src/uart_va108xx.c ****   			       UART->reg->DATA = data[count++];
 173:.\driver\src/uart_va108xx.c **** 					   UART->info.txidx++;
 174:.\driver\src/uart_va108xx.c **** 				     num--;
 175:.\driver\src/uart_va108xx.c **** 			  }
 176:.\driver\src/uart_va108xx.c **** 			  __NOP( ); 
 177:.\driver\src/uart_va108xx.c **** 			  __NOP( ); 
 178:.\driver\src/uart_va108xx.c **** 		  }
 179:.\driver\src/uart_va108xx.c **** 		  if(num!=0) {
 180:.\driver\src/uart_va108xx.c **** 		    UART->reg->ENABLE &= ~UART_PERIPHERAL_ENABLE_TXENABLE_Msk;
 181:.\driver\src/uart_va108xx.c **** 			  return VOR_UART_ERROR_POLL_TOUT;
 182:.\driver\src/uart_va108xx.c **** 		  }
 183:.\driver\src/uart_va108xx.c **** 	    // Wait for transaction to complete
 184:.\driver\src/uart_va108xx.c **** 	    while((UART->reg->TXSTATUS & UART_PERIPHERAL_TXSTATUS_WRBUSY_Msk) /*&& (poll_time <= VOR_Get_S
 185:.\driver\src/uart_va108xx.c **** 	      __NOP( ); 
 186:.\driver\src/uart_va108xx.c **** 	      __NOP( ); 
 187:.\driver\src/uart_va108xx.c **** 			  __NOP( ); 
 188:.\driver\src/uart_va108xx.c **** 			  __NOP( ); 
 189:.\driver\src/uart_va108xx.c **** 	     }			
 190:.\driver\src/uart_va108xx.c **** 			 // Stop Tranmiter
 191:.\driver\src/uart_va108xx.c **** 		   UART->reg->ENABLE &= ~UART_PERIPHERAL_ENABLE_TXENABLE_Msk;
 192:.\driver\src/uart_va108xx.c **** 		}
 193:.\driver\src/uart_va108xx.c **** 		else {   // Interrupt Mode
ARM GAS  C:\Users\claym\AppData\Local\Temp\cc2sTfd9.s 			page 12


 194:.\driver\src/uart_va108xx.c **** 		  UART->reg->IRQ_CLR = 0xffffffff;
 422              		.loc 1 194 0
 423 00e4 0122     		movs	r2, #1	@ tmp157,
 424              	@ .\driver\src\uart_va108xx.c:197: 		  memcpy(UART->info.txdata,data,num);
 195:.\driver\src/uart_va108xx.c **** 		  UART->reg->IRQ_CLR = 0;
 196:.\driver\src/uart_va108xx.c **** 
 197:.\driver\src/uart_va108xx.c **** 		  memcpy(UART->info.txdata,data,num);
 425              		.loc 1 197 0
 426 00e6 2800     		movs	r0, r5	@ tmp159, UART
 427              	@ .\driver\src\uart_va108xx.c:194: 		  UART->reg->IRQ_CLR = 0xffffffff;
 194:.\driver\src/uart_va108xx.c **** 		  UART->reg->IRQ_CLR = 0;
 428              		.loc 1 194 0
 429 00e8 5242     		rsbs	r2, r2, #0	@ tmp157, tmp157
 430 00ea 5A63     		str	r2, [r3, #52]	@ tmp157, _4->IRQ_CLR
 431              	@ .\driver\src\uart_va108xx.c:197: 		  memcpy(UART->info.txdata,data,num);
 432              		.loc 1 197 0
 433 00ec 3900     		movs	r1, r7	@, data
 434              	@ .\driver\src\uart_va108xx.c:195: 		  UART->reg->IRQ_CLR = 0;
 195:.\driver\src/uart_va108xx.c **** 		  UART->reg->IRQ_CLR = 0;
 435              		.loc 1 195 0
 436 00ee 5C63     		str	r4, [r3, #52]	@ UART_39(D)->info.poll_mode, _4->IRQ_CLR
 437              	@ .\driver\src\uart_va108xx.c:197: 		  memcpy(UART->info.txdata,data,num);
 438              		.loc 1 197 0
 439 00f0 3200     		movs	r2, r6	@, num
 440 00f2 3430     		adds	r0, r0, #52	@ tmp159,
 441 00f4 FFF7FEFF 		bl	memcpy	@
 442              	.LVL23:
 443              	@ .\driver\src\uart_va108xx.c:198: 		  UART->info.txidx = 0;
 198:.\driver\src/uart_va108xx.c **** 		  UART->info.txidx = 0;
 444              		.loc 1 198 0
 445 00f8 EC62     		str	r4, [r5, #44]	@ UART_39(D)->info.poll_mode, UART_39(D)->info.txidx
 446              	@ .\driver\src\uart_va108xx.c:199: 		  UART->info.txcnt = num;
 199:.\driver\src/uart_va108xx.c **** 		  UART->info.txcnt = num;
 447              		.loc 1 199 0
 448 00fa 6E62     		str	r6, [r5, #36]	@ num, UART_39(D)->info.txcnt
 449              	@ .\driver\src\uart_va108xx.c:200: 		  UART->info.rxidx = 0;
 200:.\driver\src/uart_va108xx.c **** 		  UART->info.rxidx = 0;
 450              		.loc 1 200 0
 451 00fc 2C63     		str	r4, [r5, #48]	@ UART_39(D)->info.poll_mode, UART_39(D)->info.rxidx
 452              	@ .\driver\src\uart_va108xx.c:201: 		  UART->info.rxcnt = 0;
 201:.\driver\src/uart_va108xx.c **** 		  UART->info.rxcnt = 0;
 453              		.loc 1 201 0
 454 00fe AC62     		str	r4, [r5, #40]	@ UART_39(D)->info.poll_mode, UART_39(D)->info.rxcnt
 455              	@ .\driver\src\uart_va108xx.c:203: 		  VOR_Enable_Irq(VOR_IRQ_UART, UART->uart_id);
 202:.\driver\src/uart_va108xx.c **** 		
 203:.\driver\src/uart_va108xx.c **** 		  VOR_Enable_Irq(VOR_IRQ_UART, UART->uart_id);
 456              		.loc 1 203 0
 457 0100 2968     		ldr	r1, [r5]	@, UART_39(D)->uart_id
 458 0102 0320     		movs	r0, #3	@,
 459 0104 FFF7FEFF 		bl	VOR_Enable_Irq	@
 460              	.LVL24:
 461              	@ .\driver\src\uart_va108xx.c:204: 	    UART->reg->IRQ_ENB = (UART_PERIPHERAL_IRQ_ENB_IRQ_TX_Msk | 
 204:.\driver\src/uart_va108xx.c **** 	    UART->reg->IRQ_ENB = (UART_PERIPHERAL_IRQ_ENB_IRQ_TX_Msk | \
 462              		.loc 1 204 0
 463 0108 F022     		movs	r2, #240	@ tmp168,
 464 010a 6B68     		ldr	r3, [r5, #4]	@ _26, UART_39(D)->reg
 465              	@ .\driver\src\uart_va108xx.c:209: 	return VOR_DRIVER_OK;
ARM GAS  C:\Users\claym\AppData\Local\Temp\cc2sTfd9.s 			page 13


 205:.\driver\src/uart_va108xx.c **** 				 							 UART_PERIPHERAL_IRQ_ENB_IRQ_TX_STATUS_Msk | \
 206:.\driver\src/uart_va108xx.c **** 								        UART_PERIPHERAL_IRQ_ENB_IRQ_TX_EMPTY_Msk | \
 207:.\driver\src/uart_va108xx.c **** 										      UART_PERIPHERAL_IRQ_ENB_IRQ_TX_CTS_Msk );
 208:.\driver\src/uart_va108xx.c **** 	}
 209:.\driver\src/uart_va108xx.c **** 	return VOR_DRIVER_OK;
 466              		.loc 1 209 0
 467 010c 2000     		movs	r0, r4	@ <retval>, UART_39(D)->info.poll_mode
 468              	@ .\driver\src\uart_va108xx.c:204: 	    UART->reg->IRQ_ENB = (UART_PERIPHERAL_IRQ_ENB_IRQ_TX_Msk | 
 204:.\driver\src/uart_va108xx.c **** 	    UART->reg->IRQ_ENB = (UART_PERIPHERAL_IRQ_ENB_IRQ_TX_Msk | \
 469              		.loc 1 204 0
 470 010e 9A62     		str	r2, [r3, #40]	@ tmp168, _26->IRQ_ENB
 471 0110 1BE0     		b	.L15	@
 472              	.LVL25:
 473              	.L20:
 474              	.LBB30:
 475              	.LBB31:
 476              	@ .\inc/cmsis_gcc.h:375:   __ASM volatile ("nop");
 477              		.file 2 ".\\inc/cmsis_gcc.h"
   1:.\inc/cmsis_gcc.h **** /**************************************************************************//**
   2:.\inc/cmsis_gcc.h ****  * @file     cmsis_gcc.h
   3:.\inc/cmsis_gcc.h ****  * @brief    CMSIS Cortex-M Core Function/Instruction Header File
   4:.\inc/cmsis_gcc.h ****  * @version  V4.30
   5:.\inc/cmsis_gcc.h ****  * @date     20. October 2015
   6:.\inc/cmsis_gcc.h ****  ******************************************************************************/
   7:.\inc/cmsis_gcc.h **** /* Copyright (c) 2009 - 2015 ARM LIMITED
   8:.\inc/cmsis_gcc.h **** 
   9:.\inc/cmsis_gcc.h ****    All rights reserved.
  10:.\inc/cmsis_gcc.h ****    Redistribution and use in source and binary forms, with or without
  11:.\inc/cmsis_gcc.h ****    modification, are permitted provided that the following conditions are met:
  12:.\inc/cmsis_gcc.h ****    - Redistributions of source code must retain the above copyright
  13:.\inc/cmsis_gcc.h ****      notice, this list of conditions and the following disclaimer.
  14:.\inc/cmsis_gcc.h ****    - Redistributions in binary form must reproduce the above copyright
  15:.\inc/cmsis_gcc.h ****      notice, this list of conditions and the following disclaimer in the
  16:.\inc/cmsis_gcc.h ****      documentation and/or other materials provided with the distribution.
  17:.\inc/cmsis_gcc.h ****    - Neither the name of ARM nor the names of its contributors may be used
  18:.\inc/cmsis_gcc.h ****      to endorse or promote products derived from this software without
  19:.\inc/cmsis_gcc.h ****      specific prior written permission.
  20:.\inc/cmsis_gcc.h ****    *
  21:.\inc/cmsis_gcc.h ****    THIS SOFTWARE IS PROVIDED BY THE COPYRIGHT HOLDERS AND CONTRIBUTORS "AS IS"
  22:.\inc/cmsis_gcc.h ****    AND ANY EXPRESS OR IMPLIED WARRANTIES, INCLUDING, BUT NOT LIMITED TO, THE
  23:.\inc/cmsis_gcc.h ****    IMPLIED WARRANTIES OF MERCHANTABILITY AND FITNESS FOR A PARTICULAR PURPOSE
  24:.\inc/cmsis_gcc.h ****    ARE DISCLAIMED. IN NO EVENT SHALL COPYRIGHT HOLDERS AND CONTRIBUTORS BE
  25:.\inc/cmsis_gcc.h ****    LIABLE FOR ANY DIRECT, INDIRECT, INCIDENTAL, SPECIAL, EXEMPLARY, OR
  26:.\inc/cmsis_gcc.h ****    CONSEQUENTIAL DAMAGES (INCLUDING, BUT NOT LIMITED TO, PROCUREMENT OF
  27:.\inc/cmsis_gcc.h ****    SUBSTITUTE GOODS OR SERVICES; LOSS OF USE, DATA, OR PROFITS; OR BUSINESS
  28:.\inc/cmsis_gcc.h ****    INTERRUPTION) HOWEVER CAUSED AND ON ANY THEORY OF LIABILITY, WHETHER IN
  29:.\inc/cmsis_gcc.h ****    CONTRACT, STRICT LIABILITY, OR TORT (INCLUDING NEGLIGENCE OR OTHERWISE)
  30:.\inc/cmsis_gcc.h ****    ARISING IN ANY WAY OUT OF THE USE OF THIS SOFTWARE, EVEN IF ADVISED OF THE
  31:.\inc/cmsis_gcc.h ****    POSSIBILITY OF SUCH DAMAGE.
  32:.\inc/cmsis_gcc.h ****    ---------------------------------------------------------------------------*/
  33:.\inc/cmsis_gcc.h **** 
  34:.\inc/cmsis_gcc.h **** 
  35:.\inc/cmsis_gcc.h **** #ifndef __CMSIS_GCC_H
  36:.\inc/cmsis_gcc.h **** #define __CMSIS_GCC_H
  37:.\inc/cmsis_gcc.h **** 
  38:.\inc/cmsis_gcc.h **** /* ignore some GCC warnings */
  39:.\inc/cmsis_gcc.h **** #if defined ( __GNUC__ )
ARM GAS  C:\Users\claym\AppData\Local\Temp\cc2sTfd9.s 			page 14


  40:.\inc/cmsis_gcc.h **** #pragma GCC diagnostic push
  41:.\inc/cmsis_gcc.h **** #pragma GCC diagnostic ignored "-Wsign-conversion"
  42:.\inc/cmsis_gcc.h **** #pragma GCC diagnostic ignored "-Wconversion"
  43:.\inc/cmsis_gcc.h **** #pragma GCC diagnostic ignored "-Wunused-parameter"
  44:.\inc/cmsis_gcc.h **** #endif
  45:.\inc/cmsis_gcc.h **** 
  46:.\inc/cmsis_gcc.h **** 
  47:.\inc/cmsis_gcc.h **** /* ###########################  Core Function Access  ########################### */
  48:.\inc/cmsis_gcc.h **** /** \ingroup  CMSIS_Core_FunctionInterface
  49:.\inc/cmsis_gcc.h ****     \defgroup CMSIS_Core_RegAccFunctions CMSIS Core Register Access Functions
  50:.\inc/cmsis_gcc.h ****   @{
  51:.\inc/cmsis_gcc.h ****  */
  52:.\inc/cmsis_gcc.h **** 
  53:.\inc/cmsis_gcc.h **** /**
  54:.\inc/cmsis_gcc.h ****   \brief   Enable IRQ Interrupts
  55:.\inc/cmsis_gcc.h ****   \details Enables IRQ interrupts by clearing the I-bit in the CPSR.
  56:.\inc/cmsis_gcc.h ****            Can only be executed in Privileged modes.
  57:.\inc/cmsis_gcc.h ****  */
  58:.\inc/cmsis_gcc.h **** __attribute__( ( always_inline ) ) __STATIC_INLINE void __enable_irq(void)
  59:.\inc/cmsis_gcc.h **** {
  60:.\inc/cmsis_gcc.h ****   __ASM volatile ("cpsie i" : : : "memory");
  61:.\inc/cmsis_gcc.h **** }
  62:.\inc/cmsis_gcc.h **** 
  63:.\inc/cmsis_gcc.h **** 
  64:.\inc/cmsis_gcc.h **** /**
  65:.\inc/cmsis_gcc.h ****   \brief   Disable IRQ Interrupts
  66:.\inc/cmsis_gcc.h ****   \details Disables IRQ interrupts by setting the I-bit in the CPSR.
  67:.\inc/cmsis_gcc.h ****   Can only be executed in Privileged modes.
  68:.\inc/cmsis_gcc.h ****  */
  69:.\inc/cmsis_gcc.h **** __attribute__( ( always_inline ) ) __STATIC_INLINE void __disable_irq(void)
  70:.\inc/cmsis_gcc.h **** {
  71:.\inc/cmsis_gcc.h ****   __ASM volatile ("cpsid i" : : : "memory");
  72:.\inc/cmsis_gcc.h **** }
  73:.\inc/cmsis_gcc.h **** 
  74:.\inc/cmsis_gcc.h **** 
  75:.\inc/cmsis_gcc.h **** /**
  76:.\inc/cmsis_gcc.h ****   \brief   Get Control Register
  77:.\inc/cmsis_gcc.h ****   \details Returns the content of the Control Register.
  78:.\inc/cmsis_gcc.h ****   \return               Control Register value
  79:.\inc/cmsis_gcc.h ****  */
  80:.\inc/cmsis_gcc.h **** __attribute__( ( always_inline ) ) __STATIC_INLINE uint32_t __get_CONTROL(void)
  81:.\inc/cmsis_gcc.h **** {
  82:.\inc/cmsis_gcc.h ****   uint32_t result;
  83:.\inc/cmsis_gcc.h **** 
  84:.\inc/cmsis_gcc.h ****   __ASM volatile ("MRS %0, control" : "=r" (result) );
  85:.\inc/cmsis_gcc.h ****   return(result);
  86:.\inc/cmsis_gcc.h **** }
  87:.\inc/cmsis_gcc.h **** 
  88:.\inc/cmsis_gcc.h **** 
  89:.\inc/cmsis_gcc.h **** /**
  90:.\inc/cmsis_gcc.h ****   \brief   Set Control Register
  91:.\inc/cmsis_gcc.h ****   \details Writes the given value to the Control Register.
  92:.\inc/cmsis_gcc.h ****   \param [in]    control  Control Register value to set
  93:.\inc/cmsis_gcc.h ****  */
  94:.\inc/cmsis_gcc.h **** __attribute__( ( always_inline ) ) __STATIC_INLINE void __set_CONTROL(uint32_t control)
  95:.\inc/cmsis_gcc.h **** {
  96:.\inc/cmsis_gcc.h ****   __ASM volatile ("MSR control, %0" : : "r" (control) : "memory");
ARM GAS  C:\Users\claym\AppData\Local\Temp\cc2sTfd9.s 			page 15


  97:.\inc/cmsis_gcc.h **** }
  98:.\inc/cmsis_gcc.h **** 
  99:.\inc/cmsis_gcc.h **** 
 100:.\inc/cmsis_gcc.h **** /**
 101:.\inc/cmsis_gcc.h ****   \brief   Get IPSR Register
 102:.\inc/cmsis_gcc.h ****   \details Returns the content of the IPSR Register.
 103:.\inc/cmsis_gcc.h ****   \return               IPSR Register value
 104:.\inc/cmsis_gcc.h ****  */
 105:.\inc/cmsis_gcc.h **** __attribute__( ( always_inline ) ) __STATIC_INLINE uint32_t __get_IPSR(void)
 106:.\inc/cmsis_gcc.h **** {
 107:.\inc/cmsis_gcc.h ****   uint32_t result;
 108:.\inc/cmsis_gcc.h **** 
 109:.\inc/cmsis_gcc.h ****   __ASM volatile ("MRS %0, ipsr" : "=r" (result) );
 110:.\inc/cmsis_gcc.h ****   return(result);
 111:.\inc/cmsis_gcc.h **** }
 112:.\inc/cmsis_gcc.h **** 
 113:.\inc/cmsis_gcc.h **** 
 114:.\inc/cmsis_gcc.h **** /**
 115:.\inc/cmsis_gcc.h ****   \brief   Get APSR Register
 116:.\inc/cmsis_gcc.h ****   \details Returns the content of the APSR Register.
 117:.\inc/cmsis_gcc.h ****   \return               APSR Register value
 118:.\inc/cmsis_gcc.h ****  */
 119:.\inc/cmsis_gcc.h **** __attribute__( ( always_inline ) ) __STATIC_INLINE uint32_t __get_APSR(void)
 120:.\inc/cmsis_gcc.h **** {
 121:.\inc/cmsis_gcc.h ****   uint32_t result;
 122:.\inc/cmsis_gcc.h **** 
 123:.\inc/cmsis_gcc.h ****   __ASM volatile ("MRS %0, apsr" : "=r" (result) );
 124:.\inc/cmsis_gcc.h ****   return(result);
 125:.\inc/cmsis_gcc.h **** }
 126:.\inc/cmsis_gcc.h **** 
 127:.\inc/cmsis_gcc.h **** 
 128:.\inc/cmsis_gcc.h **** /**
 129:.\inc/cmsis_gcc.h ****   \brief   Get xPSR Register
 130:.\inc/cmsis_gcc.h ****   \details Returns the content of the xPSR Register.
 131:.\inc/cmsis_gcc.h **** 
 132:.\inc/cmsis_gcc.h ****     \return               xPSR Register value
 133:.\inc/cmsis_gcc.h ****  */
 134:.\inc/cmsis_gcc.h **** __attribute__( ( always_inline ) ) __STATIC_INLINE uint32_t __get_xPSR(void)
 135:.\inc/cmsis_gcc.h **** {
 136:.\inc/cmsis_gcc.h ****   uint32_t result;
 137:.\inc/cmsis_gcc.h **** 
 138:.\inc/cmsis_gcc.h ****   __ASM volatile ("MRS %0, xpsr" : "=r" (result) );
 139:.\inc/cmsis_gcc.h ****   return(result);
 140:.\inc/cmsis_gcc.h **** }
 141:.\inc/cmsis_gcc.h **** 
 142:.\inc/cmsis_gcc.h **** 
 143:.\inc/cmsis_gcc.h **** /**
 144:.\inc/cmsis_gcc.h ****   \brief   Get Process Stack Pointer
 145:.\inc/cmsis_gcc.h ****   \details Returns the current value of the Process Stack Pointer (PSP).
 146:.\inc/cmsis_gcc.h ****   \return               PSP Register value
 147:.\inc/cmsis_gcc.h ****  */
 148:.\inc/cmsis_gcc.h **** __attribute__( ( always_inline ) ) __STATIC_INLINE uint32_t __get_PSP(void)
 149:.\inc/cmsis_gcc.h **** {
 150:.\inc/cmsis_gcc.h ****   register uint32_t result;
 151:.\inc/cmsis_gcc.h **** 
 152:.\inc/cmsis_gcc.h ****   __ASM volatile ("MRS %0, psp\n"  : "=r" (result) );
 153:.\inc/cmsis_gcc.h ****   return(result);
ARM GAS  C:\Users\claym\AppData\Local\Temp\cc2sTfd9.s 			page 16


 154:.\inc/cmsis_gcc.h **** }
 155:.\inc/cmsis_gcc.h **** 
 156:.\inc/cmsis_gcc.h **** 
 157:.\inc/cmsis_gcc.h **** /**
 158:.\inc/cmsis_gcc.h ****   \brief   Set Process Stack Pointer
 159:.\inc/cmsis_gcc.h ****   \details Assigns the given value to the Process Stack Pointer (PSP).
 160:.\inc/cmsis_gcc.h ****   \param [in]    topOfProcStack  Process Stack Pointer value to set
 161:.\inc/cmsis_gcc.h ****  */
 162:.\inc/cmsis_gcc.h **** __attribute__( ( always_inline ) ) __STATIC_INLINE void __set_PSP(uint32_t topOfProcStack)
 163:.\inc/cmsis_gcc.h **** {
 164:.\inc/cmsis_gcc.h ****   __ASM volatile ("MSR psp, %0\n" : : "r" (topOfProcStack) : "sp");
 165:.\inc/cmsis_gcc.h **** }
 166:.\inc/cmsis_gcc.h **** 
 167:.\inc/cmsis_gcc.h **** 
 168:.\inc/cmsis_gcc.h **** /**
 169:.\inc/cmsis_gcc.h ****   \brief   Get Main Stack Pointer
 170:.\inc/cmsis_gcc.h ****   \details Returns the current value of the Main Stack Pointer (MSP).
 171:.\inc/cmsis_gcc.h ****   \return               MSP Register value
 172:.\inc/cmsis_gcc.h ****  */
 173:.\inc/cmsis_gcc.h **** __attribute__( ( always_inline ) ) __STATIC_INLINE uint32_t __get_MSP(void)
 174:.\inc/cmsis_gcc.h **** {
 175:.\inc/cmsis_gcc.h ****   register uint32_t result;
 176:.\inc/cmsis_gcc.h **** 
 177:.\inc/cmsis_gcc.h ****   __ASM volatile ("MRS %0, msp\n" : "=r" (result) );
 178:.\inc/cmsis_gcc.h ****   return(result);
 179:.\inc/cmsis_gcc.h **** }
 180:.\inc/cmsis_gcc.h **** 
 181:.\inc/cmsis_gcc.h **** 
 182:.\inc/cmsis_gcc.h **** /**
 183:.\inc/cmsis_gcc.h ****   \brief   Set Main Stack Pointer
 184:.\inc/cmsis_gcc.h ****   \details Assigns the given value to the Main Stack Pointer (MSP).
 185:.\inc/cmsis_gcc.h **** 
 186:.\inc/cmsis_gcc.h ****     \param [in]    topOfMainStack  Main Stack Pointer value to set
 187:.\inc/cmsis_gcc.h ****  */
 188:.\inc/cmsis_gcc.h **** __attribute__( ( always_inline ) ) __STATIC_INLINE void __set_MSP(uint32_t topOfMainStack)
 189:.\inc/cmsis_gcc.h **** {
 190:.\inc/cmsis_gcc.h ****   __ASM volatile ("MSR msp, %0\n" : : "r" (topOfMainStack) : "sp");
 191:.\inc/cmsis_gcc.h **** }
 192:.\inc/cmsis_gcc.h **** 
 193:.\inc/cmsis_gcc.h **** 
 194:.\inc/cmsis_gcc.h **** /**
 195:.\inc/cmsis_gcc.h ****   \brief   Get Priority Mask
 196:.\inc/cmsis_gcc.h ****   \details Returns the current state of the priority mask bit from the Priority Mask Register.
 197:.\inc/cmsis_gcc.h ****   \return               Priority Mask value
 198:.\inc/cmsis_gcc.h ****  */
 199:.\inc/cmsis_gcc.h **** __attribute__( ( always_inline ) ) __STATIC_INLINE uint32_t __get_PRIMASK(void)
 200:.\inc/cmsis_gcc.h **** {
 201:.\inc/cmsis_gcc.h ****   uint32_t result;
 202:.\inc/cmsis_gcc.h **** 
 203:.\inc/cmsis_gcc.h ****   __ASM volatile ("MRS %0, primask" : "=r" (result) );
 204:.\inc/cmsis_gcc.h ****   return(result);
 205:.\inc/cmsis_gcc.h **** }
 206:.\inc/cmsis_gcc.h **** 
 207:.\inc/cmsis_gcc.h **** 
 208:.\inc/cmsis_gcc.h **** /**
 209:.\inc/cmsis_gcc.h ****   \brief   Set Priority Mask
 210:.\inc/cmsis_gcc.h ****   \details Assigns the given value to the Priority Mask Register.
ARM GAS  C:\Users\claym\AppData\Local\Temp\cc2sTfd9.s 			page 17


 211:.\inc/cmsis_gcc.h ****   \param [in]    priMask  Priority Mask
 212:.\inc/cmsis_gcc.h ****  */
 213:.\inc/cmsis_gcc.h **** __attribute__( ( always_inline ) ) __STATIC_INLINE void __set_PRIMASK(uint32_t priMask)
 214:.\inc/cmsis_gcc.h **** {
 215:.\inc/cmsis_gcc.h ****   __ASM volatile ("MSR primask, %0" : : "r" (priMask) : "memory");
 216:.\inc/cmsis_gcc.h **** }
 217:.\inc/cmsis_gcc.h **** 
 218:.\inc/cmsis_gcc.h **** 
 219:.\inc/cmsis_gcc.h **** #if       (__CORTEX_M >= 0x03U)
 220:.\inc/cmsis_gcc.h **** 
 221:.\inc/cmsis_gcc.h **** /**
 222:.\inc/cmsis_gcc.h ****   \brief   Enable FIQ
 223:.\inc/cmsis_gcc.h ****   \details Enables FIQ interrupts by clearing the F-bit in the CPSR.
 224:.\inc/cmsis_gcc.h ****            Can only be executed in Privileged modes.
 225:.\inc/cmsis_gcc.h ****  */
 226:.\inc/cmsis_gcc.h **** __attribute__( ( always_inline ) ) __STATIC_INLINE void __enable_fault_irq(void)
 227:.\inc/cmsis_gcc.h **** {
 228:.\inc/cmsis_gcc.h ****   __ASM volatile ("cpsie f" : : : "memory");
 229:.\inc/cmsis_gcc.h **** }
 230:.\inc/cmsis_gcc.h **** 
 231:.\inc/cmsis_gcc.h **** 
 232:.\inc/cmsis_gcc.h **** /**
 233:.\inc/cmsis_gcc.h ****   \brief   Disable FIQ
 234:.\inc/cmsis_gcc.h ****   \details Disables FIQ interrupts by setting the F-bit in the CPSR.
 235:.\inc/cmsis_gcc.h ****            Can only be executed in Privileged modes.
 236:.\inc/cmsis_gcc.h ****  */
 237:.\inc/cmsis_gcc.h **** __attribute__( ( always_inline ) ) __STATIC_INLINE void __disable_fault_irq(void)
 238:.\inc/cmsis_gcc.h **** {
 239:.\inc/cmsis_gcc.h ****   __ASM volatile ("cpsid f" : : : "memory");
 240:.\inc/cmsis_gcc.h **** }
 241:.\inc/cmsis_gcc.h **** 
 242:.\inc/cmsis_gcc.h **** 
 243:.\inc/cmsis_gcc.h **** /**
 244:.\inc/cmsis_gcc.h ****   \brief   Get Base Priority
 245:.\inc/cmsis_gcc.h ****   \details Returns the current value of the Base Priority register.
 246:.\inc/cmsis_gcc.h ****   \return               Base Priority register value
 247:.\inc/cmsis_gcc.h ****  */
 248:.\inc/cmsis_gcc.h **** __attribute__( ( always_inline ) ) __STATIC_INLINE uint32_t __get_BASEPRI(void)
 249:.\inc/cmsis_gcc.h **** {
 250:.\inc/cmsis_gcc.h ****   uint32_t result;
 251:.\inc/cmsis_gcc.h **** 
 252:.\inc/cmsis_gcc.h ****   __ASM volatile ("MRS %0, basepri" : "=r" (result) );
 253:.\inc/cmsis_gcc.h ****   return(result);
 254:.\inc/cmsis_gcc.h **** }
 255:.\inc/cmsis_gcc.h **** 
 256:.\inc/cmsis_gcc.h **** 
 257:.\inc/cmsis_gcc.h **** /**
 258:.\inc/cmsis_gcc.h ****   \brief   Set Base Priority
 259:.\inc/cmsis_gcc.h ****   \details Assigns the given value to the Base Priority register.
 260:.\inc/cmsis_gcc.h ****   \param [in]    basePri  Base Priority value to set
 261:.\inc/cmsis_gcc.h ****  */
 262:.\inc/cmsis_gcc.h **** __attribute__( ( always_inline ) ) __STATIC_INLINE void __set_BASEPRI(uint32_t value)
 263:.\inc/cmsis_gcc.h **** {
 264:.\inc/cmsis_gcc.h ****   __ASM volatile ("MSR basepri, %0" : : "r" (value) : "memory");
 265:.\inc/cmsis_gcc.h **** }
 266:.\inc/cmsis_gcc.h **** 
 267:.\inc/cmsis_gcc.h **** 
ARM GAS  C:\Users\claym\AppData\Local\Temp\cc2sTfd9.s 			page 18


 268:.\inc/cmsis_gcc.h **** /**
 269:.\inc/cmsis_gcc.h ****   \brief   Set Base Priority with condition
 270:.\inc/cmsis_gcc.h ****   \details Assigns the given value to the Base Priority register only if BASEPRI masking is disable
 271:.\inc/cmsis_gcc.h ****            or the new value increases the BASEPRI priority level.
 272:.\inc/cmsis_gcc.h ****   \param [in]    basePri  Base Priority value to set
 273:.\inc/cmsis_gcc.h ****  */
 274:.\inc/cmsis_gcc.h **** __attribute__( ( always_inline ) ) __STATIC_INLINE void __set_BASEPRI_MAX(uint32_t value)
 275:.\inc/cmsis_gcc.h **** {
 276:.\inc/cmsis_gcc.h ****   __ASM volatile ("MSR basepri_max, %0" : : "r" (value) : "memory");
 277:.\inc/cmsis_gcc.h **** }
 278:.\inc/cmsis_gcc.h **** 
 279:.\inc/cmsis_gcc.h **** 
 280:.\inc/cmsis_gcc.h **** /**
 281:.\inc/cmsis_gcc.h ****   \brief   Get Fault Mask
 282:.\inc/cmsis_gcc.h ****   \details Returns the current value of the Fault Mask register.
 283:.\inc/cmsis_gcc.h ****   \return               Fault Mask register value
 284:.\inc/cmsis_gcc.h ****  */
 285:.\inc/cmsis_gcc.h **** __attribute__( ( always_inline ) ) __STATIC_INLINE uint32_t __get_FAULTMASK(void)
 286:.\inc/cmsis_gcc.h **** {
 287:.\inc/cmsis_gcc.h ****   uint32_t result;
 288:.\inc/cmsis_gcc.h **** 
 289:.\inc/cmsis_gcc.h ****   __ASM volatile ("MRS %0, faultmask" : "=r" (result) );
 290:.\inc/cmsis_gcc.h ****   return(result);
 291:.\inc/cmsis_gcc.h **** }
 292:.\inc/cmsis_gcc.h **** 
 293:.\inc/cmsis_gcc.h **** 
 294:.\inc/cmsis_gcc.h **** /**
 295:.\inc/cmsis_gcc.h ****   \brief   Set Fault Mask
 296:.\inc/cmsis_gcc.h ****   \details Assigns the given value to the Fault Mask register.
 297:.\inc/cmsis_gcc.h ****   \param [in]    faultMask  Fault Mask value to set
 298:.\inc/cmsis_gcc.h ****  */
 299:.\inc/cmsis_gcc.h **** __attribute__( ( always_inline ) ) __STATIC_INLINE void __set_FAULTMASK(uint32_t faultMask)
 300:.\inc/cmsis_gcc.h **** {
 301:.\inc/cmsis_gcc.h ****   __ASM volatile ("MSR faultmask, %0" : : "r" (faultMask) : "memory");
 302:.\inc/cmsis_gcc.h **** }
 303:.\inc/cmsis_gcc.h **** 
 304:.\inc/cmsis_gcc.h **** #endif /* (__CORTEX_M >= 0x03U) */
 305:.\inc/cmsis_gcc.h **** 
 306:.\inc/cmsis_gcc.h **** 
 307:.\inc/cmsis_gcc.h **** #if       (__CORTEX_M == 0x04U) || (__CORTEX_M == 0x07U)
 308:.\inc/cmsis_gcc.h **** 
 309:.\inc/cmsis_gcc.h **** /**
 310:.\inc/cmsis_gcc.h ****   \brief   Get FPSCR
 311:.\inc/cmsis_gcc.h ****   \details Returns the current value of the Floating Point Status/Control register.
 312:.\inc/cmsis_gcc.h ****   \return               Floating Point Status/Control register value
 313:.\inc/cmsis_gcc.h ****  */
 314:.\inc/cmsis_gcc.h **** __attribute__( ( always_inline ) ) __STATIC_INLINE uint32_t __get_FPSCR(void)
 315:.\inc/cmsis_gcc.h **** {
 316:.\inc/cmsis_gcc.h **** #if (__FPU_PRESENT == 1U) && (__FPU_USED == 1U)
 317:.\inc/cmsis_gcc.h ****   uint32_t result;
 318:.\inc/cmsis_gcc.h **** 
 319:.\inc/cmsis_gcc.h ****   /* Empty asm statement works as a scheduling barrier */
 320:.\inc/cmsis_gcc.h ****   __ASM volatile ("");
 321:.\inc/cmsis_gcc.h ****   __ASM volatile ("VMRS %0, fpscr" : "=r" (result) );
 322:.\inc/cmsis_gcc.h ****   __ASM volatile ("");
 323:.\inc/cmsis_gcc.h ****   return(result);
 324:.\inc/cmsis_gcc.h **** #else
ARM GAS  C:\Users\claym\AppData\Local\Temp\cc2sTfd9.s 			page 19


 325:.\inc/cmsis_gcc.h ****    return(0);
 326:.\inc/cmsis_gcc.h **** #endif
 327:.\inc/cmsis_gcc.h **** }
 328:.\inc/cmsis_gcc.h **** 
 329:.\inc/cmsis_gcc.h **** 
 330:.\inc/cmsis_gcc.h **** /**
 331:.\inc/cmsis_gcc.h ****   \brief   Set FPSCR
 332:.\inc/cmsis_gcc.h ****   \details Assigns the given value to the Floating Point Status/Control register.
 333:.\inc/cmsis_gcc.h ****   \param [in]    fpscr  Floating Point Status/Control value to set
 334:.\inc/cmsis_gcc.h ****  */
 335:.\inc/cmsis_gcc.h **** __attribute__( ( always_inline ) ) __STATIC_INLINE void __set_FPSCR(uint32_t fpscr)
 336:.\inc/cmsis_gcc.h **** {
 337:.\inc/cmsis_gcc.h **** #if (__FPU_PRESENT == 1U) && (__FPU_USED == 1U)
 338:.\inc/cmsis_gcc.h ****   /* Empty asm statement works as a scheduling barrier */
 339:.\inc/cmsis_gcc.h ****   __ASM volatile ("");
 340:.\inc/cmsis_gcc.h ****   __ASM volatile ("VMSR fpscr, %0" : : "r" (fpscr) : "vfpcc");
 341:.\inc/cmsis_gcc.h ****   __ASM volatile ("");
 342:.\inc/cmsis_gcc.h **** #endif
 343:.\inc/cmsis_gcc.h **** }
 344:.\inc/cmsis_gcc.h **** 
 345:.\inc/cmsis_gcc.h **** #endif /* (__CORTEX_M == 0x04U) || (__CORTEX_M == 0x07U) */
 346:.\inc/cmsis_gcc.h **** 
 347:.\inc/cmsis_gcc.h **** 
 348:.\inc/cmsis_gcc.h **** 
 349:.\inc/cmsis_gcc.h **** /*@} end of CMSIS_Core_RegAccFunctions */
 350:.\inc/cmsis_gcc.h **** 
 351:.\inc/cmsis_gcc.h **** 
 352:.\inc/cmsis_gcc.h **** /* ##########################  Core Instruction Access  ######################### */
 353:.\inc/cmsis_gcc.h **** /** \defgroup CMSIS_Core_InstructionInterface CMSIS Core Instruction Interface
 354:.\inc/cmsis_gcc.h ****   Access to dedicated instructions
 355:.\inc/cmsis_gcc.h ****   @{
 356:.\inc/cmsis_gcc.h **** */
 357:.\inc/cmsis_gcc.h **** 
 358:.\inc/cmsis_gcc.h **** /* Define macros for porting to both thumb1 and thumb2.
 359:.\inc/cmsis_gcc.h ****  * For thumb1, use low register (r0-r7), specified by constraint "l"
 360:.\inc/cmsis_gcc.h ****  * Otherwise, use general registers, specified by constraint "r" */
 361:.\inc/cmsis_gcc.h **** #if defined (__thumb__) && !defined (__thumb2__)
 362:.\inc/cmsis_gcc.h **** #define __CMSIS_GCC_OUT_REG(r) "=l" (r)
 363:.\inc/cmsis_gcc.h **** #define __CMSIS_GCC_USE_REG(r) "l" (r)
 364:.\inc/cmsis_gcc.h **** #else
 365:.\inc/cmsis_gcc.h **** #define __CMSIS_GCC_OUT_REG(r) "=r" (r)
 366:.\inc/cmsis_gcc.h **** #define __CMSIS_GCC_USE_REG(r) "r" (r)
 367:.\inc/cmsis_gcc.h **** #endif
 368:.\inc/cmsis_gcc.h **** 
 369:.\inc/cmsis_gcc.h **** /**
 370:.\inc/cmsis_gcc.h ****   \brief   No Operation
 371:.\inc/cmsis_gcc.h ****   \details No Operation does nothing. This instruction can be used for code alignment purposes.
 372:.\inc/cmsis_gcc.h ****  */
 373:.\inc/cmsis_gcc.h **** __attribute__((always_inline)) __STATIC_INLINE void __NOP(void)
 374:.\inc/cmsis_gcc.h **** {
 375:.\inc/cmsis_gcc.h ****   __ASM volatile ("nop");
 478              		.loc 2 375 0
 479              		.syntax divided
 480              	@ 375 ".\inc/cmsis_gcc.h" 1
 481 0112 C046     		nop
 482              	@ 0 "" 2
 483              		.thumb
ARM GAS  C:\Users\claym\AppData\Local\Temp\cc2sTfd9.s 			page 20


 484              		.syntax unified
 485              	.LBE31:
 486              	.LBE30:
 487              	.LBB32:
 488              	.LBB33:
 489              		.syntax divided
 490              	@ 375 ".\inc/cmsis_gcc.h" 1
 491 0114 C046     		nop
 492              	@ 0 "" 2
 493              		.thumb
 494              		.syntax unified
 495              	.LBE33:
 496              	.LBE32:
 497              	@ .\driver\src\uart_va108xx.c:168: 			  txsts = UART->reg->TXSTATUS;
 168:.\driver\src/uart_va108xx.c **** 			  if((txsts & UART_PERIPHERAL_TXSTATUS_WRRDY_Msk) && (~(txsts & UART_PERIPHERAL_TXSTATUS_TXBUSY_
 498              		.loc 1 168 0
 499 0116 6B68     		ldr	r3, [r5, #4]	@ _10, UART_39(D)->reg
 500 0118 5B69     		ldr	r3, [r3, #20]	@ txsts, _10->TXSTATUS
 501              	.LVL26:
 502              	@ .\driver\src\uart_va108xx.c:169: 			  if((txsts & UART_PERIPHERAL_TXSTATUS_WRRDY_Msk) && (~(txsts
 169:.\driver\src/uart_va108xx.c **** 			       __NOP( ); 
 503              		.loc 1 169 0
 504 011a 0B42     		tst	r3, r1	@ txsts, tmp171
 505 011c 09D0     		beq	.L19	@,
 506              	.LBB34:
 507              	.LBB35:
 508              	@ .\inc/cmsis_gcc.h:375:   __ASM volatile ("nop");
 509              		.loc 2 375 0
 510              		.syntax divided
 511              	@ 375 ".\inc/cmsis_gcc.h" 1
 512 011e C046     		nop
 513              	@ 0 "" 2
 514              		.thumb
 515              		.syntax unified
 516              	.LBE35:
 517              	.LBE34:
 518              	.LBB36:
 519              	.LBB37:
 520              		.syntax divided
 521              	@ 375 ".\inc/cmsis_gcc.h" 1
 522 0120 C046     		nop
 523              	@ 0 "" 2
 524              	.LVL27:
 525              		.thumb
 526              		.syntax unified
 527              	.LBE37:
 528              	.LBE36:
 529              	@ .\driver\src\uart_va108xx.c:172:   			       UART->reg->DATA = data[count++];
 172:.\driver\src/uart_va108xx.c **** 					   UART->info.txidx++;
 530              		.loc 1 172 0
 531 0122 B85C     		ldrb	r0, [r7, r2]	@ _15, *_12
 532 0124 6B68     		ldr	r3, [r5, #4]	@ _14, UART_39(D)->reg
 533              	.LVL28:
 534              	@ .\driver\src\uart_va108xx.c:174: 				     num--;
 174:.\driver\src/uart_va108xx.c **** 			  }
 535              		.loc 1 174 0
 536 0126 013E     		subs	r6, r6, #1	@ num,
ARM GAS  C:\Users\claym\AppData\Local\Temp\cc2sTfd9.s 			page 21


 537              	.LVL29:
 538              	@ .\driver\src\uart_va108xx.c:172:   			       UART->reg->DATA = data[count++];
 172:.\driver\src/uart_va108xx.c **** 					   UART->info.txidx++;
 539              		.loc 1 172 0
 540 0128 1860     		str	r0, [r3]	@ _15, _14->DATA
 541              	@ .\driver\src\uart_va108xx.c:173: 					   UART->info.txidx++;
 173:.\driver\src/uart_va108xx.c **** 				     num--;
 542              		.loc 1 173 0
 543 012a EB6A     		ldr	r3, [r5, #44]	@ tmp179, UART_39(D)->info.txidx
 544              	@ .\driver\src\uart_va108xx.c:172:   			       UART->reg->DATA = data[count++];
 172:.\driver\src/uart_va108xx.c **** 					   UART->info.txidx++;
 545              		.loc 1 172 0
 546 012c 0132     		adds	r2, r2, #1	@ count,
 547              	.LVL30:
 548              	@ .\driver\src\uart_va108xx.c:173: 					   UART->info.txidx++;
 173:.\driver\src/uart_va108xx.c **** 				     num--;
 549              		.loc 1 173 0
 550 012e 0133     		adds	r3, r3, #1	@ tmp152,
 551 0130 EB62     		str	r3, [r5, #44]	@ tmp152, UART_39(D)->info.txidx
 552              	.L19:
 553              	.LBB38:
 554              	.LBB39:
 555              	@ .\inc/cmsis_gcc.h:375:   __ASM volatile ("nop");
 556              		.loc 2 375 0
 557              		.syntax divided
 558              	@ 375 ".\inc/cmsis_gcc.h" 1
 559 0132 C046     		nop
 560              	@ 0 "" 2
 561              		.thumb
 562              		.syntax unified
 563              	.LBE39:
 564              	.LBE38:
 565              	.LBB40:
 566              	.LBB41:
 567              		.syntax divided
 568              	@ 375 ".\inc/cmsis_gcc.h" 1
 569 0134 C046     		nop
 570              	@ 0 "" 2
 571              	.LVL31:
 572              		.thumb
 573              		.syntax unified
 574              	.L17:
 575              	.LBE41:
 576              	.LBE40:
 577              	@ .\driver\src\uart_va108xx.c:165: 		  while((num !=0) /*&& (poll_time <= VOR_Get_SysTime()) */ ) {
 165:.\driver\src/uart_va108xx.c **** 			  __NOP( ); 
 578              		.loc 1 165 0
 579 0136 002E     		cmp	r6, #0	@ num,
 580 0138 EBD1     		bne	.L20	@,
 581              	@ .\driver\src\uart_va108xx.c:184: 	    while((UART->reg->TXSTATUS & UART_PERIPHERAL_TXSTATUS_WRBUS
 184:.\driver\src/uart_va108xx.c **** 	      __NOP( ); 
 582              		.loc 1 184 0
 583 013a 0221     		movs	r1, #2	@ tmp155,
 584              	.L21:
 585 013c 6B68     		ldr	r3, [r5, #4]	@ _19, UART_39(D)->reg
 586 013e 5869     		ldr	r0, [r3, #20]	@ _20, _19->TXSTATUS
 587 0140 0840     		ands	r0, r1	@ tmp154, tmp155
ARM GAS  C:\Users\claym\AppData\Local\Temp\cc2sTfd9.s 			page 22


 588 0142 03D1     		bne	.L22	@,
 589              	@ .\driver\src\uart_va108xx.c:191: 		   UART->reg->ENABLE &= ~UART_PERIPHERAL_ENABLE_TXENABLE_Msk;
 191:.\driver\src/uart_va108xx.c **** 		}
 590              		.loc 1 191 0
 591 0144 5A68     		ldr	r2, [r3, #4]	@ _22, _19->ENABLE
 592              	.LVL32:
 593 0146 8A43     		bics	r2, r1	@ _23, tmp155
 594 0148 5A60     		str	r2, [r3, #4]	@ _23, _19->ENABLE
 595              	.L15:
 596              	@ .\driver\src\uart_va108xx.c:210: }
 210:.\driver\src/uart_va108xx.c **** }
 597              		.loc 1 210 0
 598              		@ sp needed	@
 599              	.LVL33:
 600              	.LVL34:
 601              	.LVL35:
 602 014a F8BD     		pop	{r3, r4, r5, r6, r7, pc}
 603              	.LVL36:
 604              	.L22:
 605              	.LBB42:
 606              	.LBB43:
 607              	@ .\inc/cmsis_gcc.h:375:   __ASM volatile ("nop");
 608              		.loc 2 375 0
 609              		.syntax divided
 610              	@ 375 ".\inc/cmsis_gcc.h" 1
 611 014c C046     		nop
 612              	@ 0 "" 2
 613              		.thumb
 614              		.syntax unified
 615              	.LBE43:
 616              	.LBE42:
 617              	.LBB44:
 618              	.LBB45:
 619              		.syntax divided
 620              	@ 375 ".\inc/cmsis_gcc.h" 1
 621 014e C046     		nop
 622              	@ 0 "" 2
 623              		.thumb
 624              		.syntax unified
 625              	.LBE45:
 626              	.LBE44:
 627              	.LBB46:
 628              	.LBB47:
 629              		.syntax divided
 630              	@ 375 ".\inc/cmsis_gcc.h" 1
 631 0150 C046     		nop
 632              	@ 0 "" 2
 633              		.thumb
 634              		.syntax unified
 635              	.LBE47:
 636              	.LBE46:
 637              	.LBB48:
 638              	.LBB49:
 639              		.syntax divided
 640              	@ 375 ".\inc/cmsis_gcc.h" 1
 641 0152 C046     		nop
 642              	@ 0 "" 2
ARM GAS  C:\Users\claym\AppData\Local\Temp\cc2sTfd9.s 			page 23


 643              		.thumb
 644              		.syntax unified
 645 0154 F2E7     		b	.L21	@
 646              	.LVL37:
 647              	.L24:
 648              	.LBE49:
 649              	.LBE48:
 650              	@ .\driver\src\uart_va108xx.c:147: 			return VOR_DRIVER_ERROR_PARAMETER;
 147:.\driver\src/uart_va108xx.c **** 		}
 651              		.loc 1 147 0
 652 0156 0520     		movs	r0, #5	@ <retval>,
 653              	.LVL38:
 654              	.L32:
 655              	@ .\driver\src\uart_va108xx.c:152: 			return VOR_DRIVER_ERROR;
 152:.\driver\src/uart_va108xx.c **** 		}
 656              		.loc 1 152 0
 657 0158 4042     		rsbs	r0, r0, #0	@ <retval>, <retval>
 658 015a F6E7     		b	.L15	@
 659              	.LVL39:
 660              	.L25:
 661 015c 0120     		movs	r0, #1	@ <retval>,
 662              	.LVL40:
 663 015e FBE7     		b	.L32	@
 664              		.cfi_endproc
 665              	.LFE38:
 666              		.size	UART_Send, .-UART_Send
 667              		.align	1
 668              		.global	UART_Receive
 669              		.syntax unified
 670              		.code	16
 671              		.thumb_func
 672              		.fpu softvfp
 673              		.type	UART_Receive, %function
 674              	UART_Receive:
 675              	.LFB39:
 211:.\driver\src/uart_va108xx.c **** 
 212:.\driver\src/uart_va108xx.c **** /**
 213:.\driver\src/uart_va108xx.c ****   function:    int32_t UART_Receive (void            *data,
 214:.\driver\src/uart_va108xx.c ****                                       uint32_t         num,
 215:.\driver\src/uart_va108xx.c ****                                       UART_RESOURCES *UART)
 216:.\driver\src/uart_va108xx.c ****   brief:       Start receiving data from UART receiver.
 217:.\driver\src/uart_va108xx.c ****   Output:      data  Pointer to buffer for data to receive from UART receiver
 218:.\driver\src/uart_va108xx.c ****   Input:       num   Number of data items to receive
 219:.\driver\src/uart_va108xx.c ****   Input:       UART Pointer to UART resources
 220:.\driver\src/uart_va108xx.c ****   return:      execution_status
 221:.\driver\src/uart_va108xx.c **** */
 222:.\driver\src/uart_va108xx.c **** int32_t UART_Receive (uint8_t *data, uint32_t num, UART_RESOURCES *UART) 
 223:.\driver\src/uart_va108xx.c **** {
 676              		.loc 1 223 0
 677              		.cfi_startproc
 678              		@ args = 0, pretend = 0, frame = 16
 679              		@ frame_needed = 0, uses_anonymous_args = 0
 680              	.LVL41:
 681 0160 F0B5     		push	{r4, r5, r6, r7, lr}	@
 682              	.LCFI5:
 683              		.cfi_def_cfa_offset 20
 684              		.cfi_offset 4, -20
ARM GAS  C:\Users\claym\AppData\Local\Temp\cc2sTfd9.s 			page 24


 685              		.cfi_offset 5, -16
 686              		.cfi_offset 6, -12
 687              		.cfi_offset 7, -8
 688              		.cfi_offset 14, -4
 689 0162 85B0     		sub	sp, sp, #20	@,,
 690              	.LCFI6:
 691              		.cfi_def_cfa_offset 40
 692              	@ .\driver\src\uart_va108xx.c:223: {
 693              		.loc 1 223 0
 694 0164 0190     		str	r0, [sp, #4]	@ data, %sfp
 695 0166 0091     		str	r1, [sp]	@ num, %sfp
 696 0168 1400     		movs	r4, r2	@ UART, UART
 697              	@ .\driver\src\uart_va108xx.c:226:   if (!data || !num ) {
 224:.\driver\src/uart_va108xx.c ****   int32_t count;
 225:.\driver\src/uart_va108xx.c ****   uint32_t poll_time, start_time;
 226:.\driver\src/uart_va108xx.c ****   if (!data || !num ) {
 698              		.loc 1 226 0
 699 016a 0028     		cmp	r0, #0	@ data,
 700 016c 65D0     		beq	.L43	@,
 701              	@ .\driver\src\uart_va108xx.c:226:   if (!data || !num ) {
 702              		.loc 1 226 0 is_stmt 0 discriminator 1
 703 016e 0029     		cmp	r1, #0	@ num,
 704 0170 63D0     		beq	.L43	@,
 705              	@ .\driver\src\uart_va108xx.c:231:   if (!(UART->info.flags & UART_FLAG_INIT)) {
 227:.\driver\src/uart_va108xx.c ****     /* Invalid parameters */
 228:.\driver\src/uart_va108xx.c ****     return VOR_DRIVER_ERROR_PARAMETER;
 229:.\driver\src/uart_va108xx.c ****   }
 230:.\driver\src/uart_va108xx.c **** 
 231:.\driver\src/uart_va108xx.c ****   if (!(UART->info.flags & UART_FLAG_INIT)) {
 706              		.loc 1 231 0 is_stmt 1
 707 0172 0127     		movs	r7, #1	@ tmp151,
 708 0174 5369     		ldr	r3, [r2, #20]	@ tmp198, UART_46(D)->info.flags
 709 0176 3B42     		tst	r3, r7	@ tmp198, tmp151
 710 0178 61D0     		beq	.L44	@,
 711              	@ .\driver\src\uart_va108xx.c:237:   UART->reg->IRQ_ENB = 0;
 232:.\driver\src/uart_va108xx.c ****     /* Driver not yet configured */
 233:.\driver\src/uart_va108xx.c ****     return VOR_DRIVER_ERROR;
 234:.\driver\src/uart_va108xx.c ****   }
 235:.\driver\src/uart_va108xx.c **** 
 236:.\driver\src/uart_va108xx.c ****   VOR_Disable_Irq(VOR_IRQ_UART, UART->uart_id);
 237:.\driver\src/uart_va108xx.c ****   UART->reg->IRQ_ENB = 0;
 712              		.loc 1 237 0
 713 017a 0026     		movs	r6, #0	@ tmp152,
 714              	@ .\driver\src\uart_va108xx.c:236:   VOR_Disable_Irq(VOR_IRQ_UART, UART->uart_id);
 236:.\driver\src/uart_va108xx.c ****   UART->reg->IRQ_ENB = 0;
 715              		.loc 1 236 0
 716 017c 1168     		ldr	r1, [r2]	@, UART_46(D)->uart_id
 717              	.LVL42:
 718 017e 0320     		movs	r0, #3	@,
 719              	.LVL43:
 720 0180 FFF7FEFF 		bl	VOR_Disable_Irq	@
 721              	.LVL44:
 722              	@ .\driver\src\uart_va108xx.c:240:   UART->reg->ENABLE &= ~UART_PERIPHERAL_ENABLE_TXENABLE_Msk;
 238:.\driver\src/uart_va108xx.c **** 
 239:.\driver\src/uart_va108xx.c ****   UART->reg->ENABLE |= UART_PERIPHERAL_ENABLE_RXENABLE_Msk;
 240:.\driver\src/uart_va108xx.c ****   UART->reg->ENABLE &= ~UART_PERIPHERAL_ENABLE_TXENABLE_Msk;
 723              		.loc 1 240 0
ARM GAS  C:\Users\claym\AppData\Local\Temp\cc2sTfd9.s 			page 25


 724 0184 0221     		movs	r1, #2	@ tmp154,
 725              	@ .\driver\src\uart_va108xx.c:237:   UART->reg->IRQ_ENB = 0;
 237:.\driver\src/uart_va108xx.c **** 
 726              		.loc 1 237 0
 727 0186 6368     		ldr	r3, [r4, #4]	@ _4, UART_46(D)->reg
 728              	@ .\driver\src\uart_va108xx.c:242:   if(UART->info.poll_mode) {
 241:.\driver\src/uart_va108xx.c **** 	UART->info.rxidx = 0;
 242:.\driver\src/uart_va108xx.c ****   if(UART->info.poll_mode) {
 729              		.loc 1 242 0
 730 0188 A569     		ldr	r5, [r4, #24]	@ UART_46(D)->info.poll_mode, UART_46(D)->info.poll_mode
 731              	@ .\driver\src\uart_va108xx.c:237:   UART->reg->IRQ_ENB = 0;
 237:.\driver\src/uart_va108xx.c **** 
 732              		.loc 1 237 0
 733 018a 9E62     		str	r6, [r3, #40]	@ tmp152, _4->IRQ_ENB
 734              	@ .\driver\src\uart_va108xx.c:239:   UART->reg->ENABLE |= UART_PERIPHERAL_ENABLE_RXENABLE_Msk;
 239:.\driver\src/uart_va108xx.c ****   UART->reg->ENABLE &= ~UART_PERIPHERAL_ENABLE_TXENABLE_Msk;
 735              		.loc 1 239 0
 736 018c 5A68     		ldr	r2, [r3, #4]	@ _6, _4->ENABLE
 737 018e 3A43     		orrs	r2, r7	@ _8, tmp151
 738 0190 5A60     		str	r2, [r3, #4]	@ _8, _4->ENABLE
 739              	@ .\driver\src\uart_va108xx.c:240:   UART->reg->ENABLE &= ~UART_PERIPHERAL_ENABLE_TXENABLE_Msk;
 240:.\driver\src/uart_va108xx.c **** 	UART->info.rxidx = 0;
 740              		.loc 1 240 0
 741 0192 5A68     		ldr	r2, [r3, #4]	@ _10, _4->ENABLE
 742 0194 8A43     		bics	r2, r1	@ _11, tmp154
 743 0196 5A60     		str	r2, [r3, #4]	@ _11, _4->ENABLE
 744              	@ .\driver\src\uart_va108xx.c:241: 	UART->info.rxidx = 0;
 241:.\driver\src/uart_va108xx.c **** 	UART->info.rxidx = 0;
 745              		.loc 1 241 0
 746 0198 2663     		str	r6, [r4, #48]	@ tmp152, UART_46(D)->info.rxidx
 747              	@ .\driver\src\uart_va108xx.c:242:   if(UART->info.poll_mode) {
 748              		.loc 1 242 0
 749 019a B542     		cmp	r5, r6	@ UART_46(D)->info.poll_mode,
 750 019c 38D0     		beq	.L35	@,
 751              	@ .\driver\src\uart_va108xx.c:245: 	  start_time = VOR_Get_SysTime();
 243:.\driver\src/uart_va108xx.c **** 	  
 244:.\driver\src/uart_va108xx.c **** 	  // Get Current Time
 245:.\driver\src/uart_va108xx.c **** 	  start_time = VOR_Get_SysTime();
 752              		.loc 1 245 0
 753 019e FFF7FEFF 		bl	VOR_Get_SysTime	@
 754              	.LVL45:
 755              	@ .\driver\src\uart_va108xx.c:255: 			if(UART->reg->RXSTATUS & UART_PERIPHERAL_RXSTATUS_RXPAR_Msk) 
 246:.\driver\src/uart_va108xx.c **** 	  poll_time  = start_time - UART->info.poll_tout;
 247:.\driver\src/uart_va108xx.c **** 	  count = 0;
 248:.\driver\src/uart_va108xx.c **** 	  while((count<num) && (poll_time <= VOR_Get_SysTime())) {
 249:.\driver\src/uart_va108xx.c **** 		  __NOP( ); 
 250:.\driver\src/uart_va108xx.c **** 		  __NOP( ); 
 251:.\driver\src/uart_va108xx.c **** 		  if((UART->reg->RXSTATUS & UART_PERIPHERAL_RXSTATUS_RDAVL_Msk) ) {
 252:.\driver\src/uart_va108xx.c **** 		    data[count++] = UART->reg->DATA;
 253:.\driver\src/uart_va108xx.c **** 		  } 
 254:.\driver\src/uart_va108xx.c **** 			
 255:.\driver\src/uart_va108xx.c **** 			if(UART->reg->RXSTATUS & UART_PERIPHERAL_RXSTATUS_RXPAR_Msk) {
 756              		.loc 1 255 0
 757 01a2 4025     		movs	r5, #64	@ tmp183,
 758              	@ .\driver\src\uart_va108xx.c:246: 	  poll_time  = start_time - UART->info.poll_tout;
 246:.\driver\src/uart_va108xx.c **** 	  poll_time  = start_time - UART->info.poll_tout;
 759              		.loc 1 246 0
ARM GAS  C:\Users\claym\AppData\Local\Temp\cc2sTfd9.s 			page 26


 760 01a4 E369     		ldr	r3, [r4, #28]	@ tmp200, UART_46(D)->info.poll_tout
 761 01a6 C31A     		subs	r3, r0, r3	@ poll_time, start_time, tmp200
 762 01a8 0393     		str	r3, [sp, #12]	@ poll_time, %sfp
 763              	.LVL46:
 764              	.L36:
 765              	@ .\driver\src\uart_va108xx.c:248: 	  while((count<num) && (poll_time <= VOR_Get_SysTime())) {
 248:.\driver\src/uart_va108xx.c **** 		  __NOP( ); 
 766              		.loc 1 248 0
 767 01aa 009B     		ldr	r3, [sp]	@ num, %sfp
 768 01ac 0296     		str	r6, [sp, #8]	@ count, %sfp
 769 01ae 9E42     		cmp	r6, r3	@ count, num
 770 01b0 13D3     		bcc	.L39	@,
 771              	.L41:
 772              	@ .\driver\src\uart_va108xx.c:266:     UART->reg->ENABLE &= ~UART_PERIPHERAL_ENABLE_RXENABLE_Msk;
 256:.\driver\src/uart_va108xx.c ****         UART->reg->ENABLE &= ~UART_PERIPHERAL_ENABLE_RXENABLE_Msk;
 257:.\driver\src/uart_va108xx.c **** 		    return VOR_UART_ERROR_PARITY;
 258:.\driver\src/uart_va108xx.c **** 			}
 259:.\driver\src/uart_va108xx.c **** 
 260:.\driver\src/uart_va108xx.c **** 			if(UART->reg->RXSTATUS & UART_PERIPHERAL_RXSTATUS_RXFRM_Msk) {
 261:.\driver\src/uart_va108xx.c ****         UART->reg->ENABLE &= ~UART_PERIPHERAL_ENABLE_RXENABLE_Msk;
 262:.\driver\src/uart_va108xx.c **** 		    return VOR_UART_ERROR_FRAME;
 263:.\driver\src/uart_va108xx.c **** 			}
 264:.\driver\src/uart_va108xx.c **** 			
 265:.\driver\src/uart_va108xx.c **** 	  }
 266:.\driver\src/uart_va108xx.c ****     UART->reg->ENABLE &= ~UART_PERIPHERAL_ENABLE_RXENABLE_Msk;
 773              		.loc 1 266 0
 774 01b2 0121     		movs	r1, #1	@ tmp167,
 775 01b4 6268     		ldr	r2, [r4, #4]	@ _31, UART_46(D)->reg
 776 01b6 5368     		ldr	r3, [r2, #4]	@ _32, _31->ENABLE
 777 01b8 8B43     		bics	r3, r1	@ _33, tmp167
 778 01ba 5360     		str	r3, [r2, #4]	@ _33, _31->ENABLE
 779              	@ .\driver\src\uart_va108xx.c:267: 		if(count<num){
 267:.\driver\src/uart_va108xx.c **** 		if(count<num){
 780              		.loc 1 267 0
 781 01bc 009B     		ldr	r3, [sp]	@ num, %sfp
 782 01be 9E42     		cmp	r6, r3	@ count, num
 783 01c0 3FD3     		bcc	.L45	@,
 784              	.LVL47:
 785              	.L52:
 786              	@ .\driver\src\uart_va108xx.c:285:   return VOR_DRIVER_OK;
 268:.\driver\src/uart_va108xx.c **** 		  return VOR_UART_ERROR_POLL_TOUT;
 269:.\driver\src/uart_va108xx.c **** 	  }
 270:.\driver\src/uart_va108xx.c ****   } else {   // Interrupt Mode
 271:.\driver\src/uart_va108xx.c **** 		UART->reg->IRQ_CLR = 0xffffffff;
 272:.\driver\src/uart_va108xx.c **** 		UART->reg->IRQ_CLR = 0;
 273:.\driver\src/uart_va108xx.c **** 
 274:.\driver\src/uart_va108xx.c **** 		UART->info.rxdata = data;
 275:.\driver\src/uart_va108xx.c **** 		UART->info.rxidx = 0;
 276:.\driver\src/uart_va108xx.c **** 		UART->info.rxcnt = num; 
 277:.\driver\src/uart_va108xx.c **** 	  UART->info.txidx = 0;
 278:.\driver\src/uart_va108xx.c **** 	  UART->info.txcnt = 0;
 279:.\driver\src/uart_va108xx.c **** 		 
 280:.\driver\src/uart_va108xx.c **** 		VOR_Enable_Irq(VOR_IRQ_UART, UART->uart_id);
 281:.\driver\src/uart_va108xx.c **** 		UART->reg->IRQ_ENB = (UART_PERIPHERAL_IRQ_ENB_IRQ_RX_Msk | \
 282:.\driver\src/uart_va108xx.c **** 												UART_PERIPHERAL_IRQ_ENB_IRQ_RX_STATUS_Msk | \
 283:.\driver\src/uart_va108xx.c **** 												UART_PERIPHERAL_IRQ_ENB_IRQ_RX_TO_Msk );
 284:.\driver\src/uart_va108xx.c ****    }		
ARM GAS  C:\Users\claym\AppData\Local\Temp\cc2sTfd9.s 			page 27


 285:.\driver\src/uart_va108xx.c ****   return VOR_DRIVER_OK;
 787              		.loc 1 285 0
 788 01c2 0020     		movs	r0, #0	@ <retval>,
 789              	.L33:
 790              	@ .\driver\src\uart_va108xx.c:286: }
 286:.\driver\src/uart_va108xx.c **** }
 791              		.loc 1 286 0
 792 01c4 05B0     		add	sp, sp, #20	@,,
 793              	.LVL48:
 794              		@ sp needed	@
 795              	.LVL49:
 796 01c6 F0BD     		pop	{r4, r5, r6, r7, pc}
 797              	.LVL50:
 798              	.L38:
 799              	@ .\driver\src\uart_va108xx.c:260: 			if(UART->reg->RXSTATUS & UART_PERIPHERAL_RXSTATUS_RXFRM_Msk) 
 260:.\driver\src/uart_va108xx.c ****         UART->reg->ENABLE &= ~UART_PERIPHERAL_ENABLE_RXENABLE_Msk;
 800              		.loc 1 260 0
 801 01c8 1A69     		ldr	r2, [r3, #16]	@ _25, _20->RXSTATUS
 802 01ca 9206     		lsls	r2, r2, #26	@ tmp195, _25,
 803 01cc EDD5     		bpl	.L36	@,
 804              	@ .\driver\src\uart_va108xx.c:261:         UART->reg->ENABLE &= ~UART_PERIPHERAL_ENABLE_RXENABLE_Ms
 261:.\driver\src/uart_va108xx.c **** 		    return VOR_UART_ERROR_FRAME;
 805              		.loc 1 261 0
 806 01ce 0121     		movs	r1, #1	@ tmp166,
 807 01d0 5A68     		ldr	r2, [r3, #4]	@ _27, _20->ENABLE
 808              	@ .\driver\src\uart_va108xx.c:262: 		    return VOR_UART_ERROR_FRAME;
 262:.\driver\src/uart_va108xx.c **** 			}
 809              		.loc 1 262 0
 810 01d2 0F20     		movs	r0, #15	@ <retval>,
 811              	@ .\driver\src\uart_va108xx.c:261:         UART->reg->ENABLE &= ~UART_PERIPHERAL_ENABLE_RXENABLE_Ms
 261:.\driver\src/uart_va108xx.c **** 		    return VOR_UART_ERROR_FRAME;
 812              		.loc 1 261 0
 813 01d4 8A43     		bics	r2, r1	@ _28, tmp166
 814 01d6 5A60     		str	r2, [r3, #4]	@ _28, _20->ENABLE
 815 01d8 18E0     		b	.L51	@
 816              	.L39:
 817              	@ .\driver\src\uart_va108xx.c:248: 	  while((count<num) && (poll_time <= VOR_Get_SysTime())) {
 248:.\driver\src/uart_va108xx.c **** 		  __NOP( ); 
 818              		.loc 1 248 0 discriminator 1
 819 01da FFF7FEFF 		bl	VOR_Get_SysTime	@
 820              	.LVL51:
 821 01de 039B     		ldr	r3, [sp, #12]	@ poll_time, %sfp
 822 01e0 9842     		cmp	r0, r3	@ _30, poll_time
 823 01e2 E6D3     		bcc	.L41	@,
 824              	.LBB50:
 825              	.LBB51:
 826              	@ .\inc/cmsis_gcc.h:375:   __ASM volatile ("nop");
 827              		.loc 2 375 0
 828              		.syntax divided
 829              	@ 375 ".\inc/cmsis_gcc.h" 1
 830 01e4 C046     		nop
 831              	@ 0 "" 2
 832              		.thumb
 833              		.syntax unified
 834              	.LBE51:
 835              	.LBE50:
 836              	.LBB52:
ARM GAS  C:\Users\claym\AppData\Local\Temp\cc2sTfd9.s 			page 28


 837              	.LBB53:
 838              		.syntax divided
 839              	@ 375 ".\inc/cmsis_gcc.h" 1
 840 01e6 C046     		nop
 841              	@ 0 "" 2
 842              		.thumb
 843              		.syntax unified
 844              	.LBE53:
 845              	.LBE52:
 846              	@ .\driver\src\uart_va108xx.c:251: 		  if((UART->reg->RXSTATUS & UART_PERIPHERAL_RXSTATUS_RDAVL_Msk
 251:.\driver\src/uart_va108xx.c **** 		    data[count++] = UART->reg->DATA;
 847              		.loc 1 251 0
 848 01e8 6368     		ldr	r3, [r4, #4]	@ _14, UART_46(D)->reg
 849 01ea 1A69     		ldr	r2, [r3, #16]	@ _15, _14->RXSTATUS
 850 01ec 3A42     		tst	r2, r7	@ _15, tmp182
 851 01ee 04D0     		beq	.L37	@,
 852              	@ .\driver\src\uart_va108xx.c:252: 		    data[count++] = UART->reg->DATA;
 252:.\driver\src/uart_va108xx.c **** 		  } 
 853              		.loc 1 252 0
 854 01f0 1B68     		ldr	r3, [r3]	@ _17, _14->DATA
 855 01f2 019A     		ldr	r2, [sp, #4]	@ data, %sfp
 856 01f4 0299     		ldr	r1, [sp, #8]	@ count.3_29, %sfp
 857 01f6 0136     		adds	r6, r6, #1	@ count,
 858              	.LVL52:
 859 01f8 5354     		strb	r3, [r2, r1]	@ _17, *_18
 860              	.L37:
 861              	@ .\driver\src\uart_va108xx.c:255: 			if(UART->reg->RXSTATUS & UART_PERIPHERAL_RXSTATUS_RXPAR_Msk) 
 255:.\driver\src/uart_va108xx.c ****         UART->reg->ENABLE &= ~UART_PERIPHERAL_ENABLE_RXENABLE_Msk;
 862              		.loc 1 255 0
 863 01fa 6368     		ldr	r3, [r4, #4]	@ _20, UART_46(D)->reg
 864 01fc 1A69     		ldr	r2, [r3, #16]	@ _21, _20->RXSTATUS
 865 01fe 2A42     		tst	r2, r5	@ _21, tmp183
 866 0200 E2D0     		beq	.L38	@,
 867              	@ .\driver\src\uart_va108xx.c:256:         UART->reg->ENABLE &= ~UART_PERIPHERAL_ENABLE_RXENABLE_Ms
 256:.\driver\src/uart_va108xx.c **** 		    return VOR_UART_ERROR_PARITY;
 868              		.loc 1 256 0
 869 0202 0121     		movs	r1, #1	@ tmp163,
 870              	@ .\driver\src\uart_va108xx.c:257: 		    return VOR_UART_ERROR_PARITY;
 257:.\driver\src/uart_va108xx.c **** 			}
 871              		.loc 1 257 0
 872 0204 0A20     		movs	r0, #10	@ <retval>,
 873              	@ .\driver\src\uart_va108xx.c:256:         UART->reg->ENABLE &= ~UART_PERIPHERAL_ENABLE_RXENABLE_Ms
 256:.\driver\src/uart_va108xx.c **** 		    return VOR_UART_ERROR_PARITY;
 874              		.loc 1 256 0
 875 0206 5A68     		ldr	r2, [r3, #4]	@ _23, _20->ENABLE
 876 0208 8A43     		bics	r2, r1	@ _24, tmp163
 877 020a 5A60     		str	r2, [r3, #4]	@ _24, _20->ENABLE
 878              	.LVL53:
 879              	.L51:
 880              	@ .\driver\src\uart_va108xx.c:268: 		  return VOR_UART_ERROR_POLL_TOUT;
 268:.\driver\src/uart_va108xx.c **** 	  }
 881              		.loc 1 268 0
 882 020c 4042     		rsbs	r0, r0, #0	@ <retval>, <retval>
 883 020e D9E7     		b	.L33	@
 884              	.L35:
 885              	@ .\driver\src\uart_va108xx.c:271: 		UART->reg->IRQ_CLR = 0xffffffff;
 271:.\driver\src/uart_va108xx.c **** 		UART->reg->IRQ_CLR = 0;
ARM GAS  C:\Users\claym\AppData\Local\Temp\cc2sTfd9.s 			page 29


 886              		.loc 1 271 0
 887 0210 0122     		movs	r2, #1	@ tmp168,
 888 0212 5242     		rsbs	r2, r2, #0	@ tmp168, tmp168
 889 0214 5A63     		str	r2, [r3, #52]	@ tmp168, _4->IRQ_CLR
 890              	@ .\driver\src\uart_va108xx.c:272: 		UART->reg->IRQ_CLR = 0;
 272:.\driver\src/uart_va108xx.c **** 
 891              		.loc 1 272 0
 892 0216 5D63     		str	r5, [r3, #52]	@ UART_46(D)->info.poll_mode, _4->IRQ_CLR
 893              	@ .\driver\src\uart_va108xx.c:274: 		UART->info.rxdata = data;
 274:.\driver\src/uart_va108xx.c **** 		UART->info.rxidx = 0;
 894              		.loc 1 274 0
 895 0218 2300     		movs	r3, r4	@ tmp172, UART
 896 021a 019A     		ldr	r2, [sp, #4]	@ data, %sfp
 897 021c B433     		adds	r3, r3, #180	@ tmp172,
 898 021e 1A60     		str	r2, [r3]	@ data, UART_46(D)->info.rxdata
 899              	@ .\driver\src\uart_va108xx.c:276: 		UART->info.rxcnt = num; 
 276:.\driver\src/uart_va108xx.c **** 	  UART->info.txidx = 0;
 900              		.loc 1 276 0
 901 0220 009B     		ldr	r3, [sp]	@ num, %sfp
 902              	@ .\driver\src\uart_va108xx.c:275: 		UART->info.rxidx = 0;
 275:.\driver\src/uart_va108xx.c **** 		UART->info.rxcnt = num; 
 903              		.loc 1 275 0
 904 0222 2563     		str	r5, [r4, #48]	@ UART_46(D)->info.poll_mode, UART_46(D)->info.rxidx
 905              	@ .\driver\src\uart_va108xx.c:276: 		UART->info.rxcnt = num; 
 276:.\driver\src/uart_va108xx.c **** 	  UART->info.txidx = 0;
 906              		.loc 1 276 0
 907 0224 A362     		str	r3, [r4, #40]	@ num, UART_46(D)->info.rxcnt
 908              	@ .\driver\src\uart_va108xx.c:277: 	  UART->info.txidx = 0;
 277:.\driver\src/uart_va108xx.c **** 	  UART->info.txcnt = 0;
 909              		.loc 1 277 0
 910 0226 E562     		str	r5, [r4, #44]	@ UART_46(D)->info.poll_mode, UART_46(D)->info.txidx
 911              	@ .\driver\src\uart_va108xx.c:278: 	  UART->info.txcnt = 0;
 278:.\driver\src/uart_va108xx.c **** 		 
 912              		.loc 1 278 0
 913 0228 6562     		str	r5, [r4, #36]	@ UART_46(D)->info.poll_mode, UART_46(D)->info.txcnt
 914              	@ .\driver\src\uart_va108xx.c:280: 		VOR_Enable_Irq(VOR_IRQ_UART, UART->uart_id);
 280:.\driver\src/uart_va108xx.c **** 		UART->reg->IRQ_ENB = (UART_PERIPHERAL_IRQ_ENB_IRQ_RX_Msk | \
 915              		.loc 1 280 0
 916 022a 2168     		ldr	r1, [r4]	@, UART_46(D)->uart_id
 917 022c 0320     		movs	r0, #3	@,
 918 022e FFF7FEFF 		bl	VOR_Enable_Irq	@
 919              	.LVL54:
 920              	@ .\driver\src\uart_va108xx.c:281: 		UART->reg->IRQ_ENB = (UART_PERIPHERAL_IRQ_ENB_IRQ_RX_Msk | \
 281:.\driver\src/uart_va108xx.c **** 												UART_PERIPHERAL_IRQ_ENB_IRQ_RX_STATUS_Msk | \
 921              		.loc 1 281 0
 922 0232 0722     		movs	r2, #7	@ tmp176,
 923 0234 6368     		ldr	r3, [r4, #4]	@ _35, UART_46(D)->reg
 924 0236 9A62     		str	r2, [r3, #40]	@ tmp176, _35->IRQ_ENB
 925 0238 C3E7     		b	.L52	@
 926              	.LVL55:
 927              	.L43:
 928              	@ .\driver\src\uart_va108xx.c:228:     return VOR_DRIVER_ERROR_PARAMETER;
 228:.\driver\src/uart_va108xx.c ****   }
 929              		.loc 1 228 0
 930 023a 0520     		movs	r0, #5	@ <retval>,
 931              	.LVL56:
 932 023c E6E7     		b	.L51	@
ARM GAS  C:\Users\claym\AppData\Local\Temp\cc2sTfd9.s 			page 30


 933              	.LVL57:
 934              	.L44:
 935              	@ .\driver\src\uart_va108xx.c:233:     return VOR_DRIVER_ERROR;
 233:.\driver\src/uart_va108xx.c ****   }
 936              		.loc 1 233 0
 937 023e 0120     		movs	r0, #1	@ <retval>,
 938              	.LVL58:
 939 0240 E4E7     		b	.L51	@
 940              	.LVL59:
 941              	.L45:
 942              	@ .\driver\src\uart_va108xx.c:268: 		  return VOR_UART_ERROR_POLL_TOUT;
 268:.\driver\src/uart_va108xx.c **** 	  }
 943              		.loc 1 268 0
 944 0242 0E20     		movs	r0, #14	@ <retval>,
 945 0244 E2E7     		b	.L51	@
 946              		.cfi_endproc
 947              	.LFE39:
 948              		.size	UART_Receive, .-UART_Receive
 949              		.align	1
 950              		.global	VOR_UART_SetParity
 951              		.syntax unified
 952              		.code	16
 953              		.thumb_func
 954              		.fpu softvfp
 955              		.type	VOR_UART_SetParity, %function
 956              	VOR_UART_SetParity:
 957              	.LFB40:
 287:.\driver\src/uart_va108xx.c **** 
 288:.\driver\src/uart_va108xx.c **** /**
 289:.\driver\src/uart_va108xx.c ****   function:    int32_t VOR_UART_SetParity(uint32_t arg,UART_RESOURCES *UART)
 290:.\driver\src/uart_va108xx.c ****   brief:       Set or clear the parity bit of UART. 
 291:.\driver\src/uart_va108xx.c ****   Input:       arg   enable or disable of parity bit 
 292:.\driver\src/uart_va108xx.c ****   Input:       UART Pointer to UART resources
 293:.\driver\src/uart_va108xx.c ****   return:      execution_status
 294:.\driver\src/uart_va108xx.c **** */
 295:.\driver\src/uart_va108xx.c **** int32_t VOR_UART_SetParity(uint32_t arg,UART_RESOURCES *UART)
 296:.\driver\src/uart_va108xx.c **** {
 958              		.loc 1 296 0
 959              		.cfi_startproc
 960              		@ args = 0, pretend = 0, frame = 0
 961              		@ frame_needed = 0, uses_anonymous_args = 0
 962              		@ link register save eliminated.
 963              	.LVL60:
 964              	@ .\driver\src\uart_va108xx.c:297: 	if((UART == NULL) || (UART->reg ==NULL))
 297:.\driver\src/uart_va108xx.c **** 	if((UART == NULL) || (UART->reg ==NULL))
 965              		.loc 1 297 0
 966 0246 0029     		cmp	r1, #0	@ UART,
 967 0248 10D0     		beq	.L58	@,
 968              	@ .\driver\src\uart_va108xx.c:297: 	if((UART == NULL) || (UART->reg ==NULL))
 969              		.loc 1 297 0 is_stmt 0 discriminator 1
 970 024a 4B68     		ldr	r3, [r1, #4]	@ _1, UART_8(D)->reg
 971 024c 002B     		cmp	r3, #0	@ _1,
 972 024e 0DD0     		beq	.L58	@,
 973              	@ .\driver\src\uart_va108xx.c:300: 	switch(arg)
 298:.\driver\src/uart_va108xx.c **** 	 return VOR_DRIVER_ERROR_PARAMETER;
 299:.\driver\src/uart_va108xx.c **** 	
 300:.\driver\src/uart_va108xx.c **** 	switch(arg)
ARM GAS  C:\Users\claym\AppData\Local\Temp\cc2sTfd9.s 			page 31


 974              		.loc 1 300 0 is_stmt 1
 975 0250 0028     		cmp	r0, #0	@ arg,
 976 0252 06D0     		beq	.L55	@,
 977 0254 0128     		cmp	r0, #1	@ arg,
 978 0256 0CD1     		bne	.L60	@,
 979              	@ .\driver\src\uart_va108xx.c:302: 		case VOR_UART_CONTROL_PARITY_ENABLE:   UART->reg->CTRL |=  UAR
 301:.\driver\src/uart_va108xx.c **** 	{
 302:.\driver\src/uart_va108xx.c **** 		case VOR_UART_CONTROL_PARITY_ENABLE:   UART->reg->CTRL |=  UART_PERIPHERAL_CTRL_PAREN_Msk;   brea
 980              		.loc 1 302 0
 981 0258 9A68     		ldr	r2, [r3, #8]	@ _2, _1->CTRL
 982 025a 1043     		orrs	r0, r2	@ _3, _2
 983              	.LVL61:
 984 025c 9860     		str	r0, [r3, #8]	@ _3, _1->CTRL
 985              	@ .\driver\src\uart_va108xx.c:306: 	return 0;
 303:.\driver\src/uart_va108xx.c **** 		case VOR_UART_CONTROL_PARITY_DISABLE:  UART->reg->CTRL &= ~UART_PERIPHERAL_CTRL_PAREN_Msk; break;
 304:.\driver\src/uart_va108xx.c ****     default:              return -1;
 305:.\driver\src/uart_va108xx.c **** 	}
 306:.\driver\src/uart_va108xx.c **** 	return 0;
 986              		.loc 1 306 0
 987 025e 0020     		movs	r0, #0	@ <retval>,
 988              	.LVL62:
 989              	.L53:
 990              	@ .\driver\src\uart_va108xx.c:307: }
 307:.\driver\src/uart_va108xx.c **** }
 991              		.loc 1 307 0
 992              		@ sp needed	@
 993 0260 7047     		bx	lr
 994              	.LVL63:
 995              	.L55:
 996              	@ .\driver\src\uart_va108xx.c:303: 		case VOR_UART_CONTROL_PARITY_DISABLE:  UART->reg->CTRL &= ~UAR
 303:.\driver\src/uart_va108xx.c **** 		case VOR_UART_CONTROL_PARITY_DISABLE:  UART->reg->CTRL &= ~UART_PERIPHERAL_CTRL_PAREN_Msk; break;
 997              		.loc 1 303 0
 998 0262 0121     		movs	r1, #1	@ tmp119,
 999              	.LVL64:
 1000 0264 9A68     		ldr	r2, [r3, #8]	@ _4, _1->CTRL
 1001 0266 8A43     		bics	r2, r1	@ _5, tmp119
 1002 0268 9A60     		str	r2, [r3, #8]	@ _5, _1->CTRL
 1003 026a F9E7     		b	.L53	@
 1004              	.LVL65:
 1005              	.L58:
 1006              	@ .\driver\src\uart_va108xx.c:298: 	 return VOR_DRIVER_ERROR_PARAMETER;
 298:.\driver\src/uart_va108xx.c **** 	
 1007              		.loc 1 298 0
 1008 026c 0520     		movs	r0, #5	@ <retval>,
 1009              	.LVL66:
 1010              	.L61:
 1011              	@ .\driver\src\uart_va108xx.c:304:     default:              return -1;
 304:.\driver\src/uart_va108xx.c **** 	}
 1012              		.loc 1 304 0
 1013 026e 4042     		rsbs	r0, r0, #0	@ <retval>, <retval>
 1014 0270 F6E7     		b	.L53	@
 1015              	.LVL67:
 1016              	.L60:
 1017 0272 0120     		movs	r0, #1	@ <retval>,
 1018              	.LVL68:
 1019 0274 FBE7     		b	.L61	@
 1020              		.cfi_endproc
ARM GAS  C:\Users\claym\AppData\Local\Temp\cc2sTfd9.s 			page 32


 1021              	.LFE40:
 1022              		.size	VOR_UART_SetParity, .-VOR_UART_SetParity
 1023              		.align	1
 1024              		.global	VOR_UART_SelectParity
 1025              		.syntax unified
 1026              		.code	16
 1027              		.thumb_func
 1028              		.fpu softvfp
 1029              		.type	VOR_UART_SelectParity, %function
 1030              	VOR_UART_SelectParity:
 1031              	.LFB41:
 308:.\driver\src/uart_va108xx.c **** 
 309:.\driver\src/uart_va108xx.c **** /**
 310:.\driver\src/uart_va108xx.c ****   function:    int32_t VOR_UART_SelectParity(uint32_t arg,UART_RESOURCES *UART)
 311:.\driver\src/uart_va108xx.c ****   brief:       Select odd or even parity of UART. 
 312:.\driver\src/uart_va108xx.c ****   Input:       arg  Type of parity 
 313:.\driver\src/uart_va108xx.c ****   Input:       UART Pointer to UART resources
 314:.\driver\src/uart_va108xx.c ****   return:      execution_status
 315:.\driver\src/uart_va108xx.c **** */
 316:.\driver\src/uart_va108xx.c **** int32_t VOR_UART_SelectParity(uint32_t arg,UART_RESOURCES *UART)
 317:.\driver\src/uart_va108xx.c **** {
 1032              		.loc 1 317 0
 1033              		.cfi_startproc
 1034              		@ args = 0, pretend = 0, frame = 0
 1035              		@ frame_needed = 0, uses_anonymous_args = 0
 1036              		@ link register save eliminated.
 1037              	.LVL69:
 1038              	@ .\driver\src\uart_va108xx.c:318: 	if((UART == NULL) || (UART->reg ==NULL))
 318:.\driver\src/uart_va108xx.c **** 	if((UART == NULL) || (UART->reg ==NULL))
 1039              		.loc 1 318 0
 1040 0276 0029     		cmp	r1, #0	@ UART,
 1041 0278 11D0     		beq	.L67	@,
 1042              	@ .\driver\src\uart_va108xx.c:318: 	if((UART == NULL) || (UART->reg ==NULL))
 1043              		.loc 1 318 0 is_stmt 0 discriminator 1
 1044 027a 4B68     		ldr	r3, [r1, #4]	@ _1, UART_8(D)->reg
 1045 027c 002B     		cmp	r3, #0	@ _1,
 1046 027e 0ED0     		beq	.L67	@,
 1047              	@ .\driver\src\uart_va108xx.c:321: 	switch(arg)
 319:.\driver\src/uart_va108xx.c **** 	 return VOR_DRIVER_ERROR_PARAMETER;
 320:.\driver\src/uart_va108xx.c **** 	
 321:.\driver\src/uart_va108xx.c **** 	switch(arg)
 1048              		.loc 1 321 0 is_stmt 1
 1049 0280 0028     		cmp	r0, #0	@ arg,
 1050 0282 07D0     		beq	.L64	@,
 1051 0284 0128     		cmp	r0, #1	@ arg,
 1052 0286 0DD1     		bne	.L69	@,
 1053              	@ .\driver\src\uart_va108xx.c:323: 		case VOR_UART_CONTROL_PARITY_EVEN:     UART->reg->CTRL |=  UAR
 322:.\driver\src/uart_va108xx.c **** 	{
 323:.\driver\src/uart_va108xx.c **** 		case VOR_UART_CONTROL_PARITY_EVEN:     UART->reg->CTRL |=  UART_PERIPHERAL_CTRL_PAREVEN_Msk;   br
 1054              		.loc 1 323 0
 1055 0288 0222     		movs	r2, #2	@ tmp118,
 1056              	@ .\driver\src\uart_va108xx.c:327: 	return 0;
 324:.\driver\src/uart_va108xx.c **** 		case VOR_UART_CONTROL_PARITY_ODD:      UART->reg->CTRL   &= ~UART_PERIPHERAL_CTRL_PAREVEN_Msk; br
 325:.\driver\src/uart_va108xx.c ****     default:              return -1;
 326:.\driver\src/uart_va108xx.c **** 	}
 327:.\driver\src/uart_va108xx.c **** 	return 0;
 1057              		.loc 1 327 0
ARM GAS  C:\Users\claym\AppData\Local\Temp\cc2sTfd9.s 			page 33


 1058 028a 0020     		movs	r0, #0	@ <retval>,
 1059              	.LVL70:
 1060              	@ .\driver\src\uart_va108xx.c:323: 		case VOR_UART_CONTROL_PARITY_EVEN:     UART->reg->CTRL |=  UAR
 323:.\driver\src/uart_va108xx.c **** 		case VOR_UART_CONTROL_PARITY_ODD:      UART->reg->CTRL   &= ~UART_PERIPHERAL_CTRL_PAREVEN_Msk; br
 1061              		.loc 1 323 0
 1062 028c 9968     		ldr	r1, [r3, #8]	@ _2, _1->CTRL
 1063              	.LVL71:
 1064 028e 0A43     		orrs	r2, r1	@ _3, _2
 1065 0290 9A60     		str	r2, [r3, #8]	@ _3, _1->CTRL
 1066              	.L62:
 1067              	@ .\driver\src\uart_va108xx.c:328: }
 328:.\driver\src/uart_va108xx.c **** }
 1068              		.loc 1 328 0
 1069              		@ sp needed	@
 1070 0292 7047     		bx	lr
 1071              	.LVL72:
 1072              	.L64:
 1073              	@ .\driver\src\uart_va108xx.c:324: 		case VOR_UART_CONTROL_PARITY_ODD:      UART->reg->CTRL   &= ~U
 324:.\driver\src/uart_va108xx.c **** 		case VOR_UART_CONTROL_PARITY_ODD:      UART->reg->CTRL   &= ~UART_PERIPHERAL_CTRL_PAREVEN_Msk; br
 1074              		.loc 1 324 0
 1075 0294 0221     		movs	r1, #2	@ tmp119,
 1076              	.LVL73:
 1077 0296 9A68     		ldr	r2, [r3, #8]	@ _4, _1->CTRL
 1078 0298 8A43     		bics	r2, r1	@ _5, tmp119
 1079 029a 9A60     		str	r2, [r3, #8]	@ _5, _1->CTRL
 1080 029c F9E7     		b	.L62	@
 1081              	.LVL74:
 1082              	.L67:
 1083              	@ .\driver\src\uart_va108xx.c:319: 	 return VOR_DRIVER_ERROR_PARAMETER;
 319:.\driver\src/uart_va108xx.c **** 	
 1084              		.loc 1 319 0
 1085 029e 0520     		movs	r0, #5	@ <retval>,
 1086              	.LVL75:
 1087              	.L70:
 1088              	@ .\driver\src\uart_va108xx.c:325:     default:              return -1;
 325:.\driver\src/uart_va108xx.c **** 	}
 1089              		.loc 1 325 0
 1090 02a0 4042     		rsbs	r0, r0, #0	@ <retval>, <retval>
 1091 02a2 F6E7     		b	.L62	@
 1092              	.LVL76:
 1093              	.L69:
 1094 02a4 0120     		movs	r0, #1	@ <retval>,
 1095              	.LVL77:
 1096 02a6 FBE7     		b	.L70	@
 1097              		.cfi_endproc
 1098              	.LFE41:
 1099              		.size	VOR_UART_SelectParity, .-VOR_UART_SelectParity
 1100              		.align	1
 1101              		.global	VOR_UART_ManualParity
 1102              		.syntax unified
 1103              		.code	16
 1104              		.thumb_func
 1105              		.fpu softvfp
 1106              		.type	VOR_UART_ManualParity, %function
 1107              	VOR_UART_ManualParity:
 1108              	.LFB42:
 329:.\driver\src/uart_va108xx.c **** 
ARM GAS  C:\Users\claym\AppData\Local\Temp\cc2sTfd9.s 			page 34


 330:.\driver\src/uart_va108xx.c **** /**
 331:.\driver\src/uart_va108xx.c ****   function:    int32_t VOR_UART_ManualParity(uint32_t arg,UART_RESOURCES *UART)
 332:.\driver\src/uart_va108xx.c ****   brief:       Enable or Disable Manual parity of UART. 
 333:.\driver\src/uart_va108xx.c ****   Input:       arg  Manual parity set or clear
 334:.\driver\src/uart_va108xx.c ****   Input:       UART Pointer to UART resources
 335:.\driver\src/uart_va108xx.c ****   return:      execution_status
 336:.\driver\src/uart_va108xx.c **** */
 337:.\driver\src/uart_va108xx.c **** int32_t VOR_UART_ManualParity(uint32_t arg,UART_RESOURCES *UART)
 338:.\driver\src/uart_va108xx.c **** {
 1109              		.loc 1 338 0
 1110              		.cfi_startproc
 1111              		@ args = 0, pretend = 0, frame = 0
 1112              		@ frame_needed = 0, uses_anonymous_args = 0
 1113              		@ link register save eliminated.
 1114              	.LVL78:
 1115              	@ .\driver\src\uart_va108xx.c:339:   if((UART == NULL) || (UART->reg ==NULL))
 339:.\driver\src/uart_va108xx.c ****   if((UART == NULL) || (UART->reg ==NULL))
 1116              		.loc 1 339 0
 1117 02a8 0029     		cmp	r1, #0	@ UART,
 1118 02aa 11D0     		beq	.L76	@,
 1119              	@ .\driver\src\uart_va108xx.c:339:   if((UART == NULL) || (UART->reg ==NULL))
 1120              		.loc 1 339 0 is_stmt 0 discriminator 1
 1121 02ac 4B68     		ldr	r3, [r1, #4]	@ _1, UART_8(D)->reg
 1122 02ae 002B     		cmp	r3, #0	@ _1,
 1123 02b0 0ED0     		beq	.L76	@,
 1124              	@ .\driver\src\uart_va108xx.c:342: 	switch(arg)
 340:.\driver\src/uart_va108xx.c **** 	 return VOR_DRIVER_ERROR_PARAMETER;
 341:.\driver\src/uart_va108xx.c **** 	
 342:.\driver\src/uart_va108xx.c **** 	switch(arg)
 1125              		.loc 1 342 0 is_stmt 1
 1126 02b2 0028     		cmp	r0, #0	@ arg,
 1127 02b4 07D0     		beq	.L73	@,
 1128 02b6 0128     		cmp	r0, #1	@ arg,
 1129 02b8 0DD1     		bne	.L78	@,
 1130              	@ .\driver\src\uart_va108xx.c:344: 		case VOR_UART_CONTROL_MAN_PARITY_ENABLE:   UART->reg->CTRL |= 
 343:.\driver\src/uart_va108xx.c **** 	{
 344:.\driver\src/uart_va108xx.c **** 		case VOR_UART_CONTROL_MAN_PARITY_ENABLE:   UART->reg->CTRL |= UART_PERIPHERAL_CTRL_PARSTK_Msk; br
 1131              		.loc 1 344 0
 1132 02ba 0422     		movs	r2, #4	@ tmp118,
 1133              	@ .\driver\src\uart_va108xx.c:348: 	return 0;
 345:.\driver\src/uart_va108xx.c **** 		case VOR_UART_CONTROL_MAN_PARITY_DISABLE:  UART->reg->CTRL &= ~UART_PERIPHERAL_CTRL_PARSTK_Msk; b
 346:.\driver\src/uart_va108xx.c ****     default:                  return -1;
 347:.\driver\src/uart_va108xx.c **** 	}
 348:.\driver\src/uart_va108xx.c **** 	return 0;
 1134              		.loc 1 348 0
 1135 02bc 0020     		movs	r0, #0	@ <retval>,
 1136              	.LVL79:
 1137              	@ .\driver\src\uart_va108xx.c:344: 		case VOR_UART_CONTROL_MAN_PARITY_ENABLE:   UART->reg->CTRL |= 
 344:.\driver\src/uart_va108xx.c **** 		case VOR_UART_CONTROL_MAN_PARITY_DISABLE:  UART->reg->CTRL &= ~UART_PERIPHERAL_CTRL_PARSTK_Msk; b
 1138              		.loc 1 344 0
 1139 02be 9968     		ldr	r1, [r3, #8]	@ _2, _1->CTRL
 1140              	.LVL80:
 1141 02c0 0A43     		orrs	r2, r1	@ _3, _2
 1142 02c2 9A60     		str	r2, [r3, #8]	@ _3, _1->CTRL
 1143              	.L71:
 1144              	@ .\driver\src\uart_va108xx.c:349: }
 349:.\driver\src/uart_va108xx.c **** }
ARM GAS  C:\Users\claym\AppData\Local\Temp\cc2sTfd9.s 			page 35


 1145              		.loc 1 349 0
 1146              		@ sp needed	@
 1147 02c4 7047     		bx	lr
 1148              	.LVL81:
 1149              	.L73:
 1150              	@ .\driver\src\uart_va108xx.c:345: 		case VOR_UART_CONTROL_MAN_PARITY_DISABLE:  UART->reg->CTRL &= 
 345:.\driver\src/uart_va108xx.c **** 		case VOR_UART_CONTROL_MAN_PARITY_DISABLE:  UART->reg->CTRL &= ~UART_PERIPHERAL_CTRL_PARSTK_Msk; b
 1151              		.loc 1 345 0
 1152 02c6 0421     		movs	r1, #4	@ tmp119,
 1153              	.LVL82:
 1154 02c8 9A68     		ldr	r2, [r3, #8]	@ _4, _1->CTRL
 1155 02ca 8A43     		bics	r2, r1	@ _5, tmp119
 1156 02cc 9A60     		str	r2, [r3, #8]	@ _5, _1->CTRL
 1157 02ce F9E7     		b	.L71	@
 1158              	.LVL83:
 1159              	.L76:
 1160              	@ .\driver\src\uart_va108xx.c:340: 	 return VOR_DRIVER_ERROR_PARAMETER;
 340:.\driver\src/uart_va108xx.c **** 	
 1161              		.loc 1 340 0
 1162 02d0 0520     		movs	r0, #5	@ <retval>,
 1163              	.LVL84:
 1164              	.L79:
 1165              	@ .\driver\src\uart_va108xx.c:346:     default:                  return -1;
 346:.\driver\src/uart_va108xx.c **** 	}
 1166              		.loc 1 346 0
 1167 02d2 4042     		rsbs	r0, r0, #0	@ <retval>, <retval>
 1168 02d4 F6E7     		b	.L71	@
 1169              	.LVL85:
 1170              	.L78:
 1171 02d6 0120     		movs	r0, #1	@ <retval>,
 1172              	.LVL86:
 1173 02d8 FBE7     		b	.L79	@
 1174              		.cfi_endproc
 1175              	.LFE42:
 1176              		.size	VOR_UART_ManualParity, .-VOR_UART_ManualParity
 1177              		.align	1
 1178              		.global	VOR_UART_StopBit
 1179              		.syntax unified
 1180              		.code	16
 1181              		.thumb_func
 1182              		.fpu softvfp
 1183              		.type	VOR_UART_StopBit, %function
 1184              	VOR_UART_StopBit:
 1185              	.LFB43:
 350:.\driver\src/uart_va108xx.c **** 
 351:.\driver\src/uart_va108xx.c **** /**
 352:.\driver\src/uart_va108xx.c ****   function:    int32_t VOR_UART_StopBit(uint32_t arg,UART_RESOURCES *UART)
 353:.\driver\src/uart_va108xx.c ****   brief:       Select number of stop bits  
 354:.\driver\src/uart_va108xx.c ****   Input:       arg  number of stop bits
 355:.\driver\src/uart_va108xx.c ****   Input:       UART Pointer to UART resources
 356:.\driver\src/uart_va108xx.c ****   return:      execution_status
 357:.\driver\src/uart_va108xx.c **** */
 358:.\driver\src/uart_va108xx.c **** int32_t VOR_UART_StopBit(uint32_t arg,UART_RESOURCES *UART)
 359:.\driver\src/uart_va108xx.c **** {
 1186              		.loc 1 359 0
 1187              		.cfi_startproc
 1188              		@ args = 0, pretend = 0, frame = 0
ARM GAS  C:\Users\claym\AppData\Local\Temp\cc2sTfd9.s 			page 36


 1189              		@ frame_needed = 0, uses_anonymous_args = 0
 1190              		@ link register save eliminated.
 1191              	.LVL87:
 1192              	@ .\driver\src\uart_va108xx.c:360: 	if((UART == NULL) || (UART->reg ==NULL))
 360:.\driver\src/uart_va108xx.c **** 	if((UART == NULL) || (UART->reg ==NULL))
 1193              		.loc 1 360 0
 1194 02da 0029     		cmp	r1, #0	@ UART,
 1195 02dc 11D0     		beq	.L85	@,
 1196              	@ .\driver\src\uart_va108xx.c:360: 	if((UART == NULL) || (UART->reg ==NULL))
 1197              		.loc 1 360 0 is_stmt 0 discriminator 1
 1198 02de 4B68     		ldr	r3, [r1, #4]	@ _1, UART_8(D)->reg
 1199 02e0 002B     		cmp	r3, #0	@ _1,
 1200 02e2 0ED0     		beq	.L85	@,
 1201              	@ .\driver\src\uart_va108xx.c:363: 	switch(arg)
 361:.\driver\src/uart_va108xx.c **** 	  return VOR_DRIVER_ERROR_PARAMETER;
 362:.\driver\src/uart_va108xx.c **** 	
 363:.\driver\src/uart_va108xx.c **** 	switch(arg)
 1202              		.loc 1 363 0 is_stmt 1
 1203 02e4 0028     		cmp	r0, #0	@ arg,
 1204 02e6 07D0     		beq	.L82	@,
 1205 02e8 0128     		cmp	r0, #1	@ arg,
 1206 02ea 0DD1     		bne	.L87	@,
 1207              	@ .\driver\src\uart_va108xx.c:365: 		case VOR_UART_CONTROL_STOP_BIT_2:      UART->reg->CTRL |= UART
 364:.\driver\src/uart_va108xx.c **** 	{ 
 365:.\driver\src/uart_va108xx.c **** 		case VOR_UART_CONTROL_STOP_BIT_2:      UART->reg->CTRL |= UART_PERIPHERAL_CTRL_STOPBITS_Msk;   br
 1208              		.loc 1 365 0
 1209 02ec 0822     		movs	r2, #8	@ tmp118,
 1210              	@ .\driver\src\uart_va108xx.c:369: 	return 0;
 366:.\driver\src/uart_va108xx.c ****     case VOR_UART_CONTROL_STOP_BIT_1:      UART->reg->CTRL &= ~UART_PERIPHERAL_CTRL_STOPBITS_Msk;	b
 367:.\driver\src/uart_va108xx.c ****     default:              return -1;
 368:.\driver\src/uart_va108xx.c **** 	}
 369:.\driver\src/uart_va108xx.c **** 	return 0;
 1211              		.loc 1 369 0
 1212 02ee 0020     		movs	r0, #0	@ <retval>,
 1213              	.LVL88:
 1214              	@ .\driver\src\uart_va108xx.c:365: 		case VOR_UART_CONTROL_STOP_BIT_2:      UART->reg->CTRL |= UART
 365:.\driver\src/uart_va108xx.c ****     case VOR_UART_CONTROL_STOP_BIT_1:      UART->reg->CTRL &= ~UART_PERIPHERAL_CTRL_STOPBITS_Msk;	b
 1215              		.loc 1 365 0
 1216 02f0 9968     		ldr	r1, [r3, #8]	@ _2, _1->CTRL
 1217              	.LVL89:
 1218 02f2 0A43     		orrs	r2, r1	@ _3, _2
 1219 02f4 9A60     		str	r2, [r3, #8]	@ _3, _1->CTRL
 1220              	.L80:
 1221              	@ .\driver\src\uart_va108xx.c:370: }
 370:.\driver\src/uart_va108xx.c **** }
 1222              		.loc 1 370 0
 1223              		@ sp needed	@
 1224 02f6 7047     		bx	lr
 1225              	.LVL90:
 1226              	.L82:
 1227              	@ .\driver\src\uart_va108xx.c:366:     case VOR_UART_CONTROL_STOP_BIT_1:      UART->reg->CTRL &= ~U
 366:.\driver\src/uart_va108xx.c ****     case VOR_UART_CONTROL_STOP_BIT_1:      UART->reg->CTRL &= ~UART_PERIPHERAL_CTRL_STOPBITS_Msk;	b
 1228              		.loc 1 366 0
 1229 02f8 0821     		movs	r1, #8	@ tmp119,
 1230              	.LVL91:
 1231 02fa 9A68     		ldr	r2, [r3, #8]	@ _4, _1->CTRL
 1232 02fc 8A43     		bics	r2, r1	@ _5, tmp119
ARM GAS  C:\Users\claym\AppData\Local\Temp\cc2sTfd9.s 			page 37


 1233 02fe 9A60     		str	r2, [r3, #8]	@ _5, _1->CTRL
 1234 0300 F9E7     		b	.L80	@
 1235              	.LVL92:
 1236              	.L85:
 1237              	@ .\driver\src\uart_va108xx.c:361: 	  return VOR_DRIVER_ERROR_PARAMETER;
 361:.\driver\src/uart_va108xx.c **** 	
 1238              		.loc 1 361 0
 1239 0302 0520     		movs	r0, #5	@ <retval>,
 1240              	.LVL93:
 1241              	.L88:
 1242              	@ .\driver\src\uart_va108xx.c:367:     default:              return -1;
 367:.\driver\src/uart_va108xx.c **** 	}
 1243              		.loc 1 367 0
 1244 0304 4042     		rsbs	r0, r0, #0	@ <retval>, <retval>
 1245 0306 F6E7     		b	.L80	@
 1246              	.LVL94:
 1247              	.L87:
 1248 0308 0120     		movs	r0, #1	@ <retval>,
 1249              	.LVL95:
 1250 030a FBE7     		b	.L88	@
 1251              		.cfi_endproc
 1252              	.LFE43:
 1253              		.size	VOR_UART_StopBit, .-VOR_UART_StopBit
 1254              		.align	1
 1255              		.global	VOR_UART_DataBits
 1256              		.syntax unified
 1257              		.code	16
 1258              		.thumb_func
 1259              		.fpu softvfp
 1260              		.type	VOR_UART_DataBits, %function
 1261              	VOR_UART_DataBits:
 1262              	.LFB44:
 371:.\driver\src/uart_va108xx.c **** 
 372:.\driver\src/uart_va108xx.c **** /**
 373:.\driver\src/uart_va108xx.c ****   function:    int32_t VOR_UART_DataBits(uint32_t arg,UART_RESOURCES *UART)
 374:.\driver\src/uart_va108xx.c ****   brief:       Select word size in UART frame
 375:.\driver\src/uart_va108xx.c ****   Input:       arg  word size
 376:.\driver\src/uart_va108xx.c ****   Input:       UART Pointer to UART resources
 377:.\driver\src/uart_va108xx.c ****   return:      execution_status
 378:.\driver\src/uart_va108xx.c **** */
 379:.\driver\src/uart_va108xx.c **** int32_t VOR_UART_DataBits(uint32_t arg,UART_RESOURCES *UART)
 380:.\driver\src/uart_va108xx.c **** {
 1263              		.loc 1 380 0
 1264              		.cfi_startproc
 1265              		@ args = 0, pretend = 0, frame = 0
 1266              		@ frame_needed = 0, uses_anonymous_args = 0
 1267              	.LVL96:
 1268 030c 00B5     		push	{lr}	@
 1269              	.LCFI7:
 1270              		.cfi_def_cfa_offset 4
 1271              		.cfi_offset 14, -4
 1272              	@ .\driver\src\uart_va108xx.c:381: 	if((UART == NULL) || (UART->reg ==NULL))
 381:.\driver\src/uart_va108xx.c **** 	if((UART == NULL) || (UART->reg ==NULL))
 1273              		.loc 1 381 0
 1274 030e 0029     		cmp	r1, #0	@ UART,
 1275 0310 19D0     		beq	.L97	@,
 1276              	@ .\driver\src\uart_va108xx.c:381: 	if((UART == NULL) || (UART->reg ==NULL))
ARM GAS  C:\Users\claym\AppData\Local\Temp\cc2sTfd9.s 			page 38


 1277              		.loc 1 381 0 is_stmt 0 discriminator 1
 1278 0312 4B68     		ldr	r3, [r1, #4]	@ _1, UART_13(D)->reg
 1279 0314 002B     		cmp	r3, #0	@ _1,
 1280 0316 16D0     		beq	.L97	@,
 1281              	@ .\driver\src\uart_va108xx.c:383: 	UART->reg->CTRL &= ~UART_PERIPHERAL_CTRL_WORDSIZE_Msk;
 382:.\driver\src/uart_va108xx.c **** 	  return VOR_DRIVER_ERROR_PARAMETER;
 383:.\driver\src/uart_va108xx.c **** 	UART->reg->CTRL &= ~UART_PERIPHERAL_CTRL_WORDSIZE_Msk;
 1282              		.loc 1 383 0 is_stmt 1
 1283 0318 3022     		movs	r2, #48	@ tmp123,
 1284 031a 9968     		ldr	r1, [r3, #8]	@ _2, _1->CTRL
 1285              	.LVL97:
 1286 031c 9143     		bics	r1, r2	@ _3, tmp123
 1287 031e 9960     		str	r1, [r3, #8]	@ _3, _1->CTRL
 1288              	@ .\driver\src\uart_va108xx.c:385: 	switch(arg)
 384:.\driver\src/uart_va108xx.c **** 	
 385:.\driver\src/uart_va108xx.c **** 	switch(arg)
 1289              		.loc 1 385 0
 1290 0320 0328     		cmp	r0, #3	@ arg,
 1291 0322 13D8     		bhi	.L98	@,
 1292 0324 FFF7FEFF 		bl	__gnu_thumb1_case_uqi
 1293              	.L92:
 1294 0328 02       		.byte	(.L91-.L92)/2
 1295 0329 06       		.byte	(.L93-.L92)/2
 1296 032a 0A       		.byte	(.L94-.L92)/2
 1297 032b 0D       		.byte	(.L95-.L92)/2
 1298              		.p2align 1
 1299              	.L91:
 1300              	@ .\driver\src\uart_va108xx.c:387: 		case VOR_UART_CONTROL_DATA_BITS_5: UART->reg->CTRL |= (0<<UART
 386:.\driver\src/uart_va108xx.c **** 	{
 387:.\driver\src/uart_va108xx.c **** 		case VOR_UART_CONTROL_DATA_BITS_5: UART->reg->CTRL |= (0<<UART_PERIPHERAL_CTRL_WORDSIZE_Pos); bre
 1301              		.loc 1 387 0
 1302 032c 9A68     		ldr	r2, [r3, #8]	@ _4, _1->CTRL
 1303              	.L100:
 1304              	@ .\driver\src\uart_va108xx.c:393: 	return 0;
 388:.\driver\src/uart_va108xx.c **** 		case VOR_UART_CONTROL_DATA_BITS_6: UART->reg->CTRL |= (1<<UART_PERIPHERAL_CTRL_WORDSIZE_Pos); bre
 389:.\driver\src/uart_va108xx.c **** 		case VOR_UART_CONTROL_DATA_BITS_7: UART->reg->CTRL |= (2<<UART_PERIPHERAL_CTRL_WORDSIZE_Pos); bre
 390:.\driver\src/uart_va108xx.c **** 		case VOR_UART_CONTROL_DATA_BITS_8: UART->reg->CTRL |= (3<<UART_PERIPHERAL_CTRL_WORDSIZE_Pos); bre
 391:.\driver\src/uart_va108xx.c ****     default:              return -1;
 392:.\driver\src/uart_va108xx.c **** 	}
 393:.\driver\src/uart_va108xx.c **** 	return 0;
 1305              		.loc 1 393 0
 1306 032e 0020     		movs	r0, #0	@ <retval>,
 1307              	.LVL98:
 1308              	@ .\driver\src\uart_va108xx.c:390: 		case VOR_UART_CONTROL_DATA_BITS_8: UART->reg->CTRL |= (3<<UART
 390:.\driver\src/uart_va108xx.c ****     default:              return -1;
 1309              		.loc 1 390 0
 1310 0330 9A60     		str	r2, [r3, #8]	@ _10,
 1311              	.L89:
 1312              	@ .\driver\src\uart_va108xx.c:394: }
 394:.\driver\src/uart_va108xx.c **** }
 1313              		.loc 1 394 0
 1314              		@ sp needed	@
 1315 0332 00BD     		pop	{pc}
 1316              	.LVL99:
 1317              	.L93:
 1318              	@ .\driver\src\uart_va108xx.c:388: 		case VOR_UART_CONTROL_DATA_BITS_6: UART->reg->CTRL |= (1<<UART
 388:.\driver\src/uart_va108xx.c **** 		case VOR_UART_CONTROL_DATA_BITS_6: UART->reg->CTRL |= (1<<UART_PERIPHERAL_CTRL_WORDSIZE_Pos); bre
ARM GAS  C:\Users\claym\AppData\Local\Temp\cc2sTfd9.s 			page 39


 1319              		.loc 1 388 0
 1320 0334 1022     		movs	r2, #16	@ tmp124,
 1321 0336 9968     		ldr	r1, [r3, #8]	@ _5, _1->CTRL
 1322              	.L101:
 1323              	@ .\driver\src\uart_va108xx.c:390: 		case VOR_UART_CONTROL_DATA_BITS_8: UART->reg->CTRL |= (3<<UART
 390:.\driver\src/uart_va108xx.c ****     default:              return -1;
 1324              		.loc 1 390 0
 1325 0338 0A43     		orrs	r2, r1	@ _10, _9
 1326 033a F8E7     		b	.L100	@
 1327              	.L94:
 1328              	@ .\driver\src\uart_va108xx.c:389: 		case VOR_UART_CONTROL_DATA_BITS_7: UART->reg->CTRL |= (2<<UART
 389:.\driver\src/uart_va108xx.c **** 		case VOR_UART_CONTROL_DATA_BITS_8: UART->reg->CTRL |= (3<<UART_PERIPHERAL_CTRL_WORDSIZE_Pos); bre
 1329              		.loc 1 389 0
 1330 033c 9968     		ldr	r1, [r3, #8]	@ _7, _1->CTRL
 1331 033e 2022     		movs	r2, #32	@ tmp125,
 1332 0340 FAE7     		b	.L101	@
 1333              	.L95:
 1334              	@ .\driver\src\uart_va108xx.c:390: 		case VOR_UART_CONTROL_DATA_BITS_8: UART->reg->CTRL |= (3<<UART
 390:.\driver\src/uart_va108xx.c ****     default:              return -1;
 1335              		.loc 1 390 0
 1336 0342 9968     		ldr	r1, [r3, #8]	@ _9, _1->CTRL
 1337 0344 F8E7     		b	.L101	@
 1338              	.LVL100:
 1339              	.L97:
 1340              	@ .\driver\src\uart_va108xx.c:382: 	  return VOR_DRIVER_ERROR_PARAMETER;
 382:.\driver\src/uart_va108xx.c **** 	UART->reg->CTRL &= ~UART_PERIPHERAL_CTRL_WORDSIZE_Msk;
 1341              		.loc 1 382 0
 1342 0346 0520     		movs	r0, #5	@ <retval>,
 1343              	.LVL101:
 1344              	.L99:
 1345              	@ .\driver\src\uart_va108xx.c:391:     default:              return -1;
 391:.\driver\src/uart_va108xx.c **** 	}
 1346              		.loc 1 391 0
 1347 0348 4042     		rsbs	r0, r0, #0	@ <retval>, <retval>
 1348 034a F2E7     		b	.L89	@
 1349              	.LVL102:
 1350              	.L98:
 1351 034c 0120     		movs	r0, #1	@ <retval>,
 1352              	.LVL103:
 1353 034e FBE7     		b	.L99	@
 1354              		.cfi_endproc
 1355              	.LFE44:
 1356              		.size	VOR_UART_DataBits, .-VOR_UART_DataBits
 1357              		.align	1
 1358              		.global	VOR_UART_LoopBack
 1359              		.syntax unified
 1360              		.code	16
 1361              		.thumb_func
 1362              		.fpu softvfp
 1363              		.type	VOR_UART_LoopBack, %function
 1364              	VOR_UART_LoopBack:
 1365              	.LFB45:
 395:.\driver\src/uart_va108xx.c **** 
 396:.\driver\src/uart_va108xx.c **** /**
 397:.\driver\src/uart_va108xx.c ****   function:    int32_t VOR_UART_LoopBack(uint32_t arg,UART_RESOURCES *UART)
 398:.\driver\src/uart_va108xx.c ****   brief:       Loopback mode. When 1, then the Receiver input is
 399:.\driver\src/uart_va108xx.c ****                connected to the Transmitter output and CTSn input is
ARM GAS  C:\Users\claym\AppData\Local\Temp\cc2sTfd9.s 			page 40


 400:.\driver\src/uart_va108xx.c ****                connected to RTSn output.
 401:.\driver\src/uart_va108xx.c ****   Input:       arg  set or clear loop back
 402:.\driver\src/uart_va108xx.c ****   Input:       UART Pointer to UART resources
 403:.\driver\src/uart_va108xx.c ****   return:      execution_status
 404:.\driver\src/uart_va108xx.c **** */
 405:.\driver\src/uart_va108xx.c **** int32_t VOR_UART_LoopBack(uint32_t arg,UART_RESOURCES *UART)
 406:.\driver\src/uart_va108xx.c **** {
 1366              		.loc 1 406 0
 1367              		.cfi_startproc
 1368              		@ args = 0, pretend = 0, frame = 0
 1369              		@ frame_needed = 0, uses_anonymous_args = 0
 1370              		@ link register save eliminated.
 1371              	.LVL104:
 1372              	@ .\driver\src\uart_va108xx.c:407: 	if((UART == NULL) || (UART->reg ==NULL))
 407:.\driver\src/uart_va108xx.c **** 	if((UART == NULL) || (UART->reg ==NULL))
 1373              		.loc 1 407 0
 1374 0350 0029     		cmp	r1, #0	@ UART,
 1375 0352 11D0     		beq	.L107	@,
 1376              	@ .\driver\src\uart_va108xx.c:407: 	if((UART == NULL) || (UART->reg ==NULL))
 1377              		.loc 1 407 0 is_stmt 0 discriminator 1
 1378 0354 4B68     		ldr	r3, [r1, #4]	@ _1, UART_8(D)->reg
 1379 0356 002B     		cmp	r3, #0	@ _1,
 1380 0358 0ED0     		beq	.L107	@,
 1381              	@ .\driver\src\uart_va108xx.c:410: 	switch(arg)
 408:.\driver\src/uart_va108xx.c **** 	  return VOR_DRIVER_ERROR_PARAMETER;
 409:.\driver\src/uart_va108xx.c **** 	
 410:.\driver\src/uart_va108xx.c **** 	switch(arg)
 1382              		.loc 1 410 0 is_stmt 1
 1383 035a 0028     		cmp	r0, #0	@ arg,
 1384 035c 07D0     		beq	.L104	@,
 1385 035e 0128     		cmp	r0, #1	@ arg,
 1386 0360 0DD1     		bne	.L109	@,
 1387              	@ .\driver\src\uart_va108xx.c:412: 		case VOR_UART_CONTROL_LOOP_BACK_ENABLE:		 UART->reg->CTRL |= U
 411:.\driver\src/uart_va108xx.c **** 	{
 412:.\driver\src/uart_va108xx.c **** 		case VOR_UART_CONTROL_LOOP_BACK_ENABLE:		 UART->reg->CTRL |= UART_PERIPHERAL_CTRL_LOOPBACK_Msk; b
 1388              		.loc 1 412 0
 1389 0362 4022     		movs	r2, #64	@ tmp118,
 1390              	@ .\driver\src\uart_va108xx.c:416: 	return 0;
 413:.\driver\src/uart_va108xx.c **** 		case VOR_UART_CONTROL_LOOP_BACK_DISABLE:		 UART->reg->CTRL &= ~UART_PERIPHERAL_CTRL_LOOPBACK_Msk;
 414:.\driver\src/uart_va108xx.c ****     default:              		 return -1;
 415:.\driver\src/uart_va108xx.c **** 	}
 416:.\driver\src/uart_va108xx.c **** 	return 0;
 1391              		.loc 1 416 0
 1392 0364 0020     		movs	r0, #0	@ <retval>,
 1393              	.LVL105:
 1394              	@ .\driver\src\uart_va108xx.c:412: 		case VOR_UART_CONTROL_LOOP_BACK_ENABLE:		 UART->reg->CTRL |= U
 412:.\driver\src/uart_va108xx.c **** 		case VOR_UART_CONTROL_LOOP_BACK_DISABLE:		 UART->reg->CTRL &= ~UART_PERIPHERAL_CTRL_LOOPBACK_Msk;
 1395              		.loc 1 412 0
 1396 0366 9968     		ldr	r1, [r3, #8]	@ _2, _1->CTRL
 1397              	.LVL106:
 1398 0368 0A43     		orrs	r2, r1	@ _3, _2
 1399 036a 9A60     		str	r2, [r3, #8]	@ _3, _1->CTRL
 1400              	.L102:
 1401              	@ .\driver\src\uart_va108xx.c:417: }
 417:.\driver\src/uart_va108xx.c **** }
 1402              		.loc 1 417 0
 1403              		@ sp needed	@
ARM GAS  C:\Users\claym\AppData\Local\Temp\cc2sTfd9.s 			page 41


 1404 036c 7047     		bx	lr
 1405              	.LVL107:
 1406              	.L104:
 1407              	@ .\driver\src\uart_va108xx.c:413: 		case VOR_UART_CONTROL_LOOP_BACK_DISABLE:		 UART->reg->CTRL &= 
 413:.\driver\src/uart_va108xx.c **** 		case VOR_UART_CONTROL_LOOP_BACK_DISABLE:		 UART->reg->CTRL &= ~UART_PERIPHERAL_CTRL_LOOPBACK_Msk;
 1408              		.loc 1 413 0
 1409 036e 4021     		movs	r1, #64	@ tmp119,
 1410              	.LVL108:
 1411 0370 9A68     		ldr	r2, [r3, #8]	@ _4, _1->CTRL
 1412 0372 8A43     		bics	r2, r1	@ _5, tmp119
 1413 0374 9A60     		str	r2, [r3, #8]	@ _5, _1->CTRL
 1414 0376 F9E7     		b	.L102	@
 1415              	.LVL109:
 1416              	.L107:
 1417              	@ .\driver\src\uart_va108xx.c:408: 	  return VOR_DRIVER_ERROR_PARAMETER;
 408:.\driver\src/uart_va108xx.c **** 	
 1418              		.loc 1 408 0
 1419 0378 0520     		movs	r0, #5	@ <retval>,
 1420              	.LVL110:
 1421              	.L110:
 1422              	@ .\driver\src\uart_va108xx.c:414:     default:              		 return -1;
 414:.\driver\src/uart_va108xx.c **** 	}
 1423              		.loc 1 414 0
 1424 037a 4042     		rsbs	r0, r0, #0	@ <retval>, <retval>
 1425 037c F6E7     		b	.L102	@
 1426              	.LVL111:
 1427              	.L109:
 1428 037e 0120     		movs	r0, #1	@ <retval>,
 1429              	.LVL112:
 1430 0380 FBE7     		b	.L110	@
 1431              		.cfi_endproc
 1432              	.LFE45:
 1433              		.size	VOR_UART_LoopBack, .-VOR_UART_LoopBack
 1434              		.align	1
 1435              		.global	VOR_UART_AutoCTS
 1436              		.syntax unified
 1437              		.code	16
 1438              		.thumb_func
 1439              		.fpu softvfp
 1440              		.type	VOR_UART_AutoCTS, %function
 1441              	VOR_UART_AutoCTS:
 1442              	.LFB46:
 418:.\driver\src/uart_va108xx.c **** 
 419:.\driver\src/uart_va108xx.c **** /**
 420:.\driver\src/uart_va108xx.c ****   function:    int32_t VOR_UART_AutoCTS(uint32_t arg,UART_RESOURCES *UART)
 421:.\driver\src/uart_va108xx.c ****   brief:       Enable auto CTS Mode. When enabled the Transmitter
 422:.\driver\src/uart_va108xx.c ****                is paused if CTSn is high, and a transmit would
 423:.\driver\src/uart_va108xx.c ****                normally start
 424:.\driver\src/uart_va108xx.c ****   Input:       arg  select AutoCTS
 425:.\driver\src/uart_va108xx.c ****   Input:       UART Pointer to UART resources
 426:.\driver\src/uart_va108xx.c ****   return:      execution_status
 427:.\driver\src/uart_va108xx.c **** */
 428:.\driver\src/uart_va108xx.c **** int32_t VOR_UART_AutoCTS(uint32_t arg,UART_RESOURCES *UART)
 429:.\driver\src/uart_va108xx.c **** {
 1443              		.loc 1 429 0
 1444              		.cfi_startproc
 1445              		@ args = 0, pretend = 0, frame = 0
ARM GAS  C:\Users\claym\AppData\Local\Temp\cc2sTfd9.s 			page 42


 1446              		@ frame_needed = 0, uses_anonymous_args = 0
 1447              		@ link register save eliminated.
 1448              	.LVL113:
 1449              	@ .\driver\src\uart_va108xx.c:430: 	if((UART == NULL) || (UART->reg ==NULL))
 430:.\driver\src/uart_va108xx.c **** 	if((UART == NULL) || (UART->reg ==NULL))
 1450              		.loc 1 430 0
 1451 0382 0029     		cmp	r1, #0	@ UART,
 1452 0384 12D0     		beq	.L116	@,
 1453              	@ .\driver\src\uart_va108xx.c:430: 	if((UART == NULL) || (UART->reg ==NULL))
 1454              		.loc 1 430 0 is_stmt 0 discriminator 1
 1455 0386 4B68     		ldr	r3, [r1, #4]	@ _1, UART_8(D)->reg
 1456 0388 002B     		cmp	r3, #0	@ _1,
 1457 038a 0FD0     		beq	.L116	@,
 1458              	@ .\driver\src\uart_va108xx.c:433: 	switch(arg)
 431:.\driver\src/uart_va108xx.c **** 	  return VOR_DRIVER_ERROR_PARAMETER;
 432:.\driver\src/uart_va108xx.c **** 	
 433:.\driver\src/uart_va108xx.c **** 	switch(arg)
 1459              		.loc 1 433 0 is_stmt 1
 1460 038c 0028     		cmp	r0, #0	@ arg,
 1461 038e 08D0     		beq	.L113	@,
 1462 0390 0128     		cmp	r0, #1	@ arg,
 1463 0392 0ED1     		bne	.L118	@,
 1464              	@ .\driver\src\uart_va108xx.c:435: 		case VOR_UART_CONTROL_AUTO_CTS_ENABLE: 		UART->reg->CTRL |= UA
 434:.\driver\src/uart_va108xx.c **** 	{
 435:.\driver\src/uart_va108xx.c **** 		case VOR_UART_CONTROL_AUTO_CTS_ENABLE: 		UART->reg->CTRL |= UART_PERIPHERAL_CTRL_AUTOCTS_Msk; bre
 1465              		.loc 1 435 0
 1466 0394 8022     		movs	r2, #128	@ tmp118,
 1467              	@ .\driver\src\uart_va108xx.c:439: 	return 0;
 436:.\driver\src/uart_va108xx.c **** 		case VOR_UART_CONTROL_AUTO_CTS_DISABLE:	  UART->reg->CTRL &= ~UART_PERIPHERAL_CTRL_AUTOCTS_Msk; b
 437:.\driver\src/uart_va108xx.c ****     default:              	  return -1;
 438:.\driver\src/uart_va108xx.c **** 	}
 439:.\driver\src/uart_va108xx.c **** 	return 0;
 1468              		.loc 1 439 0
 1469 0396 0020     		movs	r0, #0	@ <retval>,
 1470              	.LVL114:
 1471              	@ .\driver\src\uart_va108xx.c:435: 		case VOR_UART_CONTROL_AUTO_CTS_ENABLE: 		UART->reg->CTRL |= UA
 435:.\driver\src/uart_va108xx.c **** 		case VOR_UART_CONTROL_AUTO_CTS_DISABLE:	  UART->reg->CTRL &= ~UART_PERIPHERAL_CTRL_AUTOCTS_Msk; b
 1472              		.loc 1 435 0
 1473 0398 9968     		ldr	r1, [r3, #8]	@ _2, _1->CTRL
 1474              	.LVL115:
 1475 039a 5200     		lsls	r2, r2, #1	@ tmp118, tmp118,
 1476 039c 0A43     		orrs	r2, r1	@ _3, _2
 1477 039e 9A60     		str	r2, [r3, #8]	@ _3, _1->CTRL
 1478              	.L111:
 1479              	@ .\driver\src\uart_va108xx.c:440: }
 440:.\driver\src/uart_va108xx.c **** }
 1480              		.loc 1 440 0
 1481              		@ sp needed	@
 1482 03a0 7047     		bx	lr
 1483              	.LVL116:
 1484              	.L113:
 1485              	@ .\driver\src\uart_va108xx.c:436: 		case VOR_UART_CONTROL_AUTO_CTS_DISABLE:	  UART->reg->CTRL &= ~
 436:.\driver\src/uart_va108xx.c **** 		case VOR_UART_CONTROL_AUTO_CTS_DISABLE:	  UART->reg->CTRL &= ~UART_PERIPHERAL_CTRL_AUTOCTS_Msk; b
 1486              		.loc 1 436 0
 1487 03a2 9A68     		ldr	r2, [r3, #8]	@ _4, _1->CTRL
 1488 03a4 0449     		ldr	r1, .L120	@ tmp119,
 1489              	.LVL117:
ARM GAS  C:\Users\claym\AppData\Local\Temp\cc2sTfd9.s 			page 43


 1490 03a6 0A40     		ands	r2, r1	@ _5, tmp119
 1491 03a8 9A60     		str	r2, [r3, #8]	@ _5, _1->CTRL
 1492 03aa F9E7     		b	.L111	@
 1493              	.LVL118:
 1494              	.L116:
 1495              	@ .\driver\src\uart_va108xx.c:431: 	  return VOR_DRIVER_ERROR_PARAMETER;
 431:.\driver\src/uart_va108xx.c **** 	
 1496              		.loc 1 431 0
 1497 03ac 0520     		movs	r0, #5	@ <retval>,
 1498              	.LVL119:
 1499              	.L119:
 1500              	@ .\driver\src\uart_va108xx.c:437:     default:              	  return -1;
 437:.\driver\src/uart_va108xx.c **** 	}
 1501              		.loc 1 437 0
 1502 03ae 4042     		rsbs	r0, r0, #0	@ <retval>, <retval>
 1503 03b0 F6E7     		b	.L111	@
 1504              	.LVL120:
 1505              	.L118:
 1506 03b2 0120     		movs	r0, #1	@ <retval>,
 1507              	.LVL121:
 1508 03b4 FBE7     		b	.L119	@
 1509              	.L121:
 1510 03b6 C046     		.align	2
 1511              	.L120:
 1512 03b8 FFFEFFFF 		.word	-257
 1513              		.cfi_endproc
 1514              	.LFE46:
 1515              		.size	VOR_UART_AutoCTS, .-VOR_UART_AutoCTS
 1516              		.align	1
 1517              		.global	VOR_UART_DEFRTS
 1518              		.syntax unified
 1519              		.code	16
 1520              		.thumb_func
 1521              		.fpu softvfp
 1522              		.type	VOR_UART_DEFRTS, %function
 1523              	VOR_UART_DEFRTS:
 1524              	.LFB47:
 441:.\driver\src/uart_va108xx.c **** 
 442:.\driver\src/uart_va108xx.c **** /**
 443:.\driver\src/uart_va108xx.c ****   function:    int32_t VOR_UART_DEFRTS(uint32_t arg,UART_RESOURCES *UART)
 444:.\driver\src/uart_va108xx.c ****   brief:       This specifies the value for the RTSn signal when AUTORTS is not enabled or when the
 445:.\driver\src/uart_va108xx.c ****   Input:       arg  select DEFRTS
 446:.\driver\src/uart_va108xx.c ****   Input:       UART Pointer to UART resources
 447:.\driver\src/uart_va108xx.c ****   return:      execution_status
 448:.\driver\src/uart_va108xx.c **** */
 449:.\driver\src/uart_va108xx.c **** int32_t VOR_UART_DEFRTS(uint32_t arg,UART_RESOURCES *UART)
 450:.\driver\src/uart_va108xx.c **** {
 1525              		.loc 1 450 0
 1526              		.cfi_startproc
 1527              		@ args = 0, pretend = 0, frame = 0
 1528              		@ frame_needed = 0, uses_anonymous_args = 0
 1529              		@ link register save eliminated.
 1530              	.LVL122:
 1531              	@ .\driver\src\uart_va108xx.c:451: 	if((UART == NULL) || (UART->reg ==NULL))
 451:.\driver\src/uart_va108xx.c **** 	if((UART == NULL) || (UART->reg ==NULL))
 1532              		.loc 1 451 0
 1533 03bc 0029     		cmp	r1, #0	@ UART,
ARM GAS  C:\Users\claym\AppData\Local\Temp\cc2sTfd9.s 			page 44


 1534 03be 12D0     		beq	.L127	@,
 1535              	@ .\driver\src\uart_va108xx.c:451: 	if((UART == NULL) || (UART->reg ==NULL))
 1536              		.loc 1 451 0 is_stmt 0 discriminator 1
 1537 03c0 4B68     		ldr	r3, [r1, #4]	@ _1, UART_8(D)->reg
 1538 03c2 002B     		cmp	r3, #0	@ _1,
 1539 03c4 0FD0     		beq	.L127	@,
 1540              	@ .\driver\src\uart_va108xx.c:454: 	switch(arg)
 452:.\driver\src/uart_va108xx.c **** 	  return VOR_DRIVER_ERROR_PARAMETER;
 453:.\driver\src/uart_va108xx.c **** 	
 454:.\driver\src/uart_va108xx.c **** 	switch(arg)
 1541              		.loc 1 454 0 is_stmt 1
 1542 03c6 0028     		cmp	r0, #0	@ arg,
 1543 03c8 08D0     		beq	.L124	@,
 1544 03ca 0128     		cmp	r0, #1	@ arg,
 1545 03cc 0ED1     		bne	.L129	@,
 1546              	@ .\driver\src\uart_va108xx.c:456: 		case VOR_UART_CONTROL_DEFRTS_ENABLE:   UART->reg->CTRL |= UART
 455:.\driver\src/uart_va108xx.c **** 	{
 456:.\driver\src/uart_va108xx.c **** 		case VOR_UART_CONTROL_DEFRTS_ENABLE:   UART->reg->CTRL |= UART_PERIPHERAL_CTRL_DEFRTS_Msk; break;
 1547              		.loc 1 456 0
 1548 03ce 8022     		movs	r2, #128	@ tmp118,
 1549              	@ .\driver\src\uart_va108xx.c:460: 	return 0;
 457:.\driver\src/uart_va108xx.c **** 		case VOR_UART_CONTROL_DEFRTS_DISABLE:  UART->reg->CTRL &= ~UART_PERIPHERAL_CTRL_DEFRTS_Msk; break
 458:.\driver\src/uart_va108xx.c **** 		default:              return -1;
 459:.\driver\src/uart_va108xx.c **** 	}
 460:.\driver\src/uart_va108xx.c **** 	return 0;
 1550              		.loc 1 460 0
 1551 03d0 0020     		movs	r0, #0	@ <retval>,
 1552              	.LVL123:
 1553              	@ .\driver\src\uart_va108xx.c:456: 		case VOR_UART_CONTROL_DEFRTS_ENABLE:   UART->reg->CTRL |= UART
 456:.\driver\src/uart_va108xx.c **** 		case VOR_UART_CONTROL_DEFRTS_DISABLE:  UART->reg->CTRL &= ~UART_PERIPHERAL_CTRL_DEFRTS_Msk; break
 1554              		.loc 1 456 0
 1555 03d2 9968     		ldr	r1, [r3, #8]	@ _2, _1->CTRL
 1556              	.LVL124:
 1557 03d4 9200     		lsls	r2, r2, #2	@ tmp118, tmp118,
 1558 03d6 0A43     		orrs	r2, r1	@ _3, _2
 1559 03d8 9A60     		str	r2, [r3, #8]	@ _3, _1->CTRL
 1560              	.L122:
 1561              	@ .\driver\src\uart_va108xx.c:461: }
 461:.\driver\src/uart_va108xx.c **** }
 1562              		.loc 1 461 0
 1563              		@ sp needed	@
 1564 03da 7047     		bx	lr
 1565              	.LVL125:
 1566              	.L124:
 1567              	@ .\driver\src\uart_va108xx.c:457: 		case VOR_UART_CONTROL_DEFRTS_DISABLE:  UART->reg->CTRL &= ~UAR
 457:.\driver\src/uart_va108xx.c **** 		case VOR_UART_CONTROL_DEFRTS_DISABLE:  UART->reg->CTRL &= ~UART_PERIPHERAL_CTRL_DEFRTS_Msk; break
 1568              		.loc 1 457 0
 1569 03dc 9A68     		ldr	r2, [r3, #8]	@ _4, _1->CTRL
 1570 03de 0449     		ldr	r1, .L131	@ tmp119,
 1571              	.LVL126:
 1572 03e0 0A40     		ands	r2, r1	@ _5, tmp119
 1573 03e2 9A60     		str	r2, [r3, #8]	@ _5, _1->CTRL
 1574 03e4 F9E7     		b	.L122	@
 1575              	.LVL127:
 1576              	.L127:
 1577              	@ .\driver\src\uart_va108xx.c:452: 	  return VOR_DRIVER_ERROR_PARAMETER;
 452:.\driver\src/uart_va108xx.c **** 	
ARM GAS  C:\Users\claym\AppData\Local\Temp\cc2sTfd9.s 			page 45


 1578              		.loc 1 452 0
 1579 03e6 0520     		movs	r0, #5	@ <retval>,
 1580              	.LVL128:
 1581              	.L130:
 1582              	@ .\driver\src\uart_va108xx.c:458: 		default:              return -1;
 458:.\driver\src/uart_va108xx.c **** 	}
 1583              		.loc 1 458 0
 1584 03e8 4042     		rsbs	r0, r0, #0	@ <retval>, <retval>
 1585 03ea F6E7     		b	.L122	@
 1586              	.LVL129:
 1587              	.L129:
 1588 03ec 0120     		movs	r0, #1	@ <retval>,
 1589              	.LVL130:
 1590 03ee FBE7     		b	.L130	@
 1591              	.L132:
 1592              		.align	2
 1593              	.L131:
 1594 03f0 FFFDFFFF 		.word	-513
 1595              		.cfi_endproc
 1596              	.LFE47:
 1597              		.size	VOR_UART_DEFRTS, .-VOR_UART_DEFRTS
 1598              		.align	1
 1599              		.global	VOR_UART_AutoRTS
 1600              		.syntax unified
 1601              		.code	16
 1602              		.thumb_func
 1603              		.fpu softvfp
 1604              		.type	VOR_UART_AutoRTS, %function
 1605              	VOR_UART_AutoRTS:
 1606              	.LFB48:
 462:.\driver\src/uart_va108xx.c **** 
 463:.\driver\src/uart_va108xx.c **** /**
 464:.\driver\src/uart_va108xx.c ****   function:    int32_t VOR_UART_AutoRTS(uint32_t arg,UART_RESOURCES *UART)
 465:.\driver\src/uart_va108xx.c ****   brief:       Enable or disable AutoRTS mode
 466:.\driver\src/uart_va108xx.c ****   Input:       arg  select AutoRTS
 467:.\driver\src/uart_va108xx.c ****   Input:       UART Pointer to UART resources
 468:.\driver\src/uart_va108xx.c ****   return:      execution_status
 469:.\driver\src/uart_va108xx.c **** */
 470:.\driver\src/uart_va108xx.c **** int32_t VOR_UART_AutoRTS(uint32_t arg,UART_RESOURCES *UART)
 471:.\driver\src/uart_va108xx.c **** {
 1607              		.loc 1 471 0
 1608              		.cfi_startproc
 1609              		@ args = 0, pretend = 0, frame = 0
 1610              		@ frame_needed = 0, uses_anonymous_args = 0
 1611              		@ link register save eliminated.
 1612              	.LVL131:
 1613              	@ .\driver\src\uart_va108xx.c:472: 	if((UART == NULL) || (UART->reg ==NULL))
 472:.\driver\src/uart_va108xx.c **** 	if((UART == NULL) || (UART->reg ==NULL))
 1614              		.loc 1 472 0
 1615 03f4 0029     		cmp	r1, #0	@ UART,
 1616 03f6 12D0     		beq	.L138	@,
 1617              	@ .\driver\src\uart_va108xx.c:472: 	if((UART == NULL) || (UART->reg ==NULL))
 1618              		.loc 1 472 0 is_stmt 0 discriminator 1
 1619 03f8 4B68     		ldr	r3, [r1, #4]	@ _1, UART_8(D)->reg
 1620 03fa 002B     		cmp	r3, #0	@ _1,
 1621 03fc 0FD0     		beq	.L138	@,
 1622              	@ .\driver\src\uart_va108xx.c:475: 	switch(arg)
ARM GAS  C:\Users\claym\AppData\Local\Temp\cc2sTfd9.s 			page 46


 473:.\driver\src/uart_va108xx.c **** 	  return VOR_DRIVER_ERROR_PARAMETER;
 474:.\driver\src/uart_va108xx.c **** 	
 475:.\driver\src/uart_va108xx.c **** 	switch(arg)
 1623              		.loc 1 475 0 is_stmt 1
 1624 03fe 0028     		cmp	r0, #0	@ arg,
 1625 0400 08D0     		beq	.L135	@,
 1626 0402 0128     		cmp	r0, #1	@ arg,
 1627 0404 0ED1     		bne	.L140	@,
 1628              	@ .\driver\src\uart_va108xx.c:477: 		case VOR_UART_CONTROL_AUTORTS_ENABLE:  UART->reg->CTRL |= UART
 476:.\driver\src/uart_va108xx.c **** 	{
 477:.\driver\src/uart_va108xx.c **** 		case VOR_UART_CONTROL_AUTORTS_ENABLE:  UART->reg->CTRL |= UART_PERIPHERAL_CTRL_AUTORTS_Msk; break
 1629              		.loc 1 477 0
 1630 0406 8022     		movs	r2, #128	@ tmp118,
 1631              	@ .\driver\src\uart_va108xx.c:481: 	return 0;
 478:.\driver\src/uart_va108xx.c **** 		case VOR_UART_CONTROL_AUTORTS_DISABLE: UART->reg->CTRL &= ~UART_PERIPHERAL_CTRL_AUTORTS_Msk; brea
 479:.\driver\src/uart_va108xx.c ****     default:              return -1;
 480:.\driver\src/uart_va108xx.c **** 	}
 481:.\driver\src/uart_va108xx.c **** 	return 0;
 1632              		.loc 1 481 0
 1633 0408 0020     		movs	r0, #0	@ <retval>,
 1634              	.LVL132:
 1635              	@ .\driver\src\uart_va108xx.c:477: 		case VOR_UART_CONTROL_AUTORTS_ENABLE:  UART->reg->CTRL |= UART
 477:.\driver\src/uart_va108xx.c **** 		case VOR_UART_CONTROL_AUTORTS_DISABLE: UART->reg->CTRL &= ~UART_PERIPHERAL_CTRL_AUTORTS_Msk; brea
 1636              		.loc 1 477 0
 1637 040a 9968     		ldr	r1, [r3, #8]	@ _2, _1->CTRL
 1638              	.LVL133:
 1639 040c D200     		lsls	r2, r2, #3	@ tmp118, tmp118,
 1640 040e 0A43     		orrs	r2, r1	@ _3, _2
 1641 0410 9A60     		str	r2, [r3, #8]	@ _3, _1->CTRL
 1642              	.L133:
 1643              	@ .\driver\src\uart_va108xx.c:482: }
 482:.\driver\src/uart_va108xx.c **** }
 1644              		.loc 1 482 0
 1645              		@ sp needed	@
 1646 0412 7047     		bx	lr
 1647              	.LVL134:
 1648              	.L135:
 1649              	@ .\driver\src\uart_va108xx.c:478: 		case VOR_UART_CONTROL_AUTORTS_DISABLE: UART->reg->CTRL &= ~UAR
 478:.\driver\src/uart_va108xx.c **** 		case VOR_UART_CONTROL_AUTORTS_DISABLE: UART->reg->CTRL &= ~UART_PERIPHERAL_CTRL_AUTORTS_Msk; brea
 1650              		.loc 1 478 0
 1651 0414 9A68     		ldr	r2, [r3, #8]	@ _4, _1->CTRL
 1652 0416 0449     		ldr	r1, .L142	@ tmp119,
 1653              	.LVL135:
 1654 0418 0A40     		ands	r2, r1	@ _5, tmp119
 1655 041a 9A60     		str	r2, [r3, #8]	@ _5, _1->CTRL
 1656 041c F9E7     		b	.L133	@
 1657              	.LVL136:
 1658              	.L138:
 1659              	@ .\driver\src\uart_va108xx.c:473: 	  return VOR_DRIVER_ERROR_PARAMETER;
 473:.\driver\src/uart_va108xx.c **** 	
 1660              		.loc 1 473 0
 1661 041e 0520     		movs	r0, #5	@ <retval>,
 1662              	.LVL137:
 1663              	.L141:
 1664              	@ .\driver\src\uart_va108xx.c:479:     default:              return -1;
 479:.\driver\src/uart_va108xx.c **** 	}
 1665              		.loc 1 479 0
ARM GAS  C:\Users\claym\AppData\Local\Temp\cc2sTfd9.s 			page 47


 1666 0420 4042     		rsbs	r0, r0, #0	@ <retval>, <retval>
 1667 0422 F6E7     		b	.L133	@
 1668              	.LVL138:
 1669              	.L140:
 1670 0424 0120     		movs	r0, #1	@ <retval>,
 1671              	.LVL139:
 1672 0426 FBE7     		b	.L141	@
 1673              	.L143:
 1674              		.align	2
 1675              	.L142:
 1676 0428 FFFBFFFF 		.word	-1025
 1677              		.cfi_endproc
 1678              	.LFE48:
 1679              		.size	VOR_UART_AutoRTS, .-VOR_UART_AutoRTS
 1680              		.align	1
 1681              		.global	VOR_UART_TX
 1682              		.syntax unified
 1683              		.code	16
 1684              		.thumb_func
 1685              		.fpu softvfp
 1686              		.type	VOR_UART_TX, %function
 1687              	VOR_UART_TX:
 1688              	.LFB49:
 483:.\driver\src/uart_va108xx.c **** 
 484:.\driver\src/uart_va108xx.c **** /**
 485:.\driver\src/uart_va108xx.c ****   function:    int32_t VOR_UART_TX(uint32_t arg,UART_RESOURCES *UART)
 486:.\driver\src/uart_va108xx.c ****   brief:       Enable or disable UART transmission
 487:.\driver\src/uart_va108xx.c ****   Input:       arg  set or clear TX of UART
 488:.\driver\src/uart_va108xx.c ****   Input:       UART Pointer to UART resources
 489:.\driver\src/uart_va108xx.c ****   return:      execution_status
 490:.\driver\src/uart_va108xx.c **** */
 491:.\driver\src/uart_va108xx.c **** int32_t VOR_UART_TX(uint32_t arg,UART_RESOURCES *UART)
 492:.\driver\src/uart_va108xx.c **** {
 1689              		.loc 1 492 0
 1690              		.cfi_startproc
 1691              		@ args = 0, pretend = 0, frame = 0
 1692              		@ frame_needed = 0, uses_anonymous_args = 0
 1693              		@ link register save eliminated.
 1694              	.LVL140:
 1695              	@ .\driver\src\uart_va108xx.c:493: 	if((UART == NULL) || (UART->reg ==NULL))
 493:.\driver\src/uart_va108xx.c **** 	if((UART == NULL) || (UART->reg ==NULL))
 1696              		.loc 1 493 0
 1697 042c 0029     		cmp	r1, #0	@ UART,
 1698 042e 11D0     		beq	.L149	@,
 1699              	@ .\driver\src\uart_va108xx.c:493: 	if((UART == NULL) || (UART->reg ==NULL))
 1700              		.loc 1 493 0 is_stmt 0 discriminator 1
 1701 0430 4B68     		ldr	r3, [r1, #4]	@ _1, UART_8(D)->reg
 1702 0432 002B     		cmp	r3, #0	@ _1,
 1703 0434 0ED0     		beq	.L149	@,
 1704              	@ .\driver\src\uart_va108xx.c:496: 	switch(arg)
 494:.\driver\src/uart_va108xx.c **** 	  return VOR_DRIVER_ERROR_PARAMETER;
 495:.\driver\src/uart_va108xx.c **** 	
 496:.\driver\src/uart_va108xx.c **** 	switch(arg)
 1705              		.loc 1 496 0 is_stmt 1
 1706 0436 0028     		cmp	r0, #0	@ arg,
 1707 0438 07D0     		beq	.L146	@,
 1708 043a 0128     		cmp	r0, #1	@ arg,
ARM GAS  C:\Users\claym\AppData\Local\Temp\cc2sTfd9.s 			page 48


 1709 043c 0DD1     		bne	.L151	@,
 1710              	@ .\driver\src\uart_va108xx.c:498: 		case VOR_UART_CONTROL_TX_ENABLE:       UART->reg->ENABLE |= UA
 497:.\driver\src/uart_va108xx.c **** 	{
 498:.\driver\src/uart_va108xx.c **** 		case VOR_UART_CONTROL_TX_ENABLE:       UART->reg->ENABLE |= UART_PERIPHERAL_ENABLE_TXENABLE_Msk; 
 1711              		.loc 1 498 0
 1712 043e 0222     		movs	r2, #2	@ tmp118,
 1713              	@ .\driver\src\uart_va108xx.c:502: 	return 0;
 499:.\driver\src/uart_va108xx.c **** 		case VOR_UART_CONTROL_TX_DISABLE:      UART->reg->ENABLE &= ~UART_PERIPHERAL_ENABLE_TXENABLE_Msk;
 500:.\driver\src/uart_va108xx.c ****     default:              return -1;
 501:.\driver\src/uart_va108xx.c **** 	}
 502:.\driver\src/uart_va108xx.c **** 	return 0;
 1714              		.loc 1 502 0
 1715 0440 0020     		movs	r0, #0	@ <retval>,
 1716              	.LVL141:
 1717              	@ .\driver\src\uart_va108xx.c:498: 		case VOR_UART_CONTROL_TX_ENABLE:       UART->reg->ENABLE |= UA
 498:.\driver\src/uart_va108xx.c **** 		case VOR_UART_CONTROL_TX_DISABLE:      UART->reg->ENABLE &= ~UART_PERIPHERAL_ENABLE_TXENABLE_Msk;
 1718              		.loc 1 498 0
 1719 0442 5968     		ldr	r1, [r3, #4]	@ _2, _1->ENABLE
 1720              	.LVL142:
 1721 0444 0A43     		orrs	r2, r1	@ _3, _2
 1722 0446 5A60     		str	r2, [r3, #4]	@ _3, _1->ENABLE
 1723              	.L144:
 1724              	@ .\driver\src\uart_va108xx.c:503: }
 503:.\driver\src/uart_va108xx.c **** }
 1725              		.loc 1 503 0
 1726              		@ sp needed	@
 1727 0448 7047     		bx	lr
 1728              	.LVL143:
 1729              	.L146:
 1730              	@ .\driver\src\uart_va108xx.c:499: 		case VOR_UART_CONTROL_TX_DISABLE:      UART->reg->ENABLE &= ~U
 499:.\driver\src/uart_va108xx.c **** 		case VOR_UART_CONTROL_TX_DISABLE:      UART->reg->ENABLE &= ~UART_PERIPHERAL_ENABLE_TXENABLE_Msk;
 1731              		.loc 1 499 0
 1732 044a 0221     		movs	r1, #2	@ tmp119,
 1733              	.LVL144:
 1734 044c 5A68     		ldr	r2, [r3, #4]	@ _4, _1->ENABLE
 1735 044e 8A43     		bics	r2, r1	@ _5, tmp119
 1736 0450 5A60     		str	r2, [r3, #4]	@ _5, _1->ENABLE
 1737 0452 F9E7     		b	.L144	@
 1738              	.LVL145:
 1739              	.L149:
 1740              	@ .\driver\src\uart_va108xx.c:494: 	  return VOR_DRIVER_ERROR_PARAMETER;
 494:.\driver\src/uart_va108xx.c **** 	
 1741              		.loc 1 494 0
 1742 0454 0520     		movs	r0, #5	@ <retval>,
 1743              	.LVL146:
 1744              	.L152:
 1745              	@ .\driver\src\uart_va108xx.c:500:     default:              return -1;
 500:.\driver\src/uart_va108xx.c **** 	}
 1746              		.loc 1 500 0
 1747 0456 4042     		rsbs	r0, r0, #0	@ <retval>, <retval>
 1748 0458 F6E7     		b	.L144	@
 1749              	.LVL147:
 1750              	.L151:
 1751 045a 0120     		movs	r0, #1	@ <retval>,
 1752              	.LVL148:
 1753 045c FBE7     		b	.L152	@
 1754              		.cfi_endproc
ARM GAS  C:\Users\claym\AppData\Local\Temp\cc2sTfd9.s 			page 49


 1755              	.LFE49:
 1756              		.size	VOR_UART_TX, .-VOR_UART_TX
 1757              		.align	1
 1758              		.global	VOR_UART_RX
 1759              		.syntax unified
 1760              		.code	16
 1761              		.thumb_func
 1762              		.fpu softvfp
 1763              		.type	VOR_UART_RX, %function
 1764              	VOR_UART_RX:
 1765              	.LFB50:
 504:.\driver\src/uart_va108xx.c **** 
 505:.\driver\src/uart_va108xx.c **** /**
 506:.\driver\src/uart_va108xx.c ****   function:    int32_t VOR_UART_RX(uint32_t arg,UART_RESOURCES *UART)
 507:.\driver\src/uart_va108xx.c ****   brief:       Enable or disable UART receiver
 508:.\driver\src/uart_va108xx.c ****   Input:       arg  set or clear RX of UART
 509:.\driver\src/uart_va108xx.c ****   Input:       UART Pointer to UART resources
 510:.\driver\src/uart_va108xx.c ****   return:      execution_status
 511:.\driver\src/uart_va108xx.c **** */
 512:.\driver\src/uart_va108xx.c **** int32_t VOR_UART_RX(uint32_t arg,UART_RESOURCES *UART)
 513:.\driver\src/uart_va108xx.c **** {
 1766              		.loc 1 513 0
 1767              		.cfi_startproc
 1768              		@ args = 0, pretend = 0, frame = 0
 1769              		@ frame_needed = 0, uses_anonymous_args = 0
 1770              		@ link register save eliminated.
 1771              	.LVL149:
 1772              	@ .\driver\src\uart_va108xx.c:514: 	if((UART == NULL) || (UART->reg ==NULL))
 514:.\driver\src/uart_va108xx.c **** 	if((UART == NULL) || (UART->reg ==NULL))
 1773              		.loc 1 514 0
 1774 045e 0029     		cmp	r1, #0	@ UART,
 1775 0460 10D0     		beq	.L158	@,
 1776              	@ .\driver\src\uart_va108xx.c:514: 	if((UART == NULL) || (UART->reg ==NULL))
 1777              		.loc 1 514 0 is_stmt 0 discriminator 1
 1778 0462 4B68     		ldr	r3, [r1, #4]	@ _1, UART_8(D)->reg
 1779 0464 002B     		cmp	r3, #0	@ _1,
 1780 0466 0DD0     		beq	.L158	@,
 1781              	@ .\driver\src\uart_va108xx.c:517: 	switch(arg)
 515:.\driver\src/uart_va108xx.c **** 	  return VOR_DRIVER_ERROR_PARAMETER;
 516:.\driver\src/uart_va108xx.c **** 	
 517:.\driver\src/uart_va108xx.c **** 	switch(arg)
 1782              		.loc 1 517 0 is_stmt 1
 1783 0468 0028     		cmp	r0, #0	@ arg,
 1784 046a 06D0     		beq	.L155	@,
 1785 046c 0128     		cmp	r0, #1	@ arg,
 1786 046e 0CD1     		bne	.L160	@,
 1787              	@ .\driver\src\uart_va108xx.c:519: 		case VOR_UART_CONTROL_RX_ENABLE: 			UART->reg->ENABLE |= UART_
 518:.\driver\src/uart_va108xx.c **** 	{
 519:.\driver\src/uart_va108xx.c **** 		case VOR_UART_CONTROL_RX_ENABLE: 			UART->reg->ENABLE |= UART_PERIPHERAL_ENABLE_RXENABLE_Msk; bre
 1788              		.loc 1 519 0
 1789 0470 5A68     		ldr	r2, [r3, #4]	@ _2, _1->ENABLE
 1790 0472 1043     		orrs	r0, r2	@ _3, _2
 1791              	.LVL150:
 1792 0474 5860     		str	r0, [r3, #4]	@ _3, _1->ENABLE
 1793              	@ .\driver\src\uart_va108xx.c:523: 	return 0;
 520:.\driver\src/uart_va108xx.c **** 		case VOR_UART_CONTROL_RX_DISABLE:			UART->reg->ENABLE &= ~UART_PERIPHERAL_ENABLE_RXENABLE_Msk; br
 521:.\driver\src/uart_va108xx.c **** 	  default:              return -1;
ARM GAS  C:\Users\claym\AppData\Local\Temp\cc2sTfd9.s 			page 50


 522:.\driver\src/uart_va108xx.c **** 	}
 523:.\driver\src/uart_va108xx.c **** 	return 0;
 1794              		.loc 1 523 0
 1795 0476 0020     		movs	r0, #0	@ <retval>,
 1796              	.LVL151:
 1797              	.L153:
 1798              	@ .\driver\src\uart_va108xx.c:524: }
 524:.\driver\src/uart_va108xx.c **** }
 1799              		.loc 1 524 0
 1800              		@ sp needed	@
 1801 0478 7047     		bx	lr
 1802              	.LVL152:
 1803              	.L155:
 1804              	@ .\driver\src\uart_va108xx.c:520: 		case VOR_UART_CONTROL_RX_DISABLE:			UART->reg->ENABLE &= ~UART
 520:.\driver\src/uart_va108xx.c **** 		case VOR_UART_CONTROL_RX_DISABLE:			UART->reg->ENABLE &= ~UART_PERIPHERAL_ENABLE_RXENABLE_Msk; br
 1805              		.loc 1 520 0
 1806 047a 0121     		movs	r1, #1	@ tmp119,
 1807              	.LVL153:
 1808 047c 5A68     		ldr	r2, [r3, #4]	@ _4, _1->ENABLE
 1809 047e 8A43     		bics	r2, r1	@ _5, tmp119
 1810 0480 5A60     		str	r2, [r3, #4]	@ _5, _1->ENABLE
 1811 0482 F9E7     		b	.L153	@
 1812              	.LVL154:
 1813              	.L158:
 1814              	@ .\driver\src\uart_va108xx.c:515: 	  return VOR_DRIVER_ERROR_PARAMETER;
 515:.\driver\src/uart_va108xx.c **** 	
 1815              		.loc 1 515 0
 1816 0484 0520     		movs	r0, #5	@ <retval>,
 1817              	.LVL155:
 1818              	.L161:
 1819              	@ .\driver\src\uart_va108xx.c:521: 	  default:              return -1;
 521:.\driver\src/uart_va108xx.c **** 	}
 1820              		.loc 1 521 0
 1821 0486 4042     		rsbs	r0, r0, #0	@ <retval>, <retval>
 1822 0488 F6E7     		b	.L153	@
 1823              	.LVL156:
 1824              	.L160:
 1825 048a 0120     		movs	r0, #1	@ <retval>,
 1826              	.LVL157:
 1827 048c FBE7     		b	.L161	@
 1828              		.cfi_endproc
 1829              	.LFE50:
 1830              		.size	VOR_UART_RX, .-VOR_UART_RX
 1831              		.align	1
 1832              		.global	VOR_UART_Break
 1833              		.syntax unified
 1834              		.code	16
 1835              		.thumb_func
 1836              		.fpu softvfp
 1837              		.type	VOR_UART_Break, %function
 1838              	VOR_UART_Break:
 1839              	.LFB51:
 525:.\driver\src/uart_va108xx.c **** 
 526:.\driver\src/uart_va108xx.c **** /**
 527:.\driver\src/uart_va108xx.c ****   function:    int32_t VOR_UART_Break(uint32_t arg,UART_RESOURCES *UART)
 528:.\driver\src/uart_va108xx.c ****   brief:       The TXBREAK register provides a method of transmitting a break.
 529:.\driver\src/uart_va108xx.c ****   Input:       arg  Specifies the break duration 
ARM GAS  C:\Users\claym\AppData\Local\Temp\cc2sTfd9.s 			page 51


 530:.\driver\src/uart_va108xx.c ****   Input:       UART Pointer to UART resources
 531:.\driver\src/uart_va108xx.c ****   return:      execution_status
 532:.\driver\src/uart_va108xx.c **** */
 533:.\driver\src/uart_va108xx.c **** int32_t VOR_UART_Break(int32_t arg,UART_RESOURCES *UART)
 534:.\driver\src/uart_va108xx.c **** {
 1840              		.loc 1 534 0
 1841              		.cfi_startproc
 1842              		@ args = 0, pretend = 0, frame = 0
 1843              		@ frame_needed = 0, uses_anonymous_args = 0
 1844              		@ link register save eliminated.
 1845              	.LVL158:
 1846              	@ .\driver\src\uart_va108xx.c:535: 	if((UART == NULL) || (UART->reg ==NULL))
 535:.\driver\src/uart_va108xx.c **** 	if((UART == NULL) || (UART->reg ==NULL))
 1847              		.loc 1 535 0
 1848 048e 0029     		cmp	r1, #0	@ UART,
 1849 0490 16D0     		beq	.L168	@,
 1850              	@ .\driver\src\uart_va108xx.c:535: 	if((UART == NULL) || (UART->reg ==NULL))
 1851              		.loc 1 535 0 is_stmt 0 discriminator 1
 1852 0492 4B68     		ldr	r3, [r1, #4]	@ _1, UART_13(D)->reg
 1853 0494 002B     		cmp	r3, #0	@ _1,
 1854 0496 13D0     		beq	.L168	@,
 1855              	@ .\driver\src\uart_va108xx.c:538: 	if(arg >= 0 && arg<=0x7F)
 536:.\driver\src/uart_va108xx.c **** 	  return VOR_DRIVER_ERROR_PARAMETER;
 537:.\driver\src/uart_va108xx.c **** 	
 538:.\driver\src/uart_va108xx.c **** 	if(arg >= 0 && arg<=0x7F)
 1856              		.loc 1 538 0 is_stmt 1
 1857 0498 7F28     		cmp	r0, #127	@ arg,
 1858 049a 14D8     		bhi	.L169	@,
 1859              	@ .\driver\src\uart_va108xx.c:543: 		  case VOR_UART_CONTROL_BREAK_RESET:                UART->reg-
 539:.\driver\src/uart_va108xx.c **** 	{
 540:.\driver\src/uart_va108xx.c **** 	  switch(arg)
 541:.\driver\src/uart_va108xx.c **** 	  {
 542:.\driver\src/uart_va108xx.c **** 	  	case VOR_UART_CONTROL_BREAK_CONTINOUS_COUNT:      UART->reg->TXBREAK   |=  (VOR_UART_CONTROL_BR
 543:.\driver\src/uart_va108xx.c **** 		  case VOR_UART_CONTROL_BREAK_RESET:                UART->reg->TXBREAK   &=  ~(VOR_UART_CONTROL_B
 1860              		.loc 1 543 0
 1861 049c DA69     		ldr	r2, [r3, #28]	@ _5,
 1862              	@ .\driver\src\uart_va108xx.c:540: 	  switch(arg)
 540:.\driver\src/uart_va108xx.c **** 	  {
 1863              		.loc 1 540 0
 1864 049e 0028     		cmp	r0, #0	@ arg,
 1865 04a0 05D0     		beq	.L165	@,
 1866 04a2 7F28     		cmp	r0, #127	@ arg,
 1867 04a4 07D1     		bne	.L170	@,
 1868              	.LVL159:
 1869              	.L171:
 1870              	@ .\driver\src\uart_va108xx.c:545: 	                                	   UART->reg->TXBREAK   |=  (a
 544:.\driver\src/uart_va108xx.c **** 		  default :                        UART->reg->TXBREAK   &=  ~(VOR_UART_CONTROL_BREAK_CONTINOUS_CO
 545:.\driver\src/uart_va108xx.c **** 	                                	   UART->reg->TXBREAK   |=  (arg<<UART_BREAK_BIT);  break;
 1871              		.loc 1 545 0
 1872 04a6 1043     		orrs	r0, r2	@ _10, _9
 1873              	.LVL160:
 1874 04a8 D861     		str	r0, [r3, #28]	@ _10,
 1875              	@ .\driver\src\uart_va108xx.c:547: 	return 0;
 546:.\driver\src/uart_va108xx.c **** 	   }
 547:.\driver\src/uart_va108xx.c **** 	return 0;
 1876              		.loc 1 547 0
 1877 04aa 0020     		movs	r0, #0	@ arg,
ARM GAS  C:\Users\claym\AppData\Local\Temp\cc2sTfd9.s 			page 52


 1878              	@ .\driver\src\uart_va108xx.c:545: 	                                	   UART->reg->TXBREAK   |=  (a
 545:.\driver\src/uart_va108xx.c **** 	   }
 1879              		.loc 1 545 0
 1880 04ac 02E0     		b	.L163	@
 1881              	.LVL161:
 1882              	.L165:
 1883              	@ .\driver\src\uart_va108xx.c:543: 		  case VOR_UART_CONTROL_BREAK_RESET:                UART->reg-
 543:.\driver\src/uart_va108xx.c **** 		  default :                        UART->reg->TXBREAK   &=  ~(VOR_UART_CONTROL_BREAK_CONTINOUS_CO
 1884              		.loc 1 543 0
 1885 04ae 7F21     		movs	r1, #127	@ tmp124,
 1886              	.LVL162:
 1887 04b0 8A43     		bics	r2, r1	@ _6, tmp124
 1888 04b2 DA61     		str	r2, [r3, #28]	@ _6, _1->TXBREAK
 1889              	.LVL163:
 1890              	.L163:
 1891              	@ .\driver\src\uart_va108xx.c:551: }
 548:.\driver\src/uart_va108xx.c ****   }
 549:.\driver\src/uart_va108xx.c ****   else 
 550:.\driver\src/uart_va108xx.c **** 	  return -1;
 551:.\driver\src/uart_va108xx.c **** }
 1892              		.loc 1 551 0
 1893              		@ sp needed	@
 1894 04b4 7047     		bx	lr
 1895              	.LVL164:
 1896              	.L170:
 1897              	@ .\driver\src\uart_va108xx.c:544: 		  default :                        UART->reg->TXBREAK   &=  ~(
 544:.\driver\src/uart_va108xx.c **** 	                                	   UART->reg->TXBREAK   |=  (arg<<UART_BREAK_BIT);  break;
 1898              		.loc 1 544 0
 1899 04b6 7F21     		movs	r1, #127	@ tmp125,
 1900              	.LVL165:
 1901 04b8 8A43     		bics	r2, r1	@ _8, tmp125
 1902 04ba DA61     		str	r2, [r3, #28]	@ _8, _1->TXBREAK
 1903              	@ .\driver\src\uart_va108xx.c:545: 	                                	   UART->reg->TXBREAK   |=  (a
 545:.\driver\src/uart_va108xx.c **** 	   }
 1904              		.loc 1 545 0
 1905 04bc DA69     		ldr	r2, [r3, #28]	@ _9, _1->TXBREAK
 1906 04be F2E7     		b	.L171	@
 1907              	.LVL166:
 1908              	.L168:
 1909              	@ .\driver\src\uart_va108xx.c:536: 	  return VOR_DRIVER_ERROR_PARAMETER;
 536:.\driver\src/uart_va108xx.c **** 	
 1910              		.loc 1 536 0
 1911 04c0 0520     		movs	r0, #5	@ arg,
 1912              	.LVL167:
 1913              	.L172:
 1914              	@ .\driver\src\uart_va108xx.c:550: 	  return -1;
 550:.\driver\src/uart_va108xx.c **** }
 1915              		.loc 1 550 0
 1916 04c2 4042     		rsbs	r0, r0, #0	@ arg, arg
 1917 04c4 F6E7     		b	.L163	@
 1918              	.LVL168:
 1919              	.L169:
 1920 04c6 0120     		movs	r0, #1	@ arg,
 1921              	.LVL169:
 1922 04c8 FBE7     		b	.L172	@
 1923              		.cfi_endproc
 1924              	.LFE51:
ARM GAS  C:\Users\claym\AppData\Local\Temp\cc2sTfd9.s 			page 53


 1925              		.size	VOR_UART_Break, .-VOR_UART_Break
 1926              		.align	1
 1927              		.global	VOR_UART_RXFIFOIRQTRG
 1928              		.syntax unified
 1929              		.code	16
 1930              		.thumb_func
 1931              		.fpu softvfp
 1932              		.type	VOR_UART_RXFIFOIRQTRG, %function
 1933              	VOR_UART_RXFIFOIRQTRG:
 1934              	.LFB52:
 552:.\driver\src/uart_va108xx.c **** 
 553:.\driver\src/uart_va108xx.c **** /**
 554:.\driver\src/uart_va108xx.c ****   function:    int32_t VOR_UART_RXFIFOIRQTRG(uint32_t arg,UART_RESOURCES *UART)
 555:.\driver\src/uart_va108xx.c ****   brief:       The RXFIFOIRQTRG register configures the RX FIFO half full level.
 556:.\driver\src/uart_va108xx.c ****   Input:       arg  level RX of FIFO full
 557:.\driver\src/uart_va108xx.c ****   Input:       UART Pointer to UART resources
 558:.\driver\src/uart_va108xx.c ****   return:      execution_status
 559:.\driver\src/uart_va108xx.c **** */
 560:.\driver\src/uart_va108xx.c **** int32_t VOR_UART_RXFIFOIRQTRG(uint32_t arg,UART_RESOURCES *UART)
 561:.\driver\src/uart_va108xx.c **** {
 1935              		.loc 1 561 0
 1936              		.cfi_startproc
 1937              		@ args = 0, pretend = 0, frame = 0
 1938              		@ frame_needed = 0, uses_anonymous_args = 0
 1939              		@ link register save eliminated.
 1940              	.LVL170:
 1941              	@ .\driver\src\uart_va108xx.c:562: 	if((UART == NULL) || (UART->reg ==NULL))
 562:.\driver\src/uart_va108xx.c **** 	if((UART == NULL) || (UART->reg ==NULL))
 1942              		.loc 1 562 0
 1943 04ca 0029     		cmp	r1, #0	@ UART,
 1944 04cc 0DD0     		beq	.L176	@,
 1945              	@ .\driver\src\uart_va108xx.c:562: 	if((UART == NULL) || (UART->reg ==NULL))
 1946              		.loc 1 562 0 is_stmt 0 discriminator 1
 1947 04ce 4B68     		ldr	r3, [r1, #4]	@ _1, UART_8(D)->reg
 1948 04d0 002B     		cmp	r3, #0	@ _1,
 1949 04d2 0AD0     		beq	.L176	@,
 1950              	@ .\driver\src\uart_va108xx.c:565: 	if(arg<=RXFIFOIRQTRG_MASK)
 563:.\driver\src/uart_va108xx.c **** 	  return VOR_DRIVER_ERROR_PARAMETER;
 564:.\driver\src/uart_va108xx.c **** 	
 565:.\driver\src/uart_va108xx.c **** 	if(arg<=RXFIFOIRQTRG_MASK)
 1951              		.loc 1 565 0 is_stmt 1
 1952 04d4 1F28     		cmp	r0, #31	@ arg,
 1953 04d6 0BD8     		bhi	.L177	@,
 1954              	@ .\driver\src\uart_va108xx.c:567: 	 UART->reg->RXFIFOIRQTRG   &=  ~(RXFIFOIRQTRG_MASK<<UART_RXFIFO
 566:.\driver\src/uart_va108xx.c **** 	{
 567:.\driver\src/uart_va108xx.c **** 	 UART->reg->RXFIFOIRQTRG   &=  ~(RXFIFOIRQTRG_MASK<<UART_RXFIFOIRQTRG_BIT);
 1955              		.loc 1 567 0
 1956 04d8 1F21     		movs	r1, #31	@ tmp118,
 1957              	.LVL171:
 1958 04da 9A6B     		ldr	r2, [r3, #56]	@ _2, _1->RXFIFOIRQTRG
 1959 04dc 8A43     		bics	r2, r1	@ _3, tmp118
 1960 04de 9A63     		str	r2, [r3, #56]	@ _3, _1->RXFIFOIRQTRG
 1961              	@ .\driver\src\uart_va108xx.c:568:    UART->reg->RXFIFOIRQTRG   |=  (arg<<UART_RXFIFOIRQTRG_BIT);
 568:.\driver\src/uart_va108xx.c ****    UART->reg->RXFIFOIRQTRG   |=  (arg<<UART_RXFIFOIRQTRG_BIT);
 1962              		.loc 1 568 0
 1963 04e0 9A6B     		ldr	r2, [r3, #56]	@ _4, _1->RXFIFOIRQTRG
 1964 04e2 1043     		orrs	r0, r2	@ _5, _4
ARM GAS  C:\Users\claym\AppData\Local\Temp\cc2sTfd9.s 			page 54


 1965              	.LVL172:
 1966 04e4 9863     		str	r0, [r3, #56]	@ _5, _1->RXFIFOIRQTRG
 1967              	@ .\driver\src\uart_va108xx.c:569: 	 return 0;
 569:.\driver\src/uart_va108xx.c **** 	 return 0;
 1968              		.loc 1 569 0
 1969 04e6 0020     		movs	r0, #0	@ <retval>,
 1970              	.L173:
 1971              	@ .\driver\src\uart_va108xx.c:573: }
 570:.\driver\src/uart_va108xx.c ****   }
 571:.\driver\src/uart_va108xx.c **** 	else
 572:.\driver\src/uart_va108xx.c **** 		return -1;		
 573:.\driver\src/uart_va108xx.c **** }
 1972              		.loc 1 573 0
 1973              		@ sp needed	@
 1974 04e8 7047     		bx	lr
 1975              	.LVL173:
 1976              	.L176:
 1977              	@ .\driver\src\uart_va108xx.c:563: 	  return VOR_DRIVER_ERROR_PARAMETER;
 563:.\driver\src/uart_va108xx.c **** 	
 1978              		.loc 1 563 0
 1979 04ea 0520     		movs	r0, #5	@ <retval>,
 1980              	.LVL174:
 1981              	.L178:
 1982              	@ .\driver\src\uart_va108xx.c:572: 		return -1;		
 572:.\driver\src/uart_va108xx.c **** }
 1983              		.loc 1 572 0
 1984 04ec 4042     		rsbs	r0, r0, #0	@ <retval>, <retval>
 1985 04ee FBE7     		b	.L173	@
 1986              	.LVL175:
 1987              	.L177:
 1988 04f0 0120     		movs	r0, #1	@ <retval>,
 1989              	.LVL176:
 1990 04f2 FBE7     		b	.L178	@
 1991              		.cfi_endproc
 1992              	.LFE52:
 1993              		.size	VOR_UART_RXFIFOIRQTRG, .-VOR_UART_RXFIFOIRQTRG
 1994              		.align	1
 1995              		.global	VOR_UART_TXFIFOIRQTRG
 1996              		.syntax unified
 1997              		.code	16
 1998              		.thumb_func
 1999              		.fpu softvfp
 2000              		.type	VOR_UART_TXFIFOIRQTRG, %function
 2001              	VOR_UART_TXFIFOIRQTRG:
 2002              	.LFB53:
 574:.\driver\src/uart_va108xx.c **** 
 575:.\driver\src/uart_va108xx.c **** /**
 576:.\driver\src/uart_va108xx.c ****   function:    int32_t VOR_UART_TXFIFOIRQTRG(uint32_t arg,UART_RESOURCES *UART)
 577:.\driver\src/uart_va108xx.c ****   brief:       The TXFIFOIRQTRG register configures the TX FIFO half full level.
 578:.\driver\src/uart_va108xx.c ****   Input:       arg  level of TX FIFO full
 579:.\driver\src/uart_va108xx.c ****   Input:       UART Pointer to UART resources
 580:.\driver\src/uart_va108xx.c ****   return:      execution_status
 581:.\driver\src/uart_va108xx.c **** */
 582:.\driver\src/uart_va108xx.c **** int32_t VOR_UART_TXFIFOIRQTRG(uint32_t arg,UART_RESOURCES *UART)
 583:.\driver\src/uart_va108xx.c **** {
 2003              		.loc 1 583 0
 2004              		.cfi_startproc
ARM GAS  C:\Users\claym\AppData\Local\Temp\cc2sTfd9.s 			page 55


 2005              		@ args = 0, pretend = 0, frame = 0
 2006              		@ frame_needed = 0, uses_anonymous_args = 0
 2007              		@ link register save eliminated.
 2008              	.LVL177:
 2009              	@ .\driver\src\uart_va108xx.c:584: 	if((UART == NULL) || (UART->reg ==NULL))
 584:.\driver\src/uart_va108xx.c **** 	if((UART == NULL) || (UART->reg ==NULL))
 2010              		.loc 1 584 0
 2011 04f4 0029     		cmp	r1, #0	@ UART,
 2012 04f6 0DD0     		beq	.L182	@,
 2013              	@ .\driver\src\uart_va108xx.c:584: 	if((UART == NULL) || (UART->reg ==NULL))
 2014              		.loc 1 584 0 is_stmt 0 discriminator 1
 2015 04f8 4B68     		ldr	r3, [r1, #4]	@ _1, UART_8(D)->reg
 2016 04fa 002B     		cmp	r3, #0	@ _1,
 2017 04fc 0AD0     		beq	.L182	@,
 2018              	@ .\driver\src\uart_va108xx.c:587: 	if(arg<=TXFIFOIRQTRG_MASK)
 585:.\driver\src/uart_va108xx.c **** 	  return VOR_DRIVER_ERROR_PARAMETER;
 586:.\driver\src/uart_va108xx.c **** 	
 587:.\driver\src/uart_va108xx.c **** 	if(arg<=TXFIFOIRQTRG_MASK)
 2019              		.loc 1 587 0 is_stmt 1
 2020 04fe 1F28     		cmp	r0, #31	@ arg,
 2021 0500 0BD8     		bhi	.L183	@,
 2022              	@ .\driver\src\uart_va108xx.c:589: 	 UART->reg->TXFIFOIRQTRG   &=  ~(TXFIFOIRQTRG_MASK<<UART_TXFIFO
 588:.\driver\src/uart_va108xx.c **** 	{
 589:.\driver\src/uart_va108xx.c **** 	 UART->reg->TXFIFOIRQTRG   &=  ~(TXFIFOIRQTRG_MASK<<UART_TXFIFOIRQTRG_BIT);
 2023              		.loc 1 589 0
 2024 0502 1F21     		movs	r1, #31	@ tmp118,
 2025              	.LVL178:
 2026 0504 DA6B     		ldr	r2, [r3, #60]	@ _2, _1->TXFIFOIRQTRG
 2027 0506 8A43     		bics	r2, r1	@ _3, tmp118
 2028 0508 DA63     		str	r2, [r3, #60]	@ _3, _1->TXFIFOIRQTRG
 2029              	@ .\driver\src\uart_va108xx.c:590:    UART->reg->TXFIFOIRQTRG   |=  (arg<<UART_TXFIFOIRQTRG_BIT);
 590:.\driver\src/uart_va108xx.c ****    UART->reg->TXFIFOIRQTRG   |=  (arg<<UART_TXFIFOIRQTRG_BIT);
 2030              		.loc 1 590 0
 2031 050a DA6B     		ldr	r2, [r3, #60]	@ _4, _1->TXFIFOIRQTRG
 2032 050c 1043     		orrs	r0, r2	@ _5, _4
 2033              	.LVL179:
 2034 050e D863     		str	r0, [r3, #60]	@ _5, _1->TXFIFOIRQTRG
 2035              	@ .\driver\src\uart_va108xx.c:591: 	 return 0;
 591:.\driver\src/uart_va108xx.c **** 	 return 0;
 2036              		.loc 1 591 0
 2037 0510 0020     		movs	r0, #0	@ <retval>,
 2038              	.L179:
 2039              	@ .\driver\src\uart_va108xx.c:594: }
 592:.\driver\src/uart_va108xx.c ****   }else
 593:.\driver\src/uart_va108xx.c **** 		return -1;	
 594:.\driver\src/uart_va108xx.c **** }
 2040              		.loc 1 594 0
 2041              		@ sp needed	@
 2042 0512 7047     		bx	lr
 2043              	.LVL180:
 2044              	.L182:
 2045              	@ .\driver\src\uart_va108xx.c:585: 	  return VOR_DRIVER_ERROR_PARAMETER;
 585:.\driver\src/uart_va108xx.c **** 	
 2046              		.loc 1 585 0
 2047 0514 0520     		movs	r0, #5	@ <retval>,
 2048              	.LVL181:
 2049              	.L184:
ARM GAS  C:\Users\claym\AppData\Local\Temp\cc2sTfd9.s 			page 56


 2050              	@ .\driver\src\uart_va108xx.c:593: 		return -1;	
 593:.\driver\src/uart_va108xx.c **** }
 2051              		.loc 1 593 0
 2052 0516 4042     		rsbs	r0, r0, #0	@ <retval>, <retval>
 2053 0518 FBE7     		b	.L179	@
 2054              	.LVL182:
 2055              	.L183:
 2056 051a 0120     		movs	r0, #1	@ <retval>,
 2057              	.LVL183:
 2058 051c FBE7     		b	.L184	@
 2059              		.cfi_endproc
 2060              	.LFE53:
 2061              		.size	VOR_UART_TXFIFOIRQTRG, .-VOR_UART_TXFIFOIRQTRG
 2062              		.align	1
 2063              		.global	VOR_UART_RXFIFORTSTRG
 2064              		.syntax unified
 2065              		.code	16
 2066              		.thumb_func
 2067              		.fpu softvfp
 2068              		.type	VOR_UART_RXFIFORTSTRG, %function
 2069              	VOR_UART_RXFIFORTSTRG:
 2070              	.LFB54:
 595:.\driver\src/uart_va108xx.c **** 
 596:.\driver\src/uart_va108xx.c **** /**
 597:.\driver\src/uart_va108xx.c ****   function:    int32_t VOR_UART_RXFIFORTSTRG(uint32_t arg,UART_RESOURCES *UART)
 598:.\driver\src/uart_va108xx.c ****   brief:       The RXFIFORTSTRG register configures the TX FIFO level for AUTORTS mode.
 599:.\driver\src/uart_va108xx.c ****   Input:       arg  level of RXFIFORTSTRG
 600:.\driver\src/uart_va108xx.c ****   Input:       UART Pointer to UART resources
 601:.\driver\src/uart_va108xx.c ****   return:      execution_status
 602:.\driver\src/uart_va108xx.c **** */
 603:.\driver\src/uart_va108xx.c **** int32_t VOR_UART_RXFIFORTSTRG(uint32_t arg,UART_RESOURCES *UART)
 604:.\driver\src/uart_va108xx.c **** {
 2071              		.loc 1 604 0
 2072              		.cfi_startproc
 2073              		@ args = 0, pretend = 0, frame = 0
 2074              		@ frame_needed = 0, uses_anonymous_args = 0
 2075              		@ link register save eliminated.
 2076              	.LVL184:
 2077              	@ .\driver\src\uart_va108xx.c:605: 	if((UART == NULL) || (UART->reg ==NULL))
 605:.\driver\src/uart_va108xx.c **** 	if((UART == NULL) || (UART->reg ==NULL))
 2078              		.loc 1 605 0
 2079 051e 0029     		cmp	r1, #0	@ UART,
 2080 0520 0DD0     		beq	.L188	@,
 2081              	@ .\driver\src\uart_va108xx.c:605: 	if((UART == NULL) || (UART->reg ==NULL))
 2082              		.loc 1 605 0 is_stmt 0 discriminator 1
 2083 0522 4B68     		ldr	r3, [r1, #4]	@ _1, UART_8(D)->reg
 2084 0524 002B     		cmp	r3, #0	@ _1,
 2085 0526 0AD0     		beq	.L188	@,
 2086              	@ .\driver\src\uart_va108xx.c:608: 	if(arg<=TXFIFOIRQTRG_MASK)
 606:.\driver\src/uart_va108xx.c **** 	  return VOR_DRIVER_ERROR_PARAMETER;
 607:.\driver\src/uart_va108xx.c **** 	
 608:.\driver\src/uart_va108xx.c **** 	if(arg<=TXFIFOIRQTRG_MASK)
 2087              		.loc 1 608 0 is_stmt 1
 2088 0528 1F28     		cmp	r0, #31	@ arg,
 2089 052a 0BD8     		bhi	.L189	@,
 2090              	@ .\driver\src\uart_va108xx.c:610: 	 UART->reg->RXFIFORTSTRG   &=  ~(RXFIFORTSTRG_MASK<<UART_RXFIFO
 609:.\driver\src/uart_va108xx.c **** 	{
ARM GAS  C:\Users\claym\AppData\Local\Temp\cc2sTfd9.s 			page 57


 610:.\driver\src/uart_va108xx.c **** 	 UART->reg->RXFIFORTSTRG   &=  ~(RXFIFORTSTRG_MASK<<UART_RXFIFORTSTRG_BIT);
 2091              		.loc 1 610 0
 2092 052c 1F21     		movs	r1, #31	@ tmp118,
 2093              	.LVL185:
 2094 052e 1A6C     		ldr	r2, [r3, #64]	@ _2, _1->RXFIFORTSTRG
 2095 0530 8A43     		bics	r2, r1	@ _3, tmp118
 2096 0532 1A64     		str	r2, [r3, #64]	@ _3, _1->RXFIFORTSTRG
 2097              	@ .\driver\src\uart_va108xx.c:611:    UART->reg->RXFIFORTSTRG   |=  (arg<<UART_RXFIFORTSTRG_BIT);
 611:.\driver\src/uart_va108xx.c ****    UART->reg->RXFIFORTSTRG   |=  (arg<<UART_RXFIFORTSTRG_BIT);
 2098              		.loc 1 611 0
 2099 0534 1A6C     		ldr	r2, [r3, #64]	@ _4, _1->RXFIFORTSTRG
 2100 0536 1043     		orrs	r0, r2	@ _5, _4
 2101              	.LVL186:
 2102 0538 1864     		str	r0, [r3, #64]	@ _5, _1->RXFIFORTSTRG
 2103              	@ .\driver\src\uart_va108xx.c:612: 	 return 0;
 612:.\driver\src/uart_va108xx.c **** 	 return 0;
 2104              		.loc 1 612 0
 2105 053a 0020     		movs	r0, #0	@ <retval>,
 2106              	.L185:
 2107              	@ .\driver\src\uart_va108xx.c:615: }
 613:.\driver\src/uart_va108xx.c ****   }else
 614:.\driver\src/uart_va108xx.c **** 		return -1;
 615:.\driver\src/uart_va108xx.c **** }
 2108              		.loc 1 615 0
 2109              		@ sp needed	@
 2110 053c 7047     		bx	lr
 2111              	.LVL187:
 2112              	.L188:
 2113              	@ .\driver\src\uart_va108xx.c:606: 	  return VOR_DRIVER_ERROR_PARAMETER;
 606:.\driver\src/uart_va108xx.c **** 	
 2114              		.loc 1 606 0
 2115 053e 0520     		movs	r0, #5	@ <retval>,
 2116              	.LVL188:
 2117              	.L190:
 2118              	@ .\driver\src\uart_va108xx.c:614: 		return -1;
 614:.\driver\src/uart_va108xx.c **** }
 2119              		.loc 1 614 0
 2120 0540 4042     		rsbs	r0, r0, #0	@ <retval>, <retval>
 2121 0542 FBE7     		b	.L185	@
 2122              	.LVL189:
 2123              	.L189:
 2124 0544 0120     		movs	r0, #1	@ <retval>,
 2125              	.LVL190:
 2126 0546 FBE7     		b	.L190	@
 2127              		.cfi_endproc
 2128              	.LFE54:
 2129              		.size	VOR_UART_RXFIFORTSTRG, .-VOR_UART_RXFIFORTSTRG
 2130              		.align	1
 2131              		.global	VOR_UART_ENB9BIT
 2132              		.syntax unified
 2133              		.code	16
 2134              		.thumb_func
 2135              		.fpu softvfp
 2136              		.type	VOR_UART_ENB9BIT, %function
 2137              	VOR_UART_ENB9BIT:
 2138              	.LFB55:
 616:.\driver\src/uart_va108xx.c **** 
ARM GAS  C:\Users\claym\AppData\Local\Temp\cc2sTfd9.s 			page 58


 617:.\driver\src/uart_va108xx.c **** /**
 618:.\driver\src/uart_va108xx.c ****   function:    int32_t VOR_UART_ENB9BIT(uint32_t arg,UART_RESOURCES *UART)
 619:.\driver\src/uart_va108xx.c ****   brief:       Enable or Disable 9-bit mode
 620:.\driver\src/uart_va108xx.c ****   Input:       arg set or clear ENB9BIT
 621:.\driver\src/uart_va108xx.c ****   Input:       UART Pointer to UART resources
 622:.\driver\src/uart_va108xx.c ****   return:      execution_status
 623:.\driver\src/uart_va108xx.c **** */
 624:.\driver\src/uart_va108xx.c **** int32_t VOR_UART_ENB9BIT(uint32_t arg,UART_RESOURCES *UART)
 625:.\driver\src/uart_va108xx.c **** {
 2139              		.loc 1 625 0
 2140              		.cfi_startproc
 2141              		@ args = 0, pretend = 0, frame = 0
 2142              		@ frame_needed = 0, uses_anonymous_args = 0
 2143              		@ link register save eliminated.
 2144              	.LVL191:
 2145              	@ .\driver\src\uart_va108xx.c:626: 	if((UART == NULL) || (UART->reg ==NULL))
 626:.\driver\src/uart_va108xx.c **** 	if((UART == NULL) || (UART->reg ==NULL))
 2146              		.loc 1 626 0
 2147 0548 0029     		cmp	r1, #0	@ UART,
 2148 054a 12D0     		beq	.L196	@,
 2149              	@ .\driver\src\uart_va108xx.c:626: 	if((UART == NULL) || (UART->reg ==NULL))
 2150              		.loc 1 626 0 is_stmt 0 discriminator 1
 2151 054c 4B68     		ldr	r3, [r1, #4]	@ _1, UART_8(D)->reg
 2152 054e 002B     		cmp	r3, #0	@ _1,
 2153 0550 0FD0     		beq	.L196	@,
 2154              	@ .\driver\src\uart_va108xx.c:629: 	switch(arg)
 627:.\driver\src/uart_va108xx.c **** 	  return VOR_DRIVER_ERROR_PARAMETER;
 628:.\driver\src/uart_va108xx.c ****    
 629:.\driver\src/uart_va108xx.c **** 	switch(arg)
 2155              		.loc 1 629 0 is_stmt 1
 2156 0552 0028     		cmp	r0, #0	@ arg,
 2157 0554 08D0     		beq	.L193	@,
 2158 0556 0128     		cmp	r0, #1	@ arg,
 2159 0558 0ED1     		bne	.L198	@,
 2160              	@ .\driver\src\uart_va108xx.c:631: 		 case VOR_UART_CONTROL_ENB9BIT_ENABLE:  UART->reg->ADDR9   |= 
 630:.\driver\src/uart_va108xx.c **** 	 {
 631:.\driver\src/uart_va108xx.c **** 		 case VOR_UART_CONTROL_ENB9BIT_ENABLE:  UART->reg->ADDR9   |=  (1<<UART_ENB9BIT_BIT);  break;
 2161              		.loc 1 631 0
 2162 055a 8022     		movs	r2, #128	@ tmp118,
 2163              	@ .\driver\src\uart_va108xx.c:635: 	 return 0;
 632:.\driver\src/uart_va108xx.c **** 		 case VOR_UART_CONTROL_ENB9BIT_DISABLE: UART->reg->ADDR9   &=  ~(1<<UART_ENB9BIT_BIT); break;
 633:.\driver\src/uart_va108xx.c **** 		 default:              return -1;
 634:.\driver\src/uart_va108xx.c **** 	 }
 635:.\driver\src/uart_va108xx.c **** 	 return 0;
 2164              		.loc 1 635 0
 2165 055c 0020     		movs	r0, #0	@ <retval>,
 2166              	.LVL192:
 2167              	@ .\driver\src\uart_va108xx.c:631: 		 case VOR_UART_CONTROL_ENB9BIT_ENABLE:  UART->reg->ADDR9   |= 
 631:.\driver\src/uart_va108xx.c **** 		 case VOR_UART_CONTROL_ENB9BIT_DISABLE: UART->reg->ADDR9   &=  ~(1<<UART_ENB9BIT_BIT); break;
 2168              		.loc 1 631 0
 2169 055e 196A     		ldr	r1, [r3, #32]	@ _2, _1->ADDR9
 2170              	.LVL193:
 2171 0560 5202     		lsls	r2, r2, #9	@ tmp118, tmp118,
 2172 0562 0A43     		orrs	r2, r1	@ _3, _2
 2173 0564 1A62     		str	r2, [r3, #32]	@ _3, _1->ADDR9
 2174              	.L191:
 2175              	@ .\driver\src\uart_va108xx.c:636: }
ARM GAS  C:\Users\claym\AppData\Local\Temp\cc2sTfd9.s 			page 59


 636:.\driver\src/uart_va108xx.c **** }
 2176              		.loc 1 636 0
 2177              		@ sp needed	@
 2178 0566 7047     		bx	lr
 2179              	.LVL194:
 2180              	.L193:
 2181              	@ .\driver\src\uart_va108xx.c:632: 		 case VOR_UART_CONTROL_ENB9BIT_DISABLE: UART->reg->ADDR9   &= 
 632:.\driver\src/uart_va108xx.c **** 		 case VOR_UART_CONTROL_ENB9BIT_DISABLE: UART->reg->ADDR9   &=  ~(1<<UART_ENB9BIT_BIT); break;
 2182              		.loc 1 632 0
 2183 0568 1A6A     		ldr	r2, [r3, #32]	@ _4, _1->ADDR9
 2184 056a 0449     		ldr	r1, .L200	@ tmp119,
 2185              	.LVL195:
 2186 056c 0A40     		ands	r2, r1	@ _5, tmp119
 2187 056e 1A62     		str	r2, [r3, #32]	@ _5, _1->ADDR9
 2188 0570 F9E7     		b	.L191	@
 2189              	.LVL196:
 2190              	.L196:
 2191              	@ .\driver\src\uart_va108xx.c:627: 	  return VOR_DRIVER_ERROR_PARAMETER;
 627:.\driver\src/uart_va108xx.c ****    
 2192              		.loc 1 627 0
 2193 0572 0520     		movs	r0, #5	@ <retval>,
 2194              	.LVL197:
 2195              	.L199:
 2196              	@ .\driver\src\uart_va108xx.c:633: 		 default:              return -1;
 633:.\driver\src/uart_va108xx.c **** 	 }
 2197              		.loc 1 633 0
 2198 0574 4042     		rsbs	r0, r0, #0	@ <retval>, <retval>
 2199 0576 F6E7     		b	.L191	@
 2200              	.LVL198:
 2201              	.L198:
 2202 0578 0120     		movs	r0, #1	@ <retval>,
 2203              	.LVL199:
 2204 057a FBE7     		b	.L199	@
 2205              	.L201:
 2206              		.align	2
 2207              	.L200:
 2208 057c FFFFFEFF 		.word	-65537
 2209              		.cfi_endproc
 2210              	.LFE55:
 2211              		.size	VOR_UART_ENB9BIT, .-VOR_UART_ENB9BIT
 2212              		.align	1
 2213              		.global	VOR_UART_ADDR9MSK
 2214              		.syntax unified
 2215              		.code	16
 2216              		.thumb_func
 2217              		.fpu softvfp
 2218              		.type	VOR_UART_ADDR9MSK, %function
 2219              	VOR_UART_ADDR9MSK:
 2220              	.LFB56:
 637:.\driver\src/uart_va108xx.c **** 
 638:.\driver\src/uart_va108xx.c **** /**
 639:.\driver\src/uart_va108xx.c ****   function:    int32_t VOR_UART_ADDR9MSK(uint32_t arg,UART_RESOURCES *UART)
 640:.\driver\src/uart_va108xx.c ****   brief:       The ADDR9MASK register provides the mask register for checking addresses in 9-bit mo
 641:.\driver\src/uart_va108xx.c ****   Input:       arg set or clear ADDR9MSK
 642:.\driver\src/uart_va108xx.c ****   Input:       UART Pointer to UART resources
 643:.\driver\src/uart_va108xx.c ****   return:      execution_status
 644:.\driver\src/uart_va108xx.c **** */
ARM GAS  C:\Users\claym\AppData\Local\Temp\cc2sTfd9.s 			page 60


 645:.\driver\src/uart_va108xx.c **** int32_t VOR_UART_ADDR9MSK(uint32_t arg,UART_RESOURCES *UART)
 646:.\driver\src/uart_va108xx.c **** {
 2221              		.loc 1 646 0
 2222              		.cfi_startproc
 2223              		@ args = 0, pretend = 0, frame = 0
 2224              		@ frame_needed = 0, uses_anonymous_args = 0
 2225              		@ link register save eliminated.
 2226              	.LVL200:
 2227              	@ .\driver\src\uart_va108xx.c:647: 	if((UART == NULL) || (UART->reg ==NULL))
 647:.\driver\src/uart_va108xx.c **** 	if((UART == NULL) || (UART->reg ==NULL))
 2228              		.loc 1 647 0
 2229 0580 0029     		cmp	r1, #0	@ UART,
 2230 0582 0DD0     		beq	.L205	@,
 2231              	@ .\driver\src\uart_va108xx.c:647: 	if((UART == NULL) || (UART->reg ==NULL))
 2232              		.loc 1 647 0 is_stmt 0 discriminator 1
 2233 0584 4B68     		ldr	r3, [r1, #4]	@ _1, UART_8(D)->reg
 2234 0586 002B     		cmp	r3, #0	@ _1,
 2235 0588 0AD0     		beq	.L205	@,
 2236              	@ .\driver\src\uart_va108xx.c:650: 	if(arg<=ADDR9MSK_MASK)
 648:.\driver\src/uart_va108xx.c **** 	  return VOR_DRIVER_ERROR_PARAMETER;
 649:.\driver\src/uart_va108xx.c **** 	
 650:.\driver\src/uart_va108xx.c **** 	if(arg<=ADDR9MSK_MASK)
 2237              		.loc 1 650 0 is_stmt 1
 2238 058a FF28     		cmp	r0, #255	@ arg,
 2239 058c 0BD8     		bhi	.L206	@,
 2240              	@ .\driver\src\uart_va108xx.c:652: 	 UART->reg->ADDR9MASK   &=  ~(ADDR9MSK_MASK<<UART_ADDR9MSK_BIT)
 651:.\driver\src/uart_va108xx.c **** 	{
 652:.\driver\src/uart_va108xx.c **** 	 UART->reg->ADDR9MASK   &=  ~(ADDR9MSK_MASK<<UART_ADDR9MSK_BIT);
 2241              		.loc 1 652 0
 2242 058e FF21     		movs	r1, #255	@ tmp118,
 2243              	.LVL201:
 2244 0590 5A6A     		ldr	r2, [r3, #36]	@ _2, _1->ADDR9MASK
 2245 0592 8A43     		bics	r2, r1	@ _3, tmp118
 2246 0594 5A62     		str	r2, [r3, #36]	@ _3, _1->ADDR9MASK
 2247              	@ .\driver\src\uart_va108xx.c:653:    UART->reg->ADDR9MASK   |=  (arg<<UART_ADDR9MSK_BIT);
 653:.\driver\src/uart_va108xx.c ****    UART->reg->ADDR9MASK   |=  (arg<<UART_ADDR9MSK_BIT);
 2248              		.loc 1 653 0
 2249 0596 5A6A     		ldr	r2, [r3, #36]	@ _4, _1->ADDR9MASK
 2250 0598 1043     		orrs	r0, r2	@ _5, _4
 2251              	.LVL202:
 2252 059a 5862     		str	r0, [r3, #36]	@ _5, _1->ADDR9MASK
 2253              	@ .\driver\src\uart_va108xx.c:654: 	 return 0;
 654:.\driver\src/uart_va108xx.c **** 	 return 0;
 2254              		.loc 1 654 0
 2255 059c 0020     		movs	r0, #0	@ <retval>,
 2256              	.L202:
 2257              	@ .\driver\src\uart_va108xx.c:657: }
 655:.\driver\src/uart_va108xx.c ****   }else
 656:.\driver\src/uart_va108xx.c **** 		return -1;
 657:.\driver\src/uart_va108xx.c **** }
 2258              		.loc 1 657 0
 2259              		@ sp needed	@
 2260 059e 7047     		bx	lr
 2261              	.LVL203:
 2262              	.L205:
 2263              	@ .\driver\src\uart_va108xx.c:648: 	  return VOR_DRIVER_ERROR_PARAMETER;
 648:.\driver\src/uart_va108xx.c **** 	
ARM GAS  C:\Users\claym\AppData\Local\Temp\cc2sTfd9.s 			page 61


 2264              		.loc 1 648 0
 2265 05a0 0520     		movs	r0, #5	@ <retval>,
 2266              	.LVL204:
 2267              	.L207:
 2268              	@ .\driver\src\uart_va108xx.c:656: 		return -1;
 656:.\driver\src/uart_va108xx.c **** }
 2269              		.loc 1 656 0
 2270 05a2 4042     		rsbs	r0, r0, #0	@ <retval>, <retval>
 2271 05a4 FBE7     		b	.L202	@
 2272              	.LVL205:
 2273              	.L206:
 2274 05a6 0120     		movs	r0, #1	@ <retval>,
 2275              	.LVL206:
 2276 05a8 FBE7     		b	.L207	@
 2277              		.cfi_endproc
 2278              	.LFE56:
 2279              		.size	VOR_UART_ADDR9MSK, .-VOR_UART_ADDR9MSK
 2280              		.align	1
 2281              		.global	VOR_UART_FIFOCLR
 2282              		.syntax unified
 2283              		.code	16
 2284              		.thumb_func
 2285              		.fpu softvfp
 2286              		.type	VOR_UART_FIFOCLR, %function
 2287              	VOR_UART_FIFOCLR:
 2288              	.LFB57:
 658:.\driver\src/uart_va108xx.c **** 
 659:.\driver\src/uart_va108xx.c **** /**
 660:.\driver\src/uart_va108xx.c ****   function:    int32_t VOR_UART_FIFOCLR(uint32_t arg,UART_RESOURCES *UART)
 661:.\driver\src/uart_va108xx.c ****   brief:       The FIFO_CLR register provides write access for clearing status conditions.
 662:.\driver\src/uart_va108xx.c ****   Input:       arg clear FIFO
 663:.\driver\src/uart_va108xx.c ****   Input:       UART Pointer to UART resources
 664:.\driver\src/uart_va108xx.c ****   return:      execution_status
 665:.\driver\src/uart_va108xx.c **** */
 666:.\driver\src/uart_va108xx.c **** int32_t VOR_UART_FIFOCLR(uint32_t arg,UART_RESOURCES *UART)
 667:.\driver\src/uart_va108xx.c **** {
 2289              		.loc 1 667 0
 2290              		.cfi_startproc
 2291              		@ args = 0, pretend = 0, frame = 0
 2292              		@ frame_needed = 0, uses_anonymous_args = 0
 2293              	.LVL207:
 2294 05aa 00B5     		push	{lr}	@
 2295              	.LCFI8:
 2296              		.cfi_def_cfa_offset 4
 2297              		.cfi_offset 14, -4
 2298              	@ .\driver\src\uart_va108xx.c:668: 	if((UART == NULL) || (UART->reg ==NULL))
 668:.\driver\src/uart_va108xx.c **** 	if((UART == NULL) || (UART->reg ==NULL))
 2299              		.loc 1 668 0
 2300 05ac 0029     		cmp	r1, #0	@ UART,
 2301 05ae 14D0     		beq	.L216	@,
 2302              	@ .\driver\src\uart_va108xx.c:668: 	if((UART == NULL) || (UART->reg ==NULL))
 2303              		.loc 1 668 0 is_stmt 0 discriminator 1
 2304 05b0 4B68     		ldr	r3, [r1, #4]	@ _1, UART_12(D)->reg
 2305 05b2 002B     		cmp	r3, #0	@ _1,
 2306 05b4 11D0     		beq	.L216	@,
 2307              	@ .\driver\src\uart_va108xx.c:671: 	switch(arg)
 669:.\driver\src/uart_va108xx.c **** 	  return VOR_DRIVER_ERROR_PARAMETER;
ARM GAS  C:\Users\claym\AppData\Local\Temp\cc2sTfd9.s 			page 62


 670:.\driver\src/uart_va108xx.c **** 	 
 671:.\driver\src/uart_va108xx.c **** 	switch(arg)
 2308              		.loc 1 671 0 is_stmt 1
 2309 05b6 0328     		cmp	r0, #3	@ arg,
 2310 05b8 12D8     		bhi	.L217	@,
 2311              	@ .\driver\src\uart_va108xx.c:676: 		 case VOR_UART_CONTROL_UART_TXFIFO_BIT:   UART->reg->FIFO_CLR 
 672:.\driver\src/uart_va108xx.c **** 	 {
 673:.\driver\src/uart_va108xx.c **** 		 case VOR_UART_CONTROL_UART_RXSTS_BIT:    UART->reg->FIFO_CLR   |=  UART_PERIPHERAL_FIFO_CLR_RXST
 674:.\driver\src/uart_va108xx.c **** 		 case VOR_UART_CONTROL_UART_TXSTS_BIT:    UART->reg->FIFO_CLR   |=  UART_PERIPHERAL_FIFO_CLR_TXST
 675:.\driver\src/uart_va108xx.c **** 	   case VOR_UART_CONTROL_UART_RXFIFO_BIT:   UART->reg->FIFO_CLR   |=  UART_PERIPHERAL_FIFO_CLR_RXF
 676:.\driver\src/uart_va108xx.c **** 		 case VOR_UART_CONTROL_UART_TXFIFO_BIT:   UART->reg->FIFO_CLR   |=  UART_PERIPHERAL_FIFO_CLR_TXFI
 2312              		.loc 1 676 0
 2313 05ba 9969     		ldr	r1, [r3, #24]	@ _8,
 2314              	.LVL208:
 2315              	@ .\driver\src\uart_va108xx.c:671: 	switch(arg)
 671:.\driver\src/uart_va108xx.c **** 	 {
 2316              		.loc 1 671 0
 2317 05bc FFF7FEFF 		bl	__gnu_thumb1_case_uqi
 2318              	.L211:
 2319 05c0 02       		.byte	(.L210-.L211)/2
 2320 05c1 07       		.byte	(.L212-.L211)/2
 2321 05c2 09       		.byte	(.L213-.L211)/2
 2322 05c3 0B       		.byte	(.L214-.L211)/2
 2323              		.p2align 1
 2324              	.L210:
 2325              	@ .\driver\src\uart_va108xx.c:673: 		 case VOR_UART_CONTROL_UART_RXSTS_BIT:    UART->reg->FIFO_CLR 
 673:.\driver\src/uart_va108xx.c **** 		 case VOR_UART_CONTROL_UART_TXSTS_BIT:    UART->reg->FIFO_CLR   |=  UART_PERIPHERAL_FIFO_CLR_TXST
 2326              		.loc 1 673 0
 2327 05c4 0122     		movs	r2, #1	@ tmp122,
 2328              	.L219:
 2329              	@ .\driver\src\uart_va108xx.c:679: 	 return 0;
 677:.\driver\src/uart_va108xx.c **** 		 default:                return -1;
 678:.\driver\src/uart_va108xx.c **** 	 }
 679:.\driver\src/uart_va108xx.c **** 	 return 0;
 2330              		.loc 1 679 0
 2331 05c6 0020     		movs	r0, #0	@ <retval>,
 2332              	.LVL209:
 2333              	@ .\driver\src\uart_va108xx.c:676: 		 case VOR_UART_CONTROL_UART_TXFIFO_BIT:   UART->reg->FIFO_CLR 
 676:.\driver\src/uart_va108xx.c **** 		 default:                return -1;
 2334              		.loc 1 676 0
 2335 05c8 0A43     		orrs	r2, r1	@ _9, _8
 2336 05ca 9A61     		str	r2, [r3, #24]	@ _9,
 2337              	.L208:
 2338              	@ .\driver\src\uart_va108xx.c:680: }
 680:.\driver\src/uart_va108xx.c **** }
 2339              		.loc 1 680 0
 2340              		@ sp needed	@
 2341 05cc 00BD     		pop	{pc}
 2342              	.LVL210:
 2343              	.L212:
 2344              	@ .\driver\src\uart_va108xx.c:674: 		 case VOR_UART_CONTROL_UART_TXSTS_BIT:    UART->reg->FIFO_CLR 
 674:.\driver\src/uart_va108xx.c **** 	   case VOR_UART_CONTROL_UART_RXFIFO_BIT:   UART->reg->FIFO_CLR   |=  UART_PERIPHERAL_FIFO_CLR_RXF
 2345              		.loc 1 674 0
 2346 05ce 0222     		movs	r2, #2	@ tmp123,
 2347 05d0 F9E7     		b	.L219	@
 2348              	.L213:
 2349              	@ .\driver\src\uart_va108xx.c:675: 	   case VOR_UART_CONTROL_UART_RXFIFO_BIT:   UART->reg->FIFO_CLR
ARM GAS  C:\Users\claym\AppData\Local\Temp\cc2sTfd9.s 			page 63


 675:.\driver\src/uart_va108xx.c **** 		 case VOR_UART_CONTROL_UART_TXFIFO_BIT:   UART->reg->FIFO_CLR   |=  UART_PERIPHERAL_FIFO_CLR_TXFI
 2350              		.loc 1 675 0
 2351 05d2 0422     		movs	r2, #4	@ tmp124,
 2352 05d4 F7E7     		b	.L219	@
 2353              	.L214:
 2354              	@ .\driver\src\uart_va108xx.c:676: 		 case VOR_UART_CONTROL_UART_TXFIFO_BIT:   UART->reg->FIFO_CLR 
 676:.\driver\src/uart_va108xx.c **** 		 default:                return -1;
 2355              		.loc 1 676 0
 2356 05d6 0822     		movs	r2, #8	@ tmp125,
 2357 05d8 F5E7     		b	.L219	@
 2358              	.LVL211:
 2359              	.L216:
 2360              	@ .\driver\src\uart_va108xx.c:669: 	  return VOR_DRIVER_ERROR_PARAMETER;
 669:.\driver\src/uart_va108xx.c **** 	 
 2361              		.loc 1 669 0
 2362 05da 0520     		movs	r0, #5	@ <retval>,
 2363              	.LVL212:
 2364              	.L218:
 2365              	@ .\driver\src\uart_va108xx.c:677: 		 default:                return -1;
 677:.\driver\src/uart_va108xx.c **** 	 }
 2366              		.loc 1 677 0
 2367 05dc 4042     		rsbs	r0, r0, #0	@ <retval>, <retval>
 2368 05de F5E7     		b	.L208	@
 2369              	.LVL213:
 2370              	.L217:
 2371 05e0 0120     		movs	r0, #1	@ <retval>,
 2372              	.LVL214:
 2373 05e2 FBE7     		b	.L218	@
 2374              		.cfi_endproc
 2375              	.LFE57:
 2376              		.size	VOR_UART_FIFOCLR, .-VOR_UART_FIFOCLR
 2377              		.align	1
 2378              		.global	VOR_UART_PollMode
 2379              		.syntax unified
 2380              		.code	16
 2381              		.thumb_func
 2382              		.fpu softvfp
 2383              		.type	VOR_UART_PollMode, %function
 2384              	VOR_UART_PollMode:
 2385              	.LFB58:
 681:.\driver\src/uart_va108xx.c **** 
 682:.\driver\src/uart_va108xx.c **** /**
 683:.\driver\src/uart_va108xx.c ****   function:    int32_t VOR_UART_PollMode (uint32_t       arg, UART_RESOURCES *UART)
 684:.\driver\src/uart_va108xx.c ****   brief:       Set UART driver mode.
 685:.\driver\src/uart_va108xx.c ****   Input:       arg      argument of operation 
 686:.\driver\src/uart_va108xx.c ****   Input:       UART      pointer to UART resources
 687:.\driver\src/uart_va108xx.c ****   return:      execution_status
 688:.\driver\src/uart_va108xx.c **** */
 689:.\driver\src/uart_va108xx.c **** int32_t VOR_UART_PollMode (uint32_t       arg, UART_RESOURCES *UART) {
 2386              		.loc 1 689 0
 2387              		.cfi_startproc
 2388              		@ args = 0, pretend = 0, frame = 0
 2389              		@ frame_needed = 0, uses_anonymous_args = 0
 2390              		@ link register save eliminated.
 2391              	.LVL215:
 2392              	@ .\driver\src\uart_va108xx.c:690:   UART->info.poll_mode = arg;
 690:.\driver\src/uart_va108xx.c ****   UART->info.poll_mode = arg;
ARM GAS  C:\Users\claym\AppData\Local\Temp\cc2sTfd9.s 			page 64


 2393              		.loc 1 690 0
 2394 05e4 8861     		str	r0, [r1, #24]	@ arg, UART_2(D)->info.poll_mode
 2395              	@ .\driver\src\uart_va108xx.c:692: }
 691:.\driver\src/uart_va108xx.c ****   return VOR_DRIVER_OK;
 692:.\driver\src/uart_va108xx.c **** }
 2396              		.loc 1 692 0
 2397              		@ sp needed	@
 2398 05e6 0020     		movs	r0, #0	@,
 2399              	.LVL216:
 2400 05e8 7047     		bx	lr
 2401              		.cfi_endproc
 2402              	.LFE58:
 2403              		.size	VOR_UART_PollMode, .-VOR_UART_PollMode
 2404              		.align	1
 2405              		.global	VOR_UART_PollTimeOut
 2406              		.syntax unified
 2407              		.code	16
 2408              		.thumb_func
 2409              		.fpu softvfp
 2410              		.type	VOR_UART_PollTimeOut, %function
 2411              	VOR_UART_PollTimeOut:
 2412              	.LFB59:
 693:.\driver\src/uart_va108xx.c **** 
 694:.\driver\src/uart_va108xx.c **** /**
 695:.\driver\src/uart_va108xx.c ****   function:    int32_t VOR_UART_PollTimeOut (uint32_t       arg, UART_RESOURCES *UART)
 696:.\driver\src/uart_va108xx.c ****   brief:       Set UART Polling Mode Time out.
 697:.\driver\src/uart_va108xx.c ****   Input:       arg      argument of operation 
 698:.\driver\src/uart_va108xx.c ****   Input:       UART      pointer to UART resources
 699:.\driver\src/uart_va108xx.c ****   return:      execution_status
 700:.\driver\src/uart_va108xx.c **** */
 701:.\driver\src/uart_va108xx.c **** int32_t VOR_UART_PollTimeOut (uint32_t       arg, UART_RESOURCES *UART) {
 2413              		.loc 1 701 0
 2414              		.cfi_startproc
 2415              		@ args = 0, pretend = 0, frame = 0
 2416              		@ frame_needed = 0, uses_anonymous_args = 0
 2417              		@ link register save eliminated.
 2418              	.LVL217:
 2419              	@ .\driver\src\uart_va108xx.c:702:   UART->info.poll_tout = arg;
 702:.\driver\src/uart_va108xx.c ****   UART->info.poll_tout = arg;
 2420              		.loc 1 702 0
 2421 05ea C861     		str	r0, [r1, #28]	@ arg, UART_2(D)->info.poll_tout
 2422              	@ .\driver\src\uart_va108xx.c:704: }
 703:.\driver\src/uart_va108xx.c ****   return VOR_DRIVER_OK;
 704:.\driver\src/uart_va108xx.c **** }
 2423              		.loc 1 704 0
 2424              		@ sp needed	@
 2425 05ec 0020     		movs	r0, #0	@,
 2426              	.LVL218:
 2427 05ee 7047     		bx	lr
 2428              		.cfi_endproc
 2429              	.LFE59:
 2430              		.size	VOR_UART_PollTimeOut, .-VOR_UART_PollTimeOut
 2431              		.align	1
 2432              		.global	VOR_UART_abort_send
 2433              		.syntax unified
 2434              		.code	16
 2435              		.thumb_func
ARM GAS  C:\Users\claym\AppData\Local\Temp\cc2sTfd9.s 			page 65


 2436              		.fpu softvfp
 2437              		.type	VOR_UART_abort_send, %function
 2438              	VOR_UART_abort_send:
 2439              	.LFB60:
 705:.\driver\src/uart_va108xx.c **** 
 706:.\driver\src/uart_va108xx.c **** 
 707:.\driver\src/uart_va108xx.c **** int32_t VOR_UART_abort_send(uint32_t       arg, UART_RESOURCES *UART) {
 2440              		.loc 1 707 0
 2441              		.cfi_startproc
 2442              		@ args = 0, pretend = 0, frame = 0
 2443              		@ frame_needed = 0, uses_anonymous_args = 0
 2444              	.LVL219:
 2445              	@ .\driver\src\uart_va108xx.c:708:   UART->reg->IRQ_ENB &=  ~(UART_PERIPHERAL_IRQ_ENB_IRQ_TX_Msk | 
 708:.\driver\src/uart_va108xx.c ****   UART->reg->IRQ_ENB &=  ~(UART_PERIPHERAL_IRQ_ENB_IRQ_TX_Msk | \
 2446              		.loc 1 708 0
 2447 05f0 F020     		movs	r0, #240	@ tmp123,
 2448              	.LVL220:
 2449 05f2 4B68     		ldr	r3, [r1, #4]	@ _1, UART_14(D)->reg
 2450              	@ .\driver\src\uart_va108xx.c:707: int32_t VOR_UART_abort_send(uint32_t       arg, UART_RESOURCES *
 707:.\driver\src/uart_va108xx.c ****   UART->reg->IRQ_ENB &=  ~(UART_PERIPHERAL_IRQ_ENB_IRQ_TX_Msk | \
 2451              		.loc 1 707 0
 2452 05f4 10B5     		push	{r4, lr}	@
 2453              	.LCFI9:
 2454              		.cfi_def_cfa_offset 8
 2455              		.cfi_offset 4, -8
 2456              		.cfi_offset 14, -4
 2457              	@ .\driver\src\uart_va108xx.c:708:   UART->reg->IRQ_ENB &=  ~(UART_PERIPHERAL_IRQ_ENB_IRQ_TX_Msk | 
 2458              		.loc 1 708 0
 2459 05f6 9A6A     		ldr	r2, [r3, #40]	@ _2, _1->IRQ_ENB
 2460 05f8 8243     		bics	r2, r0	@ _4, tmp123
 2461 05fa 9A62     		str	r2, [r3, #40]	@ _4, _1->IRQ_ENB
 2462              	@ .\driver\src\uart_va108xx.c:712: 	UART->reg->FIFO_CLR |= (UART_PERIPHERAL_FIFO_CLR_TXSTS_Msk | \
 709:.\driver\src/uart_va108xx.c **** 	  	 							 UART_PERIPHERAL_IRQ_ENB_IRQ_TX_STATUS_Msk | \
 710:.\driver\src/uart_va108xx.c **** 							        UART_PERIPHERAL_IRQ_ENB_IRQ_TX_EMPTY_Msk | \
 711:.\driver\src/uart_va108xx.c **** 									      UART_PERIPHERAL_IRQ_ENB_IRQ_TX_CTS_Msk );		  
 712:.\driver\src/uart_va108xx.c **** 	UART->reg->FIFO_CLR |= (UART_PERIPHERAL_FIFO_CLR_TXSTS_Msk | \
 2463              		.loc 1 712 0
 2464 05fc 0A22     		movs	r2, #10	@ tmp124,
 2465 05fe 9869     		ldr	r0, [r3, #24]	@ _6, _1->FIFO_CLR
 2466 0600 0243     		orrs	r2, r0	@ _8, _6
 2467              	@ .\driver\src\uart_va108xx.c:715: 	UART->reg->ENABLE &= ~UART_PERIPHERAL_ENABLE_TXENABLE_Msk;
 713:.\driver\src/uart_va108xx.c **** 	                        UART_PERIPHERAL_FIFO_CLR_TXFIFO_Msk );
 714:.\driver\src/uart_va108xx.c **** 	// Stop Tranmiter
 715:.\driver\src/uart_va108xx.c **** 	UART->reg->ENABLE &= ~UART_PERIPHERAL_ENABLE_TXENABLE_Msk;
 2468              		.loc 1 715 0
 2469 0602 0220     		movs	r0, #2	@ tmp125,
 2470              	@ .\driver\src\uart_va108xx.c:712: 	UART->reg->FIFO_CLR |= (UART_PERIPHERAL_FIFO_CLR_TXSTS_Msk | \
 712:.\driver\src/uart_va108xx.c **** 	                        UART_PERIPHERAL_FIFO_CLR_TXFIFO_Msk );
 2471              		.loc 1 712 0
 2472 0604 9A61     		str	r2, [r3, #24]	@ _8, _1->FIFO_CLR
 2473              	@ .\driver\src\uart_va108xx.c:715: 	UART->reg->ENABLE &= ~UART_PERIPHERAL_ENABLE_TXENABLE_Msk;
 2474              		.loc 1 715 0
 2475 0606 5A68     		ldr	r2, [r3, #4]	@ _9, _1->ENABLE
 2476 0608 8243     		bics	r2, r0	@ _10, tmp125
 2477 060a 5A60     		str	r2, [r3, #4]	@ _10, _1->ENABLE
 2478              	@ .\driver\src\uart_va108xx.c:716: 	if(!(UART->reg->ENABLE&UART_PERIPHERAL_ENABLE_RXENABLE_Msk))
 716:.\driver\src/uart_va108xx.c **** 	if(!(UART->reg->ENABLE&UART_PERIPHERAL_ENABLE_RXENABLE_Msk))
ARM GAS  C:\Users\claym\AppData\Local\Temp\cc2sTfd9.s 			page 66


 2479              		.loc 1 716 0
 2480 060c 5B68     		ldr	r3, [r3, #4]	@ _11, _1->ENABLE
 2481 060e DB07     		lsls	r3, r3, #31	@ tmp129, _11,
 2482 0610 03D4     		bmi	.L223	@,
 2483              	.LVL221:
 2484              	.LBB56:
 2485              	.LBB57:
 2486              	@ .\driver\src\uart_va108xx.c:717:     VOR_Disable_Irq(VOR_IRQ_UART, UART->uart_id);
 717:.\driver\src/uart_va108xx.c ****     VOR_Disable_Irq(VOR_IRQ_UART, UART->uart_id);
 2487              		.loc 1 717 0
 2488 0612 0968     		ldr	r1, [r1]	@, UART_14(D)->uart_id
 2489              	.LVL222:
 2490 0614 0130     		adds	r0, r0, #1	@,
 2491 0616 FFF7FEFF 		bl	VOR_Disable_Irq	@
 2492              	.LVL223:
 2493              	.L223:
 2494              	.LBE57:
 2495              	.LBE56:
 2496              	@ .\driver\src\uart_va108xx.c:720: }
 718:.\driver\src/uart_va108xx.c **** 	
 719:.\driver\src/uart_va108xx.c ****   return VOR_DRIVER_OK;
 720:.\driver\src/uart_va108xx.c **** }
 2497              		.loc 1 720 0
 2498 061a 0020     		movs	r0, #0	@,
 2499              		@ sp needed	@
 2500 061c 10BD     		pop	{r4, pc}
 2501              		.cfi_endproc
 2502              	.LFE60:
 2503              		.size	VOR_UART_abort_send, .-VOR_UART_abort_send
 2504              		.align	1
 2505              		.global	VOR_UART_abort_recv
 2506              		.syntax unified
 2507              		.code	16
 2508              		.thumb_func
 2509              		.fpu softvfp
 2510              		.type	VOR_UART_abort_recv, %function
 2511              	VOR_UART_abort_recv:
 2512              	.LFB61:
 721:.\driver\src/uart_va108xx.c **** 
 722:.\driver\src/uart_va108xx.c **** int32_t VOR_UART_abort_recv(uint32_t       arg, UART_RESOURCES *UART) {
 2513              		.loc 1 722 0
 2514              		.cfi_startproc
 2515              		@ args = 0, pretend = 0, frame = 0
 2516              		@ frame_needed = 0, uses_anonymous_args = 0
 2517              	.LVL224:
 2518              	@ .\driver\src\uart_va108xx.c:723:    UART->reg->IRQ_ENB &= ~(UART_PERIPHERAL_IRQ_ENB_IRQ_RX_Msk | 
 723:.\driver\src/uart_va108xx.c ****    UART->reg->IRQ_ENB &= ~(UART_PERIPHERAL_IRQ_ENB_IRQ_RX_Msk | \
 2519              		.loc 1 723 0
 2520 061e 0720     		movs	r0, #7	@ tmp123,
 2521              	.LVL225:
 2522 0620 4B68     		ldr	r3, [r1, #4]	@ _1, UART_14(D)->reg
 2523              	@ .\driver\src\uart_va108xx.c:722: int32_t VOR_UART_abort_recv(uint32_t       arg, UART_RESOURCES *
 722:.\driver\src/uart_va108xx.c ****    UART->reg->IRQ_ENB &= ~(UART_PERIPHERAL_IRQ_ENB_IRQ_RX_Msk | \
 2524              		.loc 1 722 0
 2525 0622 10B5     		push	{r4, lr}	@
 2526              	.LCFI10:
 2527              		.cfi_def_cfa_offset 8
ARM GAS  C:\Users\claym\AppData\Local\Temp\cc2sTfd9.s 			page 67


 2528              		.cfi_offset 4, -8
 2529              		.cfi_offset 14, -4
 2530              	@ .\driver\src\uart_va108xx.c:723:    UART->reg->IRQ_ENB &= ~(UART_PERIPHERAL_IRQ_ENB_IRQ_RX_Msk | 
 2531              		.loc 1 723 0
 2532 0624 9A6A     		ldr	r2, [r3, #40]	@ _2, _1->IRQ_ENB
 2533 0626 8243     		bics	r2, r0	@ _4, tmp123
 2534 0628 9A62     		str	r2, [r3, #40]	@ _4, _1->IRQ_ENB
 2535              	@ .\driver\src\uart_va108xx.c:726: 	UART->reg->FIFO_CLR |= (UART_PERIPHERAL_FIFO_CLR_RXFIFO_Msk | \
 724:.\driver\src/uart_va108xx.c **** 			 							UART_PERIPHERAL_IRQ_ENB_IRQ_RX_STATUS_Msk | \
 725:.\driver\src/uart_va108xx.c **** 											UART_PERIPHERAL_IRQ_ENB_IRQ_RX_TO_Msk );
 726:.\driver\src/uart_va108xx.c **** 	UART->reg->FIFO_CLR |= (UART_PERIPHERAL_FIFO_CLR_RXFIFO_Msk | \
 2536              		.loc 1 726 0
 2537 062a 0522     		movs	r2, #5	@ tmp124,
 2538 062c 9869     		ldr	r0, [r3, #24]	@ _6, _1->FIFO_CLR
 2539 062e 0243     		orrs	r2, r0	@ _8, _6
 2540              	@ .\driver\src\uart_va108xx.c:729:    UART->reg->ENABLE &= ~UART_PERIPHERAL_ENABLE_RXENABLE_Msk;
 727:.\driver\src/uart_va108xx.c **** 	                        UART_PERIPHERAL_FIFO_CLR_RXSTS_Msk  );
 728:.\driver\src/uart_va108xx.c ****  	 // Stop Receiver
 729:.\driver\src/uart_va108xx.c ****    UART->reg->ENABLE &= ~UART_PERIPHERAL_ENABLE_RXENABLE_Msk;
 2541              		.loc 1 729 0
 2542 0630 0120     		movs	r0, #1	@ tmp125,
 2543              	@ .\driver\src\uart_va108xx.c:726: 	UART->reg->FIFO_CLR |= (UART_PERIPHERAL_FIFO_CLR_RXFIFO_Msk | \
 726:.\driver\src/uart_va108xx.c **** 	                        UART_PERIPHERAL_FIFO_CLR_RXSTS_Msk  );
 2544              		.loc 1 726 0
 2545 0632 9A61     		str	r2, [r3, #24]	@ _8, _1->FIFO_CLR
 2546              	@ .\driver\src\uart_va108xx.c:729:    UART->reg->ENABLE &= ~UART_PERIPHERAL_ENABLE_RXENABLE_Msk;
 2547              		.loc 1 729 0
 2548 0634 5A68     		ldr	r2, [r3, #4]	@ _9, _1->ENABLE
 2549 0636 8243     		bics	r2, r0	@ _10, tmp125
 2550 0638 5A60     		str	r2, [r3, #4]	@ _10, _1->ENABLE
 2551              	@ .\driver\src\uart_va108xx.c:730:    if(!(UART->reg->ENABLE&UART_PERIPHERAL_ENABLE_TXENABLE_Msk))
 730:.\driver\src/uart_va108xx.c ****    if(!(UART->reg->ENABLE&UART_PERIPHERAL_ENABLE_TXENABLE_Msk))
 2552              		.loc 1 730 0
 2553 063a 5B68     		ldr	r3, [r3, #4]	@ _11, _1->ENABLE
 2554 063c 9B07     		lsls	r3, r3, #30	@ tmp129, _11,
 2555 063e 03D4     		bmi	.L225	@,
 2556              	.LVL226:
 2557              	.LBB60:
 2558              	.LBB61:
 2559              	@ .\driver\src\uart_va108xx.c:717:     VOR_Disable_Irq(VOR_IRQ_UART, UART->uart_id);
 717:.\driver\src/uart_va108xx.c **** 	
 2560              		.loc 1 717 0
 2561 0640 0968     		ldr	r1, [r1]	@, UART_14(D)->uart_id
 2562              	.LVL227:
 2563 0642 0230     		adds	r0, r0, #2	@,
 2564 0644 FFF7FEFF 		bl	VOR_Disable_Irq	@
 2565              	.LVL228:
 2566              	.L225:
 2567              	.LBE61:
 2568              	.LBE60:
 2569              	@ .\driver\src\uart_va108xx.c:733: }
 731:.\driver\src/uart_va108xx.c ****      VOR_Disable_Irq(VOR_IRQ_UART, UART->uart_id);				 
 732:.\driver\src/uart_va108xx.c ****   return VOR_DRIVER_OK;
 733:.\driver\src/uart_va108xx.c **** }
 2570              		.loc 1 733 0
 2571 0648 0020     		movs	r0, #0	@,
 2572              		@ sp needed	@
ARM GAS  C:\Users\claym\AppData\Local\Temp\cc2sTfd9.s 			page 68


 2573 064a 10BD     		pop	{r4, pc}
 2574              		.cfi_endproc
 2575              	.LFE61:
 2576              		.size	VOR_UART_abort_recv, .-VOR_UART_abort_recv
 2577              		.align	1
 2578              		.global	UART_Control
 2579              		.syntax unified
 2580              		.code	16
 2581              		.thumb_func
 2582              		.fpu softvfp
 2583              		.type	UART_Control, %function
 2584              	UART_Control:
 2585              	.LFB62:
 734:.\driver\src/uart_va108xx.c **** 
 735:.\driver\src/uart_va108xx.c **** 
 736:.\driver\src/uart_va108xx.c **** /**
 737:.\driver\src/uart_va108xx.c ****   function:    int32_t UART_Control (uint32_t          control,
 738:.\driver\src/uart_va108xx.c ****                                       uint32_t          arg,
 739:.\driver\src/uart_va108xx.c ****                                       UART_RESOURCES  *UART)
 740:.\driver\src/uart_va108xx.c ****   brief:       Control UART Interface.
 741:.\driver\src/uart_va108xx.c ****   Input:       control  Operation
 742:.\driver\src/uart_va108xx.c ****   Input:       arg      Argument of operation (optional)
 743:.\driver\src/uart_va108xx.c ****   Input:       UART    Pointer to UART resources
 744:.\driver\src/uart_va108xx.c ****   return:      common execution_status and driver specific UART_execution_status
 745:.\driver\src/uart_va108xx.c **** */
 746:.\driver\src/uart_va108xx.c **** int32_t UART_Control (uint32_t control, uint32_t arg, UART_RESOURCES *UART)
 747:.\driver\src/uart_va108xx.c **** {
 2586              		.loc 1 747 0
 2587              		.cfi_startproc
 2588              		@ args = 0, pretend = 0, frame = 0
 2589              		@ frame_needed = 0, uses_anonymous_args = 0
 2590              	.LVL229:
 2591 064c 0B00     		movs	r3, r1	@ arg, arg
 2592 064e 10B5     		push	{r4, lr}	@
 2593              	.LCFI11:
 2594              		.cfi_def_cfa_offset 8
 2595              		.cfi_offset 4, -8
 2596              		.cfi_offset 14, -4
 2597              	@ .\driver\src\uart_va108xx.c:747: {
 2598              		.loc 1 747 0
 2599 0650 111E     		subs	r1, r2, #0	@ UART, UART,
 2600              	.LVL230:
 2601              	@ .\driver\src\uart_va108xx.c:748: 	if((UART == NULL) || (UART->reg ==NULL))
 748:.\driver\src/uart_va108xx.c **** 	if((UART == NULL) || (UART->reg ==NULL))
 2602              		.loc 1 748 0
 2603 0652 00D1     		bne	.LCB1911	@
 2604 0654 6FE0     		b	.L253	@long jump	@
 2605              	.LCB1911:
 2606              	@ .\driver\src\uart_va108xx.c:748: 	if((UART == NULL) || (UART->reg ==NULL))
 2607              		.loc 1 748 0 is_stmt 0 discriminator 1
 2608 0656 5268     		ldr	r2, [r2, #4]	@ tmp122, UART_6(D)->reg
 2609              	.LVL231:
 2610 0658 002A     		cmp	r2, #0	@ tmp122,
 2611 065a 00D1     		bne	.LCB1916	@
 2612 065c 6BE0     		b	.L253	@long jump	@
 2613              	.LCB1916:
 2614              	@ .\driver\src\uart_va108xx.c:751:   switch(control)
ARM GAS  C:\Users\claym\AppData\Local\Temp\cc2sTfd9.s 			page 69


 749:.\driver\src/uart_va108xx.c **** 	  return VOR_DRIVER_ERROR_PARAMETER;
 750:.\driver\src/uart_va108xx.c ****   
 751:.\driver\src/uart_va108xx.c ****   switch(control)
 2615              		.loc 1 751 0 is_stmt 1
 2616 065e 421E     		subs	r2, r0, #1	@ tmp118, control,
 2617              	@ .\driver\src\uart_va108xx.c:779:   return VOR_DRIVER_OK;
 752:.\driver\src/uart_va108xx.c ****    {
 753:.\driver\src/uart_va108xx.c **** 		case VOR_UART_CONTROL_PARITY_ENABLED:  return VOR_UART_SetParity(arg,UART);
 754:.\driver\src/uart_va108xx.c **** 		case VOR_UART_CONTROL_PARITY_SEL:      return VOR_UART_SelectParity(arg,UART);
 755:.\driver\src/uart_va108xx.c **** 		case VOR_UART_CONTROL_PARITY_MAN:      return VOR_UART_ManualParity(arg,UART);
 756:.\driver\src/uart_va108xx.c **** 		case VOR_UART_CONTROL_STOP_BIT:        return VOR_UART_StopBit(arg,UART);
 757:.\driver\src/uart_va108xx.c **** 		case VOR_UART_CONTROL_DATA_BITS:       return VOR_UART_DataBits(arg,UART);
 758:.\driver\src/uart_va108xx.c **** 		case VOR_UART_CONTROL_LOOPBACK:        return VOR_UART_LoopBack(arg,UART);
 759:.\driver\src/uart_va108xx.c **** 		case VOR_UART_CONTROL_AUTOCTS:         return VOR_UART_AutoCTS(arg,UART);
 760:.\driver\src/uart_va108xx.c **** 		case VOR_UART_CONTROL_DEFRTS:          return VOR_UART_DEFRTS(arg,UART);
 761:.\driver\src/uart_va108xx.c **** 		case VOR_UART_CONTROL_AUTORTS:         return VOR_UART_AutoRTS(arg,UART);
 762:.\driver\src/uart_va108xx.c **** 		case VOR_UART_CONTROL_TX:              return VOR_UART_TX(arg,UART);
 763:.\driver\src/uart_va108xx.c **** 		case VOR_UART_CONTROL_RX:              return VOR_UART_RX(arg,UART);
 764:.\driver\src/uart_va108xx.c **** 		case VOR_UART_CONTROL_BREAK:           return VOR_UART_Break(arg,UART);
 765:.\driver\src/uart_va108xx.c **** 		case VOR_UART_CONTROL_RXFIFOTRG:       return VOR_UART_RXFIFOIRQTRG(arg,UART);
 766:.\driver\src/uart_va108xx.c **** 		case VOR_UART_CONTROL_TXFIFOTRG:       return VOR_UART_TXFIFOIRQTRG(arg,UART);
 767:.\driver\src/uart_va108xx.c **** 		case VOR_UART_CONTROL_RXFIFORTSTRG:	   return VOR_UART_RXFIFORTSTRG(arg,UART);
 768:.\driver\src/uart_va108xx.c **** 		case VOR_UART_CONTROL_ENB9BIT:	       return VOR_UART_ENB9BIT(arg,UART);
 769:.\driver\src/uart_va108xx.c **** 		case VOR_UART_CONTROL_ADDR9MSK:	       return VOR_UART_ADDR9MSK(arg,UART); 
 770:.\driver\src/uart_va108xx.c **** 		case VOR_UART_CONTROL_FIFOCLR:	       return VOR_UART_FIFOCLR(arg,UART);
 771:.\driver\src/uart_va108xx.c **** 		case VOR_UART_CONTROL_POLL_MODE:       return VOR_UART_PollMode(arg,UART);
 772:.\driver\src/uart_va108xx.c **** 		case VOR_UART_CONTROL_POLL_TO:         return VOR_UART_PollTimeOut(arg,UART);
 773:.\driver\src/uart_va108xx.c **** 		case VOR_UART_CONTROL_BAUD:            return UART_SetBaudrate(arg,UART);
 774:.\driver\src/uart_va108xx.c **** 		case VOR_UART_ABORT_SEND:              return VOR_UART_abort_send(arg,UART);
 775:.\driver\src/uart_va108xx.c **** 		case VOR_UART_ABORT_RECV:              return VOR_UART_abort_recv(arg,UART);
 776:.\driver\src/uart_va108xx.c **** 		default:
 777:.\driver\src/uart_va108xx.c **** 			break;
 778:.\driver\src/uart_va108xx.c ****    }
 779:.\driver\src/uart_va108xx.c ****   return VOR_DRIVER_OK;
 2618              		.loc 1 779 0
 2619 0660 0020     		movs	r0, #0	@ <retval>,
 2620              	.LVL232:
 2621              	@ .\driver\src\uart_va108xx.c:751:   switch(control)
 751:.\driver\src/uart_va108xx.c ****    {
 2622              		.loc 1 751 0
 2623 0662 162A     		cmp	r2, #22	@ tmp118,
 2624 0664 11D8     		bhi	.L226	@,
 2625 0666 1000     		movs	r0, r2	@, tmp118
 2626 0668 FFF7FEFF 		bl	__gnu_thumb1_case_uqi
 2627              	.L229:
 2628 066c 0C       		.byte	(.L228-.L229)/2
 2629 066d 10       		.byte	(.L230-.L229)/2
 2630 066e 14       		.byte	(.L231-.L229)/2
 2631 066f 18       		.byte	(.L232-.L229)/2
 2632 0670 1C       		.byte	(.L233-.L229)/2
 2633 0671 20       		.byte	(.L234-.L229)/2
 2634 0672 24       		.byte	(.L235-.L229)/2
 2635 0673 28       		.byte	(.L236-.L229)/2
 2636 0674 2C       		.byte	(.L237-.L229)/2
 2637 0675 30       		.byte	(.L238-.L229)/2
 2638 0676 34       		.byte	(.L239-.L229)/2
 2639 0677 38       		.byte	(.L240-.L229)/2
ARM GAS  C:\Users\claym\AppData\Local\Temp\cc2sTfd9.s 			page 70


 2640 0678 5D       		.byte	(.L241-.L229)/2
 2641 0679 61       		.byte	(.L242-.L229)/2
 2642 067a 3C       		.byte	(.L243-.L229)/2
 2643 067b 40       		.byte	(.L244-.L229)/2
 2644 067c 44       		.byte	(.L245-.L229)/2
 2645 067d 48       		.byte	(.L246-.L229)/2
 2646 067e 4C       		.byte	(.L247-.L229)/2
 2647 067f 50       		.byte	(.L248-.L229)/2
 2648 0680 57       		.byte	(.L249-.L229)/2
 2649 0681 54       		.byte	(.L250-.L229)/2
 2650 0682 59       		.byte	(.L251-.L229)/2
 2651 0683 00       		.p2align 1
 2652              	.L228:
 2653              	@ .\driver\src\uart_va108xx.c:753: 		case VOR_UART_CONTROL_PARITY_ENABLED:  return VOR_UART_SetPari
 753:.\driver\src/uart_va108xx.c **** 		case VOR_UART_CONTROL_PARITY_SEL:      return VOR_UART_SelectParity(arg,UART);
 2654              		.loc 1 753 0
 2655 0684 1800     		movs	r0, r3	@, arg
 2656 0686 FFF7FEFF 		bl	VOR_UART_SetParity	@
 2657              	.LVL233:
 2658              	.L226:
 2659              	@ .\driver\src\uart_va108xx.c:780: }
 780:.\driver\src/uart_va108xx.c **** }
 2660              		.loc 1 780 0
 2661              		@ sp needed	@
 2662 068a 10BD     		pop	{r4, pc}
 2663              	.LVL234:
 2664              	.L230:
 2665              	@ .\driver\src\uart_va108xx.c:754: 		case VOR_UART_CONTROL_PARITY_SEL:      return VOR_UART_SelectP
 754:.\driver\src/uart_va108xx.c **** 		case VOR_UART_CONTROL_PARITY_MAN:      return VOR_UART_ManualParity(arg,UART);
 2666              		.loc 1 754 0
 2667 068c 1800     		movs	r0, r3	@, arg
 2668 068e FFF7FEFF 		bl	VOR_UART_SelectParity	@
 2669              	.LVL235:
 2670 0692 FAE7     		b	.L226	@
 2671              	.LVL236:
 2672              	.L231:
 2673              	@ .\driver\src\uart_va108xx.c:755: 		case VOR_UART_CONTROL_PARITY_MAN:      return VOR_UART_ManualP
 755:.\driver\src/uart_va108xx.c **** 		case VOR_UART_CONTROL_STOP_BIT:        return VOR_UART_StopBit(arg,UART);
 2674              		.loc 1 755 0
 2675 0694 1800     		movs	r0, r3	@, arg
 2676 0696 FFF7FEFF 		bl	VOR_UART_ManualParity	@
 2677              	.LVL237:
 2678 069a F6E7     		b	.L226	@
 2679              	.LVL238:
 2680              	.L232:
 2681              	@ .\driver\src\uart_va108xx.c:756: 		case VOR_UART_CONTROL_STOP_BIT:        return VOR_UART_StopBit
 756:.\driver\src/uart_va108xx.c **** 		case VOR_UART_CONTROL_DATA_BITS:       return VOR_UART_DataBits(arg,UART);
 2682              		.loc 1 756 0
 2683 069c 1800     		movs	r0, r3	@, arg
 2684 069e FFF7FEFF 		bl	VOR_UART_StopBit	@
 2685              	.LVL239:
 2686 06a2 F2E7     		b	.L226	@
 2687              	.LVL240:
 2688              	.L233:
 2689              	@ .\driver\src\uart_va108xx.c:757: 		case VOR_UART_CONTROL_DATA_BITS:       return VOR_UART_DataBit
 757:.\driver\src/uart_va108xx.c **** 		case VOR_UART_CONTROL_LOOPBACK:        return VOR_UART_LoopBack(arg,UART);
 2690              		.loc 1 757 0
ARM GAS  C:\Users\claym\AppData\Local\Temp\cc2sTfd9.s 			page 71


 2691 06a4 1800     		movs	r0, r3	@, arg
 2692 06a6 FFF7FEFF 		bl	VOR_UART_DataBits	@
 2693              	.LVL241:
 2694 06aa EEE7     		b	.L226	@
 2695              	.LVL242:
 2696              	.L234:
 2697              	@ .\driver\src\uart_va108xx.c:758: 		case VOR_UART_CONTROL_LOOPBACK:        return VOR_UART_LoopBac
 758:.\driver\src/uart_va108xx.c **** 		case VOR_UART_CONTROL_AUTOCTS:         return VOR_UART_AutoCTS(arg,UART);
 2698              		.loc 1 758 0
 2699 06ac 1800     		movs	r0, r3	@, arg
 2700 06ae FFF7FEFF 		bl	VOR_UART_LoopBack	@
 2701              	.LVL243:
 2702 06b2 EAE7     		b	.L226	@
 2703              	.LVL244:
 2704              	.L235:
 2705              	@ .\driver\src\uart_va108xx.c:759: 		case VOR_UART_CONTROL_AUTOCTS:         return VOR_UART_AutoCTS
 759:.\driver\src/uart_va108xx.c **** 		case VOR_UART_CONTROL_DEFRTS:          return VOR_UART_DEFRTS(arg,UART);
 2706              		.loc 1 759 0
 2707 06b4 1800     		movs	r0, r3	@, arg
 2708 06b6 FFF7FEFF 		bl	VOR_UART_AutoCTS	@
 2709              	.LVL245:
 2710 06ba E6E7     		b	.L226	@
 2711              	.LVL246:
 2712              	.L236:
 2713              	@ .\driver\src\uart_va108xx.c:760: 		case VOR_UART_CONTROL_DEFRTS:          return VOR_UART_DEFRTS(
 760:.\driver\src/uart_va108xx.c **** 		case VOR_UART_CONTROL_AUTORTS:         return VOR_UART_AutoRTS(arg,UART);
 2714              		.loc 1 760 0
 2715 06bc 1800     		movs	r0, r3	@, arg
 2716 06be FFF7FEFF 		bl	VOR_UART_DEFRTS	@
 2717              	.LVL247:
 2718 06c2 E2E7     		b	.L226	@
 2719              	.LVL248:
 2720              	.L237:
 2721              	@ .\driver\src\uart_va108xx.c:761: 		case VOR_UART_CONTROL_AUTORTS:         return VOR_UART_AutoRTS
 761:.\driver\src/uart_va108xx.c **** 		case VOR_UART_CONTROL_TX:              return VOR_UART_TX(arg,UART);
 2722              		.loc 1 761 0
 2723 06c4 1800     		movs	r0, r3	@, arg
 2724 06c6 FFF7FEFF 		bl	VOR_UART_AutoRTS	@
 2725              	.LVL249:
 2726 06ca DEE7     		b	.L226	@
 2727              	.LVL250:
 2728              	.L238:
 2729              	@ .\driver\src\uart_va108xx.c:762: 		case VOR_UART_CONTROL_TX:              return VOR_UART_TX(arg,
 762:.\driver\src/uart_va108xx.c **** 		case VOR_UART_CONTROL_RX:              return VOR_UART_RX(arg,UART);
 2730              		.loc 1 762 0
 2731 06cc 1800     		movs	r0, r3	@, arg
 2732 06ce FFF7FEFF 		bl	VOR_UART_TX	@
 2733              	.LVL251:
 2734 06d2 DAE7     		b	.L226	@
 2735              	.LVL252:
 2736              	.L239:
 2737              	@ .\driver\src\uart_va108xx.c:763: 		case VOR_UART_CONTROL_RX:              return VOR_UART_RX(arg,
 763:.\driver\src/uart_va108xx.c **** 		case VOR_UART_CONTROL_BREAK:           return VOR_UART_Break(arg,UART);
 2738              		.loc 1 763 0
 2739 06d4 1800     		movs	r0, r3	@, arg
 2740 06d6 FFF7FEFF 		bl	VOR_UART_RX	@
 2741              	.LVL253:
ARM GAS  C:\Users\claym\AppData\Local\Temp\cc2sTfd9.s 			page 72


 2742 06da D6E7     		b	.L226	@
 2743              	.LVL254:
 2744              	.L240:
 2745              	@ .\driver\src\uart_va108xx.c:764: 		case VOR_UART_CONTROL_BREAK:           return VOR_UART_Break(a
 764:.\driver\src/uart_va108xx.c **** 		case VOR_UART_CONTROL_RXFIFOTRG:       return VOR_UART_RXFIFOIRQTRG(arg,UART);
 2746              		.loc 1 764 0
 2747 06dc 1800     		movs	r0, r3	@, arg
 2748 06de FFF7FEFF 		bl	VOR_UART_Break	@
 2749              	.LVL255:
 2750 06e2 D2E7     		b	.L226	@
 2751              	.LVL256:
 2752              	.L243:
 2753              	@ .\driver\src\uart_va108xx.c:765: 		case VOR_UART_CONTROL_RXFIFOTRG:       return VOR_UART_RXFIFOI
 765:.\driver\src/uart_va108xx.c **** 		case VOR_UART_CONTROL_TXFIFOTRG:       return VOR_UART_TXFIFOIRQTRG(arg,UART);
 2754              		.loc 1 765 0
 2755 06e4 1800     		movs	r0, r3	@, arg
 2756 06e6 FFF7FEFF 		bl	VOR_UART_RXFIFOIRQTRG	@
 2757              	.LVL257:
 2758 06ea CEE7     		b	.L226	@
 2759              	.LVL258:
 2760              	.L244:
 2761              	@ .\driver\src\uart_va108xx.c:766: 		case VOR_UART_CONTROL_TXFIFOTRG:       return VOR_UART_TXFIFOI
 766:.\driver\src/uart_va108xx.c **** 		case VOR_UART_CONTROL_RXFIFORTSTRG:	   return VOR_UART_RXFIFORTSTRG(arg,UART);
 2762              		.loc 1 766 0
 2763 06ec 1800     		movs	r0, r3	@, arg
 2764 06ee FFF7FEFF 		bl	VOR_UART_TXFIFOIRQTRG	@
 2765              	.LVL259:
 2766 06f2 CAE7     		b	.L226	@
 2767              	.LVL260:
 2768              	.L245:
 2769              	@ .\driver\src\uart_va108xx.c:767: 		case VOR_UART_CONTROL_RXFIFORTSTRG:	   return VOR_UART_RXFIFOR
 767:.\driver\src/uart_va108xx.c **** 		case VOR_UART_CONTROL_ENB9BIT:	       return VOR_UART_ENB9BIT(arg,UART);
 2770              		.loc 1 767 0
 2771 06f4 1800     		movs	r0, r3	@, arg
 2772 06f6 FFF7FEFF 		bl	VOR_UART_RXFIFORTSTRG	@
 2773              	.LVL261:
 2774 06fa C6E7     		b	.L226	@
 2775              	.LVL262:
 2776              	.L246:
 2777              	@ .\driver\src\uart_va108xx.c:768: 		case VOR_UART_CONTROL_ENB9BIT:	       return VOR_UART_ENB9BIT(
 768:.\driver\src/uart_va108xx.c **** 		case VOR_UART_CONTROL_ADDR9MSK:	       return VOR_UART_ADDR9MSK(arg,UART); 
 2778              		.loc 1 768 0
 2779 06fc 1800     		movs	r0, r3	@, arg
 2780 06fe FFF7FEFF 		bl	VOR_UART_ENB9BIT	@
 2781              	.LVL263:
 2782 0702 C2E7     		b	.L226	@
 2783              	.LVL264:
 2784              	.L247:
 2785              	@ .\driver\src\uart_va108xx.c:769: 		case VOR_UART_CONTROL_ADDR9MSK:	       return VOR_UART_ADDR9MS
 769:.\driver\src/uart_va108xx.c **** 		case VOR_UART_CONTROL_FIFOCLR:	       return VOR_UART_FIFOCLR(arg,UART);
 2786              		.loc 1 769 0
 2787 0704 1800     		movs	r0, r3	@, arg
 2788 0706 FFF7FEFF 		bl	VOR_UART_ADDR9MSK	@
 2789              	.LVL265:
 2790 070a BEE7     		b	.L226	@
 2791              	.LVL266:
 2792              	.L248:
ARM GAS  C:\Users\claym\AppData\Local\Temp\cc2sTfd9.s 			page 73


 2793              	@ .\driver\src\uart_va108xx.c:770: 		case VOR_UART_CONTROL_FIFOCLR:	       return VOR_UART_FIFOCLR(
 770:.\driver\src/uart_va108xx.c **** 		case VOR_UART_CONTROL_POLL_MODE:       return VOR_UART_PollMode(arg,UART);
 2794              		.loc 1 770 0
 2795 070c 1800     		movs	r0, r3	@, arg
 2796 070e FFF7FEFF 		bl	VOR_UART_FIFOCLR	@
 2797              	.LVL267:
 2798 0712 BAE7     		b	.L226	@
 2799              	.LVL268:
 2800              	.L250:
 2801              	.LBB62:
 2802              	.LBB63:
 2803              	@ .\driver\src\uart_va108xx.c:690:   UART->info.poll_mode = arg;
 690:.\driver\src/uart_va108xx.c ****   return VOR_DRIVER_OK;
 2804              		.loc 1 690 0
 2805 0714 8B61     		str	r3, [r1, #24]	@ arg, UART_6(D)->info.poll_mode
 2806              	.LVL269:
 2807              	.L255:
 2808              	.LBE63:
 2809              	.LBE62:
 2810              	@ .\driver\src\uart_va108xx.c:772: 		case VOR_UART_CONTROL_POLL_TO:         return VOR_UART_PollTim
 772:.\driver\src/uart_va108xx.c **** 		case VOR_UART_CONTROL_BAUD:            return UART_SetBaudrate(arg,UART);
 2811              		.loc 1 772 0
 2812 0716 0020     		movs	r0, #0	@ <retval>,
 2813 0718 B7E7     		b	.L226	@
 2814              	.L249:
 2815              	.LVL270:
 2816              	.LBB64:
 2817              	.LBB65:
 2818              	@ .\driver\src\uart_va108xx.c:702:   UART->info.poll_tout = arg;
 702:.\driver\src/uart_va108xx.c ****   return VOR_DRIVER_OK;
 2819              		.loc 1 702 0
 2820 071a CB61     		str	r3, [r1, #28]	@ arg, UART_6(D)->info.poll_tout
 2821 071c FBE7     		b	.L255	@
 2822              	.LVL271:
 2823              	.L251:
 2824              	.LBE65:
 2825              	.LBE64:
 2826              	@ .\driver\src\uart_va108xx.c:773: 		case VOR_UART_CONTROL_BAUD:            return UART_SetBaudrate
 773:.\driver\src/uart_va108xx.c **** 		case VOR_UART_ABORT_SEND:              return VOR_UART_abort_send(arg,UART);
 2827              		.loc 1 773 0
 2828 071e 1800     		movs	r0, r3	@, arg
 2829 0720 FFF7FEFF 		bl	UART_SetBaudrate	@
 2830              	.LVL272:
 2831 0724 B1E7     		b	.L226	@
 2832              	.LVL273:
 2833              	.L241:
 2834              	@ .\driver\src\uart_va108xx.c:774: 		case VOR_UART_ABORT_SEND:              return VOR_UART_abort_s
 774:.\driver\src/uart_va108xx.c **** 		case VOR_UART_ABORT_RECV:              return VOR_UART_abort_recv(arg,UART);
 2835              		.loc 1 774 0
 2836 0726 1800     		movs	r0, r3	@, arg
 2837 0728 FFF7FEFF 		bl	VOR_UART_abort_send	@
 2838              	.LVL274:
 2839 072c ADE7     		b	.L226	@
 2840              	.LVL275:
 2841              	.L242:
 2842              	@ .\driver\src\uart_va108xx.c:775: 		case VOR_UART_ABORT_RECV:              return VOR_UART_abort_r
 775:.\driver\src/uart_va108xx.c **** 		default:
ARM GAS  C:\Users\claym\AppData\Local\Temp\cc2sTfd9.s 			page 74


 2843              		.loc 1 775 0
 2844 072e 1800     		movs	r0, r3	@, arg
 2845 0730 FFF7FEFF 		bl	VOR_UART_abort_recv	@
 2846              	.LVL276:
 2847 0734 A9E7     		b	.L226	@
 2848              	.LVL277:
 2849              	.L253:
 2850              	@ .\driver\src\uart_va108xx.c:749: 	  return VOR_DRIVER_ERROR_PARAMETER;
 749:.\driver\src/uart_va108xx.c ****   
 2851              		.loc 1 749 0
 2852 0736 0520     		movs	r0, #5	@ <retval>,
 2853              	.LVL278:
 2854 0738 4042     		rsbs	r0, r0, #0	@ <retval>, <retval>
 2855 073a A6E7     		b	.L226	@
 2856              		.cfi_endproc
 2857              	.LFE62:
 2858              		.size	UART_Control, .-UART_Control
 2859              		.align	1
 2860              		.global	UART_GetStatus
 2861              		.syntax unified
 2862              		.code	16
 2863              		.thumb_func
 2864              		.fpu softvfp
 2865              		.type	UART_GetStatus, %function
 2866              	UART_GetStatus:
 2867              	.LFB63:
 781:.\driver\src/uart_va108xx.c **** 
 782:.\driver\src/uart_va108xx.c **** /**
 783:.\driver\src/uart_va108xx.c ****   function:    VOR_UART_STATUS UART_GetStatus (UART_RESOURCES *UART)
 784:.\driver\src/uart_va108xx.c ****   brief:       Get UART status.
 785:.\driver\src/uart_va108xx.c ****   Input:       UART     Pointer to UART resources
 786:.\driver\src/uart_va108xx.c ****   return:      UART status VOR_UART_STATUS
 787:.\driver\src/uart_va108xx.c **** */
 788:.\driver\src/uart_va108xx.c **** VOR_UART_STATUS UART_GetStatus (UART_RESOURCES *UART) 
 789:.\driver\src/uart_va108xx.c **** {
 2868              		.loc 1 789 0
 2869              		.cfi_startproc
 2870              		@ args = 0, pretend = 0, frame = 0
 2871              		@ frame_needed = 0, uses_anonymous_args = 0
 2872              	.LVL279:
 2873              	@ .\driver\src\uart_va108xx.c:790: 	UART->info.status.RX_RDAVL         =      CHECK_BIT(UART->reg->
 790:.\driver\src/uart_va108xx.c **** 	UART->info.status.RX_RDAVL         =      CHECK_BIT(UART->reg->RXSTATUS, UART_PERIPHERAL_RXSTATUS_
 2874              		.loc 1 790 0
 2875 073c 0123     		movs	r3, #1	@ tmp164,
 2876 073e 4268     		ldr	r2, [r0, #4]	@ _1, UART_67(D)->reg
 2877              	@ .\driver\src\uart_va108xx.c:789: {
 789:.\driver\src/uart_va108xx.c **** 	UART->info.status.RX_RDAVL         =      CHECK_BIT(UART->reg->RXSTATUS, UART_PERIPHERAL_RXSTATUS_
 2878              		.loc 1 789 0
 2879 0740 F0B5     		push	{r4, r5, r6, r7, lr}	@
 2880              	.LCFI12:
 2881              		.cfi_def_cfa_offset 20
 2882              		.cfi_offset 4, -20
 2883              		.cfi_offset 5, -16
 2884              		.cfi_offset 6, -12
 2885              		.cfi_offset 7, -8
 2886              		.cfi_offset 14, -4
 2887              	@ .\driver\src\uart_va108xx.c:790: 	UART->info.status.RX_RDAVL         =      CHECK_BIT(UART->reg->
ARM GAS  C:\Users\claym\AppData\Local\Temp\cc2sTfd9.s 			page 75


 2888              		.loc 1 790 0
 2889 0742 017C     		ldrb	r1, [r0, #16]	@ UART_67(D)->info.status.RX_RDAVL, UART_67(D)->info.status.RX_RDAVL
 2890 0744 1469     		ldr	r4, [r2, #16]	@ _2, _1->RXSTATUS
 2891 0746 9943     		bics	r1, r3	@ tmp167, tmp164
 2892 0748 1C40     		ands	r4, r3	@ tmp163, tmp164
 2893 074a 2143     		orrs	r1, r4	@ tmp171, tmp163
 2894 074c 0174     		strb	r1, [r0, #16]	@ tmp171, UART_67(D)->info.status.RX_RDAVL
 2895              	@ .\driver\src\uart_va108xx.c:791: 	UART->info.status.RX_RDNFULL       =      CHECK_BIT(UART->reg->
 791:.\driver\src/uart_va108xx.c **** 	UART->info.status.RX_RDNFULL       =      CHECK_BIT(UART->reg->RXSTATUS, UART_PERIPHERAL_RXSTATUS_
 2896              		.loc 1 791 0
 2897 074e 1169     		ldr	r1, [r2, #16]	@ _5, _1->RXSTATUS
 2898 0750 0227     		movs	r7, #2	@ tmp187,
 2899 0752 D940     		lsrs	r1, r1, r3	@ tmp173, _5,
 2900 0754 1940     		ands	r1, r3	@ tmp175, tmp164
 2901 0756 9940     		lsls	r1, r1, r3	@ tmp183, tmp175,
 2902 0758 047C     		ldrb	r4, [r0, #16]	@ UART_67(D)->info.status.RX_RDNFULL, UART_67(D)->info.status.RX_RDNFULL
 2903              	@ .\driver\src\uart_va108xx.c:792: 	UART->info.status.RX_BUSY          =      CHECK_BIT(UART->reg->
 792:.\driver\src/uart_va108xx.c **** 	UART->info.status.RX_BUSY          =      CHECK_BIT(UART->reg->RXSTATUS, UART_PERIPHERAL_RXSTATUS_
 2904              		.loc 1 792 0
 2905 075a 0426     		movs	r6, #4	@ tmp464,
 2906              	@ .\driver\src\uart_va108xx.c:791: 	UART->info.status.RX_RDNFULL       =      CHECK_BIT(UART->reg->
 791:.\driver\src/uart_va108xx.c **** 	UART->info.status.RX_RDNFULL       =      CHECK_BIT(UART->reg->RXSTATUS, UART_PERIPHERAL_RXSTATUS_
 2907              		.loc 1 791 0
 2908 075c BC43     		bics	r4, r7	@ tmp186, tmp187
 2909 075e 2143     		orrs	r1, r4	@ tmp190, tmp186
 2910 0760 0174     		strb	r1, [r0, #16]	@ tmp190, UART_67(D)->info.status.RX_RDNFULL
 2911              	@ .\driver\src\uart_va108xx.c:792: 	UART->info.status.RX_BUSY          =      CHECK_BIT(UART->reg->
 2912              		.loc 1 792 0
 2913 0762 1169     		ldr	r1, [r2, #16]	@ _8, _1->RXSTATUS
 2914              	@ .\driver\src\uart_va108xx.c:793: 	UART->info.status.RX_TO            =      CHECK_BIT(UART->reg->
 793:.\driver\src/uart_va108xx.c **** 	UART->info.status.RX_TO            =      CHECK_BIT(UART->reg->RXSTATUS, UART_PERIPHERAL_RXSTATUS_
 2915              		.loc 1 793 0
 2916 0764 0825     		movs	r5, #8	@ tmp447,
 2917              	@ .\driver\src\uart_va108xx.c:792: 	UART->info.status.RX_BUSY          =      CHECK_BIT(UART->reg->
 792:.\driver\src/uart_va108xx.c **** 	UART->info.status.RX_BUSY          =      CHECK_BIT(UART->reg->RXSTATUS, UART_PERIPHERAL_RXSTATUS_
 2918              		.loc 1 792 0
 2919 0766 F940     		lsrs	r1, r1, r7	@ tmp192, _8,
 2920 0768 1940     		ands	r1, r3	@ tmp194, tmp164
 2921 076a B940     		lsls	r1, r1, r7	@ tmp202, tmp194,
 2922 076c 047C     		ldrb	r4, [r0, #16]	@ UART_67(D)->info.status.RX_BUSY, UART_67(D)->info.status.RX_BUSY
 2923              	@ .\driver\src\uart_va108xx.c:807: }
 794:.\driver\src/uart_va108xx.c **** 	UART->info.status.RX_OVR           =      CHECK_BIT(UART->reg->RXSTATUS, UART_PERIPHERAL_RXSTATUS_
 795:.\driver\src/uart_va108xx.c **** 	UART->info.status.RX_FRM           =      CHECK_BIT(UART->reg->RXSTATUS, UART_PERIPHERAL_RXSTATUS_
 796:.\driver\src/uart_va108xx.c **** 	UART->info.status.RX_PAR           =      CHECK_BIT(UART->reg->RXSTATUS, UART_PERIPHERAL_RXSTATUS_
 797:.\driver\src/uart_va108xx.c **** 	UART->info.status.RX_BRK           =      CHECK_BIT(UART->reg->RXSTATUS, UART_PERIPHERAL_RXSTATUS_
 798:.\driver\src/uart_va108xx.c **** 	UART->info.status.RX_BUSYBRK       =      CHECK_BIT(UART->reg->RXSTATUS, UART_PERIPHERAL_RXSTATUS_
 799:.\driver\src/uart_va108xx.c **** 	UART->info.status.RX_ADDR9         =      CHECK_BIT(UART->reg->RXSTATUS, UART_PERIPHERAL_RXSTATUS_
 800:.\driver\src/uart_va108xx.c **** 	UART->info.status.RX_RTS           =      CHECK_BIT(UART->reg->RXSTATUS, UART_PERIPHERAL_RXSTATUS_
 801:.\driver\src/uart_va108xx.c **** 	UART->info.status.TX_WRRDY         =      CHECK_BIT(UART->reg->RXSTATUS, UART_PERIPHERAL_TXSTATUS_
 802:.\driver\src/uart_va108xx.c **** 	UART->info.status.TX_WRBUSY        =      CHECK_BIT(UART->reg->RXSTATUS, UART_PERIPHERAL_TXSTATUS_
 803:.\driver\src/uart_va108xx.c **** 	UART->info.status.TX_BUSY          =      CHECK_BIT(UART->reg->RXSTATUS, UART_PERIPHERAL_TXSTATUS_
 804:.\driver\src/uart_va108xx.c **** 	UART->info.status.TX_WRLOST        =      CHECK_BIT(UART->reg->RXSTATUS, UART_PERIPHERAL_TXSTATUS_
 805:.\driver\src/uart_va108xx.c **** 	UART->info.status.TX_CTS           =      CHECK_BIT(UART->reg->RXSTATUS, UART_PERIPHERAL_TXSTATUS_
 806:.\driver\src/uart_va108xx.c ****   return UART->info.status; 
 807:.\driver\src/uart_va108xx.c **** }
 2924              		.loc 1 807 0
 2925              		@ sp needed	@
ARM GAS  C:\Users\claym\AppData\Local\Temp\cc2sTfd9.s 			page 76


 2926              	@ .\driver\src\uart_va108xx.c:792: 	UART->info.status.RX_BUSY          =      CHECK_BIT(UART->reg->
 792:.\driver\src/uart_va108xx.c **** 	UART->info.status.RX_TO            =      CHECK_BIT(UART->reg->RXSTATUS, UART_PERIPHERAL_RXSTATUS_
 2927              		.loc 1 792 0
 2928 076e B443     		bics	r4, r6	@ tmp205, tmp464
 2929 0770 2143     		orrs	r1, r4	@ tmp209, tmp205
 2930 0772 0174     		strb	r1, [r0, #16]	@ tmp209, UART_67(D)->info.status.RX_BUSY
 2931              	@ .\driver\src\uart_va108xx.c:793: 	UART->info.status.RX_TO            =      CHECK_BIT(UART->reg->
 793:.\driver\src/uart_va108xx.c **** 	UART->info.status.RX_TO            =      CHECK_BIT(UART->reg->RXSTATUS, UART_PERIPHERAL_RXSTATUS_
 2932              		.loc 1 793 0
 2933 0774 1169     		ldr	r1, [r2, #16]	@ _11, _1->RXSTATUS
 2934 0776 047C     		ldrb	r4, [r0, #16]	@ UART_67(D)->info.status.RX_TO, UART_67(D)->info.status.RX_TO
 2935 0778 C908     		lsrs	r1, r1, #3	@ tmp211, _11,
 2936 077a 1940     		ands	r1, r3	@ tmp213, tmp164
 2937 077c AC43     		bics	r4, r5	@ tmp224, tmp447
 2938 077e C900     		lsls	r1, r1, #3	@ tmp221, tmp213,
 2939 0780 2143     		orrs	r1, r4	@ tmp228, tmp224
 2940 0782 0174     		strb	r1, [r0, #16]	@ tmp228, UART_67(D)->info.status.RX_TO
 2941              	@ .\driver\src\uart_va108xx.c:794: 	UART->info.status.RX_OVR           =      CHECK_BIT(UART->reg->
 794:.\driver\src/uart_va108xx.c **** 	UART->info.status.RX_OVR           =      CHECK_BIT(UART->reg->RXSTATUS, UART_PERIPHERAL_RXSTATUS_
 2942              		.loc 1 794 0
 2943 0784 1169     		ldr	r1, [r2, #16]	@ _14, _1->RXSTATUS
 2944 0786 047C     		ldrb	r4, [r0, #16]	@ UART_67(D)->info.status.RX_OVR, UART_67(D)->info.status.RX_OVR
 2945 0788 F140     		lsrs	r1, r1, r6	@ tmp230, _14,
 2946 078a 1940     		ands	r1, r3	@ tmp232, tmp164
 2947 078c B140     		lsls	r1, r1, r6	@ tmp240, tmp232,
 2948 078e 6D19     		adds	r5, r5, r5	@ tmp448, tmp448,
 2949 0790 AC43     		bics	r4, r5	@ tmp243, tmp448
 2950 0792 2143     		orrs	r1, r4	@ tmp247, tmp243
 2951 0794 0174     		strb	r1, [r0, #16]	@ tmp247, UART_67(D)->info.status.RX_OVR
 2952              	@ .\driver\src\uart_va108xx.c:795: 	UART->info.status.RX_FRM           =      CHECK_BIT(UART->reg->
 795:.\driver\src/uart_va108xx.c **** 	UART->info.status.RX_PAR           =      CHECK_BIT(UART->reg->RXSTATUS, UART_PERIPHERAL_RXSTATUS_
 2953              		.loc 1 795 0
 2954 0796 1169     		ldr	r1, [r2, #16]	@ _17, _1->RXSTATUS
 2955 0798 047C     		ldrb	r4, [r0, #16]	@ UART_67(D)->info.status.RX_FRM, UART_67(D)->info.status.RX_FRM
 2956 079a 4909     		lsrs	r1, r1, #5	@ tmp249, _17,
 2957 079c 1940     		ands	r1, r3	@ tmp251, tmp164
 2958 079e 1035     		adds	r5, r5, #16	@ tmp449,
 2959 07a0 AC43     		bics	r4, r5	@ tmp262, tmp449
 2960 07a2 4901     		lsls	r1, r1, #5	@ tmp259, tmp251,
 2961 07a4 2143     		orrs	r1, r4	@ tmp266, tmp262
 2962 07a6 0174     		strb	r1, [r0, #16]	@ tmp266, UART_67(D)->info.status.RX_FRM
 2963              	@ .\driver\src\uart_va108xx.c:796: 	UART->info.status.RX_PAR           =      CHECK_BIT(UART->reg->
 796:.\driver\src/uart_va108xx.c **** 	UART->info.status.RX_BRK           =      CHECK_BIT(UART->reg->RXSTATUS, UART_PERIPHERAL_RXSTATUS_
 2964              		.loc 1 796 0
 2965 07a8 1169     		ldr	r1, [r2, #16]	@ _20, _1->RXSTATUS
 2966 07aa 047C     		ldrb	r4, [r0, #16]	@ UART_67(D)->info.status.RX_PAR, UART_67(D)->info.status.RX_PAR
 2967 07ac 8909     		lsrs	r1, r1, #6	@ tmp268, _20,
 2968 07ae 2035     		adds	r5, r5, #32	@ tmp282,
 2969 07b0 1940     		ands	r1, r3	@ tmp270, tmp164
 2970 07b2 AC43     		bics	r4, r5	@ tmp281, tmp282
 2971 07b4 8901     		lsls	r1, r1, #6	@ tmp278, tmp270,
 2972 07b6 2143     		orrs	r1, r4	@ tmp285, tmp281
 2973 07b8 0174     		strb	r1, [r0, #16]	@ tmp285, UART_67(D)->info.status.RX_PAR
 2974              	@ .\driver\src\uart_va108xx.c:797: 	UART->info.status.RX_BRK           =      CHECK_BIT(UART->reg->
 797:.\driver\src/uart_va108xx.c **** 	UART->info.status.RX_BUSYBRK       =      CHECK_BIT(UART->reg->RXSTATUS, UART_PERIPHERAL_RXSTATUS_
 2975              		.loc 1 797 0
 2976 07ba 047C     		ldrb	r4, [r0, #16]	@ UART_67(D)->info.status.RX_BRK, UART_67(D)->info.status.RX_BRK
ARM GAS  C:\Users\claym\AppData\Local\Temp\cc2sTfd9.s 			page 77


 2977 07bc 1169     		ldr	r1, [r2, #16]	@ _23, _1->RXSTATUS
 2978 07be A446     		mov	ip, r4	@ UART_67(D)->info.status.RX_BRK, UART_67(D)->info.status.RX_BRK
 2979 07c0 7F24     		movs	r4, #127	@ tmp298,
 2980 07c2 6646     		mov	r6, ip	@ UART_67(D)->info.status.RX_BRK, UART_67(D)->info.status.RX_BRK
 2981 07c4 C909     		lsrs	r1, r1, #7	@ tmp287, _23,
 2982 07c6 1940     		ands	r1, r3	@ tmp289, tmp164
 2983 07c8 2640     		ands	r6, r4	@ UART_67(D)->info.status.RX_BRK, tmp298
 2984 07ca C901     		lsls	r1, r1, #7	@ tmp294, tmp289,
 2985 07cc 3143     		orrs	r1, r6	@ tmp301, tmp297
 2986 07ce 0174     		strb	r1, [r0, #16]	@ tmp301, UART_67(D)->info.status.RX_BRK
 2987              	@ .\driver\src\uart_va108xx.c:798: 	UART->info.status.RX_BUSYBRK       =      CHECK_BIT(UART->reg->
 798:.\driver\src/uart_va108xx.c **** 	UART->info.status.RX_ADDR9         =      CHECK_BIT(UART->reg->RXSTATUS, UART_PERIPHERAL_RXSTATUS_
 2988              		.loc 1 798 0
 2989 07d0 1169     		ldr	r1, [r2, #16]	@ _26, _1->RXSTATUS
 2990 07d2 090A     		lsrs	r1, r1, #8	@ tmp303, _26,
 2991 07d4 1940     		ands	r1, r3	@ tmp303, tmp164
 2992 07d6 8C46     		mov	ip, r1	@ tmp305, tmp303
 2993 07d8 6646     		mov	r6, ip	@ tmp305, tmp305
 2994 07da 417C     		ldrb	r1, [r0, #17]	@ tmp313,
 2995 07dc 9943     		bics	r1, r3	@ tmp314, tmp164
 2996 07de 3143     		orrs	r1, r6	@ tmp318, tmp305
 2997 07e0 4174     		strb	r1, [r0, #17]	@ tmp318,
 2998              	@ .\driver\src\uart_va108xx.c:799: 	UART->info.status.RX_ADDR9         =      CHECK_BIT(UART->reg->
 799:.\driver\src/uart_va108xx.c **** 	UART->info.status.RX_RTS           =      CHECK_BIT(UART->reg->RXSTATUS, UART_PERIPHERAL_RXSTATUS_
 2999              		.loc 1 799 0
 3000 07e2 1169     		ldr	r1, [r2, #16]	@ _29, _1->RXSTATUS
 3001 07e4 467C     		ldrb	r6, [r0, #17]	@ tmp332,
 3002 07e6 490A     		lsrs	r1, r1, #9	@ tmp320, _29,
 3003 07e8 1940     		ands	r1, r3	@ tmp322, tmp164
 3004 07ea 9940     		lsls	r1, r1, r3	@ tmp330, tmp322,
 3005 07ec BE43     		bics	r6, r7	@ tmp332, tmp187
 3006 07ee 3143     		orrs	r1, r6	@ tmp337, tmp333
 3007              	@ .\driver\src\uart_va108xx.c:800: 	UART->info.status.RX_RTS           =      CHECK_BIT(UART->reg->
 800:.\driver\src/uart_va108xx.c **** 	UART->info.status.TX_WRRDY         =      CHECK_BIT(UART->reg->RXSTATUS, UART_PERIPHERAL_TXSTATUS_
 3008              		.loc 1 800 0
 3009 07f0 0426     		movs	r6, #4	@ tmp463,
 3010              	@ .\driver\src\uart_va108xx.c:799: 	UART->info.status.RX_ADDR9         =      CHECK_BIT(UART->reg->
 799:.\driver\src/uart_va108xx.c **** 	UART->info.status.RX_RTS           =      CHECK_BIT(UART->reg->RXSTATUS, UART_PERIPHERAL_RXSTATUS_
 3011              		.loc 1 799 0
 3012 07f2 4174     		strb	r1, [r0, #17]	@ tmp337,
 3013              	@ .\driver\src\uart_va108xx.c:800: 	UART->info.status.RX_RTS           =      CHECK_BIT(UART->reg->
 800:.\driver\src/uart_va108xx.c **** 	UART->info.status.TX_WRRDY         =      CHECK_BIT(UART->reg->RXSTATUS, UART_PERIPHERAL_TXSTATUS_
 3014              		.loc 1 800 0
 3015 07f4 1169     		ldr	r1, [r2, #16]	@ _32, _1->RXSTATUS
 3016 07f6 477C     		ldrb	r7, [r0, #17]	@ tmp351,
 3017 07f8 C90B     		lsrs	r1, r1, #15	@ tmp339, _32,
 3018 07fa 1940     		ands	r1, r3	@ tmp341, tmp164
 3019 07fc 8900     		lsls	r1, r1, #2	@ tmp349, tmp341,
 3020 07fe B743     		bics	r7, r6	@ tmp352, tmp463
 3021 0800 0F43     		orrs	r7, r1	@ tmp356, tmp349
 3022 0802 4774     		strb	r7, [r0, #17]	@ tmp356,
 3023              	@ .\driver\src\uart_va108xx.c:801: 	UART->info.status.TX_WRRDY         =      CHECK_BIT(UART->reg->
 801:.\driver\src/uart_va108xx.c **** 	UART->info.status.TX_WRBUSY        =      CHECK_BIT(UART->reg->RXSTATUS, UART_PERIPHERAL_TXSTATUS_
 3024              		.loc 1 801 0
 3025 0804 F9B2     		uxtb	r1, r7	@ tmp366,
 3026 0806 0827     		movs	r7, #8	@ tmp457,
 3027 0808 1669     		ldr	r6, [r2, #16]	@ _35, _1->RXSTATUS
ARM GAS  C:\Users\claym\AppData\Local\Temp\cc2sTfd9.s 			page 78


 3028 080a B943     		bics	r1, r7	@ tmp367, tmp457
 3029 080c 1E40     		ands	r6, r3	@ tmp361, tmp164
 3030 080e F600     		lsls	r6, r6, #3	@ tmp364, tmp361,
 3031 0810 0E43     		orrs	r6, r1	@ tmp371, tmp367
 3032 0812 4674     		strb	r6, [r0, #17]	@ tmp371,
 3033              	@ .\driver\src\uart_va108xx.c:802: 	UART->info.status.TX_WRBUSY        =      CHECK_BIT(UART->reg->
 802:.\driver\src/uart_va108xx.c **** 	UART->info.status.TX_BUSY          =      CHECK_BIT(UART->reg->RXSTATUS, UART_PERIPHERAL_TXSTATUS_
 3034              		.loc 1 802 0
