ARM GAS  C:\Users\claym\AppData\Local\Temp\cctQKk9X.s 			page 1


   1              		.cpu cortex-m0
   2              		.eabi_attribute 20, 1	@ Tag_ABI_FP_denormal
   3              		.eabi_attribute 21, 1	@ Tag_ABI_FP_exceptions
   4              		.eabi_attribute 23, 3	@ Tag_ABI_FP_number_model
   5              		.eabi_attribute 24, 1	@ Tag_ABI_align8_needed
   6              		.eabi_attribute 25, 1	@ Tag_ABI_align8_preserved
   7              		.eabi_attribute 26, 1	@ Tag_ABI_enum_size
   8              		.eabi_attribute 30, 4	@ Tag_ABI_optimization_goals
   9              		.eabi_attribute 34, 0	@ Tag_CPU_unaligned_access
  10              		.eabi_attribute 18, 4	@ Tag_ABI_PCS_wchar_t
  11              		.file	"uart_drv_api.c"
  12              	@ GNU C11 (GNU Tools for Arm Embedded Processors 7-2017-q4-major) version 7.2.1 20170904 (release) 
  13              	@	compiled by GNU C version 5.3.1 20160211, GMP version 6.1.0, MPFR version 3.1.4, MPC version 1.0.
  14              	
  15              	@ GGC heuristics: --param ggc-min-expand=100 --param ggc-min-heapsize=131072
  16              	@ options passed:  -I . -I .\common\hdr -I .\driver\hdr -I .\utilities\hdr
  17              	@ -I .\inc -I .\driver\hdr -I .\hdr -imultilib thumb/v6-m
  18              	@ -iprefix c:\program files (x86)\gnu tools arm embedded\7 2017-q4-major\bin\../lib/gcc/arm-none-ea
  19              	@ -isysroot c:\program files (x86)\gnu tools arm embedded\7 2017-q4-major\bin\../arm-none-eabi
  20              	@ -D__USES_INITFINI__ -D RUN_FROM_FLASH=1 .\driver\src\uart_drv_api.c
  21              	@ -mcpu=cortex-m0 -mthumb -auxbase-strip .\driver\src\uart_drv_api.o
  22              	@ -gdwarf-2 -Os -Wall -Wstrict-prototypes -fomit-frame-pointer
  23              	@ -fverbose-asm
  24              	@ options enabled:  -faggressive-loop-optimizations -falign-jumps
  25              	@ -falign-labels -falign-loops -fauto-inc-dec -fbranch-count-reg
  26              	@ -fcaller-saves -fchkp-check-incomplete-type -fchkp-check-read
  27              	@ -fchkp-check-write -fchkp-instrument-calls -fchkp-narrow-bounds
  28              	@ -fchkp-optimize -fchkp-store-bounds -fchkp-use-static-bounds
  29              	@ -fchkp-use-static-const-bounds -fchkp-use-wrappers -fcode-hoisting
  30              	@ -fcombine-stack-adjustments -fcommon -fcompare-elim -fcprop-registers
  31              	@ -fcrossjumping -fcse-follow-jumps -fdefer-pop
  32              	@ -fdelete-null-pointer-checks -fdevirtualize -fdevirtualize-speculatively
  33              	@ -fdwarf2-cfi-asm -fearly-inlining -feliminate-unused-debug-types
  34              	@ -fexpensive-optimizations -fforward-propagate -ffp-int-builtin-inexact
  35              	@ -ffunction-cse -fgcse -fgcse-lm -fgnu-runtime -fgnu-unique
  36              	@ -fguess-branch-probability -fhoist-adjacent-loads -fident -fif-conversion
  37              	@ -fif-conversion2 -findirect-inlining -finline -finline-atomics
  38              	@ -finline-functions -finline-functions-called-once
  39              	@ -finline-small-functions -fipa-bit-cp -fipa-cp -fipa-icf
  40              	@ -fipa-icf-functions -fipa-icf-variables -fipa-profile -fipa-pure-const
  41              	@ -fipa-reference -fipa-sra -fipa-vrp -fira-hoist-pressure
  42              	@ -fira-share-save-slots -fira-share-spill-slots
  43              	@ -fisolate-erroneous-paths-dereference -fivopts -fkeep-static-consts
  44              	@ -fleading-underscore -flifetime-dse -flra-remat -flto-odr-type-merging
  45              	@ -fmath-errno -fmerge-constants -fmerge-debug-strings
  46              	@ -fmove-loop-invariants -fomit-frame-pointer -foptimize-sibling-calls
  47              	@ -fpartial-inlining -fpeephole -fpeephole2 -fplt -fprefetch-loop-arrays
  48              	@ -freg-struct-return -freorder-blocks -freorder-functions
  49              	@ -frerun-cse-after-loop -fsched-critical-path-heuristic
  50              	@ -fsched-dep-count-heuristic -fsched-group-heuristic -fsched-interblock
  51              	@ -fsched-last-insn-heuristic -fsched-pressure -fsched-rank-heuristic
  52              	@ -fsched-spec -fsched-spec-insn-heuristic -fsched-stalled-insns-dep
  53              	@ -fschedule-insns2 -fsection-anchors -fsemantic-interposition
  54              	@ -fshow-column -fshrink-wrap -fshrink-wrap-separate -fsigned-zeros
  55              	@ -fsplit-ivs-in-unroller -fsplit-wide-types -fssa-backprop -fssa-phiopt
  56              	@ -fstdarg-opt -fstore-merging -fstrict-aliasing -fstrict-overflow
  57              	@ -fstrict-volatile-bitfields -fsync-libcalls -fthread-jumps
ARM GAS  C:\Users\claym\AppData\Local\Temp\cctQKk9X.s 			page 2


  58              	@ -ftoplevel-reorder -ftrapping-math -ftree-bit-ccp -ftree-builtin-call-dce
  59              	@ -ftree-ccp -ftree-ch -ftree-coalesce-vars -ftree-copy-prop -ftree-cselim
  60              	@ -ftree-dce -ftree-dominator-opts -ftree-dse -ftree-forwprop -ftree-fre
  61              	@ -ftree-loop-if-convert -ftree-loop-im -ftree-loop-ivcanon
  62              	@ -ftree-loop-optimize -ftree-parallelize-loops= -ftree-phiprop -ftree-pre
  63              	@ -ftree-pta -ftree-reassoc -ftree-scev-cprop -ftree-sink -ftree-slsr
  64              	@ -ftree-sra -ftree-switch-conversion -ftree-tail-merge -ftree-ter
  65              	@ -ftree-vrp -funit-at-a-time -fvar-tracking -fvar-tracking-assignments
  66              	@ -fverbose-asm -fzero-initialized-in-bss -mlittle-endian
  67              	@ -mpic-data-is-text-relative -msched-prolog -mthumb
  68              	@ -mvectorize-with-neon-quad
  69              	
  70              		.text
  71              	.Ltext0:
  72              		.cfi_sections	.debug_frame
  73              		.align	1
  74              		.syntax unified
  75              		.code	16
  76              		.thumb_func
  77              		.fpu softvfp
  78              		.type	UART0_GetStatus, %function
  79              	UART0_GetStatus:
  80              	.LFB41:
  81              		.file 1 ".\\driver\\src\\uart_drv_api.c"
   1:.\driver\src/uart_drv_api.c **** /***************************************************************************************
   2:.\driver\src/uart_drv_api.c ****  * @file     uart_drv_api.c
   3:.\driver\src/uart_drv_api.c ****  * @version  V1.0
   4:.\driver\src/uart_drv_api.c ****  * @date     31. March 2016
   5:.\driver\src/uart_drv_api.c ****  *
   6:.\driver\src/uart_drv_api.c ****  * @note
   7:.\driver\src/uart_drv_api.c ****  * VORAGO Technologies 
   8:.\driver\src/uart_drv_api.c ****  *
   9:.\driver\src/uart_drv_api.c ****  * @note
  10:.\driver\src/uart_drv_api.c ****  * Copyright (c) 2013-2016 VORAGO Technologies. 
  11:.\driver\src/uart_drv_api.c ****  *
  12:.\driver\src/uart_drv_api.c ****  * @par
  13:.\driver\src/uart_drv_api.c ****  * BY DOWNLOADING, INSTALLING OR USING THIS SOFTWARE, YOU AGREE TO BE BOUND BY 
  14:.\driver\src/uart_drv_api.c ****  * ALL THE TERMS AND CONDITIONS OF THE VORAGO TECHNOLOGIES END USER LICENSE AGREEMENT. 
  15:.\driver\src/uart_drv_api.c ****  * THIS SOFTWARE IS PROVIDED "AS IS". NO WARRANTIES, WHETHER EXPRESS, IMPLIED
  16:.\driver\src/uart_drv_api.c ****  * OR STATUTORY, INCLUDING, BUT NOT LIMITED TO, IMPLIED WARRANTIES OF MERCHANTABILITY 
  17:.\driver\src/uart_drv_api.c ****  * AND FITNESS FOR A PARTICULAR PURPOSE APPLY TO THIS SOFTWARE. VORAGO TECHNOLOGIES 
  18:.\driver\src/uart_drv_api.c ****  * SHALL NOT, IN ANY CIRCUMSTANCES, BE LIABLE FOR SPECIAL, INCIDENTAL, OR CONSEQUENTIAL 
  19:.\driver\src/uart_drv_api.c ****  * DAMAGES, FOR ANY REASON WHATSOEVER.
  20:.\driver\src/uart_drv_api.c ****  *
  21:.\driver\src/uart_drv_api.c ****  ****************************************************************************************/
  22:.\driver\src/uart_drv_api.c **** #include "uart_va108xx.h"
  23:.\driver\src/uart_drv_api.c **** #include "driver_common.h"
  24:.\driver\src/uart_drv_api.c **** #ifndef RTT_LOG
  25:.\driver\src/uart_drv_api.c **** extern UART_RESOURCES UART0_Resources;
  26:.\driver\src/uart_drv_api.c **** extern UART_RESOURCES UART1_Resources;
  27:.\driver\src/uart_drv_api.c **** 
  28:.\driver\src/uart_drv_api.c **** static int32_t UART0_Initialize (VOR_UART_SignalEvent_t cb_event) {
  29:.\driver\src/uart_drv_api.c ****   return UART_Initialize (cb_event, &UART0_Resources);
  30:.\driver\src/uart_drv_api.c **** }
  31:.\driver\src/uart_drv_api.c **** static int32_t UART0_Uninitialize (void) {
  32:.\driver\src/uart_drv_api.c ****   return UART_Uninitialize(&UART0_Resources);
  33:.\driver\src/uart_drv_api.c **** }
ARM GAS  C:\Users\claym\AppData\Local\Temp\cctQKk9X.s 			page 3


  34:.\driver\src/uart_drv_api.c **** static int32_t UART0_Send (uint8_t *data, uint32_t num) {
  35:.\driver\src/uart_drv_api.c ****   return UART_Send (data, num, &UART0_Resources);
  36:.\driver\src/uart_drv_api.c **** }
  37:.\driver\src/uart_drv_api.c **** static int32_t UART0_Receive (uint8_t *data, uint32_t num) {
  38:.\driver\src/uart_drv_api.c ****   return UART_Receive (data, num, &UART0_Resources);
  39:.\driver\src/uart_drv_api.c **** }
  40:.\driver\src/uart_drv_api.c **** 
  41:.\driver\src/uart_drv_api.c **** static int32_t UART0_GetTxCount (void) {
  42:.\driver\src/uart_drv_api.c ****   return VOR_UART_GetTxCount(&UART0_Resources);
  43:.\driver\src/uart_drv_api.c **** }
  44:.\driver\src/uart_drv_api.c **** 
  45:.\driver\src/uart_drv_api.c **** static int32_t UART0_GetRxCount (void) {
  46:.\driver\src/uart_drv_api.c ****   return VOR_UART_GetRxCount(&UART0_Resources);
  47:.\driver\src/uart_drv_api.c **** }
  48:.\driver\src/uart_drv_api.c **** 
  49:.\driver\src/uart_drv_api.c **** static int32_t UART0_Control (uint32_t control, uint32_t arg) {
  50:.\driver\src/uart_drv_api.c ****   return UART_Control (control, arg, &UART0_Resources);
  51:.\driver\src/uart_drv_api.c **** }
  52:.\driver\src/uart_drv_api.c **** static VOR_UART_STATUS UART0_GetStatus (void) {
  82              		.loc 1 52 0
  83              		.cfi_startproc
  84              		@ args = 0, pretend = 0, frame = 0
  85              		@ frame_needed = 0, uses_anonymous_args = 0
  86 0000 10B5     		push	{r4, lr}	@
  87              	.LCFI0:
  88              		.cfi_def_cfa_offset 8
  89              		.cfi_offset 4, -8
  90              		.cfi_offset 14, -4
  91              	@ .\driver\src\uart_drv_api.c:53:   return UART_GetStatus (&UART0_Resources);
  53:.\driver\src/uart_drv_api.c ****   return UART_GetStatus (&UART0_Resources);
  92              		.loc 1 53 0
  93 0002 0248     		ldr	r0, .L2	@,
  94 0004 FFF7FEFF 		bl	UART_GetStatus	@
  95              	.LVL0:
  96              	@ .\driver\src\uart_drv_api.c:54: }
  54:.\driver\src/uart_drv_api.c **** }
  97              		.loc 1 54 0
  98              		@ sp needed	@
  99 0008 10BD     		pop	{r4, pc}
 100              	.L3:
 101 000a C046     		.align	2
 102              	.L2:
 103 000c 00000000 		.word	UART0_Resources
 104              		.cfi_endproc
 105              	.LFE41:
 106              		.size	UART0_GetStatus, .-UART0_GetStatus
 107              		.align	1
 108              		.syntax unified
 109              		.code	16
 110              		.thumb_func
 111              		.fpu softvfp
 112              		.type	UART1_GetStatus, %function
 113              	UART1_GetStatus:
 114              	.LFB50:
  55:.\driver\src/uart_drv_api.c **** void VOR_UART0_IRQHandler (void) {
  56:.\driver\src/uart_drv_api.c ****   UART_IRQHandler (&UART0_Resources);
  57:.\driver\src/uart_drv_api.c **** }
ARM GAS  C:\Users\claym\AppData\Local\Temp\cctQKk9X.s 			page 4


  58:.\driver\src/uart_drv_api.c **** 
  59:.\driver\src/uart_drv_api.c **** // UART0 Driver Control Block
  60:.\driver\src/uart_drv_api.c **** VOR_DRIVER_UART Driver_UART0 = {
  61:.\driver\src/uart_drv_api.c ****     UARTx_GetVersion,
  62:.\driver\src/uart_drv_api.c ****     UART0_Initialize,
  63:.\driver\src/uart_drv_api.c ****     UART0_Uninitialize,
  64:.\driver\src/uart_drv_api.c ****     UART0_Send, 
  65:.\driver\src/uart_drv_api.c ****     UART0_Receive,
  66:.\driver\src/uart_drv_api.c **** 	  UART0_GetTxCount,
  67:.\driver\src/uart_drv_api.c **** 	  UART0_GetRxCount,
  68:.\driver\src/uart_drv_api.c ****     UART0_Control,
  69:.\driver\src/uart_drv_api.c ****     UART0_GetStatus,
  70:.\driver\src/uart_drv_api.c **** };
  71:.\driver\src/uart_drv_api.c **** 
  72:.\driver\src/uart_drv_api.c **** // UART1 Driver Wrapper functions
  73:.\driver\src/uart_drv_api.c **** static int32_t UART1_Initialize (VOR_UART_SignalEvent_t cb_event) {
  74:.\driver\src/uart_drv_api.c ****   return UART_Initialize (cb_event, &UART1_Resources);
  75:.\driver\src/uart_drv_api.c **** }
  76:.\driver\src/uart_drv_api.c **** static int32_t UART1_Uninitialize (void) {
  77:.\driver\src/uart_drv_api.c ****   return UART_Uninitialize(&UART1_Resources);
  78:.\driver\src/uart_drv_api.c **** }
  79:.\driver\src/uart_drv_api.c **** static int32_t UART1_Send (uint8_t *data, uint32_t num) {
  80:.\driver\src/uart_drv_api.c ****   return UART_Send (data, num, &UART1_Resources);
  81:.\driver\src/uart_drv_api.c **** }
  82:.\driver\src/uart_drv_api.c **** static int32_t UART1_Receive (uint8_t *data, uint32_t num) {
  83:.\driver\src/uart_drv_api.c ****   return UART_Receive (data, num, &UART1_Resources);
  84:.\driver\src/uart_drv_api.c **** }
  85:.\driver\src/uart_drv_api.c **** static int32_t UART1_GetTxCount (void) {
  86:.\driver\src/uart_drv_api.c ****   return VOR_UART_GetTxCount(&UART1_Resources);
  87:.\driver\src/uart_drv_api.c **** }
  88:.\driver\src/uart_drv_api.c **** static int32_t UART1_GetRxCount (void) {
  89:.\driver\src/uart_drv_api.c ****   return VOR_UART_GetRxCount(&UART1_Resources);
  90:.\driver\src/uart_drv_api.c **** }
  91:.\driver\src/uart_drv_api.c **** static int32_t UART1_Control (uint32_t control, uint32_t arg) {
  92:.\driver\src/uart_drv_api.c ****   return UART_Control (control, arg, &UART1_Resources);
  93:.\driver\src/uart_drv_api.c **** }
  94:.\driver\src/uart_drv_api.c **** static VOR_UART_STATUS UART1_GetStatus (void) {
 115              		.loc 1 94 0
 116              		.cfi_startproc
 117              		@ args = 0, pretend = 0, frame = 0
 118              		@ frame_needed = 0, uses_anonymous_args = 0
 119 0010 10B5     		push	{r4, lr}	@
 120              	.LCFI1:
 121              		.cfi_def_cfa_offset 8
 122              		.cfi_offset 4, -8
 123              		.cfi_offset 14, -4
 124              	@ .\driver\src\uart_drv_api.c:95:   return UART_GetStatus (&UART1_Resources);
  95:.\driver\src/uart_drv_api.c ****   return UART_GetStatus (&UART1_Resources);
 125              		.loc 1 95 0
 126 0012 0248     		ldr	r0, .L5	@,
 127 0014 FFF7FEFF 		bl	UART_GetStatus	@
 128              	.LVL1:
 129              	@ .\driver\src\uart_drv_api.c:96: }
  96:.\driver\src/uart_drv_api.c **** }
 130              		.loc 1 96 0
 131              		@ sp needed	@
 132 0018 10BD     		pop	{r4, pc}
ARM GAS  C:\Users\claym\AppData\Local\Temp\cctQKk9X.s 			page 5


 133              	.L6:
 134 001a C046     		.align	2
 135              	.L5:
 136 001c 00000000 		.word	UART1_Resources
 137              		.cfi_endproc
 138              	.LFE50:
 139              		.size	UART1_GetStatus, .-UART1_GetStatus
 140              		.align	1
 141              		.syntax unified
 142              		.code	16
 143              		.thumb_func
 144              		.fpu softvfp
 145              		.type	UART0_Control, %function
 146              	UART0_Control:
 147              	.LFB40:
  49:.\driver\src/uart_drv_api.c ****   return UART_Control (control, arg, &UART0_Resources);
 148              		.loc 1 49 0
 149              		.cfi_startproc
 150              		@ args = 0, pretend = 0, frame = 0
 151              		@ frame_needed = 0, uses_anonymous_args = 0
 152              	.LVL2:
 153 0020 10B5     		push	{r4, lr}	@
 154              	.LCFI2:
 155              		.cfi_def_cfa_offset 8
 156              		.cfi_offset 4, -8
 157              		.cfi_offset 14, -4
 158              	@ .\driver\src\uart_drv_api.c:50:   return UART_Control (control, arg, &UART0_Resources);
  50:.\driver\src/uart_drv_api.c **** }
 159              		.loc 1 50 0
 160 0022 024A     		ldr	r2, .L8	@,
 161 0024 FFF7FEFF 		bl	UART_Control	@
 162              	.LVL3:
 163              	@ .\driver\src\uart_drv_api.c:51: }
  51:.\driver\src/uart_drv_api.c **** static VOR_UART_STATUS UART0_GetStatus (void) {
 164              		.loc 1 51 0
 165              		@ sp needed	@
 166 0028 10BD     		pop	{r4, pc}
 167              	.L9:
 168 002a C046     		.align	2
 169              	.L8:
 170 002c 00000000 		.word	UART0_Resources
 171              		.cfi_endproc
 172              	.LFE40:
 173              		.size	UART0_Control, .-UART0_Control
 174              		.align	1
 175              		.syntax unified
 176              		.code	16
 177              		.thumb_func
 178              		.fpu softvfp
 179              		.type	UART1_Control, %function
 180              	UART1_Control:
 181              	.LFB49:
  91:.\driver\src/uart_drv_api.c ****   return UART_Control (control, arg, &UART1_Resources);
 182              		.loc 1 91 0
 183              		.cfi_startproc
 184              		@ args = 0, pretend = 0, frame = 0
 185              		@ frame_needed = 0, uses_anonymous_args = 0
ARM GAS  C:\Users\claym\AppData\Local\Temp\cctQKk9X.s 			page 6


 186              	.LVL4:
 187 0030 10B5     		push	{r4, lr}	@
 188              	.LCFI3:
 189              		.cfi_def_cfa_offset 8
 190              		.cfi_offset 4, -8
 191              		.cfi_offset 14, -4
 192              	@ .\driver\src\uart_drv_api.c:92:   return UART_Control (control, arg, &UART1_Resources);
  92:.\driver\src/uart_drv_api.c **** }
 193              		.loc 1 92 0
 194 0032 024A     		ldr	r2, .L11	@,
 195 0034 FFF7FEFF 		bl	UART_Control	@
 196              	.LVL5:
 197              	@ .\driver\src\uart_drv_api.c:93: }
  93:.\driver\src/uart_drv_api.c **** static VOR_UART_STATUS UART1_GetStatus (void) {
 198              		.loc 1 93 0
 199              		@ sp needed	@
 200 0038 10BD     		pop	{r4, pc}
 201              	.L12:
 202 003a C046     		.align	2
 203              	.L11:
 204 003c 00000000 		.word	UART1_Resources
 205              		.cfi_endproc
 206              	.LFE49:
 207              		.size	UART1_Control, .-UART1_Control
 208              		.align	1
 209              		.syntax unified
 210              		.code	16
 211              		.thumb_func
 212              		.fpu softvfp
 213              		.type	UART0_GetRxCount, %function
 214              	UART0_GetRxCount:
 215              	.LFB39:
  45:.\driver\src/uart_drv_api.c ****   return VOR_UART_GetRxCount(&UART0_Resources);
 216              		.loc 1 45 0
 217              		.cfi_startproc
 218              		@ args = 0, pretend = 0, frame = 0
 219              		@ frame_needed = 0, uses_anonymous_args = 0
 220 0040 10B5     		push	{r4, lr}	@
 221              	.LCFI4:
 222              		.cfi_def_cfa_offset 8
 223              		.cfi_offset 4, -8
 224              		.cfi_offset 14, -4
 225              	@ .\driver\src\uart_drv_api.c:46:   return VOR_UART_GetRxCount(&UART0_Resources);
  46:.\driver\src/uart_drv_api.c **** }
 226              		.loc 1 46 0
 227 0042 0248     		ldr	r0, .L14	@,
 228 0044 FFF7FEFF 		bl	VOR_UART_GetRxCount	@
 229              	.LVL6:
 230              	@ .\driver\src\uart_drv_api.c:47: }
  47:.\driver\src/uart_drv_api.c **** 
 231              		.loc 1 47 0
 232              		@ sp needed	@
 233 0048 10BD     		pop	{r4, pc}
 234              	.L15:
 235 004a C046     		.align	2
 236              	.L14:
 237 004c 00000000 		.word	UART0_Resources
ARM GAS  C:\Users\claym\AppData\Local\Temp\cctQKk9X.s 			page 7


 238              		.cfi_endproc
 239              	.LFE39:
 240              		.size	UART0_GetRxCount, .-UART0_GetRxCount
 241              		.align	1
 242              		.syntax unified
 243              		.code	16
 244              		.thumb_func
 245              		.fpu softvfp
 246              		.type	UART1_GetRxCount, %function
 247              	UART1_GetRxCount:
 248              	.LFB48:
  88:.\driver\src/uart_drv_api.c ****   return VOR_UART_GetRxCount(&UART1_Resources);
 249              		.loc 1 88 0
 250              		.cfi_startproc
 251              		@ args = 0, pretend = 0, frame = 0
 252              		@ frame_needed = 0, uses_anonymous_args = 0
 253 0050 10B5     		push	{r4, lr}	@
 254              	.LCFI5:
 255              		.cfi_def_cfa_offset 8
 256              		.cfi_offset 4, -8
 257              		.cfi_offset 14, -4
 258              	@ .\driver\src\uart_drv_api.c:89:   return VOR_UART_GetRxCount(&UART1_Resources);
  89:.\driver\src/uart_drv_api.c **** }
 259              		.loc 1 89 0
 260 0052 0248     		ldr	r0, .L17	@,
 261 0054 FFF7FEFF 		bl	VOR_UART_GetRxCount	@
 262              	.LVL7:
 263              	@ .\driver\src\uart_drv_api.c:90: }
  90:.\driver\src/uart_drv_api.c **** static int32_t UART1_Control (uint32_t control, uint32_t arg) {
 264              		.loc 1 90 0
 265              		@ sp needed	@
 266 0058 10BD     		pop	{r4, pc}
 267              	.L18:
 268 005a C046     		.align	2
 269              	.L17:
 270 005c 00000000 		.word	UART1_Resources
 271              		.cfi_endproc
 272              	.LFE48:
 273              		.size	UART1_GetRxCount, .-UART1_GetRxCount
 274              		.align	1
 275              		.syntax unified
 276              		.code	16
 277              		.thumb_func
 278              		.fpu softvfp
 279              		.type	UART0_GetTxCount, %function
 280              	UART0_GetTxCount:
 281              	.LFB38:
  41:.\driver\src/uart_drv_api.c ****   return VOR_UART_GetTxCount(&UART0_Resources);
 282              		.loc 1 41 0
 283              		.cfi_startproc
 284              		@ args = 0, pretend = 0, frame = 0
 285              		@ frame_needed = 0, uses_anonymous_args = 0
 286 0060 10B5     		push	{r4, lr}	@
 287              	.LCFI6:
 288              		.cfi_def_cfa_offset 8
 289              		.cfi_offset 4, -8
 290              		.cfi_offset 14, -4
ARM GAS  C:\Users\claym\AppData\Local\Temp\cctQKk9X.s 			page 8


 291              	@ .\driver\src\uart_drv_api.c:42:   return VOR_UART_GetTxCount(&UART0_Resources);
  42:.\driver\src/uart_drv_api.c **** }
 292              		.loc 1 42 0
 293 0062 0248     		ldr	r0, .L20	@,
 294 0064 FFF7FEFF 		bl	VOR_UART_GetTxCount	@
 295              	.LVL8:
 296              	@ .\driver\src\uart_drv_api.c:43: }
  43:.\driver\src/uart_drv_api.c **** 
 297              		.loc 1 43 0
 298              		@ sp needed	@
 299 0068 10BD     		pop	{r4, pc}
 300              	.L21:
 301 006a C046     		.align	2
 302              	.L20:
 303 006c 00000000 		.word	UART0_Resources
 304              		.cfi_endproc
 305              	.LFE38:
 306              		.size	UART0_GetTxCount, .-UART0_GetTxCount
 307              		.align	1
 308              		.syntax unified
 309              		.code	16
 310              		.thumb_func
 311              		.fpu softvfp
 312              		.type	UART1_GetTxCount, %function
 313              	UART1_GetTxCount:
 314              	.LFB47:
  85:.\driver\src/uart_drv_api.c ****   return VOR_UART_GetTxCount(&UART1_Resources);
 315              		.loc 1 85 0
 316              		.cfi_startproc
 317              		@ args = 0, pretend = 0, frame = 0
 318              		@ frame_needed = 0, uses_anonymous_args = 0
 319 0070 10B5     		push	{r4, lr}	@
 320              	.LCFI7:
 321              		.cfi_def_cfa_offset 8
 322              		.cfi_offset 4, -8
 323              		.cfi_offset 14, -4
 324              	@ .\driver\src\uart_drv_api.c:86:   return VOR_UART_GetTxCount(&UART1_Resources);
  86:.\driver\src/uart_drv_api.c **** }
 325              		.loc 1 86 0
 326 0072 0248     		ldr	r0, .L23	@,
 327 0074 FFF7FEFF 		bl	VOR_UART_GetTxCount	@
 328              	.LVL9:
 329              	@ .\driver\src\uart_drv_api.c:87: }
  87:.\driver\src/uart_drv_api.c **** static int32_t UART1_GetRxCount (void) {
 330              		.loc 1 87 0
 331              		@ sp needed	@
 332 0078 10BD     		pop	{r4, pc}
 333              	.L24:
 334 007a C046     		.align	2
 335              	.L23:
 336 007c 00000000 		.word	UART1_Resources
 337              		.cfi_endproc
 338              	.LFE47:
 339              		.size	UART1_GetTxCount, .-UART1_GetTxCount
 340              		.align	1
 341              		.syntax unified
 342              		.code	16
ARM GAS  C:\Users\claym\AppData\Local\Temp\cctQKk9X.s 			page 9


 343              		.thumb_func
 344              		.fpu softvfp
 345              		.type	UART0_Receive, %function
 346              	UART0_Receive:
 347              	.LFB37:
  37:.\driver\src/uart_drv_api.c ****   return UART_Receive (data, num, &UART0_Resources);
 348              		.loc 1 37 0
 349              		.cfi_startproc
 350              		@ args = 0, pretend = 0, frame = 0
 351              		@ frame_needed = 0, uses_anonymous_args = 0
 352              	.LVL10:
 353 0080 10B5     		push	{r4, lr}	@
 354              	.LCFI8:
 355              		.cfi_def_cfa_offset 8
 356              		.cfi_offset 4, -8
 357              		.cfi_offset 14, -4
 358              	@ .\driver\src\uart_drv_api.c:38:   return UART_Receive (data, num, &UART0_Resources);
  38:.\driver\src/uart_drv_api.c **** }
 359              		.loc 1 38 0
 360 0082 024A     		ldr	r2, .L26	@,
 361 0084 FFF7FEFF 		bl	UART_Receive	@
 362              	.LVL11:
 363              	@ .\driver\src\uart_drv_api.c:39: }
  39:.\driver\src/uart_drv_api.c **** 
 364              		.loc 1 39 0
 365              		@ sp needed	@
 366 0088 10BD     		pop	{r4, pc}
 367              	.L27:
 368 008a C046     		.align	2
 369              	.L26:
 370 008c 00000000 		.word	UART0_Resources
 371              		.cfi_endproc
 372              	.LFE37:
 373              		.size	UART0_Receive, .-UART0_Receive
 374              		.align	1
 375              		.syntax unified
 376              		.code	16
 377              		.thumb_func
 378              		.fpu softvfp
 379              		.type	UART1_Receive, %function
 380              	UART1_Receive:
 381              	.LFB46:
  82:.\driver\src/uart_drv_api.c ****   return UART_Receive (data, num, &UART1_Resources);
 382              		.loc 1 82 0
 383              		.cfi_startproc
 384              		@ args = 0, pretend = 0, frame = 0
 385              		@ frame_needed = 0, uses_anonymous_args = 0
 386              	.LVL12:
 387 0090 10B5     		push	{r4, lr}	@
 388              	.LCFI9:
 389              		.cfi_def_cfa_offset 8
 390              		.cfi_offset 4, -8
 391              		.cfi_offset 14, -4
 392              	@ .\driver\src\uart_drv_api.c:83:   return UART_Receive (data, num, &UART1_Resources);
  83:.\driver\src/uart_drv_api.c **** }
 393              		.loc 1 83 0
 394 0092 024A     		ldr	r2, .L29	@,
ARM GAS  C:\Users\claym\AppData\Local\Temp\cctQKk9X.s 			page 10


 395 0094 FFF7FEFF 		bl	UART_Receive	@
 396              	.LVL13:
 397              	@ .\driver\src\uart_drv_api.c:84: }
  84:.\driver\src/uart_drv_api.c **** static int32_t UART1_GetTxCount (void) {
 398              		.loc 1 84 0
 399              		@ sp needed	@
 400 0098 10BD     		pop	{r4, pc}
 401              	.L30:
 402 009a C046     		.align	2
 403              	.L29:
 404 009c 00000000 		.word	UART1_Resources
 405              		.cfi_endproc
 406              	.LFE46:
 407              		.size	UART1_Receive, .-UART1_Receive
 408              		.align	1
 409              		.syntax unified
 410              		.code	16
 411              		.thumb_func
 412              		.fpu softvfp
 413              		.type	UART0_Send, %function
 414              	UART0_Send:
 415              	.LFB36:
  34:.\driver\src/uart_drv_api.c ****   return UART_Send (data, num, &UART0_Resources);
 416              		.loc 1 34 0
 417              		.cfi_startproc
 418              		@ args = 0, pretend = 0, frame = 0
 419              		@ frame_needed = 0, uses_anonymous_args = 0
 420              	.LVL14:
 421 00a0 10B5     		push	{r4, lr}	@
 422              	.LCFI10:
 423              		.cfi_def_cfa_offset 8
 424              		.cfi_offset 4, -8
 425              		.cfi_offset 14, -4
 426              	@ .\driver\src\uart_drv_api.c:35:   return UART_Send (data, num, &UART0_Resources);
  35:.\driver\src/uart_drv_api.c **** }
 427              		.loc 1 35 0
 428 00a2 024A     		ldr	r2, .L32	@,
 429 00a4 FFF7FEFF 		bl	UART_Send	@
 430              	.LVL15:
 431              	@ .\driver\src\uart_drv_api.c:36: }
  36:.\driver\src/uart_drv_api.c **** static int32_t UART0_Receive (uint8_t *data, uint32_t num) {
 432              		.loc 1 36 0
 433              		@ sp needed	@
 434 00a8 10BD     		pop	{r4, pc}
 435              	.L33:
 436 00aa C046     		.align	2
 437              	.L32:
 438 00ac 00000000 		.word	UART0_Resources
 439              		.cfi_endproc
 440              	.LFE36:
 441              		.size	UART0_Send, .-UART0_Send
 442              		.align	1
 443              		.syntax unified
 444              		.code	16
 445              		.thumb_func
 446              		.fpu softvfp
 447              		.type	UART1_Send, %function
ARM GAS  C:\Users\claym\AppData\Local\Temp\cctQKk9X.s 			page 11


 448              	UART1_Send:
 449              	.LFB45:
  79:.\driver\src/uart_drv_api.c ****   return UART_Send (data, num, &UART1_Resources);
 450              		.loc 1 79 0
 451              		.cfi_startproc
 452              		@ args = 0, pretend = 0, frame = 0
 453              		@ frame_needed = 0, uses_anonymous_args = 0
 454              	.LVL16:
 455 00b0 10B5     		push	{r4, lr}	@
 456              	.LCFI11:
 457              		.cfi_def_cfa_offset 8
 458              		.cfi_offset 4, -8
 459              		.cfi_offset 14, -4
 460              	@ .\driver\src\uart_drv_api.c:80:   return UART_Send (data, num, &UART1_Resources);
  80:.\driver\src/uart_drv_api.c **** }
 461              		.loc 1 80 0
 462 00b2 024A     		ldr	r2, .L35	@,
 463 00b4 FFF7FEFF 		bl	UART_Send	@
 464              	.LVL17:
 465              	@ .\driver\src\uart_drv_api.c:81: }
  81:.\driver\src/uart_drv_api.c **** static int32_t UART1_Receive (uint8_t *data, uint32_t num) {
 466              		.loc 1 81 0
 467              		@ sp needed	@
 468 00b8 10BD     		pop	{r4, pc}
 469              	.L36:
 470 00ba C046     		.align	2
 471              	.L35:
 472 00bc 00000000 		.word	UART1_Resources
 473              		.cfi_endproc
 474              	.LFE45:
 475              		.size	UART1_Send, .-UART1_Send
 476              		.align	1
 477              		.syntax unified
 478              		.code	16
 479              		.thumb_func
 480              		.fpu softvfp
 481              		.type	UART0_Uninitialize, %function
 482              	UART0_Uninitialize:
 483              	.LFB35:
  31:.\driver\src/uart_drv_api.c ****   return UART_Uninitialize(&UART0_Resources);
 484              		.loc 1 31 0
 485              		.cfi_startproc
 486              		@ args = 0, pretend = 0, frame = 0
 487              		@ frame_needed = 0, uses_anonymous_args = 0
 488 00c0 10B5     		push	{r4, lr}	@
 489              	.LCFI12:
 490              		.cfi_def_cfa_offset 8
 491              		.cfi_offset 4, -8
 492              		.cfi_offset 14, -4
 493              	@ .\driver\src\uart_drv_api.c:32:   return UART_Uninitialize(&UART0_Resources);
  32:.\driver\src/uart_drv_api.c **** }
 494              		.loc 1 32 0
 495 00c2 0248     		ldr	r0, .L38	@,
 496 00c4 FFF7FEFF 		bl	UART_Uninitialize	@
 497              	.LVL18:
 498              	@ .\driver\src\uart_drv_api.c:33: }
  33:.\driver\src/uart_drv_api.c **** static int32_t UART0_Send (uint8_t *data, uint32_t num) {
ARM GAS  C:\Users\claym\AppData\Local\Temp\cctQKk9X.s 			page 12


 499              		.loc 1 33 0
 500              		@ sp needed	@
 501 00c8 10BD     		pop	{r4, pc}
 502              	.L39:
 503 00ca C046     		.align	2
 504              	.L38:
 505 00cc 00000000 		.word	UART0_Resources
 506              		.cfi_endproc
 507              	.LFE35:
 508              		.size	UART0_Uninitialize, .-UART0_Uninitialize
 509              		.align	1
 510              		.syntax unified
 511              		.code	16
 512              		.thumb_func
 513              		.fpu softvfp
 514              		.type	UART1_Uninitialize, %function
 515              	UART1_Uninitialize:
 516              	.LFB44:
  76:.\driver\src/uart_drv_api.c ****   return UART_Uninitialize(&UART1_Resources);
 517              		.loc 1 76 0
 518              		.cfi_startproc
 519              		@ args = 0, pretend = 0, frame = 0
 520              		@ frame_needed = 0, uses_anonymous_args = 0
 521 00d0 10B5     		push	{r4, lr}	@
 522              	.LCFI13:
 523              		.cfi_def_cfa_offset 8
 524              		.cfi_offset 4, -8
 525              		.cfi_offset 14, -4
 526              	@ .\driver\src\uart_drv_api.c:77:   return UART_Uninitialize(&UART1_Resources);
  77:.\driver\src/uart_drv_api.c **** }
 527              		.loc 1 77 0
 528 00d2 0248     		ldr	r0, .L41	@,
 529 00d4 FFF7FEFF 		bl	UART_Uninitialize	@
 530              	.LVL19:
 531              	@ .\driver\src\uart_drv_api.c:78: }
  78:.\driver\src/uart_drv_api.c **** static int32_t UART1_Send (uint8_t *data, uint32_t num) {
 532              		.loc 1 78 0
 533              		@ sp needed	@
 534 00d8 10BD     		pop	{r4, pc}
 535              	.L42:
 536 00da C046     		.align	2
 537              	.L41:
 538 00dc 00000000 		.word	UART1_Resources
 539              		.cfi_endproc
 540              	.LFE44:
 541              		.size	UART1_Uninitialize, .-UART1_Uninitialize
 542              		.align	1
 543              		.syntax unified
 544              		.code	16
 545              		.thumb_func
 546              		.fpu softvfp
 547              		.type	UART0_Initialize, %function
 548              	UART0_Initialize:
 549              	.LFB34:
  28:.\driver\src/uart_drv_api.c ****   return UART_Initialize (cb_event, &UART0_Resources);
 550              		.loc 1 28 0
 551              		.cfi_startproc
ARM GAS  C:\Users\claym\AppData\Local\Temp\cctQKk9X.s 			page 13


 552              		@ args = 0, pretend = 0, frame = 0
 553              		@ frame_needed = 0, uses_anonymous_args = 0
 554              	.LVL20:
 555 00e0 10B5     		push	{r4, lr}	@
 556              	.LCFI14:
 557              		.cfi_def_cfa_offset 8
 558              		.cfi_offset 4, -8
 559              		.cfi_offset 14, -4
 560              	@ .\driver\src\uart_drv_api.c:29:   return UART_Initialize (cb_event, &UART0_Resources);
  29:.\driver\src/uart_drv_api.c **** }
 561              		.loc 1 29 0
 562 00e2 0249     		ldr	r1, .L44	@,
 563 00e4 FFF7FEFF 		bl	UART_Initialize	@
 564              	.LVL21:
 565              	@ .\driver\src\uart_drv_api.c:30: }
  30:.\driver\src/uart_drv_api.c **** static int32_t UART0_Uninitialize (void) {
 566              		.loc 1 30 0
 567              		@ sp needed	@
 568 00e8 10BD     		pop	{r4, pc}
 569              	.L45:
 570 00ea C046     		.align	2
 571              	.L44:
 572 00ec 00000000 		.word	UART0_Resources
 573              		.cfi_endproc
 574              	.LFE34:
 575              		.size	UART0_Initialize, .-UART0_Initialize
 576              		.align	1
 577              		.syntax unified
 578              		.code	16
 579              		.thumb_func
 580              		.fpu softvfp
 581              		.type	UART1_Initialize, %function
 582              	UART1_Initialize:
 583              	.LFB43:
  73:.\driver\src/uart_drv_api.c ****   return UART_Initialize (cb_event, &UART1_Resources);
 584              		.loc 1 73 0
 585              		.cfi_startproc
 586              		@ args = 0, pretend = 0, frame = 0
 587              		@ frame_needed = 0, uses_anonymous_args = 0
 588              	.LVL22:
 589 00f0 10B5     		push	{r4, lr}	@
 590              	.LCFI15:
 591              		.cfi_def_cfa_offset 8
 592              		.cfi_offset 4, -8
 593              		.cfi_offset 14, -4
 594              	@ .\driver\src\uart_drv_api.c:74:   return UART_Initialize (cb_event, &UART1_Resources);
  74:.\driver\src/uart_drv_api.c **** }
 595              		.loc 1 74 0
 596 00f2 0249     		ldr	r1, .L47	@,
 597 00f4 FFF7FEFF 		bl	UART_Initialize	@
 598              	.LVL23:
 599              	@ .\driver\src\uart_drv_api.c:75: }
  75:.\driver\src/uart_drv_api.c **** static int32_t UART1_Uninitialize (void) {
 600              		.loc 1 75 0
 601              		@ sp needed	@
 602 00f8 10BD     		pop	{r4, pc}
 603              	.L48:
ARM GAS  C:\Users\claym\AppData\Local\Temp\cctQKk9X.s 			page 14


 604 00fa C046     		.align	2
 605              	.L47:
 606 00fc 00000000 		.word	UART1_Resources
 607              		.cfi_endproc
 608              	.LFE43:
 609              		.size	UART1_Initialize, .-UART1_Initialize
 610              		.align	1
 611              		.global	VOR_UART0_IRQHandler
 612              		.syntax unified
 613              		.code	16
 614              		.thumb_func
 615              		.fpu softvfp
 616              		.type	VOR_UART0_IRQHandler, %function
 617              	VOR_UART0_IRQHandler:
 618              	.LFB42:
  55:.\driver\src/uart_drv_api.c ****   UART_IRQHandler (&UART0_Resources);
 619              		.loc 1 55 0
 620              		.cfi_startproc
 621              		@ args = 0, pretend = 0, frame = 0
 622              		@ frame_needed = 0, uses_anonymous_args = 0
 623 0100 10B5     		push	{r4, lr}	@
 624              	.LCFI16:
 625              		.cfi_def_cfa_offset 8
 626              		.cfi_offset 4, -8
 627              		.cfi_offset 14, -4
 628              	@ .\driver\src\uart_drv_api.c:56:   UART_IRQHandler (&UART0_Resources);
  56:.\driver\src/uart_drv_api.c **** }
 629              		.loc 1 56 0
 630 0102 0248     		ldr	r0, .L50	@,
 631 0104 FFF7FEFF 		bl	UART_IRQHandler	@
 632              	.LVL24:
 633              	@ .\driver\src\uart_drv_api.c:57: }
  57:.\driver\src/uart_drv_api.c **** 
 634              		.loc 1 57 0
 635              		@ sp needed	@
 636 0108 10BD     		pop	{r4, pc}
 637              	.L51:
 638 010a C046     		.align	2
 639              	.L50:
 640 010c 00000000 		.word	UART0_Resources
 641              		.cfi_endproc
 642              	.LFE42:
 643              		.size	VOR_UART0_IRQHandler, .-VOR_UART0_IRQHandler
 644              		.align	1
 645              		.global	VOR_UART1_IRQHandler
 646              		.syntax unified
 647              		.code	16
 648              		.thumb_func
 649              		.fpu softvfp
 650              		.type	VOR_UART1_IRQHandler, %function
 651              	VOR_UART1_IRQHandler:
 652              	.LFB51:
  97:.\driver\src/uart_drv_api.c **** void VOR_UART1_IRQHandler (void) {
 653              		.loc 1 97 0
 654              		.cfi_startproc
 655              		@ args = 0, pretend = 0, frame = 0
 656              		@ frame_needed = 0, uses_anonymous_args = 0
ARM GAS  C:\Users\claym\AppData\Local\Temp\cctQKk9X.s 			page 15


 657 0110 10B5     		push	{r4, lr}	@
 658              	.LCFI17:
 659              		.cfi_def_cfa_offset 8
 660              		.cfi_offset 4, -8
 661              		.cfi_offset 14, -4
 662              	@ .\driver\src\uart_drv_api.c:98:   UART_IRQHandler (&UART1_Resources);
  98:.\driver\src/uart_drv_api.c ****   UART_IRQHandler (&UART1_Resources);
 663              		.loc 1 98 0
 664 0112 0248     		ldr	r0, .L53	@,
 665 0114 FFF7FEFF 		bl	UART_IRQHandler	@
 666              	.LVL25:
 667              	@ .\driver\src\uart_drv_api.c:99: }
  99:.\driver\src/uart_drv_api.c **** }
 668              		.loc 1 99 0
 669              		@ sp needed	@
 670 0118 10BD     		pop	{r4, pc}
 671              	.L54:
 672 011a C046     		.align	2
 673              	.L53:
 674 011c 00000000 		.word	UART1_Resources
 675              		.cfi_endproc
 676              	.LFE51:
 677              		.size	VOR_UART1_IRQHandler, .-VOR_UART1_IRQHandler
 678              		.global	Driver_UART1
 679              		.global	Driver_UART0
 680              		.data
 681              		.align	2
 682              		.type	Driver_UART1, %object
 683              		.size	Driver_UART1, 36
 684              	Driver_UART1:
 685              	@ GetVersion:
 686 0000 00000000 		.word	UARTx_GetVersion
 687              	@ Initialize:
 688 0004 00000000 		.word	UART1_Initialize
 689              	@ Uninitialize:
 690 0008 00000000 		.word	UART1_Uninitialize
 691              	@ Send:
 692 000c 00000000 		.word	UART1_Send
 693              	@ Receive:
 694 0010 00000000 		.word	UART1_Receive
 695              	@ GetTxCount:
 696 0014 00000000 		.word	UART1_GetTxCount
 697              	@ GetRxCount:
 698 0018 00000000 		.word	UART1_GetRxCount
 699              	@ Control:
 700 001c 00000000 		.word	UART1_Control
 701              	@ GetStatus:
 702 0020 00000000 		.word	UART1_GetStatus
 703              		.type	Driver_UART0, %object
 704              		.size	Driver_UART0, 36
 705              	Driver_UART0:
 706              	@ GetVersion:
 707 0024 00000000 		.word	UARTx_GetVersion
 708              	@ Initialize:
 709 0028 00000000 		.word	UART0_Initialize
 710              	@ Uninitialize:
 711 002c 00000000 		.word	UART0_Uninitialize
ARM GAS  C:\Users\claym\AppData\Local\Temp\cctQKk9X.s 			page 16


 712              	@ Send:
 713 0030 00000000 		.word	UART0_Send
 714              	@ Receive:
 715 0034 00000000 		.word	UART0_Receive
 716              	@ GetTxCount:
 717 0038 00000000 		.word	UART0_GetTxCount
 718              	@ GetRxCount:
 719 003c 00000000 		.word	UART0_GetRxCount
 720              	@ Control:
 721 0040 00000000 		.word	UART0_Control
 722              	@ GetStatus:
 723 0044 00000000 		.word	UART0_GetStatus
 724              		.text
 725              	.Letext0:
 726              		.file 2 "c:\\program files (x86)\\gnu tools arm embedded\\7 2017-q4-major\\arm-none-eabi\\include\
 727              		.file 3 "c:\\program files (x86)\\gnu tools arm embedded\\7 2017-q4-major\\arm-none-eabi\\include\
 728              		.file 4 ".\\driver\\hdr/driver_common.h"
 729              		.file 5 ".\\driver\\hdr/driver_uart.h"
 730              		.file 6 ".\\common\\hdr/system_va108xx.h"
 731              		.file 7 ".\\common\\hdr/va108xx.h"
 732              		.file 8 ".\\driver\\hdr/uart_va108xx.h"