ARM GAS  C:\Users\cmerritt\AppData\Local\Temp\ccWuhjId.s 			page 1


   1              		.cpu cortex-m0
   2              		.eabi_attribute 20, 1	@ Tag_ABI_FP_denormal
   3              		.eabi_attribute 21, 1	@ Tag_ABI_FP_exceptions
   4              		.eabi_attribute 23, 3	@ Tag_ABI_FP_number_model
   5              		.eabi_attribute 24, 1	@ Tag_ABI_align8_needed
   6              		.eabi_attribute 25, 1	@ Tag_ABI_align8_preserved
   7              		.eabi_attribute 26, 1	@ Tag_ABI_enum_size
   8              		.eabi_attribute 30, 4	@ Tag_ABI_optimization_goals
   9              		.eabi_attribute 34, 0	@ Tag_CPU_unaligned_access
  10              		.eabi_attribute 18, 4	@ Tag_ABI_PCS_wchar_t
  11              		.file	"main.c"
  12              	@ GNU C11 (GNU Tools for Arm Embedded Processors 7-2017-q4-major) version 7.2.1 20170904 (release) 
  13              	@	compiled by GNU C version 5.3.1 20160211, GMP version 6.1.0, MPFR version 3.1.4, MPC version 1.0.
  14              	
  15              	@ GGC heuristics: --param ggc-min-expand=100 --param ggc-min-heapsize=131072
  16              	@ options passed:  -I . -I .\common\hdr -I .\driver\hdr -I .\utilities\hdr
  17              	@ -I .\inc -I .\driver\hdr -I .\hdr -imultilib thumb/v6-m
  18              	@ -iprefix c:\program files (x86)\gnu tools arm embedded\7 2017-q4-major\bin\../lib/gcc/arm-none-ea
  19              	@ -isysroot c:\program files (x86)\gnu tools arm embedded\7 2017-q4-major\bin\../arm-none-eabi
  20              	@ -D__USES_INITFINI__ -D RUN_FROM_FLASH=1 .\src\main.c -mcpu=cortex-m0
  21              	@ -mthumb -auxbase-strip .\src\main.o -gdwarf-2 -Os -Wall
  22              	@ -Wstrict-prototypes -fomit-frame-pointer -fverbose-asm
  23              	@ options enabled:  -faggressive-loop-optimizations -falign-jumps
  24              	@ -falign-labels -falign-loops -fauto-inc-dec -fbranch-count-reg
  25              	@ -fcaller-saves -fchkp-check-incomplete-type -fchkp-check-read
  26              	@ -fchkp-check-write -fchkp-instrument-calls -fchkp-narrow-bounds
  27              	@ -fchkp-optimize -fchkp-store-bounds -fchkp-use-static-bounds
  28              	@ -fchkp-use-static-const-bounds -fchkp-use-wrappers -fcode-hoisting
  29              	@ -fcombine-stack-adjustments -fcommon -fcompare-elim -fcprop-registers
  30              	@ -fcrossjumping -fcse-follow-jumps -fdefer-pop
  31              	@ -fdelete-null-pointer-checks -fdevirtualize -fdevirtualize-speculatively
  32              	@ -fdwarf2-cfi-asm -fearly-inlining -feliminate-unused-debug-types
  33              	@ -fexpensive-optimizations -fforward-propagate -ffp-int-builtin-inexact
  34              	@ -ffunction-cse -fgcse -fgcse-lm -fgnu-runtime -fgnu-unique
  35              	@ -fguess-branch-probability -fhoist-adjacent-loads -fident -fif-conversion
  36              	@ -fif-conversion2 -findirect-inlining -finline -finline-atomics
  37              	@ -finline-functions -finline-functions-called-once
  38              	@ -finline-small-functions -fipa-bit-cp -fipa-cp -fipa-icf
  39              	@ -fipa-icf-functions -fipa-icf-variables -fipa-profile -fipa-pure-const
  40              	@ -fipa-reference -fipa-sra -fipa-vrp -fira-hoist-pressure
  41              	@ -fira-share-save-slots -fira-share-spill-slots
  42              	@ -fisolate-erroneous-paths-dereference -fivopts -fkeep-static-consts
  43              	@ -fleading-underscore -flifetime-dse -flra-remat -flto-odr-type-merging
  44              	@ -fmath-errno -fmerge-constants -fmerge-debug-strings
  45              	@ -fmove-loop-invariants -fomit-frame-pointer -foptimize-sibling-calls
  46              	@ -fpartial-inlining -fpeephole -fpeephole2 -fplt -fprefetch-loop-arrays
  47              	@ -freg-struct-return -freorder-blocks -freorder-functions
  48              	@ -frerun-cse-after-loop -fsched-critical-path-heuristic
  49              	@ -fsched-dep-count-heuristic -fsched-group-heuristic -fsched-interblock
  50              	@ -fsched-last-insn-heuristic -fsched-pressure -fsched-rank-heuristic
  51              	@ -fsched-spec -fsched-spec-insn-heuristic -fsched-stalled-insns-dep
  52              	@ -fschedule-insns2 -fsection-anchors -fsemantic-interposition
  53              	@ -fshow-column -fshrink-wrap -fshrink-wrap-separate -fsigned-zeros
  54              	@ -fsplit-ivs-in-unroller -fsplit-wide-types -fssa-backprop -fssa-phiopt
  55              	@ -fstdarg-opt -fstore-merging -fstrict-aliasing -fstrict-overflow
  56              	@ -fstrict-volatile-bitfields -fsync-libcalls -fthread-jumps
  57              	@ -ftoplevel-reorder -ftrapping-math -ftree-bit-ccp -ftree-builtin-call-dce
ARM GAS  C:\Users\cmerritt\AppData\Local\Temp\ccWuhjId.s 			page 2


  58              	@ -ftree-ccp -ftree-ch -ftree-coalesce-vars -ftree-copy-prop -ftree-cselim
  59              	@ -ftree-dce -ftree-dominator-opts -ftree-dse -ftree-forwprop -ftree-fre
  60              	@ -ftree-loop-if-convert -ftree-loop-im -ftree-loop-ivcanon
  61              	@ -ftree-loop-optimize -ftree-parallelize-loops= -ftree-phiprop -ftree-pre
  62              	@ -ftree-pta -ftree-reassoc -ftree-scev-cprop -ftree-sink -ftree-slsr
  63              	@ -ftree-sra -ftree-switch-conversion -ftree-tail-merge -ftree-ter
  64              	@ -ftree-vrp -funit-at-a-time -fvar-tracking -fvar-tracking-assignments
  65              	@ -fverbose-asm -fzero-initialized-in-bss -mlittle-endian
  66              	@ -mpic-data-is-text-relative -msched-prolog -mthumb
  67              	@ -mvectorize-with-neon-quad
  68              	
  69              		.text
  70              	.Ltext0:
  71              		.cfi_sections	.debug_frame
  72              		.section	.text.startup,"ax",%progbits
  73              		.align	1
  74              		.global	main
  75              		.syntax unified
  76              		.code	16
  77              		.thumb_func
  78              		.fpu softvfp
  79              		.type	main, %function
  80              	main:
  81              	.LFB34:
  82              		.file 1 ".\\src\\main.c"
   1:.\src/main.c  **** /**
   2:.\src/main.c  ****   ******************************************************************************
   3:.\src/main.c  ****   * @file    try1/main.c 
   4:.\src/main.c  ****   * @author  CEM
   5:.\src/main.c  ****   * @version V1.0.0
   6:.\src/main.c  ****   * @date    23-March-2012
   7:.\src/main.c  ****   * @brief   Main program body - Sole purpose: blink LED
   8:.\src/main.c  ****   ******************************************************************************
   9:.\src/main.c  **** 
  10:.\src/main.c  ****   *
  11:.\src/main.c  ****   ******************************************************************************
  12:.\src/main.c  ****   */
  13:.\src/main.c  **** 
  14:.\src/main.c  **** /* Local Includes ------------------------------------------------------------------*/
  15:.\src/main.c  **** 
  16:.\src/main.c  **** #include "va108xx.h"
  17:.\src/main.c  **** 
  18:.\src/main.c  **** volatile int msec_tim_timeout = 1 ;
  19:.\src/main.c  **** 
  20:.\src/main.c  **** /* Local defines ------------------------------------------------------------*/
  21:.\src/main.c  **** #define PORTA_10_D2 			10
  22:.\src/main.c  **** #define PORTA_7_D3 				7
  23:.\src/main.c  **** #define PORTA_6_D4	 			6
  24:.\src/main.c  **** #define PORTA_11_SW_USER 		11
  25:.\src/main.c  **** 
  26:.\src/main.c  **** 
  27:.\src/main.c  **** /* Private variables ---------------------------------------------------------*/
  28:.\src/main.c  **** 
  29:.\src/main.c  **** 
  30:.\src/main.c  **** /*  function prototypes ------------*/
  31:.\src/main.c  **** 
  32:.\src/main.c  **** 
ARM GAS  C:\Users\cmerritt\AppData\Local\Temp\ccWuhjId.s 			page 3


  33:.\src/main.c  **** /* Private functions ---------------------*/
  34:.\src/main.c  **** //  void delay (int a);
  35:.\src/main.c  **** /**
  36:.\src/main.c  ****   * @brief  Main program.   (Blink LED on REB1 brd)
  37:.\src/main.c  ****   * @param  None
  38:.\src/main.c  ****   * @retval None
  39:.\src/main.c  ****   */
  40:.\src/main.c  **** int main(void)
  41:.\src/main.c  **** {
  83              		.loc 1 41 0
  84              		.cfi_startproc
  85              		@ Volatile: function does not return.
  86              		@ args = 0, pretend = 0, frame = 8
  87              		@ frame_needed = 0, uses_anonymous_args = 0
  88              	@ .\src\main.c:42: 	 volatile int count = 1  ;  /* counts the # of blinks  */
  42:.\src/main.c  **** 	 volatile int count = 1  ;  /* counts the # of blinks  */
  89              		.loc 1 42 0
  90 0000 0123     		movs	r3, #1	@ tmp122,
  91              	@ .\src\main.c:41: {
  41:.\src/main.c  **** 	 volatile int count = 1  ;  /* counts the # of blinks  */
  92              		.loc 1 41 0
  93 0002 13B5     		push	{r0, r1, r4, lr}	@
  94              	.LCFI0:
  95              		.cfi_def_cfa_offset 16
  96              		.cfi_offset 0, -16
  97              		.cfi_offset 1, -12
  98              		.cfi_offset 4, -8
  99              		.cfi_offset 14, -4
 100              	@ .\src\main.c:42: 	 volatile int count = 1  ;  /* counts the # of blinks  */
 101              		.loc 1 42 0
 102 0004 0193     		str	r3, [sp, #4]	@ tmp122, count
 103              	@ .\src\main.c:45: 		VOR_SYSCONFIG->PERIPHERAL_CLK_ENABLE = ( CLK_ENABLE_PORTA | CLK_ENABLE_PORTB |
  43:.\src/main.c  **** 
  44:.\src/main.c  **** 	/* Enable clock for all peripherals */
  45:.\src/main.c  **** 		VOR_SYSCONFIG->PERIPHERAL_CLK_ENABLE = ( CLK_ENABLE_PORTA | CLK_ENABLE_PORTB | CLK_ENABLE_SPIA | 
 104              		.loc 1 45 0
 105 0006 8023     		movs	r3, #128	@ tmp123,
 106 0008 124A     		ldr	r2, .L6	@ tmp124,
 107 000a DB05     		lsls	r3, r3, #23	@ tmp123, tmp123,
 108 000c DA67     		str	r2, [r3, #124]	@ tmp124, MEM[(struct VOR_SYSCONFIG_Type *)1073741824B].PERIPHERAL_CLK_ENABLE
 109              	@ .\src\main.c:52:       VOR_GPIO->BANK[0].DIR |= (1 << PORTA_7_D3);
  46:.\src/main.c  **** 				 CLK_ENABLE_UARTA | CLK_ENABLE_UARTB | CLK_ENABLE_I2CA | CLK_ENABLE_I2CB | CLK_ENABLE_IRQSEL |
  47:.\src/main.c  **** 				 CLK_ENABLE_IOMGR | CLK_ENABLE_UTILITY | CLK_ENABLE_PORTIO | CLK_ENABLE_SYSTEM );
  48:.\src/main.c  **** 
  49:.\src/main.c  **** 
  50:.\src/main.c  **** 
  51:.\src/main.c  **** /* Configure PA[7]. This GPIO will turn ON LED D3. */
  52:.\src/main.c  ****       VOR_GPIO->BANK[0].DIR |= (1 << PORTA_7_D3);
 110              		.loc 1 52 0
 111 000e A023     		movs	r3, #160	@ tmp125,
 112 0010 8022     		movs	r2, #128	@ tmp126,
 113              	@ .\src\main.c:60:       	SysTick -> LOAD = 0x800000  ;
  53:.\src/main.c  **** 	  VOR_GPIO->BANK[0].DATAMASK |= (1 << PORTA_7_D3);
  54:.\src/main.c  ****       VOR_GPIO->BANK[0].DATAOUT |= (1 << PORTA_7_D3);
  55:.\src/main.c  **** 
  56:.\src/main.c  **** 
  57:.\src/main.c  ****       /* Systick added for debug purposes  5/29  */
ARM GAS  C:\Users\cmerritt\AppData\Local\Temp\ccWuhjId.s 			page 4


  58:.\src/main.c  **** 
  59:.\src/main.c  ****       	SysTick -> CTRL = 0  ;
  60:.\src/main.c  ****       	SysTick -> LOAD = 0x800000  ;
 114              		.loc 1 60 0
 115 0012 8024     		movs	r4, #128	@ tmp137,
 116              	@ .\src\main.c:59:       	SysTick -> CTRL = 0  ;
  59:.\src/main.c  ****       	SysTick -> LOAD = 0x800000  ;
 117              		.loc 1 59 0
 118 0014 0020     		movs	r0, #0	@ tmp135,
 119              	@ .\src\main.c:52:       VOR_GPIO->BANK[0].DIR |= (1 << PORTA_7_D3);
  52:.\src/main.c  **** 	  VOR_GPIO->BANK[0].DATAMASK |= (1 << PORTA_7_D3);
 120              		.loc 1 52 0
 121 0016 DB05     		lsls	r3, r3, #23	@ tmp125, tmp125,
 122 0018 196A     		ldr	r1, [r3, #32]	@ _2, MEM[(struct VOR_GPIO_PERIPHERAL_BANK_Type *)1342177280B].BANK[0].D.4504.DI
 123              	@ .\src\main.c:60:       	SysTick -> LOAD = 0x800000  ;
 124              		.loc 1 60 0
 125 001a 2404     		lsls	r4, r4, #16	@ tmp137, tmp137,
 126              	@ .\src\main.c:52:       VOR_GPIO->BANK[0].DIR |= (1 << PORTA_7_D3);
  52:.\src/main.c  **** 	  VOR_GPIO->BANK[0].DATAMASK |= (1 << PORTA_7_D3);
 127              		.loc 1 52 0
 128 001c 1143     		orrs	r1, r2	@ _3, tmp126
 129 001e 1962     		str	r1, [r3, #32]	@ _3, MEM[(struct VOR_GPIO_PERIPHERAL_BANK_Type *)1342177280B].BANK[0].D.4504.DI
 130              	@ .\src\main.c:53: 	  VOR_GPIO->BANK[0].DATAMASK |= (1 << PORTA_7_D3);
  53:.\src/main.c  **** 	  VOR_GPIO->BANK[0].DATAMASK |= (1 << PORTA_7_D3);
 131              		.loc 1 53 0
 132 0020 D969     		ldr	r1, [r3, #28]	@ _4, MEM[(struct VOR_GPIO_PERIPHERAL_BANK_Type *)1342177280B].BANK[0].D.4500.DA
 133 0022 1143     		orrs	r1, r2	@ _5, tmp126
 134 0024 D961     		str	r1, [r3, #28]	@ _5, MEM[(struct VOR_GPIO_PERIPHERAL_BANK_Type *)1342177280B].BANK[0].D.4500.DA
 135              	@ .\src\main.c:54:       VOR_GPIO->BANK[0].DATAOUT |= (1 << PORTA_7_D3);
  54:.\src/main.c  **** 
 136              		.loc 1 54 0
 137 0026 9968     		ldr	r1, [r3, #8]	@ _6, MEM[(struct VOR_GPIO_PERIPHERAL_BANK_Type *)1342177280B].BANK[0].D.4480.DAT
 138 0028 1143     		orrs	r1, r2	@ _7, tmp126
 139 002a 9960     		str	r1, [r3, #8]	@ _7, MEM[(struct VOR_GPIO_PERIPHERAL_BANK_Type *)1342177280B].BANK[0].D.4480.DAT
 140              	@ .\src\main.c:59:       	SysTick -> CTRL = 0  ;
  59:.\src/main.c  ****       	SysTick -> LOAD = 0x800000  ;
 141              		.loc 1 59 0
 142 002c 0A49     		ldr	r1, .L6+4	@ tmp134,
 143 002e 0860     		str	r0, [r1]	@ tmp135, MEM[(struct SysTick_Type *)3758153744B].CTRL
 144              	@ .\src\main.c:60:       	SysTick -> LOAD = 0x800000  ;
 145              		.loc 1 60 0
 146 0030 4C60     		str	r4, [r1, #4]	@ tmp137, MEM[(struct SysTick_Type *)3758153744B].LOAD
 147              	@ .\src\main.c:62:       	SysTick -> CTRL = 7  ;    /* enable systick with ints enabled */
  61:.\src/main.c  ****       	SysTick -> VAL = 0x00   ;
  62:.\src/main.c  ****       	SysTick -> CTRL = 7  ;    /* enable systick with ints enabled */
 148              		.loc 1 62 0
 149 0032 0724     		movs	r4, #7	@ tmp141,
 150              	@ .\src\main.c:61:       	SysTick -> VAL = 0x00   ;
  61:.\src/main.c  ****       	SysTick -> VAL = 0x00   ;
 151              		.loc 1 61 0
 152 0034 8860     		str	r0, [r1, #8]	@ tmp135, MEM[(struct SysTick_Type *)3758153744B].VAL
 153              	@ .\src\main.c:62:       	SysTick -> CTRL = 7  ;    /* enable systick with ints enabled */
 154              		.loc 1 62 0
 155 0036 0C60     		str	r4, [r1]	@ tmp141, MEM[(struct SysTick_Type *)3758153744B].CTRL
 156              	@ .\src\main.c:65:       	msec_tim_timeout = 99   ;
  63:.\src/main.c  **** 
  64:.\src/main.c  ****       //	ret_code = VOR_TIM0_MSecInitialize(100);
ARM GAS  C:\Users\cmerritt\AppData\Local\Temp\ccWuhjId.s 			page 5


  65:.\src/main.c  ****       	msec_tim_timeout = 99   ;
 157              		.loc 1 65 0
 158 0038 6321     		movs	r1, #99	@ tmp143,
 159 003a 084C     		ldr	r4, .L6+8	@ tmp142,
 160 003c 2160     		str	r1, [r4]	@ tmp143, msec_tim_timeout
 161              	.L2:
 162              	@ .\src\main.c:69:        		if(msec_tim_timeout!=0)
  66:.\src/main.c  ****       	while(1)
  67:.\src/main.c  ****       	{
  68:.\src/main.c  **** 
  69:.\src/main.c  ****        		if(msec_tim_timeout!=0)
 163              		.loc 1 69 0
 164 003e 2168     		ldr	r1, [r4]	@ msec_tim_timeout.0_8, msec_tim_timeout
 165 0040 0029     		cmp	r1, #0	@ msec_tim_timeout.0_8,
 166 0042 FCD0     		beq	.L2	@,
 167              	@ .\src\main.c:71:       					count ++  ;
  70:.\src/main.c  ****       				{
  71:.\src/main.c  ****       					count ++  ;
 168              		.loc 1 71 0
 169 0044 0199     		ldr	r1, [sp, #4]	@ count.1_9, count
 170 0046 0131     		adds	r1, r1, #1	@ _10,
 171 0048 0191     		str	r1, [sp, #4]	@ _10, count
 172              	@ .\src\main.c:72:       					msec_tim_timeout = 0 ;
  72:.\src/main.c  ****       					msec_tim_timeout = 0 ;
 173              		.loc 1 72 0
 174 004a 2060     		str	r0, [r4]	@ tmp146, msec_tim_timeout
 175              	@ .\src\main.c:73:       					VOR_GPIO->BANK[0].TOGOUT |= (1 << PORTA_7_D3);
  73:.\src/main.c  ****       					VOR_GPIO->BANK[0].TOGOUT |= (1 << PORTA_7_D3);
 176              		.loc 1 73 0
 177 004c 9969     		ldr	r1, [r3, #24]	@ _11, MEM[(struct VOR_GPIO_PERIPHERAL_BANK_Type *)1342177280B].BANK[0].D.4496.T
 178 004e 1143     		orrs	r1, r2	@ _12, tmp148
 179 0050 9961     		str	r1, [r3, #24]	@ _12, MEM[(struct VOR_GPIO_PERIPHERAL_BANK_Type *)1342177280B].BANK[0].D.4496.T
 180 0052 F4E7     		b	.L2	@
 181              	.L7:
 182              		.align	2
 183              	.L6:
 184 0054 7303F301 		.word	32703347
 185 0058 10E000E0 		.word	-536813552
 186 005c 00000000 		.word	.LANCHOR0
 187              		.cfi_endproc
 188              	.LFE34:
 189              		.size	main, .-main
 190              		.text
 191              		.align	1
 192              		.global	SysTick_Handler
 193              		.syntax unified
 194              		.code	16
 195              		.thumb_func
 196              		.fpu softvfp
 197              		.type	SysTick_Handler, %function
 198              	SysTick_Handler:
 199              	.LFB35:
  74:.\src/main.c  ****       				}
  75:.\src/main.c  ****       	}
  76:.\src/main.c  **** 
  77:.\src/main.c  **** 
  78:.\src/main.c  **** //  while (1)    /*  loop forever here   */
ARM GAS  C:\Users\cmerritt\AppData\Local\Temp\ccWuhjId.s 			page 6


  79:.\src/main.c  **** //  {
  80:.\src/main.c  **** //     count ++ ;
  81:.\src/main.c  **** //	 delay(500000)  ;  /*  delay 500k counts  */
  82:.\src/main.c  **** //	 VOR_GPIO->BANK[0].TOGOUT |= (1 << PORTA_7_D3);
  83:.\src/main.c  ****     
  84:.\src/main.c  **** //  }
  85:.\src/main.c  **** }   /* **************  foot of main loop  ****************   */
  86:.\src/main.c  **** //void delay (int a)
  87:.\src/main.c  **** //{
  88:.\src/main.c  **** //	volatile int i,j;
  89:.\src/main.c  **** 	
  90:.\src/main.c  **** //	for (i=0 ; i < a ; i++)
  91:.\src/main.c  **** //	{
  92:.\src/main.c  **** //		j++;
  93:.\src/main.c  **** //	}
  94:.\src/main.c  **** 	
  95:.\src/main.c  **** //	return;
  96:.\src/main.c  **** // }
  97:.\src/main.c  **** 
  98:.\src/main.c  **** 
  99:.\src/main.c  **** 
 100:.\src/main.c  **** /*   added to show SysTick Exception firing     */
 101:.\src/main.c  **** void SysTick_Handler(void)
 102:.\src/main.c  **** {
 200              		.loc 1 102 0
 201              		.cfi_startproc
 202              		@ args = 0, pretend = 0, frame = 0
 203              		@ frame_needed = 0, uses_anonymous_args = 0
 204              		@ link register save eliminated.
 205              	@ .\src\main.c:103: 	msec_tim_timeout = 1  ;
 103:.\src/main.c  **** 	msec_tim_timeout = 1  ;
 206              		.loc 1 103 0
 207 0000 0122     		movs	r2, #1	@ tmp111,
 208 0002 014B     		ldr	r3, .L9	@ tmp110,
 209              	@ .\src\main.c:105: }
 104:.\src/main.c  **** 
 105:.\src/main.c  **** }
 210              		.loc 1 105 0
 211              		@ sp needed	@
 212              	@ .\src\main.c:103: 	msec_tim_timeout = 1  ;
 103:.\src/main.c  **** 	msec_tim_timeout = 1  ;
 213              		.loc 1 103 0
 214 0004 1A60     		str	r2, [r3]	@ tmp111, msec_tim_timeout
 215              	@ .\src\main.c:105: }
 216              		.loc 1 105 0
 217 0006 7047     		bx	lr
 218              	.L10:
 219              		.align	2
 220              	.L9:
 221 0008 00000000 		.word	.LANCHOR0
 222              		.cfi_endproc
 223              	.LFE35:
 224              		.size	SysTick_Handler, .-SysTick_Handler
 225              		.global	msec_tim_timeout
 226              		.data
 227              		.align	2
 228              		.set	.LANCHOR0,. + 0
ARM GAS  C:\Users\cmerritt\AppData\Local\Temp\ccWuhjId.s 			page 7


 229              		.type	msec_tim_timeout, %object
 230              		.size	msec_tim_timeout, 4
 231              	msec_tim_timeout:
 232 0000 01000000 		.word	1
 233              		.text
 234              	.Letext0:
 235              		.file 2 "c:\\program files (x86)\\gnu tools arm embedded\\7 2017-q4-major\\arm-none-eabi\\include\
 236              		.file 3 "c:\\program files (x86)\\gnu tools arm embedded\\7 2017-q4-major\\arm-none-eabi\\include\
 237              		.file 4 ".\\common\\hdr/core_cm0.h"
 238              		.file 5 ".\\common\\hdr/va108xx.h"
 239              		.file 6 ".\\common\\hdr/system_va108xx.h"