ARM GAS  C:\Users\claym\AppData\Local\Temp\cc7EnPk0.s 			page 1


   1              		.cpu cortex-m0
   2              		.eabi_attribute 20, 1	@ Tag_ABI_FP_denormal
   3              		.eabi_attribute 21, 1	@ Tag_ABI_FP_exceptions
   4              		.eabi_attribute 23, 3	@ Tag_ABI_FP_number_model
   5              		.eabi_attribute 24, 1	@ Tag_ABI_align8_needed
   6              		.eabi_attribute 25, 1	@ Tag_ABI_align8_preserved
   7              		.eabi_attribute 26, 1	@ Tag_ABI_enum_size
   8              		.eabi_attribute 30, 4	@ Tag_ABI_optimization_goals
   9              		.eabi_attribute 34, 0	@ Tag_CPU_unaligned_access
  10              		.eabi_attribute 18, 4	@ Tag_ABI_PCS_wchar_t
  11              		.file	"reb_timer.c"
  12              	@ GNU C11 (GNU Tools for Arm Embedded Processors 7-2017-q4-major) version 7.2.1 20170904 (release) 
  13              	@	compiled by GNU C version 5.3.1 20160211, GMP version 6.1.0, MPFR version 3.1.4, MPC version 1.0.
  14              	
  15              	@ GGC heuristics: --param ggc-min-expand=100 --param ggc-min-heapsize=131072
  16              	@ options passed:  -I . -I .\common\hdr -I .\driver\hdr -I .\utilities\hdr
  17              	@ -I .\inc -I .\driver\hdr -I .\hdr -imultilib thumb/v6-m
  18              	@ -iprefix c:\program files (x86)\gnu tools arm embedded\7 2017-q4-major\bin\../lib/gcc/arm-none-ea
  19              	@ -isysroot c:\program files (x86)\gnu tools arm embedded\7 2017-q4-major\bin\../arm-none-eabi
  20              	@ -D__USES_INITFINI__ -D RUN_FROM_FLASH=1 .\src\reb_timer.c -mcpu=cortex-m0
  21              	@ -mthumb -auxbase-strip .\src\reb_timer.o -gdwarf-2 -Os -Wall
  22              	@ -Wstrict-prototypes -fomit-frame-pointer -fverbose-asm
  23              	@ options enabled:  -faggressive-loop-optimizations -falign-jumps
  24              	@ -falign-labels -falign-loops -fauto-inc-dec -fbranch-count-reg
  25              	@ -fcaller-saves -fchkp-check-incomplete-type -fchkp-check-read
  26              	@ -fchkp-check-write -fchkp-instrument-calls -fchkp-narrow-bounds
  27              	@ -fchkp-optimize -fchkp-store-bounds -fchkp-use-static-bounds
  28              	@ -fchkp-use-static-const-bounds -fchkp-use-wrappers -fcode-hoisting
  29              	@ -fcombine-stack-adjustments -fcommon -fcompare-elim -fcprop-registers
  30              	@ -fcrossjumping -fcse-follow-jumps -fdefer-pop
  31              	@ -fdelete-null-pointer-checks -fdevirtualize -fdevirtualize-speculatively
  32              	@ -fdwarf2-cfi-asm -fearly-inlining -feliminate-unused-debug-types
  33              	@ -fexpensive-optimizations -fforward-propagate -ffp-int-builtin-inexact
  34              	@ -ffunction-cse -fgcse -fgcse-lm -fgnu-runtime -fgnu-unique
  35              	@ -fguess-branch-probability -fhoist-adjacent-loads -fident -fif-conversion
  36              	@ -fif-conversion2 -findirect-inlining -finline -finline-atomics
  37              	@ -finline-functions -finline-functions-called-once
  38              	@ -finline-small-functions -fipa-bit-cp -fipa-cp -fipa-icf
  39              	@ -fipa-icf-functions -fipa-icf-variables -fipa-profile -fipa-pure-const
  40              	@ -fipa-reference -fipa-sra -fipa-vrp -fira-hoist-pressure
  41              	@ -fira-share-save-slots -fira-share-spill-slots
  42              	@ -fisolate-erroneous-paths-dereference -fivopts -fkeep-static-consts
  43              	@ -fleading-underscore -flifetime-dse -flra-remat -flto-odr-type-merging
  44              	@ -fmath-errno -fmerge-constants -fmerge-debug-strings
  45              	@ -fmove-loop-invariants -fomit-frame-pointer -foptimize-sibling-calls
  46              	@ -fpartial-inlining -fpeephole -fpeephole2 -fplt -fprefetch-loop-arrays
  47              	@ -freg-struct-return -freorder-blocks -freorder-functions
  48              	@ -frerun-cse-after-loop -fsched-critical-path-heuristic
  49              	@ -fsched-dep-count-heuristic -fsched-group-heuristic -fsched-interblock
  50              	@ -fsched-last-insn-heuristic -fsched-pressure -fsched-rank-heuristic
  51              	@ -fsched-spec -fsched-spec-insn-heuristic -fsched-stalled-insns-dep
  52              	@ -fschedule-insns2 -fsection-anchors -fsemantic-interposition
  53              	@ -fshow-column -fshrink-wrap -fshrink-wrap-separate -fsigned-zeros
  54              	@ -fsplit-ivs-in-unroller -fsplit-wide-types -fssa-backprop -fssa-phiopt
  55              	@ -fstdarg-opt -fstore-merging -fstrict-aliasing -fstrict-overflow
  56              	@ -fstrict-volatile-bitfields -fsync-libcalls -fthread-jumps
  57              	@ -ftoplevel-reorder -ftrapping-math -ftree-bit-ccp -ftree-builtin-call-dce
ARM GAS  C:\Users\claym\AppData\Local\Temp\cc7EnPk0.s 			page 2


  58              	@ -ftree-ccp -ftree-ch -ftree-coalesce-vars -ftree-copy-prop -ftree-cselim
  59              	@ -ftree-dce -ftree-dominator-opts -ftree-dse -ftree-forwprop -ftree-fre
  60              	@ -ftree-loop-if-convert -ftree-loop-im -ftree-loop-ivcanon
  61              	@ -ftree-loop-optimize -ftree-parallelize-loops= -ftree-phiprop -ftree-pre
  62              	@ -ftree-pta -ftree-reassoc -ftree-scev-cprop -ftree-sink -ftree-slsr
  63              	@ -ftree-sra -ftree-switch-conversion -ftree-tail-merge -ftree-ter
  64              	@ -ftree-vrp -funit-at-a-time -fvar-tracking -fvar-tracking-assignments
  65              	@ -fverbose-asm -fzero-initialized-in-bss -mlittle-endian
  66              	@ -mpic-data-is-text-relative -msched-prolog -mthumb
  67              	@ -mvectorize-with-neon-quad
  68              	
  69              		.text
  70              	.Ltext0:
  71              		.cfi_sections	.debug_frame
  72              		.align	1
  73              		.global	VOR_TIM0_MSecInitialize
  74              		.syntax unified
  75              		.code	16
  76              		.thumb_func
  77              		.fpu softvfp
  78              		.type	VOR_TIM0_MSecInitialize, %function
  79              	VOR_TIM0_MSecInitialize:
  80              	.LFB34:
  81              		.file 1 ".\\src\\reb_timer.c"
   1:.\src/reb_timer.c **** /***************************************************************************************
   2:.\src/reb_timer.c ****  * @file     reb_timer.c
   3:.\src/reb_timer.c ****  * @version  V1.0
   4:.\src/reb_timer.c ****  * @date     31. March 2016
   5:.\src/reb_timer.c ****  *
   6:.\src/reb_timer.c ****  * @note
   7:.\src/reb_timer.c ****  * VORAGO Technologies 
   8:.\src/reb_timer.c ****  *
   9:.\src/reb_timer.c ****  * @note
  10:.\src/reb_timer.c ****  * Copyright (c) 2013-2016 VORAGO Technologies. 
  11:.\src/reb_timer.c ****  *
  12:.\src/reb_timer.c ****  * @par
  13:.\src/reb_timer.c ****  * BY DOWNLOADING, INSTALLING OR USING THIS SOFTWARE, YOU AGREE TO BE BOUND BY 
  14:.\src/reb_timer.c ****  * ALL THE TERMS AND CONDITIONS OF THE VORAGO TECHNOLOGIES END USER LICENSE AGREEMENT. 
  15:.\src/reb_timer.c ****  * THIS SOFTWARE IS PROVIDED "AS IS". NO WARRANTIES, WHETHER EXPRESS, IMPLIED
  16:.\src/reb_timer.c ****  * OR STATUTORY, INCLUDING, BUT NOT LIMITED TO, IMPLIED WARRANTIES OF MERCHANTABILITY 
  17:.\src/reb_timer.c ****  * AND FITNESS FOR A PARTICULAR PURPOSE APPLY TO THIS SOFTWARE. VORAGO TECHNOLOGIES 
  18:.\src/reb_timer.c ****  * SHALL NOT, IN ANY CIRCUMSTANCES, BE LIABLE FOR SPECIAL, INCIDENTAL, OR CONSEQUENTIAL 
  19:.\src/reb_timer.c ****  * DAMAGES, FOR ANY REASON WHATSOEVER.
  20:.\src/reb_timer.c ****  *
  21:.\src/reb_timer.c ****  ****************************************************************************************/
  22:.\src/reb_timer.c **** #include <stdbool.h>
  23:.\src/reb_timer.c **** #include "va108xx.h"
  24:.\src/reb_timer.c **** #include "reb_timer.h"
  25:.\src/reb_timer.c **** #include "reb_board.h"
  26:.\src/reb_timer.c **** #include "irq_va108xx.h"
  27:.\src/reb_timer.c **** 
  28:.\src/reb_timer.c **** //  extern ticker  ;
  29:.\src/reb_timer.c **** 
  30:.\src/reb_timer.c **** static volatile bool msec_tim_timeout = false, sec_tim_timeout = false; 
  31:.\src/reb_timer.c **** 
  32:.\src/reb_timer.c **** int32_t VOR_TIM0_MSecInitialize(uint32_t time_msec) {
  82              		.loc 1 32 0
ARM GAS  C:\Users\claym\AppData\Local\Temp\cc7EnPk0.s 			page 3


  83              		.cfi_startproc
  84              		@ args = 0, pretend = 0, frame = 0
  85              		@ frame_needed = 0, uses_anonymous_args = 0
  86              	.LVL0:
  87              	@ .\src\reb_timer.c:34: 	VOR_SYSCONFIG->TIM_CLK_ENABLE |= 0x1;  
  33:.\src/reb_timer.c **** 	int32_t ret_code = 0;
  34:.\src/reb_timer.c **** 	VOR_SYSCONFIG->TIM_CLK_ENABLE |= 0x1;  
  88              		.loc 1 34 0
  89 0000 8022     		movs	r2, #128	@ tmp115,
  90 0002 0123     		movs	r3, #1	@ tmp116,
  91              	@ .\src\reb_timer.c:32: int32_t VOR_TIM0_MSecInitialize(uint32_t time_msec) {
  32:.\src/reb_timer.c **** 	int32_t ret_code = 0;
  92              		.loc 1 32 0
  93 0004 70B5     		push	{r4, r5, r6, lr}	@
  94              	.LCFI0:
  95              		.cfi_def_cfa_offset 16
  96              		.cfi_offset 4, -16
  97              		.cfi_offset 5, -12
  98              		.cfi_offset 6, -8
  99              		.cfi_offset 14, -4
 100              	@ .\src\reb_timer.c:35: 	VOR_TIM->BANK[0].CTRL = 0x0; 
  35:.\src/reb_timer.c **** 	VOR_TIM->BANK[0].CTRL = 0x0; 
 101              		.loc 1 35 0
 102 0006 0024     		movs	r4, #0	@ tmp119,
 103              	@ .\src\reb_timer.c:34: 	VOR_SYSCONFIG->TIM_CLK_ENABLE |= 0x1;  
  34:.\src/reb_timer.c **** 	VOR_TIM->BANK[0].CTRL = 0x0; 
 104              		.loc 1 34 0
 105 0008 D205     		lsls	r2, r2, #23	@ tmp115, tmp115,
 106 000a 516F     		ldr	r1, [r2, #116]	@ _1, MEM[(struct VOR_SYSCONFIG_Type *)1073741824B].TIM_CLK_ENABLE
 107              	@ .\src\reb_timer.c:32: int32_t VOR_TIM0_MSecInitialize(uint32_t time_msec) {
  32:.\src/reb_timer.c **** 	int32_t ret_code = 0;
 108              		.loc 1 32 0
 109 000c 0600     		movs	r6, r0	@ time_msec, time_msec
 110              	@ .\src\reb_timer.c:35: 	VOR_TIM->BANK[0].CTRL = 0x0; 
 111              		.loc 1 35 0
 112 000e 094D     		ldr	r5, .L2	@ tmp118,
 113              	@ .\src\reb_timer.c:34: 	VOR_SYSCONFIG->TIM_CLK_ENABLE |= 0x1;  
  34:.\src/reb_timer.c **** 	VOR_TIM->BANK[0].CTRL = 0x0; 
 114              		.loc 1 34 0
 115 0010 0B43     		orrs	r3, r1	@ _2, _1
 116 0012 5367     		str	r3, [r2, #116]	@ _2, MEM[(struct VOR_SYSCONFIG_Type *)1073741824B].TIM_CLK_ENABLE
 117              	@ .\src\reb_timer.c:38: 	VOR_Disable_Irq(VOR_IRQ_TIM, 0); 
  36:.\src/reb_timer.c **** 	
  37:.\src/reb_timer.c **** 	/* Disable IRQ for TIM0 module */ 
  38:.\src/reb_timer.c **** 	VOR_Disable_Irq(VOR_IRQ_TIM, 0); 
 118              		.loc 1 38 0
 119 0014 2100     		movs	r1, r4	@, tmp119
 120              	@ .\src\reb_timer.c:35: 	VOR_TIM->BANK[0].CTRL = 0x0; 
  35:.\src/reb_timer.c **** 	
 121              		.loc 1 35 0
 122 0016 2C60     		str	r4, [r5]	@ tmp119, MEM[(struct VOR_TIM_PERIPHERAL_BANK_Type *)1073872896B].BANK[0].CTRL
 123              	@ .\src\reb_timer.c:38: 	VOR_Disable_Irq(VOR_IRQ_TIM, 0); 
 124              		.loc 1 38 0
 125 0018 0220     		movs	r0, #2	@,
 126              	.LVL1:
 127 001a FFF7FEFF 		bl	VOR_Disable_Irq	@
 128              	.LVL2:
ARM GAS  C:\Users\claym\AppData\Local\Temp\cc7EnPk0.s 			page 4


 129              	@ .\src\reb_timer.c:45: 	VOR_TIM->BANK[0].CTRL  = TIM0_CTRL_ENABLE_Msk | TIM0_CTRL_IRQ_ENB_Msk;
  39:.\src/reb_timer.c **** 
  40:.\src/reb_timer.c ****   /* Initialize TIM w/ specified period */ 	
  41:.\src/reb_timer.c **** //  CEM  	VOR_TIM->BANK[0].RST_VALUE = time_msec*(SystemCoreClock/1000);
  42:.\src/reb_timer.c **** 	VOR_TIM->BANK[0].RST_VALUE = time_msec*(50000);
  43:.\src/reb_timer.c **** 		
  44:.\src/reb_timer.c **** 	/* Enable TIM and interrupt */ 
  45:.\src/reb_timer.c **** 	VOR_TIM->BANK[0].CTRL  = TIM0_CTRL_ENABLE_Msk | TIM0_CTRL_IRQ_ENB_Msk;
 130              		.loc 1 45 0
 131 001e 1123     		movs	r3, #17	@ tmp123,
 132              	@ .\src\reb_timer.c:42: 	VOR_TIM->BANK[0].RST_VALUE = time_msec*(50000);
  42:.\src/reb_timer.c **** 		
 133              		.loc 1 42 0
 134 0020 0548     		ldr	r0, .L2+4	@ tmp120,
 135              	@ .\src\reb_timer.c:48: 	VOR_Enable_Irq(VOR_IRQ_TIM, 0);
  46:.\src/reb_timer.c **** 	
  47:.\src/reb_timer.c **** 	/* Enable IRQ for TIM0 module */ 
  48:.\src/reb_timer.c **** 	VOR_Enable_Irq(VOR_IRQ_TIM, 0);
 136              		.loc 1 48 0
 137 0022 2100     		movs	r1, r4	@, tmp119
 138              	@ .\src\reb_timer.c:42: 	VOR_TIM->BANK[0].RST_VALUE = time_msec*(50000);
  42:.\src/reb_timer.c **** 		
 139              		.loc 1 42 0
 140 0024 7043     		muls	r0, r6	@ _3, time_msec
 141 0026 6860     		str	r0, [r5, #4]	@ _3, MEM[(struct VOR_TIM_PERIPHERAL_BANK_Type *)1073872896B].BANK[0].RST_VALUE
 142              	@ .\src\reb_timer.c:45: 	VOR_TIM->BANK[0].CTRL  = TIM0_CTRL_ENABLE_Msk | TIM0_CTRL_IRQ_ENB_Msk;
  45:.\src/reb_timer.c **** 	
 143              		.loc 1 45 0
 144 0028 2B60     		str	r3, [r5]	@ tmp123, MEM[(struct VOR_TIM_PERIPHERAL_BANK_Type *)1073872896B].BANK[0].CTRL
 145              	@ .\src\reb_timer.c:48: 	VOR_Enable_Irq(VOR_IRQ_TIM, 0);
 146              		.loc 1 48 0
 147 002a 0220     		movs	r0, #2	@,
 148 002c FFF7FEFF 		bl	VOR_Enable_Irq	@
 149              	.LVL3:
 150              	@ .\src\reb_timer.c:51: }
  49:.\src/reb_timer.c **** 		
  50:.\src/reb_timer.c **** 	return ret_code;
  51:.\src/reb_timer.c **** }
 151              		.loc 1 51 0
 152              		@ sp needed	@
 153 0030 2000     		movs	r0, r4	@, tmp119
 154              	.LVL4:
 155 0032 70BD     		pop	{r4, r5, r6, pc}
 156              	.L3:
 157              		.align	2
 158              	.L2:
 159 0034 00000240 		.word	1073872896
 160 0038 50C30000 		.word	50000
 161              		.cfi_endproc
 162              	.LFE34:
 163              		.size	VOR_TIM0_MSecInitialize, .-VOR_TIM0_MSecInitialize
 164              		.align	1
 165              		.global	VOR_TIM1_SecInitialize
 166              		.syntax unified
 167              		.code	16
 168              		.thumb_func
 169              		.fpu softvfp
ARM GAS  C:\Users\claym\AppData\Local\Temp\cc7EnPk0.s 			page 5


 170              		.type	VOR_TIM1_SecInitialize, %function
 171              	VOR_TIM1_SecInitialize:
 172              	.LFB35:
  52:.\src/reb_timer.c **** 
  53:.\src/reb_timer.c **** int32_t VOR_TIM1_SecInitialize(uint32_t time_sec) {
 173              		.loc 1 53 0
 174              		.cfi_startproc
 175              		@ args = 0, pretend = 0, frame = 0
 176              		@ frame_needed = 0, uses_anonymous_args = 0
 177              	.LVL5:
 178              	@ .\src\reb_timer.c:55: 	VOR_SYSCONFIG->TIM_CLK_ENABLE |= 0x2;  
  54:.\src/reb_timer.c **** 	int32_t ret_code = 0;
  55:.\src/reb_timer.c **** 	VOR_SYSCONFIG->TIM_CLK_ENABLE |= 0x2;  
 179              		.loc 1 55 0
 180 003c 8022     		movs	r2, #128	@ tmp114,
 181              	@ .\src\reb_timer.c:53: int32_t VOR_TIM1_SecInitialize(uint32_t time_sec) {
  53:.\src/reb_timer.c **** 	int32_t ret_code = 0;
 182              		.loc 1 53 0
 183 003e F8B5     		push	{r3, r4, r5, r6, r7, lr}	@
 184              	.LCFI1:
 185              		.cfi_def_cfa_offset 24
 186              		.cfi_offset 3, -24
 187              		.cfi_offset 4, -20
 188              		.cfi_offset 5, -16
 189              		.cfi_offset 6, -12
 190              		.cfi_offset 7, -8
 191              		.cfi_offset 14, -4
 192              	@ .\src\reb_timer.c:55: 	VOR_SYSCONFIG->TIM_CLK_ENABLE |= 0x2;  
 193              		.loc 1 55 0
 194 0040 0224     		movs	r4, #2	@ tmp115,
 195              	@ .\src\reb_timer.c:56: 	VOR_TIM->BANK[1].CTRL = 0x0;
  56:.\src/reb_timer.c **** 	VOR_TIM->BANK[1].CTRL = 0x0;
 196              		.loc 1 56 0
 197 0042 8027     		movs	r7, #128	@ tmp118,
 198 0044 0026     		movs	r6, #0	@ tmp119,
 199              	@ .\src\reb_timer.c:55: 	VOR_SYSCONFIG->TIM_CLK_ENABLE |= 0x2;  
  55:.\src/reb_timer.c **** 	VOR_TIM->BANK[1].CTRL = 0x0;
 200              		.loc 1 55 0
 201 0046 D205     		lsls	r2, r2, #23	@ tmp114, tmp114,
 202 0048 536F     		ldr	r3, [r2, #116]	@ _1, MEM[(struct VOR_SYSCONFIG_Type *)1073741824B].TIM_CLK_ENABLE
 203              	@ .\src\reb_timer.c:56: 	VOR_TIM->BANK[1].CTRL = 0x0;
 204              		.loc 1 56 0
 205 004a 0A4D     		ldr	r5, .L5	@ tmp117,
 206              	@ .\src\reb_timer.c:55: 	VOR_SYSCONFIG->TIM_CLK_ENABLE |= 0x2;  
  55:.\src/reb_timer.c **** 	VOR_TIM->BANK[1].CTRL = 0x0;
 207              		.loc 1 55 0
 208 004c 2343     		orrs	r3, r4	@ _2, tmp115
 209              	@ .\src\reb_timer.c:56: 	VOR_TIM->BANK[1].CTRL = 0x0;
 210              		.loc 1 56 0
 211 004e 7F01     		lsls	r7, r7, #5	@ tmp118, tmp118,
 212              	@ .\src\reb_timer.c:55: 	VOR_SYSCONFIG->TIM_CLK_ENABLE |= 0x2;  
  55:.\src/reb_timer.c **** 	VOR_TIM->BANK[1].CTRL = 0x0;
 213              		.loc 1 55 0
 214 0050 5367     		str	r3, [r2, #116]	@ _2, MEM[(struct VOR_SYSCONFIG_Type *)1073741824B].TIM_CLK_ENABLE
 215              	@ .\src\reb_timer.c:59: 	VOR_Disable_Irq(VOR_IRQ_TIM, 1); 
  57:.\src/reb_timer.c **** 
  58:.\src/reb_timer.c **** 	/* Enable IRQ for TIM1 module */ 
ARM GAS  C:\Users\claym\AppData\Local\Temp\cc7EnPk0.s 			page 6


  59:.\src/reb_timer.c **** 	VOR_Disable_Irq(VOR_IRQ_TIM, 1); 
 216              		.loc 1 59 0
 217 0052 0121     		movs	r1, #1	@,
 218              	@ .\src\reb_timer.c:56: 	VOR_TIM->BANK[1].CTRL = 0x0;
  56:.\src/reb_timer.c **** 
 219              		.loc 1 56 0
 220 0054 EE51     		str	r6, [r5, r7]	@ tmp119, MEM[(struct VOR_TIM_PERIPHERAL_BANK_Type *)1073872896B].BANK[1].CTRL
 221              	@ .\src\reb_timer.c:59: 	VOR_Disable_Irq(VOR_IRQ_TIM, 1); 
 222              		.loc 1 59 0
 223 0056 2000     		movs	r0, r4	@, tmp115
 224              	.LVL6:
 225 0058 FFF7FEFF 		bl	VOR_Disable_Irq	@
 226              	.LVL7:
 227              	@ .\src\reb_timer.c:63: 	VOR_TIM->BANK[1].RST_VALUE = 50000000;
  60:.\src/reb_timer.c **** 
  61:.\src/reb_timer.c ****   /* Initialize TIM w/ specified period */ 	
  62:.\src/reb_timer.c **** // CEM  	VOR_TIM->BANK[1].RST_VALUE = time_sec*SystemCoreClock;
  63:.\src/reb_timer.c **** 	VOR_TIM->BANK[1].RST_VALUE = 50000000;
 228              		.loc 1 63 0
 229 005c 064A     		ldr	r2, .L5+4	@ tmp122,
 230 005e 074B     		ldr	r3, .L5+8	@ tmp121,
 231              	@ .\src\reb_timer.c:68: 	VOR_Enable_Irq(VOR_IRQ_TIM, 1);
  64:.\src/reb_timer.c **** 	/* Enable TIM and interrupt */ 
  65:.\src/reb_timer.c **** 	VOR_TIM->BANK[1].CTRL  = TIM1_CTRL_ENABLE_Msk | TIM1_CTRL_IRQ_ENB_Msk;
  66:.\src/reb_timer.c **** 	
  67:.\src/reb_timer.c **** 	/* Enable IRQ for TIM1 module */ 
  68:.\src/reb_timer.c **** 	VOR_Enable_Irq(VOR_IRQ_TIM, 1);
 232              		.loc 1 68 0
 233 0060 0121     		movs	r1, #1	@,
 234              	@ .\src\reb_timer.c:63: 	VOR_TIM->BANK[1].RST_VALUE = 50000000;
  63:.\src/reb_timer.c **** 	/* Enable TIM and interrupt */ 
 235              		.loc 1 63 0
 236 0062 EA50     		str	r2, [r5, r3]	@ tmp122, MEM[(struct VOR_TIM_PERIPHERAL_BANK_Type *)1073872896B].BANK[1].RST_VAL
 237              	@ .\src\reb_timer.c:65: 	VOR_TIM->BANK[1].CTRL  = TIM1_CTRL_ENABLE_Msk | TIM1_CTRL_IRQ_ENB_Msk;
  65:.\src/reb_timer.c **** 	
 238              		.loc 1 65 0
 239 0064 1123     		movs	r3, #17	@ tmp125,
 240              	@ .\src\reb_timer.c:68: 	VOR_Enable_Irq(VOR_IRQ_TIM, 1);
 241              		.loc 1 68 0
 242 0066 2000     		movs	r0, r4	@, tmp115
 243              	@ .\src\reb_timer.c:65: 	VOR_TIM->BANK[1].CTRL  = TIM1_CTRL_ENABLE_Msk | TIM1_CTRL_IRQ_ENB_Msk;
  65:.\src/reb_timer.c **** 	
 244              		.loc 1 65 0
 245 0068 EB51     		str	r3, [r5, r7]	@ tmp125, MEM[(struct VOR_TIM_PERIPHERAL_BANK_Type *)1073872896B].BANK[1].CTRL
 246              	@ .\src\reb_timer.c:68: 	VOR_Enable_Irq(VOR_IRQ_TIM, 1);
 247              		.loc 1 68 0
 248 006a FFF7FEFF 		bl	VOR_Enable_Irq	@
 249              	.LVL8:
 250              	@ .\src\reb_timer.c:71: }
  69:.\src/reb_timer.c **** 		
  70:.\src/reb_timer.c **** 	return ret_code;
  71:.\src/reb_timer.c **** }
 251              		.loc 1 71 0
 252              		@ sp needed	@
 253 006e 3000     		movs	r0, r6	@, tmp119
 254 0070 F8BD     		pop	{r3, r4, r5, r6, r7, pc}
 255              	.L6:
ARM GAS  C:\Users\claym\AppData\Local\Temp\cc7EnPk0.s 			page 7


 256 0072 C046     		.align	2
 257              	.L5:
 258 0074 00000240 		.word	1073872896
 259 0078 80F0FA02 		.word	50000000
 260 007c 04100000 		.word	4100
 261              		.cfi_endproc
 262              	.LFE35:
 263              		.size	VOR_TIM1_SecInitialize, .-VOR_TIM1_SecInitialize
 264              		.align	1
 265              		.global	OC0_IRQHandler
 266              		.syntax unified
 267              		.code	16
 268              		.thumb_func
 269              		.fpu softvfp
 270              		.type	OC0_IRQHandler, %function
 271              	OC0_IRQHandler:
 272              	.LFB36:
  72:.\src/reb_timer.c **** 
  73:.\src/reb_timer.c **** void OC0_IRQHandler(void) {
 273              		.loc 1 73 0
 274              		.cfi_startproc
 275              		@ args = 0, pretend = 0, frame = 0
 276              		@ frame_needed = 0, uses_anonymous_args = 0
 277 0080 10B5     		push	{r4, lr}	@
 278              	.LCFI2:
 279              		.cfi_def_cfa_offset 8
 280              		.cfi_offset 4, -8
 281              		.cfi_offset 14, -4
 282              	@ .\src\reb_timer.c:75:   VOR_Disable_Irq(VOR_IRQ_TIM, 0); 
  74:.\src/reb_timer.c **** 	/* Disable IRQ for TIM0 module */ 
  75:.\src/reb_timer.c ****   VOR_Disable_Irq(VOR_IRQ_TIM, 0); 
 283              		.loc 1 75 0
 284 0082 0021     		movs	r1, #0	@,
 285 0084 0220     		movs	r0, #2	@,
 286 0086 FFF7FEFF 		bl	VOR_Disable_Irq	@
 287              	.LVL9:
 288              	@ .\src\reb_timer.c:77: 	msec_tim_timeout = 1  ;  /*  CEM  true;    */
  76:.\src/reb_timer.c **** 	
  77:.\src/reb_timer.c **** 	msec_tim_timeout = 1  ;  /*  CEM  true;    */
 289              		.loc 1 77 0
 290 008a 0122     		movs	r2, #1	@ tmp111,
 291 008c 034B     		ldr	r3, .L8	@ tmp110,
 292              	@ .\src\reb_timer.c:81: 	VOR_Enable_Irq(VOR_IRQ_TIM, 0); 
  78:.\src/reb_timer.c **** 
  79:.\src/reb_timer.c **** 
  80:.\src/reb_timer.c **** 	/* Enable IRQ for TIM0 module */ 
  81:.\src/reb_timer.c **** 	VOR_Enable_Irq(VOR_IRQ_TIM, 0); 
 293              		.loc 1 81 0
 294 008e 0021     		movs	r1, #0	@,
 295 0090 0220     		movs	r0, #2	@,
 296              	@ .\src\reb_timer.c:77: 	msec_tim_timeout = 1  ;  /*  CEM  true;    */
  77:.\src/reb_timer.c **** 
 297              		.loc 1 77 0
 298 0092 1A70     		strb	r2, [r3]	@ tmp111, msec_tim_timeout
 299              	@ .\src\reb_timer.c:82: }
  82:.\src/reb_timer.c **** }
 300              		.loc 1 82 0
ARM GAS  C:\Users\claym\AppData\Local\Temp\cc7EnPk0.s 			page 8


 301              		@ sp needed	@
 302              	@ .\src\reb_timer.c:81: 	VOR_Enable_Irq(VOR_IRQ_TIM, 0); 
  81:.\src/reb_timer.c **** }
 303              		.loc 1 81 0
 304 0094 FFF7FEFF 		bl	VOR_Enable_Irq	@
 305              	.LVL10:
 306              	@ .\src\reb_timer.c:82: }
 307              		.loc 1 82 0
 308 0098 10BD     		pop	{r4, pc}
 309              	.L9:
 310 009a C046     		.align	2
 311              	.L8:
 312 009c 00000000 		.word	.LANCHOR0
 313              		.cfi_endproc
 314              	.LFE36:
 315              		.size	OC0_IRQHandler, .-OC0_IRQHandler
 316              		.align	1
 317              		.global	VOR_GPIO_IRQHandler
 318              		.syntax unified
 319              		.code	16
 320              		.thumb_func
 321              		.fpu softvfp
 322              		.type	VOR_GPIO_IRQHandler, %function
 323              	VOR_GPIO_IRQHandler:
 324              	.LFB37:
  83:.\src/reb_timer.c **** 
  84:.\src/reb_timer.c **** void VOR_GPIO_IRQHandler(void) {
 325              		.loc 1 84 0
 326              		.cfi_startproc
 327              		@ args = 0, pretend = 0, frame = 0
 328              		@ frame_needed = 0, uses_anonymous_args = 0
 329              		@ link register save eliminated.
 330              	@ .\src\reb_timer.c:86: 	sec_tim_timeout = 1  ;    /*   added as debug help.  Delete this later  */
  85:.\src/reb_timer.c **** 
  86:.\src/reb_timer.c **** 	sec_tim_timeout = 1  ;    /*   added as debug help.  Delete this later  */
 331              		.loc 1 86 0
 332 00a0 0122     		movs	r2, #1	@ tmp111,
 333 00a2 014B     		ldr	r3, .L11	@ tmp110,
 334              	@ .\src\reb_timer.c:88: }
  87:.\src/reb_timer.c **** 
  88:.\src/reb_timer.c **** }
 335              		.loc 1 88 0
 336              		@ sp needed	@
 337              	@ .\src\reb_timer.c:86: 	sec_tim_timeout = 1  ;    /*   added as debug help.  Delete this later  */
  86:.\src/reb_timer.c **** 
 338              		.loc 1 86 0
 339 00a4 5A70     		strb	r2, [r3, #1]	@ tmp111, sec_tim_timeout
 340              	@ .\src\reb_timer.c:88: }
 341              		.loc 1 88 0
 342 00a6 7047     		bx	lr
 343              	.L12:
 344              		.align	2
 345              	.L11:
 346 00a8 00000000 		.word	.LANCHOR0
 347              		.cfi_endproc
 348              	.LFE37:
 349              		.size	VOR_GPIO_IRQHandler, .-VOR_GPIO_IRQHandler
ARM GAS  C:\Users\claym\AppData\Local\Temp\cc7EnPk0.s 			page 9


 350              		.align	1
 351              		.global	VOR_TIM1_IRQHandler
 352              		.syntax unified
 353              		.code	16
 354              		.thumb_func
 355              		.fpu softvfp
 356              		.type	VOR_TIM1_IRQHandler, %function
 357              	VOR_TIM1_IRQHandler:
 358              	.LFB38:
  89:.\src/reb_timer.c **** 
  90:.\src/reb_timer.c **** void VOR_TIM1_IRQHandler(void) {
 359              		.loc 1 90 0
 360              		.cfi_startproc
 361              		@ args = 0, pretend = 0, frame = 0
 362              		@ frame_needed = 0, uses_anonymous_args = 0
 363 00ac 10B5     		push	{r4, lr}	@
 364              	.LCFI3:
 365              		.cfi_def_cfa_offset 8
 366              		.cfi_offset 4, -8
 367              		.cfi_offset 14, -4
 368              	@ .\src\reb_timer.c:92:    VOR_Disable_Irq(VOR_IRQ_TIM, 1);
  91:.\src/reb_timer.c **** 	/* Disable IRQ for TIM1 module */ 
  92:.\src/reb_timer.c ****    VOR_Disable_Irq(VOR_IRQ_TIM, 1);
 369              		.loc 1 92 0
 370 00ae 0121     		movs	r1, #1	@,
 371 00b0 0220     		movs	r0, #2	@,
 372 00b2 FFF7FEFF 		bl	VOR_Disable_Irq	@
 373              	.LVL11:
 374              	@ .\src\reb_timer.c:94: 	sec_tim_timeout = 1  ;  /*  CEM  true;    */
  93:.\src/reb_timer.c **** 	
  94:.\src/reb_timer.c **** 	sec_tim_timeout = 1  ;  /*  CEM  true;    */
 375              		.loc 1 94 0
 376 00b6 0121     		movs	r1, #1	@ tmp111,
 377 00b8 024B     		ldr	r3, .L14	@ tmp110,
 378              	@ .\src\reb_timer.c:97:  	VOR_Enable_Irq(VOR_IRQ_TIM, 1);
  95:.\src/reb_timer.c **** 	
  96:.\src/reb_timer.c **** 	/* Enable IRQ for TIM1 module */ 
  97:.\src/reb_timer.c ****  	VOR_Enable_Irq(VOR_IRQ_TIM, 1);
 379              		.loc 1 97 0
 380 00ba 0220     		movs	r0, #2	@,
 381              	@ .\src\reb_timer.c:94: 	sec_tim_timeout = 1  ;  /*  CEM  true;    */
  94:.\src/reb_timer.c **** 	
 382              		.loc 1 94 0
 383 00bc 5970     		strb	r1, [r3, #1]	@ tmp111, sec_tim_timeout
 384              	@ .\src\reb_timer.c:98: }
  98:.\src/reb_timer.c **** }
 385              		.loc 1 98 0
 386              		@ sp needed	@
 387              	@ .\src\reb_timer.c:97:  	VOR_Enable_Irq(VOR_IRQ_TIM, 1);
  97:.\src/reb_timer.c **** }
 388              		.loc 1 97 0
 389 00be FFF7FEFF 		bl	VOR_Enable_Irq	@
 390              	.LVL12:
 391              	@ .\src\reb_timer.c:98: }
 392              		.loc 1 98 0
 393 00c2 10BD     		pop	{r4, pc}
 394              	.L15:
ARM GAS  C:\Users\claym\AppData\Local\Temp\cc7EnPk0.s 			page 10


 395              		.align	2
 396              	.L14:
 397 00c4 00000000 		.word	.LANCHOR0
 398              		.cfi_endproc
 399              	.LFE38:
 400              		.size	VOR_TIM1_IRQHandler, .-VOR_TIM1_IRQHandler
 401              		.align	1
 402              		.global	SysTick_Handler
 403              		.syntax unified
 404              		.code	16
 405              		.thumb_func
 406              		.fpu softvfp
 407              		.type	SysTick_Handler, %function
 408              	SysTick_Handler:
 409              	.LFB45:
 410              		.cfi_startproc
 411              		@ args = 0, pretend = 0, frame = 0
 412              		@ frame_needed = 0, uses_anonymous_args = 0
 413              		@ link register save eliminated.
 414 00c8 0122     		movs	r2, #1	@ tmp111,
 415 00ca 014B     		ldr	r3, .L17	@ tmp110,
 416              		@ sp needed	@
 417 00cc 5A70     		strb	r2, [r3, #1]	@ tmp111, sec_tim_timeout
 418 00ce 7047     		bx	lr
 419              	.L18:
 420              		.align	2
 421              	.L17:
 422 00d0 00000000 		.word	.LANCHOR0
 423              		.cfi_endproc
 424              	.LFE45:
 425              		.size	SysTick_Handler, .-SysTick_Handler
 426              		.align	1
 427              		.global	VOR_TIM0_MSecExpired
 428              		.syntax unified
 429              		.code	16
 430              		.thumb_func
 431              		.fpu softvfp
 432              		.type	VOR_TIM0_MSecExpired, %function
 433              	VOR_TIM0_MSecExpired:
 434              	.LFB40:
  99:.\src/reb_timer.c **** 
 100:.\src/reb_timer.c **** /*   added to show SysTick Exception firing     */
 101:.\src/reb_timer.c **** void SysTick_Handler(void)
 102:.\src/reb_timer.c **** {
 103:.\src/reb_timer.c **** 	sec_tim_timeout = 1  ;
 104:.\src/reb_timer.c **** 	//  ticker ++  ;
 105:.\src/reb_timer.c **** }
 106:.\src/reb_timer.c **** 
 107:.\src/reb_timer.c **** bool VOR_TIM0_MSecExpired(void) {
 435              		.loc 1 107 0
 436              		.cfi_startproc
 437              		@ args = 0, pretend = 0, frame = 0
 438              		@ frame_needed = 0, uses_anonymous_args = 0
 439              		@ link register save eliminated.
 440              	@ .\src\reb_timer.c:108: 	return msec_tim_timeout ? 1: 0;   /*  CEM   true: false   */
 108:.\src/reb_timer.c **** 	return msec_tim_timeout ? 1: 0;   /*  CEM   true: false   */
 441              		.loc 1 108 0
ARM GAS  C:\Users\claym\AppData\Local\Temp\cc7EnPk0.s 			page 11


 442 00d4 014B     		ldr	r3, .L20	@ tmp111,
 443              	@ .\src\reb_timer.c:109: }
 109:.\src/reb_timer.c **** }
 444              		.loc 1 109 0
 445              		@ sp needed	@
 446              	@ .\src\reb_timer.c:108: 	return msec_tim_timeout ? 1: 0;   /*  CEM   true: false   */
 108:.\src/reb_timer.c **** 	return msec_tim_timeout ? 1: 0;   /*  CEM   true: false   */
 447              		.loc 1 108 0
 448 00d6 1878     		ldrb	r0, [r3]	@ msec_tim_timeout, msec_tim_timeout
 449 00d8 C0B2     		uxtb	r0, r0	@ <retval>, msec_tim_timeout
 450              	@ .\src\reb_timer.c:109: }
 451              		.loc 1 109 0
 452 00da 7047     		bx	lr
 453              	.L21:
 454              		.align	2
 455              	.L20:
 456 00dc 00000000 		.word	.LANCHOR0
 457              		.cfi_endproc
 458              	.LFE40:
 459              		.size	VOR_TIM0_MSecExpired, .-VOR_TIM0_MSecExpired
 460              		.align	1
 461              		.global	VOR_TIM0_MSecClear
 462              		.syntax unified
 463              		.code	16
 464              		.thumb_func
 465              		.fpu softvfp
 466              		.type	VOR_TIM0_MSecClear, %function
 467              	VOR_TIM0_MSecClear:
 468              	.LFB41:
 110:.\src/reb_timer.c **** 
 111:.\src/reb_timer.c **** void VOR_TIM0_MSecClear(void) {
 469              		.loc 1 111 0
 470              		.cfi_startproc
 471              		@ args = 0, pretend = 0, frame = 0
 472              		@ frame_needed = 0, uses_anonymous_args = 0
 473              		@ link register save eliminated.
 474              	@ .\src\reb_timer.c:112: 	msec_tim_timeout = 0  ;  /*  CEM  false;    */
 112:.\src/reb_timer.c **** 	msec_tim_timeout = 0  ;  /*  CEM  false;    */
 475              		.loc 1 112 0
 476 00e0 0022     		movs	r2, #0	@ tmp111,
 477 00e2 014B     		ldr	r3, .L23	@ tmp110,
 478              	@ .\src\reb_timer.c:113: }
 113:.\src/reb_timer.c **** }
 479              		.loc 1 113 0
 480              		@ sp needed	@
 481              	@ .\src\reb_timer.c:112: 	msec_tim_timeout = 0  ;  /*  CEM  false;    */
 112:.\src/reb_timer.c **** 	msec_tim_timeout = 0  ;  /*  CEM  false;    */
 482              		.loc 1 112 0
 483 00e4 1A70     		strb	r2, [r3]	@ tmp111, msec_tim_timeout
 484              	@ .\src\reb_timer.c:113: }
 485              		.loc 1 113 0
 486 00e6 7047     		bx	lr
 487              	.L24:
 488              		.align	2
 489              	.L23:
 490 00e8 00000000 		.word	.LANCHOR0
 491              		.cfi_endproc
ARM GAS  C:\Users\claym\AppData\Local\Temp\cc7EnPk0.s 			page 12


 492              	.LFE41:
 493              		.size	VOR_TIM0_MSecClear, .-VOR_TIM0_MSecClear
 494              		.align	1
 495              		.global	VOR_TIM1_SecExpired
 496              		.syntax unified
 497              		.code	16
 498              		.thumb_func
 499              		.fpu softvfp
 500              		.type	VOR_TIM1_SecExpired, %function
 501              	VOR_TIM1_SecExpired:
 502              	.LFB42:
 114:.\src/reb_timer.c **** 
 115:.\src/reb_timer.c **** bool VOR_TIM1_SecExpired(void) {
 503              		.loc 1 115 0
 504              		.cfi_startproc
 505              		@ args = 0, pretend = 0, frame = 0
 506              		@ frame_needed = 0, uses_anonymous_args = 0
 507              		@ link register save eliminated.
 508              	@ .\src\reb_timer.c:116: 	return sec_tim_timeout ? 1: 0; /*  CEM   true: false   */
 116:.\src/reb_timer.c **** 	return sec_tim_timeout ? 1: 0; /*  CEM   true: false   */
 509              		.loc 1 116 0
 510 00ec 014B     		ldr	r3, .L26	@ tmp111,
 511              	@ .\src\reb_timer.c:117: }
 117:.\src/reb_timer.c **** }
 512              		.loc 1 117 0
 513              		@ sp needed	@
 514              	@ .\src\reb_timer.c:116: 	return sec_tim_timeout ? 1: 0; /*  CEM   true: false   */
 116:.\src/reb_timer.c **** 	return sec_tim_timeout ? 1: 0; /*  CEM   true: false   */
 515              		.loc 1 116 0
 516 00ee 5878     		ldrb	r0, [r3, #1]	@ sec_tim_timeout, sec_tim_timeout
 517 00f0 C0B2     		uxtb	r0, r0	@ <retval>, sec_tim_timeout
 518              	@ .\src\reb_timer.c:117: }
 519              		.loc 1 117 0
 520 00f2 7047     		bx	lr
 521              	.L27:
 522              		.align	2
 523              	.L26:
 524 00f4 00000000 		.word	.LANCHOR0
 525              		.cfi_endproc
 526              	.LFE42:
 527              		.size	VOR_TIM1_SecExpired, .-VOR_TIM1_SecExpired
 528              		.align	1
 529              		.global	VOR_TIM1_SecClear
 530              		.syntax unified
 531              		.code	16
 532              		.thumb_func
 533              		.fpu softvfp
 534              		.type	VOR_TIM1_SecClear, %function
 535              	VOR_TIM1_SecClear:
 536              	.LFB43:
 118:.\src/reb_timer.c **** 
 119:.\src/reb_timer.c **** void VOR_TIM1_SecClear(void) {
 537              		.loc 1 119 0
 538              		.cfi_startproc
 539              		@ args = 0, pretend = 0, frame = 0
 540              		@ frame_needed = 0, uses_anonymous_args = 0
 541              		@ link register save eliminated.
ARM GAS  C:\Users\claym\AppData\Local\Temp\cc7EnPk0.s 			page 13


 542              	@ .\src\reb_timer.c:120: 	sec_tim_timeout = 0  ;  /*  CEM  false;    */
 120:.\src/reb_timer.c **** 	sec_tim_timeout = 0  ;  /*  CEM  false;    */
 543              		.loc 1 120 0
 544 00f8 0022     		movs	r2, #0	@ tmp111,
 545 00fa 014B     		ldr	r3, .L29	@ tmp110,
 546              	@ .\src\reb_timer.c:121: }
 121:.\src/reb_timer.c **** }
 547              		.loc 1 121 0
 548              		@ sp needed	@
 549              	@ .\src\reb_timer.c:120: 	sec_tim_timeout = 0  ;  /*  CEM  false;    */
 120:.\src/reb_timer.c **** 	sec_tim_timeout = 0  ;  /*  CEM  false;    */
 550              		.loc 1 120 0
 551 00fc 5A70     		strb	r2, [r3, #1]	@ tmp111, sec_tim_timeout
 552              	@ .\src\reb_timer.c:121: }
 553              		.loc 1 121 0
 554 00fe 7047     		bx	lr
 555              	.L30:
 556              		.align	2
 557              	.L29:
 558 0100 00000000 		.word	.LANCHOR0
 559              		.cfi_endproc
 560              	.LFE43:
 561              		.size	VOR_TIM1_SecClear, .-VOR_TIM1_SecClear
 562              		.bss
 563              		.set	.LANCHOR0,. + 0
 564              		.type	msec_tim_timeout, %object
 565              		.size	msec_tim_timeout, 1
 566              	msec_tim_timeout:
 567 0000 00       		.space	1
 568              		.type	sec_tim_timeout, %object
 569              		.size	sec_tim_timeout, 1
 570              	sec_tim_timeout:
 571 0001 00       		.space	1
 572              		.text
 573              	.Letext0:
 574              		.file 2 "c:\\program files (x86)\\gnu tools arm embedded\\7 2017-q4-major\\arm-none-eabi\\include\
 575              		.file 3 "c:\\program files (x86)\\gnu tools arm embedded\\7 2017-q4-major\\arm-none-eabi\\include\
 576              		.file 4 ".\\common\\hdr/va108xx.h"
 577              		.file 5 ".\\common\\hdr/irq_va108xx.h"
 578              		.file 6 ".\\common\\hdr/system_va108xx.h"