ARM GAS  C:\Users\claym\AppData\Local\Temp\cc1dNLPx.s 			page 1


   1              		.cpu cortex-m0
   2              		.eabi_attribute 20, 1	@ Tag_ABI_FP_denormal
   3              		.eabi_attribute 21, 1	@ Tag_ABI_FP_exceptions
   4              		.eabi_attribute 23, 3	@ Tag_ABI_FP_number_model
   5              		.eabi_attribute 24, 1	@ Tag_ABI_align8_needed
   6              		.eabi_attribute 25, 1	@ Tag_ABI_align8_preserved
   7              		.eabi_attribute 26, 1	@ Tag_ABI_enum_size
   8              		.eabi_attribute 30, 4	@ Tag_ABI_optimization_goals
   9              		.eabi_attribute 34, 0	@ Tag_CPU_unaligned_access
  10              		.eabi_attribute 18, 4	@ Tag_ABI_PCS_wchar_t
  11              		.file	"reb_log.c"
  12              	@ GNU C11 (GNU Tools for Arm Embedded Processors 7-2017-q4-major) version 7.2.1 20170904 (release) 
  13              	@	compiled by GNU C version 5.3.1 20160211, GMP version 6.1.0, MPFR version 3.1.4, MPC version 1.0.
  14              	
  15              	@ GGC heuristics: --param ggc-min-expand=100 --param ggc-min-heapsize=131072
  16              	@ options passed:  -I . -I .\common\hdr -I .\driver\hdr -I .\utilities\hdr
  17              	@ -I .\inc -I .\driver\hdr -I .\hdr -imultilib thumb/v6-m
  18              	@ -iprefix c:\program files (x86)\gnu tools arm embedded\7 2017-q4-major\bin\../lib/gcc/arm-none-ea
  19              	@ -isysroot c:\program files (x86)\gnu tools arm embedded\7 2017-q4-major\bin\../arm-none-eabi
  20              	@ -D__USES_INITFINI__ -D RUN_FROM_FLASH=1 .\src\reb_log.c -mcpu=cortex-m0
  21              	@ -mthumb -auxbase-strip .\src\reb_log.o -gdwarf-2 -Os -Wall
  22              	@ -Wstrict-prototypes -fomit-frame-pointer -fverbose-asm
  23              	@ options enabled:  -faggressive-loop-optimizations -falign-jumps
  24              	@ -falign-labels -falign-loops -fauto-inc-dec -fbranch-count-reg
  25              	@ -fcaller-saves -fchkp-check-incomplete-type -fchkp-check-read
  26              	@ -fchkp-check-write -fchkp-instrument-calls -fchkp-narrow-bounds
  27              	@ -fchkp-optimize -fchkp-store-bounds -fchkp-use-static-bounds
  28              	@ -fchkp-use-static-const-bounds -fchkp-use-wrappers -fcode-hoisting
  29              	@ -fcombine-stack-adjustments -fcommon -fcompare-elim -fcprop-registers
  30              	@ -fcrossjumping -fcse-follow-jumps -fdefer-pop
  31              	@ -fdelete-null-pointer-checks -fdevirtualize -fdevirtualize-speculatively
  32              	@ -fdwarf2-cfi-asm -fearly-inlining -feliminate-unused-debug-types
  33              	@ -fexpensive-optimizations -fforward-propagate -ffp-int-builtin-inexact
  34              	@ -ffunction-cse -fgcse -fgcse-lm -fgnu-runtime -fgnu-unique
  35              	@ -fguess-branch-probability -fhoist-adjacent-loads -fident -fif-conversion
  36              	@ -fif-conversion2 -findirect-inlining -finline -finline-atomics
  37              	@ -finline-functions -finline-functions-called-once
  38              	@ -finline-small-functions -fipa-bit-cp -fipa-cp -fipa-icf
  39              	@ -fipa-icf-functions -fipa-icf-variables -fipa-profile -fipa-pure-const
  40              	@ -fipa-reference -fipa-sra -fipa-vrp -fira-hoist-pressure
  41              	@ -fira-share-save-slots -fira-share-spill-slots
  42              	@ -fisolate-erroneous-paths-dereference -fivopts -fkeep-static-consts
  43              	@ -fleading-underscore -flifetime-dse -flra-remat -flto-odr-type-merging
  44              	@ -fmath-errno -fmerge-constants -fmerge-debug-strings
  45              	@ -fmove-loop-invariants -fomit-frame-pointer -foptimize-sibling-calls
  46              	@ -fpartial-inlining -fpeephole -fpeephole2 -fplt -fprefetch-loop-arrays
  47              	@ -freg-struct-return -freorder-blocks -freorder-functions
  48              	@ -frerun-cse-after-loop -fsched-critical-path-heuristic
  49              	@ -fsched-dep-count-heuristic -fsched-group-heuristic -fsched-interblock
  50              	@ -fsched-last-insn-heuristic -fsched-pressure -fsched-rank-heuristic
  51              	@ -fsched-spec -fsched-spec-insn-heuristic -fsched-stalled-insns-dep
  52              	@ -fschedule-insns2 -fsection-anchors -fsemantic-interposition
  53              	@ -fshow-column -fshrink-wrap -fshrink-wrap-separate -fsigned-zeros
  54              	@ -fsplit-ivs-in-unroller -fsplit-wide-types -fssa-backprop -fssa-phiopt
  55              	@ -fstdarg-opt -fstore-merging -fstrict-aliasing -fstrict-overflow
  56              	@ -fstrict-volatile-bitfields -fsync-libcalls -fthread-jumps
  57              	@ -ftoplevel-reorder -ftrapping-math -ftree-bit-ccp -ftree-builtin-call-dce
ARM GAS  C:\Users\claym\AppData\Local\Temp\cc1dNLPx.s 			page 2


  58              	@ -ftree-ccp -ftree-ch -ftree-coalesce-vars -ftree-copy-prop -ftree-cselim
  59              	@ -ftree-dce -ftree-dominator-opts -ftree-dse -ftree-forwprop -ftree-fre
  60              	@ -ftree-loop-if-convert -ftree-loop-im -ftree-loop-ivcanon
  61              	@ -ftree-loop-optimize -ftree-parallelize-loops= -ftree-phiprop -ftree-pre
  62              	@ -ftree-pta -ftree-reassoc -ftree-scev-cprop -ftree-sink -ftree-slsr
  63              	@ -ftree-sra -ftree-switch-conversion -ftree-tail-merge -ftree-ter
  64              	@ -ftree-vrp -funit-at-a-time -fvar-tracking -fvar-tracking-assignments
  65              	@ -fverbose-asm -fzero-initialized-in-bss -mlittle-endian
  66              	@ -mpic-data-is-text-relative -msched-prolog -mthumb
  67              	@ -mvectorize-with-neon-quad
  68              	
  69              		.text
  70              	.Ltext0:
  71              		.cfi_sections	.debug_frame
  72              		.align	1
  73              		.global	VOR_Log
  74              		.syntax unified
  75              		.code	16
  76              		.thumb_func
  77              		.fpu softvfp
  78              		.type	VOR_Log, %function
  79              	VOR_Log:
  80              	.LFB37:
  81              		.file 1 ".\\src\\reb_log.c"
   1:.\src/reb_log.c **** /***************************************************************************************
   2:.\src/reb_log.c ****  * @file     reb_log.c
   3:.\src/reb_log.c ****  * @version  V1.0
   4:.\src/reb_log.c ****  * @date     31. March 2016
   5:.\src/reb_log.c ****  *
   6:.\src/reb_log.c ****  * @note
   7:.\src/reb_log.c ****  * VORAGO Technologies 
   8:.\src/reb_log.c ****  *
   9:.\src/reb_log.c ****  * @note
  10:.\src/reb_log.c ****  * Copyright (c) 2013-2016 VORAGO Technologies. 
  11:.\src/reb_log.c ****  *
  12:.\src/reb_log.c ****  * @par
  13:.\src/reb_log.c ****  * BY DOWNLOADING, INSTALLING OR USING THIS SOFTWARE, YOU AGREE TO BE BOUND BY 
  14:.\src/reb_log.c ****  * ALL THE TERMS AND CONDITIONS OF THE VORAGO TECHNOLOGIES END USER LICENSE AGREEMENT. 
  15:.\src/reb_log.c ****  * THIS SOFTWARE IS PROVIDED "AS IS". NO WARRANTIES, WHETHER EXPRESS, IMPLIED
  16:.\src/reb_log.c ****  * OR STATUTORY, INCLUDING, BUT NOT LIMITED TO, IMPLIED WARRANTIES OF MERCHANTABILITY 
  17:.\src/reb_log.c ****  * AND FITNESS FOR A PARTICULAR PURPOSE APPLY TO THIS SOFTWARE. VORAGO TECHNOLOGIES 
  18:.\src/reb_log.c ****  * SHALL NOT, IN ANY CIRCUMSTANCES, BE LIABLE FOR SPECIAL, INCIDENTAL, OR CONSEQUENTIAL 
  19:.\src/reb_log.c ****  * DAMAGES, FOR ANY REASON WHATSOEVER.
  20:.\src/reb_log.c ****  *
  21:.\src/reb_log.c ****  ****************************************************************************************/
  22:.\src/reb_log.c **** #include <stdio.h>
  23:.\src/reb_log.c **** #include <stdarg.h>
  24:.\src/reb_log.c **** #include <string.h>
  25:.\src/reb_log.c **** #include <stdlib.h>
  26:.\src/reb_log.c **** #include <limits.h>
  27:.\src/reb_log.c **** #include "reb_log.h"
  28:.\src/reb_log.c **** #include "driver_common.h"
  29:.\src/reb_log.c **** #include "driver_gpio.h"
  30:.\src/reb_log.c **** #include "driver_uart.h"
  31:.\src/reb_log.c **** #include "va108xx.h"
  32:.\src/reb_log.c **** #include "segger_rtt.h"
  33:.\src/reb_log.c **** 
ARM GAS  C:\Users\claym\AppData\Local\Temp\cc1dNLPx.s 			page 3


  34:.\src/reb_log.c **** #ifndef RTT_LOG
  35:.\src/reb_log.c **** static VOR_DRIVER_UART *drv;
  36:.\src/reb_log.c **** #endif 
  37:.\src/reb_log.c **** 
  38:.\src/reb_log.c **** static uint8_t log_buff[100];
  39:.\src/reb_log.c **** static VOR_LOG_LEVEL_TYPE log_level; 
  40:.\src/reb_log.c **** // removed CEM0210    extern FILE __stdout;
  41:.\src/reb_log.c **** VOR_LOG_PORT_TYPE port_type; 
  42:.\src/reb_log.c **** 	
  43:.\src/reb_log.c **** void VOR_Log(VOR_LOG_LEVEL_TYPE level, const char *fmt, ...) {
  82              		.loc 1 43 0
  83              		.cfi_startproc
  84              		@ args = 4, pretend = 12, frame = 8
  85              		@ frame_needed = 0, uses_anonymous_args = 1
  86              	.LVL0:
  87 0000 0EB4     		push	{r1, r2, r3}	@
  88              	.LCFI0:
  89              		.cfi_def_cfa_offset 12
  90 0002 33B5     		push	{r0, r1, r4, r5, lr}	@
  91              	.LCFI1:
  92              		.cfi_def_cfa_offset 32
  93              		.cfi_offset 0, -32
  94              		.cfi_offset 1, -28
  95              		.cfi_offset 4, -24
  96              		.cfi_offset 5, -20
  97              		.cfi_offset 14, -16
  98              	@ .\src\reb_log.c:48: 	if( level > log_level )
  44:.\src/reb_log.c **** 	va_list arg;
  45:.\src/reb_log.c **** volatile	uint32_t len; 
  46:.\src/reb_log.c **** 	
  47:.\src/reb_log.c **** 	/* Check logger level */
  48:.\src/reb_log.c **** 	if( level > log_level )
  99              		.loc 1 48 0
 100 0004 134C     		ldr	r4, .L7	@ tmp125,
 101              	@ .\src\reb_log.c:43: void VOR_Log(VOR_LOG_LEVEL_TYPE level, const char *fmt, ...) {
  43:.\src/reb_log.c **** 	va_list arg;
 102              		.loc 1 43 0
 103 0006 0300     		movs	r3, r0	@ level, level
 104              	@ .\src\reb_log.c:48: 	if( level > log_level )
 105              		.loc 1 48 0
 106 0008 2278     		ldrb	r2, [r4]	@ log_level, log_level
 107 000a 8242     		cmp	r2, r0	@ log_level, level
 108 000c 1ED3     		bcc	.L1	@,
 109              	@ .\src\reb_log.c:52: 	va_start(arg, fmt);
  49:.\src/reb_log.c **** 		return;
  50:.\src/reb_log.c **** 
  51:.\src/reb_log.c **** 	/* Log message to terminal */
  52:.\src/reb_log.c **** 	va_start(arg, fmt);
 110              		.loc 1 52 0
 111 000e 06AA     		add	r2, sp, #24	@ tmp127,,
 112 0010 0092     		str	r2, [sp]	@ tmp127, MEM[(struct  *)&arg].__ap
 113 0012 601C     		adds	r0, r4, #1	@ tmp149, tmp125,
 114              	.LVL1:
 115              	@ .\src\reb_log.c:54: 		sprintf((char *)log_buff, ANSI_COLOR_RED); 
  53:.\src/reb_log.c **** 	if( level == LOG_ERROR )
  54:.\src/reb_log.c **** 		sprintf((char *)log_buff, ANSI_COLOR_RED); 
 116              		.loc 1 54 0
ARM GAS  C:\Users\claym\AppData\Local\Temp\cc1dNLPx.s 			page 4


 117 0014 1049     		ldr	r1, .L7+4	@,
 118              	@ .\src\reb_log.c:53: 	if( level == LOG_ERROR )
  53:.\src/reb_log.c **** 	if( level == LOG_ERROR )
 119              		.loc 1 53 0
 120 0016 022B     		cmp	r3, #2	@ level,
 121 0018 00D0     		beq	.L6	@,
 122              	@ .\src\reb_log.c:56: 		sprintf((char *)log_buff, ANSI_COLOR_BLUE); 
  55:.\src/reb_log.c **** 	else
  56:.\src/reb_log.c **** 		sprintf((char *)log_buff, ANSI_COLOR_BLUE); 
 123              		.loc 1 56 0
 124 001a 1049     		ldr	r1, .L7+8	@,
 125              	.L6:
 126              	@ .\src\reb_log.c:57: 	len = strlen((char *)log_buff);
  57:.\src/reb_log.c **** 	len = strlen((char *)log_buff);
 127              		.loc 1 57 0
 128 001c 651C     		adds	r5, r4, #1	@ tmp135, tmp125,
 129              	@ .\src\reb_log.c:56: 		sprintf((char *)log_buff, ANSI_COLOR_BLUE); 
  56:.\src/reb_log.c **** 	len = strlen((char *)log_buff);
 130              		.loc 1 56 0
 131 001e FFF7FEFF 		bl	strcpy	@
 132              	.LVL2:
 133              	@ .\src\reb_log.c:57: 	len = strlen((char *)log_buff);
 134              		.loc 1 57 0
 135 0022 2800     		movs	r0, r5	@, tmp135
 136 0024 FFF7FEFF 		bl	strlen	@
 137              	.LVL3:
 138              	@ .\src\reb_log.c:59: 	len += vsnprintf((char *)(log_buff + len), sizeof(log_buff)-len, fmt, arg); 
  58:.\src/reb_log.c **** 
  59:.\src/reb_log.c **** 	len += vsnprintf((char *)(log_buff + len), sizeof(log_buff)-len, fmt, arg);   //changed Jan 2017. 
 139              		.loc 1 59 0
 140 0028 6421     		movs	r1, #100	@ tmp138,
 141              	@ .\src\reb_log.c:57: 	len = strlen((char *)log_buff);
  57:.\src/reb_log.c **** 
 142              		.loc 1 57 0
 143 002a 0190     		str	r0, [sp, #4]	@ tmp136, len
 144              	@ .\src\reb_log.c:59: 	len += vsnprintf((char *)(log_buff + len), sizeof(log_buff)-len, fmt, arg); 
 145              		.loc 1 59 0
 146 002c 0198     		ldr	r0, [sp, #4]	@ len.1_3, len
 147 002e 019B     		ldr	r3, [sp, #4]	@ len.2_5, len
 148 0030 2818     		adds	r0, r5, r0	@ tmp142, tmp135, len.1_3
 149 0032 C91A     		subs	r1, r1, r3	@ tmp139, tmp138, len.2_5
 150 0034 059A     		ldr	r2, [sp, #20]	@, fmt
 151 0036 009B     		ldr	r3, [sp]	@, arg
 152 0038 FFF7FEFF 		bl	vsnprintf	@
 153              	.LVL4:
 154 003c 019B     		ldr	r3, [sp, #4]	@ len.3_8, len
 155 003e C018     		adds	r0, r0, r3	@ _9, _23, len.3_8
 156              	@ .\src\reb_log.c:70: 		drv->Send(log_buff, len);
  60:.\src/reb_log.c **** 	
  61:.\src/reb_log.c **** 	va_end(arg);
  62:.\src/reb_log.c **** 		
  63:.\src/reb_log.c **** //	if(len > sizeof(log_buff))     // this was suggested change from customer.  Deemed not to be nee
  64:.\src/reb_log.c **** //	     { len = sizeof(log_buff) ;  }  
  65:.\src/reb_log.c **** 
  66:.\src/reb_log.c **** 
  67:.\src/reb_log.c **** #ifdef RTT_LOG
  68:.\src/reb_log.c **** 		SEGGER_RTT_printf(0, (const char *)log_buff);
ARM GAS  C:\Users\claym\AppData\Local\Temp\cc1dNLPx.s 			page 5


  69:.\src/reb_log.c **** #else
  70:.\src/reb_log.c **** 		drv->Send(log_buff, len);
 157              		.loc 1 70 0
 158 0040 A36E     		ldr	r3, [r4, #104]	@ drv, drv
 159              	@ .\src\reb_log.c:59: 	len += vsnprintf((char *)(log_buff + len), sizeof(log_buff)-len, fmt, arg); 
  59:.\src/reb_log.c **** 	
 160              		.loc 1 59 0
 161 0042 0190     		str	r0, [sp, #4]	@ _9, len
 162              	@ .\src\reb_log.c:70: 		drv->Send(log_buff, len);
 163              		.loc 1 70 0
 164 0044 0199     		ldr	r1, [sp, #4]	@ len.5_12, len
 165 0046 DB68     		ldr	r3, [r3, #12]	@ drv.4_10->Send, drv.4_10->Send
 166 0048 2800     		movs	r0, r5	@, tmp135
 167 004a 9847     		blx	r3	@ drv.4_10->Send
 168              	.LVL5:
 169              	.L1:
 170              	@ .\src\reb_log.c:72: }
  71:.\src/reb_log.c **** #endif 
  72:.\src/reb_log.c **** }
 171              		.loc 1 72 0
 172              		@ sp needed	@
 173 004c 33BC     		pop	{r0, r1, r4, r5}
 174 004e 08BC     		pop	{r3}
 175 0050 03B0     		add	sp, sp, #12
 176 0052 1847     		bx	r3
 177              	.L8:
 178              		.align	2
 179              	.L7:
 180 0054 00000000 		.word	.LANCHOR0
 181 0058 00000000 		.word	.LC1
 182 005c 06000000 		.word	.LC3
 183              		.cfi_endproc
 184              	.LFE37:
 185              		.size	VOR_Log, .-VOR_Log
 186              		.align	1
 187              		.global	VOR_Log_Init
 188              		.syntax unified
 189              		.code	16
 190              		.thumb_func
 191              		.fpu softvfp
 192              		.type	VOR_Log_Init, %function
 193              	VOR_Log_Init:
 194              	.LFB38:
  73:.\src/reb_log.c **** 
  74:.\src/reb_log.c **** void VOR_Log_Init(VOR_LOG_PORT_TYPE port, VOR_LOG_LEVEL_TYPE _log_level) {
 195              		.loc 1 74 0
 196              		.cfi_startproc
 197              		@ args = 0, pretend = 0, frame = 8
 198              		@ frame_needed = 0, uses_anonymous_args = 0
 199              	.LVL6:
 200 0060 37B5     		push	{r0, r1, r2, r4, r5, lr}	@
 201              	.LCFI2:
 202              		.cfi_def_cfa_offset 24
 203              		.cfi_offset 0, -24
 204              		.cfi_offset 1, -20
 205              		.cfi_offset 2, -16
 206              		.cfi_offset 4, -12
ARM GAS  C:\Users\claym\AppData\Local\Temp\cc1dNLPx.s 			page 6


 207              		.cfi_offset 5, -8
 208              		.cfi_offset 14, -4
 209              	@ .\src\reb_log.c:76: 	port_type = port; 
  75:.\src/reb_log.c ****     volatile uint32_t temp;
  76:.\src/reb_log.c **** 	port_type = port; 
 210              		.loc 1 76 0
 211 0062 224D     		ldr	r5, .L20	@ tmp119,
 212              	@ .\src\reb_log.c:77: 	log_level = _log_level; 
  77:.\src/reb_log.c **** 	log_level = _log_level; 
 213              		.loc 1 77 0
 214 0064 224C     		ldr	r4, .L20+4	@ tmp121,
 215              	@ .\src\reb_log.c:76: 	port_type = port; 
  76:.\src/reb_log.c **** 	log_level = _log_level; 
 216              		.loc 1 76 0
 217 0066 2870     		strb	r0, [r5]	@ port, port_type
 218              	@ .\src\reb_log.c:84: 	switch( port_type ) {
  78:.\src/reb_log.c **** 	
  79:.\src/reb_log.c **** #ifdef RTT_LOG
  80:.\src/reb_log.c **** 	SEGGER_RTT_Init();
  81:.\src/reb_log.c **** 	SEGGER_RTT_ConfigUpBuffer(0, NULL, NULL, 0, SEGGER_RTT_MODE_NO_BLOCK_SKIP);
  82:.\src/reb_log.c **** 	return; 
  83:.\src/reb_log.c **** #else	
  84:.\src/reb_log.c **** 	switch( port_type ) {
 219              		.loc 1 84 0
 220 0068 0138     		subs	r0, r0, #1	@ tmp123,
 221              	.LVL7:
 222              	@ .\src\reb_log.c:77: 	log_level = _log_level; 
  77:.\src/reb_log.c **** 	
 223              		.loc 1 77 0
 224 006a 2170     		strb	r1, [r4]	@ _log_level, log_level
 225              	@ .\src\reb_log.c:84: 	switch( port_type ) {
 226              		.loc 1 84 0
 227 006c 0328     		cmp	r0, #3	@ tmp123,
 228 006e 0DD8     		bhi	.L10	@,
 229 0070 FFF7FEFF 		bl	__gnu_thumb1_case_uqi
 230              	.L12:
 231 0074 02       		.byte	(.L11-.L12)/2
 232 0075 1A       		.byte	(.L13-.L12)/2
 233 0076 22       		.byte	(.L14-.L12)/2
 234 0077 2B       		.byte	(.L15-.L12)/2
 235              		.p2align 1
 236              	.L11:
 237              	@ .\src\reb_log.c:86: 			VOR_GPIO_PinMux(GPORTA,LOG_PORTA_UARTA_TX_BIT,FUNSEL2);
  85:.\src/reb_log.c **** 		case PORTA_UARTA:
  86:.\src/reb_log.c **** 			VOR_GPIO_PinMux(GPORTA,LOG_PORTA_UARTA_TX_BIT,FUNSEL2);
 238              		.loc 1 86 0
 239 0078 0222     		movs	r2, #2	@,
 240 007a 0921     		movs	r1, #9	@,
 241              	.LVL8:
 242 007c 0020     		movs	r0, #0	@,
 243 007e FFF7FEFF 		bl	VOR_GPIO_PinMux	@
 244              	.LVL9:
 245              	@ .\src\reb_log.c:87: 			VOR_GPIO_PinMux(GPORTA,LOG_PORTA_UARTA_RX_BIT,FUNSEL2);
  87:.\src/reb_log.c **** 			VOR_GPIO_PinMux(GPORTA,LOG_PORTA_UARTA_RX_BIT,FUNSEL2);
 246              		.loc 1 87 0
 247 0082 0222     		movs	r2, #2	@,
 248 0084 0821     		movs	r1, #8	@,
ARM GAS  C:\Users\claym\AppData\Local\Temp\cc1dNLPx.s 			page 7


 249              	.L19:
 250              	@ .\src\reb_log.c:93: 			VOR_GPIO_PinMux(GPORTA,LOG_PORTA_UARTB_RX_BIT,FUNSEL2);
  88:.\src/reb_log.c **** //			VOR_GPIO_PinMux(GPORTA,LOG_PORTA_UARTA_RTS_BIT,FUNSEL2);
  89:.\src/reb_log.c **** //			VOR_GPIO_PinMux(GPORTA,LOG_PORTA_UARTA_CTS_BIT,FUNSEL2);
  90:.\src/reb_log.c **** 			break;
  91:.\src/reb_log.c **** 		case PORTA_UARTB:
  92:.\src/reb_log.c **** 			VOR_GPIO_PinMux(GPORTA,LOG_PORTA_UARTB_TX_BIT,FUNSEL2);
  93:.\src/reb_log.c **** 			VOR_GPIO_PinMux(GPORTA,LOG_PORTA_UARTB_RX_BIT,FUNSEL2);
 251              		.loc 1 93 0
 252 0086 0020     		movs	r0, #0	@,
 253              	.L18:
 254              	@ .\src\reb_log.c:105: 			VOR_GPIO_PinMux(GPORTB,LOG_PORTB_UARTB_RX_BIT,FUNSEL2);
  94:.\src/reb_log.c **** //			VOR_GPIO_PinMux(GPORTA,LOG_PORTA_UARTB_RTS_BIT,FUNSEL2);
  95:.\src/reb_log.c **** //			VOR_GPIO_PinMux(GPORTA,LOG_PORTA_UARTB_CTS_BIT,FUNSEL2);
  96:.\src/reb_log.c **** 			break;
  97:.\src/reb_log.c **** 		case PORTB_UARTA:
  98:.\src/reb_log.c **** 			VOR_GPIO_PinMux(GPORTB,LOG_PORTB_UARTA_TX_BIT,FUNSEL1);
  99:.\src/reb_log.c **** 			VOR_GPIO_PinMux(GPORTB,LOG_PORTB_UARTA_RX_BIT,FUNSEL1);
 100:.\src/reb_log.c **** //			VOR_GPIO_PinMux(GPORTB,LOG_PORTB_UARTA_RTS_BIT,FUNSEL2);
 101:.\src/reb_log.c **** //			VOR_GPIO_PinMux(GPORTB,LOG_PORTB_UARTA_CTS_BIT,FUNSEL2);
 102:.\src/reb_log.c **** 			break;
 103:.\src/reb_log.c **** 		case PORTB_UARTB:
 104:.\src/reb_log.c **** 			VOR_GPIO_PinMux(GPORTB,LOG_PORTB_UARTB_TX_BIT,FUNSEL2);
 105:.\src/reb_log.c **** 			VOR_GPIO_PinMux(GPORTB,LOG_PORTB_UARTB_RX_BIT,FUNSEL2);
 255              		.loc 1 105 0
 256 0088 FFF7FEFF 		bl	VOR_GPIO_PinMux	@
 257              	.LVL10:
 258              	.L10:
 259              	@ .\src\reb_log.c:115: 	if( (port_type == PORTA_UARTA) || (port_type == PORTB_UARTA) )
 106:.\src/reb_log.c **** //			VOR_GPIO_PinMux(GPORTB,LOG_PORTB_UARTB_RTS_BIT,FUNSEL2);
 107:.\src/reb_log.c **** //			VOR_GPIO_PinMux(GPORTB,LOG_PORTB_UARTB_CTS_BIT,FUNSEL2);
 108:.\src/reb_log.c **** 			break;
 109:.\src/reb_log.c **** 		default :
 110:.\src/reb_log.c **** 			break;
 111:.\src/reb_log.c **** 	};
 112:.\src/reb_log.c **** 	
 113:.\src/reb_log.c **** 
 114:.\src/reb_log.c **** 
 115:.\src/reb_log.c **** 	if( (port_type == PORTA_UARTA) || (port_type == PORTB_UARTA) )
 260              		.loc 1 115 0
 261 008c 2B78     		ldrb	r3, [r5]	@ port_type.7_1, port_type
 262 008e 0222     		movs	r2, #2	@ tmp126,
 263 0090 1900     		movs	r1, r3	@ tmp127, port_type.7_1
 264 0092 9143     		bics	r1, r2	@ tmp127, tmp126
 265 0094 0129     		cmp	r1, #1	@ tmp127,
 266 0096 21D1     		bne	.L16	@,
 267              	@ .\src\reb_log.c:116: 		{	drv = &Driver_UART0;
 116:.\src/reb_log.c **** 		{	drv = &Driver_UART0;
 268              		.loc 1 116 0
 269 0098 164B     		ldr	r3, .L20+8	@ tmp129,
 270 009a A366     		str	r3, [r4, #104]	@ tmp129, drv
 271              	@ .\src\reb_log.c:117: 		temp = drv;
 117:.\src/reb_log.c **** 		temp = drv;
 272              		.loc 1 117 0
 273 009c 0193     		str	r3, [sp, #4]	@ tmp129, temp
 274              	.L17:
 275              	@ .\src\reb_log.c:126: 	drv->Initialize(NULL);
ARM GAS  C:\Users\claym\AppData\Local\Temp\cc1dNLPx.s 			page 8


 118:.\src/reb_log.c **** 		}
 119:.\src/reb_log.c **** 	else
 120:.\src/reb_log.c **** 		{
 121:.\src/reb_log.c **** 		if( (port_type == PORTA_UARTB) || (port_type == PORTB_UARTB) )
 122:.\src/reb_log.c **** 		{ drv = &Driver_UART1;
 123:.\src/reb_log.c **** 		}
 124:.\src/reb_log.c **** 		}
 125:.\src/reb_log.c **** 
 126:.\src/reb_log.c **** 	drv->Initialize(NULL);
 276              		.loc 1 126 0
 277 009e A36E     		ldr	r3, [r4, #104]	@ drv, drv
 278 00a0 0020     		movs	r0, #0	@,
 279 00a2 5B68     		ldr	r3, [r3, #4]	@ drv.13_3->Initialize, drv.13_3->Initialize
 280 00a4 9847     		blx	r3	@ drv.13_3->Initialize
 281              	.LVL11:
 282              	@ .\src\reb_log.c:140: }
 127:.\src/reb_log.c **** 	/*	CEM  temporarily removed during debug of run away code
 128:.\src/reb_log.c **** 	drv->Control(VOR_UART_CONTROL_PARITY_ENABLED, 0);
 129:.\src/reb_log.c **** 	drv->Control(VOR_UART_CONTROL_POLL_MODE, 1);
 130:.\src/reb_log.c **** 	drv->Control(VOR_UART_CONTROL_STOP_BIT, VOR_UART_CONTROL_STOP_BIT_1);
 131:.\src/reb_log.c **** 	drv->Control(VOR_UART_CONTROL_DATA_BITS, VOR_UART_CONTROL_DATA_BITS_8);
 132:.\src/reb_log.c **** 	drv->Control(VOR_UART_CONTROL_LOOPBACK, 0);
 133:.\src/reb_log.c **** 	drv->Control(VOR_UART_CONTROL_AUTOCTS, 0);
 134:.\src/reb_log.c **** 	drv->Control(VOR_UART_CONTROL_POLL_TO, 300000);
 135:.\src/reb_log.c **** 	drv->Control(VOR_UART_CONTROL_BAUD, 9600);
 136:.\src/reb_log.c **** 	drv->Control(VOR_UART_CONTROL_TX, 1);
 137:.\src/reb_log.c **** 
 138:.\src/reb_log.c **** 	*/
 139:.\src/reb_log.c **** #endif 
 140:.\src/reb_log.c **** }
 283              		.loc 1 140 0
 284              		@ sp needed	@
 285 00a6 37BD     		pop	{r0, r1, r2, r4, r5, pc}
 286              	.LVL12:
 287              	.L13:
 288              	@ .\src\reb_log.c:92: 			VOR_GPIO_PinMux(GPORTA,LOG_PORTA_UARTB_TX_BIT,FUNSEL2);
  92:.\src/reb_log.c **** 			VOR_GPIO_PinMux(GPORTA,LOG_PORTA_UARTB_RX_BIT,FUNSEL2);
 289              		.loc 1 92 0
 290 00a8 0222     		movs	r2, #2	@,
 291 00aa 0521     		movs	r1, #5	@,
 292              	.LVL13:
 293 00ac 0020     		movs	r0, #0	@,
 294 00ae FFF7FEFF 		bl	VOR_GPIO_PinMux	@
 295              	.LVL14:
 296              	@ .\src\reb_log.c:93: 			VOR_GPIO_PinMux(GPORTA,LOG_PORTA_UARTB_RX_BIT,FUNSEL2);
  93:.\src/reb_log.c **** //			VOR_GPIO_PinMux(GPORTA,LOG_PORTA_UARTB_RTS_BIT,FUNSEL2);
 297              		.loc 1 93 0
 298 00b2 0222     		movs	r2, #2	@,
 299 00b4 0421     		movs	r1, #4	@,
 300 00b6 E6E7     		b	.L19	@
 301              	.LVL15:
 302              	.L14:
 303              	@ .\src\reb_log.c:98: 			VOR_GPIO_PinMux(GPORTB,LOG_PORTB_UARTA_TX_BIT,FUNSEL1);
  98:.\src/reb_log.c **** 			VOR_GPIO_PinMux(GPORTB,LOG_PORTB_UARTA_RX_BIT,FUNSEL1);
 304              		.loc 1 98 0
 305 00b8 0122     		movs	r2, #1	@,
 306 00ba 1721     		movs	r1, #23	@,
ARM GAS  C:\Users\claym\AppData\Local\Temp\cc1dNLPx.s 			page 9


 307              	.LVL16:
 308 00bc 1000     		movs	r0, r2	@,
 309 00be FFF7FEFF 		bl	VOR_GPIO_PinMux	@
 310              	.LVL17:
 311              	@ .\src\reb_log.c:99: 			VOR_GPIO_PinMux(GPORTB,LOG_PORTB_UARTA_RX_BIT,FUNSEL1);
  99:.\src/reb_log.c **** //			VOR_GPIO_PinMux(GPORTB,LOG_PORTB_UARTA_RTS_BIT,FUNSEL2);
 312              		.loc 1 99 0
 313 00c2 0122     		movs	r2, #1	@,
 314 00c4 1621     		movs	r1, #22	@,
 315 00c6 1000     		movs	r0, r2	@,
 316 00c8 DEE7     		b	.L18	@
 317              	.LVL18:
 318              	.L15:
 319              	@ .\src\reb_log.c:104: 			VOR_GPIO_PinMux(GPORTB,LOG_PORTB_UARTB_TX_BIT,FUNSEL2);
 104:.\src/reb_log.c **** 			VOR_GPIO_PinMux(GPORTB,LOG_PORTB_UARTB_RX_BIT,FUNSEL2);
 320              		.loc 1 104 0
 321 00ca 0222     		movs	r2, #2	@,
 322 00cc 1321     		movs	r1, #19	@,
 323              	.LVL19:
 324 00ce 0120     		movs	r0, #1	@,
 325 00d0 FFF7FEFF 		bl	VOR_GPIO_PinMux	@
 326              	.LVL20:
 327              	@ .\src\reb_log.c:105: 			VOR_GPIO_PinMux(GPORTB,LOG_PORTB_UARTB_RX_BIT,FUNSEL2);
 105:.\src/reb_log.c **** //			VOR_GPIO_PinMux(GPORTB,LOG_PORTB_UARTB_RTS_BIT,FUNSEL2);
 328              		.loc 1 105 0
 329 00d4 0222     		movs	r2, #2	@,
 330 00d6 1221     		movs	r1, #18	@,
 331 00d8 0120     		movs	r0, #1	@,
 332 00da D5E7     		b	.L18	@
 333              	.L16:
 334              	@ .\src\reb_log.c:121: 		if( (port_type == PORTA_UARTB) || (port_type == PORTB_UARTB) )
 121:.\src/reb_log.c **** 		{ drv = &Driver_UART1;
 335              		.loc 1 121 0
 336 00dc 023B     		subs	r3, r3, #2	@ tmp130,
 337 00de 9343     		bics	r3, r2	@ tmp132, tmp126
 338 00e0 DBB2     		uxtb	r3, r3	@ tmp135, tmp132
 339 00e2 002B     		cmp	r3, #0	@ tmp135,
 340 00e4 DBD1     		bne	.L17	@,
 341              	@ .\src\reb_log.c:122: 		{ drv = &Driver_UART1;
 122:.\src/reb_log.c **** 		}
 342              		.loc 1 122 0
 343 00e6 044B     		ldr	r3, .L20+12	@ tmp137,
 344 00e8 A366     		str	r3, [r4, #104]	@ tmp137, drv
 345 00ea D8E7     		b	.L17	@
 346              	.L21:
 347              		.align	2
 348              	.L20:
 349 00ec 00000000 		.word	port_type
 350 00f0 00000000 		.word	.LANCHOR0
 351 00f4 00000000 		.word	Driver_UART0
 352 00f8 00000000 		.word	Driver_UART1
 353              		.cfi_endproc
 354              	.LFE38:
 355              		.size	VOR_Log_Init, .-VOR_Log_Init
 356              		.comm	port_type,1,1
 357              		.bss
 358              		.align	2
ARM GAS  C:\Users\claym\AppData\Local\Temp\cc1dNLPx.s 			page 10


 359              		.set	.LANCHOR0,. + 0
 360              		.type	log_level, %object
 361              		.size	log_level, 1
 362              	log_level:
 363 0000 00       		.space	1
 364              		.type	log_buff, %object
 365              		.size	log_buff, 100
 366              	log_buff:
 367 0001 00000000 		.space	100
 367      00000000 
 367      00000000 
 367      00000000 
 367      00000000 
 368 0065 000000   		.space	3
 369              		.type	drv, %object
 370              		.size	drv, 4
 371              	drv:
 372 0068 00000000 		.space	4
 373              		.section	.rodata.str1.1,"aMS",%progbits,1
 374              	.LC1:
 375 0000 1B5B3331 		.ascii	"\033[31m\000"
 375      6D00
 376              	.LC3:
 377 0006 1B5B3334 		.ascii	"\033[34m\000"
 377      6D00
 378              		.text
 379              	.Letext0:
 380              		.file 2 "c:\\program files (x86)\\gnu tools arm embedded\\7 2017-q4-major\\arm-none-eabi\\include\
 381              		.file 3 "c:\\program files (x86)\\gnu tools arm embedded\\7 2017-q4-major\\lib\\gcc\\arm-none-eabi
 382              		.file 4 "c:\\program files (x86)\\gnu tools arm embedded\\7 2017-q4-major\\arm-none-eabi\\include\
 383              		.file 5 "c:\\program files (x86)\\gnu tools arm embedded\\7 2017-q4-major\\arm-none-eabi\\include\
 384              		.file 6 "c:\\program files (x86)\\gnu tools arm embedded\\7 2017-q4-major\\arm-none-eabi\\include\
 385              		.file 7 "c:\\program files (x86)\\gnu tools arm embedded\\7 2017-q4-major\\lib\\gcc\\arm-none-eabi
 386              		.file 8 "c:\\program files (x86)\\gnu tools arm embedded\\7 2017-q4-major\\arm-none-eabi\\include\
 387              		.file 9 "<built-in>"
 388              		.file 10 "c:\\program files (x86)\\gnu tools arm embedded\\7 2017-q4-major\\arm-none-eabi\\include
 389              		.file 11 "c:\\program files (x86)\\gnu tools arm embedded\\7 2017-q4-major\\arm-none-eabi\\include
 390              		.file 12 ".\\hdr/reb_log.h"
 391              		.file 13 ".\\driver\\hdr/driver_common.h"
 392              		.file 14 ".\\driver\\hdr/driver_uart.h"
 393              		.file 15 ".\\common\\hdr/system_va108xx.h"
 394              		.file 16 ".\\utilities\\hdr/segger_rtt.h"
 395              		.file 17 "c:\\program files (x86)\\gnu tools arm embedded\\7 2017-q4-major\\arm-none-eabi\\include