ARM GAS  C:\Users\claym\AppData\Local\Temp\cc8Gbdkb.s 			page 1


   1              		.cpu cortex-m0
   2              		.eabi_attribute 20, 1	@ Tag_ABI_FP_denormal
   3              		.eabi_attribute 21, 1	@ Tag_ABI_FP_exceptions
   4              		.eabi_attribute 23, 3	@ Tag_ABI_FP_number_model
   5              		.eabi_attribute 24, 1	@ Tag_ABI_align8_needed
   6              		.eabi_attribute 25, 1	@ Tag_ABI_align8_preserved
   7              		.eabi_attribute 26, 1	@ Tag_ABI_enum_size
   8              		.eabi_attribute 30, 4	@ Tag_ABI_optimization_goals
   9              		.eabi_attribute 34, 0	@ Tag_CPU_unaligned_access
  10              		.eabi_attribute 18, 4	@ Tag_ABI_PCS_wchar_t
  11              		.file	"reb_main.c"
  12              	@ GNU C11 (GNU Tools for Arm Embedded Processors 7-2017-q4-major) version 7.2.1 20170904 (release) 
  13              	@	compiled by GNU C version 5.3.1 20160211, GMP version 6.1.0, MPFR version 3.1.4, MPC version 1.0.
  14              	
  15              	@ GGC heuristics: --param ggc-min-expand=100 --param ggc-min-heapsize=131072
  16              	@ options passed:  -I . -I .\common\hdr -I .\driver\hdr -I .\utilities\hdr
  17              	@ -I .\inc -I .\driver\hdr -I .\hdr -imultilib thumb/v6-m
  18              	@ -iprefix c:\program files (x86)\gnu tools arm embedded\7 2017-q4-major\bin\../lib/gcc/arm-none-ea
  19              	@ -isysroot c:\program files (x86)\gnu tools arm embedded\7 2017-q4-major\bin\../arm-none-eabi
  20              	@ -D__USES_INITFINI__ -D RUN_FROM_FLASH=1 .\src\reb_main.c -mcpu=cortex-m0
  21              	@ -mthumb -auxbase-strip .\src\reb_main.o -gdwarf-2 -Os -Wall
  22              	@ -Wstrict-prototypes -fomit-frame-pointer -fverbose-asm
  23              	@ options enabled:  -faggressive-loop-optimizations -falign-jumps
  24              	@ -falign-labels -falign-loops -fauto-inc-dec -fbranch-count-reg
  25              	@ -fcaller-saves -fchkp-check-incomplete-type -fchkp-check-read
  26              	@ -fchkp-check-write -fchkp-instrument-calls -fchkp-narrow-bounds
  27              	@ -fchkp-optimize -fchkp-store-bounds -fchkp-use-static-bounds
  28              	@ -fchkp-use-static-const-bounds -fchkp-use-wrappers -fcode-hoisting
  29              	@ -fcombine-stack-adjustments -fcommon -fcompare-elim -fcprop-registers
  30              	@ -fcrossjumping -fcse-follow-jumps -fdefer-pop
  31              	@ -fdelete-null-pointer-checks -fdevirtualize -fdevirtualize-speculatively
  32              	@ -fdwarf2-cfi-asm -fearly-inlining -feliminate-unused-debug-types
  33              	@ -fexpensive-optimizations -fforward-propagate -ffp-int-builtin-inexact
  34              	@ -ffunction-cse -fgcse -fgcse-lm -fgnu-runtime -fgnu-unique
  35              	@ -fguess-branch-probability -fhoist-adjacent-loads -fident -fif-conversion
  36              	@ -fif-conversion2 -findirect-inlining -finline -finline-atomics
  37              	@ -finline-functions -finline-functions-called-once
  38              	@ -finline-small-functions -fipa-bit-cp -fipa-cp -fipa-icf
  39              	@ -fipa-icf-functions -fipa-icf-variables -fipa-profile -fipa-pure-const
  40              	@ -fipa-reference -fipa-sra -fipa-vrp -fira-hoist-pressure
  41              	@ -fira-share-save-slots -fira-share-spill-slots
  42              	@ -fisolate-erroneous-paths-dereference -fivopts -fkeep-static-consts
  43              	@ -fleading-underscore -flifetime-dse -flra-remat -flto-odr-type-merging
  44              	@ -fmath-errno -fmerge-constants -fmerge-debug-strings
  45              	@ -fmove-loop-invariants -fomit-frame-pointer -foptimize-sibling-calls
  46              	@ -fpartial-inlining -fpeephole -fpeephole2 -fplt -fprefetch-loop-arrays
  47              	@ -freg-struct-return -freorder-blocks -freorder-functions
  48              	@ -frerun-cse-after-loop -fsched-critical-path-heuristic
  49              	@ -fsched-dep-count-heuristic -fsched-group-heuristic -fsched-interblock
  50              	@ -fsched-last-insn-heuristic -fsched-pressure -fsched-rank-heuristic
  51              	@ -fsched-spec -fsched-spec-insn-heuristic -fsched-stalled-insns-dep
  52              	@ -fschedule-insns2 -fsection-anchors -fsemantic-interposition
  53              	@ -fshow-column -fshrink-wrap -fshrink-wrap-separate -fsigned-zeros
  54              	@ -fsplit-ivs-in-unroller -fsplit-wide-types -fssa-backprop -fssa-phiopt
  55              	@ -fstdarg-opt -fstore-merging -fstrict-aliasing -fstrict-overflow
  56              	@ -fstrict-volatile-bitfields -fsync-libcalls -fthread-jumps
  57              	@ -ftoplevel-reorder -ftrapping-math -ftree-bit-ccp -ftree-builtin-call-dce
ARM GAS  C:\Users\claym\AppData\Local\Temp\cc8Gbdkb.s 			page 2


  58              	@ -ftree-ccp -ftree-ch -ftree-coalesce-vars -ftree-copy-prop -ftree-cselim
  59              	@ -ftree-dce -ftree-dominator-opts -ftree-dse -ftree-forwprop -ftree-fre
  60              	@ -ftree-loop-if-convert -ftree-loop-im -ftree-loop-ivcanon
  61              	@ -ftree-loop-optimize -ftree-parallelize-loops= -ftree-phiprop -ftree-pre
  62              	@ -ftree-pta -ftree-reassoc -ftree-scev-cprop -ftree-sink -ftree-slsr
  63              	@ -ftree-sra -ftree-switch-conversion -ftree-tail-merge -ftree-ter
  64              	@ -ftree-vrp -funit-at-a-time -fvar-tracking -fvar-tracking-assignments
  65              	@ -fverbose-asm -fzero-initialized-in-bss -mlittle-endian
  66              	@ -mpic-data-is-text-relative -msched-prolog -mthumb
  67              	@ -mvectorize-with-neon-quad
  68              	
  69              		.text
  70              	.Ltext0:
  71              		.cfi_sections	.debug_frame
  72              		.section	.text.startup,"ax",%progbits
  73              		.align	1
  74              		.global	main
  75              		.syntax unified
  76              		.code	16
  77              		.thumb_func
  78              		.fpu softvfp
  79              		.type	main, %function
  80              	main:
  81              	.LFB37:
  82              		.file 1 ".\\src\\reb_main.c"
   1:.\src/reb_main.c **** /***************************************************************************************
   2:.\src/reb_main.c ****  * @file     reb_main.c
   3:.\src/reb_main.c ****  * @version  V1.0
   4:.\src/reb_main.c ****  * @date     31. March 2016
   5:.\src/reb_main.c ****  *
   6:.\src/reb_main.c ****  * @note
   7:.\src/reb_main.c ****  * VORAGO Technologies 
   8:.\src/reb_main.c ****  *
   9:.\src/reb_main.c ****  * @note
  10:.\src/reb_main.c ****  * Copyright (c) 2013-2016 VORAGO Technologies. 
  11:.\src/reb_main.c ****  *
  12:.\src/reb_main.c ****  * @par
  13:.\src/reb_main.c ****  * BY DOWNLOADING, INSTALLING OR USING THIS SOFTWARE, YOU AGREE TO BE BOUND BY 
  14:.\src/reb_main.c ****  * ALL THE TERMS AND CONDITIONS OF THE VORAGO TECHNOLOGIES END USER LICENSE AGREEMENT. 
  15:.\src/reb_main.c ****  * THIS SOFTWARE IS PROVIDED "AS IS". NO WARRANTIES, WHETHER EXPRESS, IMPLIED
  16:.\src/reb_main.c ****  * OR STATUTORY, INCLUDING, BUT NOT LIMITED TO, IMPLIED WARRANTIES OF MERCHANTABILITY 
  17:.\src/reb_main.c ****  * AND FITNESS FOR A PARTICULAR PURPOSE APPLY TO THIS SOFTWARE. VORAGO TECHNOLOGIES 
  18:.\src/reb_main.c ****  * SHALL NOT, IN ANY CIRCUMSTANCES, BE LIABLE FOR SPECIAL, INCIDENTAL, OR CONSEQUENTIAL 
  19:.\src/reb_main.c ****  * DAMAGES, FOR ANY REASON WHATSOEVER.
  20:.\src/reb_main.c ****  *
  21:.\src/reb_main.c ****  ****************************************************************************************/
  22:.\src/reb_main.c **** #include <stdio.h>
  23:.\src/reb_main.c **** #include "va108xx.h"
  24:.\src/reb_main.c **** #include "reb_log.h"
  25:.\src/reb_main.c **** #include "reb_board.h"
  26:.\src/reb_main.c **** #include "reb_adt75.h"
  27:.\src/reb_main.c **** #include "driver_common.h"
  28:.\src/reb_main.c **** #include "reb_max11619.h"
  29:.\src/reb_main.c **** #include "reb_timer.h"
  30:.\src/reb_main.c **** #include "gpio_va108xx.h"
  31:.\src/reb_main.c **** 
  32:.\src/reb_main.c **** volatile uint8_t bounce_cnt = 0; 
ARM GAS  C:\Users\claym\AppData\Local\Temp\cc8Gbdkb.s 			page 3


  33:.\src/reb_main.c **** 
  34:.\src/reb_main.c **** int main()
  35:.\src/reb_main.c **** {
  83              		.loc 1 35 0
  84              		.cfi_startproc
  85              		@ args = 0, pretend = 0, frame = 8
  86              		@ frame_needed = 0, uses_anonymous_args = 0
  87 0000 F7B5     		push	{r0, r1, r2, r4, r5, r6, r7, lr}	@
  88              	.LCFI0:
  89              		.cfi_def_cfa_offset 32
  90              		.cfi_offset 0, -32
  91              		.cfi_offset 1, -28
  92              		.cfi_offset 2, -24
  93              		.cfi_offset 4, -20
  94              		.cfi_offset 5, -16
  95              		.cfi_offset 6, -12
  96              		.cfi_offset 7, -8
  97              		.cfi_offset 14, -4
  98              	@ .\src\reb_main.c:36: 	uint8_t cur_temp = 0; 
  36:.\src/reb_main.c **** 	uint8_t cur_temp = 0; 
  99              		.loc 1 36 0
 100 0002 6B46     		mov	r3, sp	@ tmp243,
 101              	@ .\src\reb_main.c:38: 	uint16_t adc_data = 0;
  37:.\src/reb_main.c **** 	int32_t ret_code = 0;
  38:.\src/reb_main.c **** 	uint16_t adc_data = 0;
 102              		.loc 1 38 0
 103 0004 6A46     		mov	r2, sp	@ tmp244,
 104              	@ .\src\reb_main.c:36: 	uint8_t cur_temp = 0; 
  36:.\src/reb_main.c **** 	uint8_t cur_temp = 0; 
 105              		.loc 1 36 0
 106 0006 5D1D     		adds	r5, r3, #5	@ tmp151, tmp243,
 107 0008 0023     		movs	r3, #0	@ tmp152,
 108              	@ .\src\reb_main.c:44: 	VOR_SYSCONFIG->PERIPHERAL_CLK_ENABLE = ( CLK_ENABLE_PORTA | CLK_ENABLE_PORT
  39:.\src/reb_main.c **** #ifdef GPIO_DRIVER
  40:.\src/reb_main.c **** 	VOR_DRIVER_GPIO *PA10 = &Driver_GPIOA_10; 
  41:.\src/reb_main.c **** #endif 	
  42:.\src/reb_main.c **** 	
  43:.\src/reb_main.c **** 	/* Enable clock for all peripherals */ 
  44:.\src/reb_main.c **** 	VOR_SYSCONFIG->PERIPHERAL_CLK_ENABLE = ( CLK_ENABLE_PORTA | CLK_ENABLE_PORTB | CLK_ENABLE_SPIA | C
 109              		.loc 1 44 0
 110 000a 8024     		movs	r4, #128	@ tmp157,
 111              	@ .\src\reb_main.c:38: 	uint16_t adc_data = 0;
  38:.\src/reb_main.c **** #ifdef GPIO_DRIVER
 112              		.loc 1 38 0
 113 000c 961D     		adds	r6, r2, #6	@ tmp154, tmp244,
 114              	@ .\src\reb_main.c:36: 	uint8_t cur_temp = 0; 
  36:.\src/reb_main.c **** 	int32_t ret_code = 0;
 115              		.loc 1 36 0
 116 000e 2B70     		strb	r3, [r5]	@ tmp152, cur_temp
 117              	.LVL0:
 118              	@ .\src\reb_main.c:38: 	uint16_t adc_data = 0;
  38:.\src/reb_main.c **** #ifdef GPIO_DRIVER
 119              		.loc 1 38 0
 120 0010 3380     		strh	r3, [r6]	@ tmp152, adc_data
 121              	@ .\src\reb_main.c:44: 	VOR_SYSCONFIG->PERIPHERAL_CLK_ENABLE = ( CLK_ENABLE_PORTA | CLK_ENABLE_PORT
 122              		.loc 1 44 0
 123 0012 574B     		ldr	r3, .L39	@ tmp158,
ARM GAS  C:\Users\claym\AppData\Local\Temp\cc8Gbdkb.s 			page 4


 124 0014 E405     		lsls	r4, r4, #23	@ tmp157, tmp157,
 125 0016 E367     		str	r3, [r4, #124]	@ tmp158, MEM[(struct VOR_SYSCONFIG_Type *)1073741824B].PERIPHERAL_CLK_ENABLE
 126              	@ .\src\reb_main.c:49: 	VOR_Log_Init(PORTA_UARTA, LOG_DBG); 
  45:.\src/reb_main.c **** 																					 CLK_ENABLE_UARTA | CLK_ENABLE_UARTB | CLK_ENABLE_I2CA | CLK_ENABLE_I2CB | CLK
  46:.\src/reb_main.c **** 																					 CLK_ENABLE_IOMGR | CLK_ENABLE_UTILITY | CLK_ENABLE_PORTIO | CLK_ENABLE_SYSTEM
  47:.\src/reb_main.c **** 	
  48:.\src/reb_main.c **** 	/* Initialize Logging module */ 
  49:.\src/reb_main.c **** 	VOR_Log_Init(PORTA_UARTA, LOG_DBG); 
 127              		.loc 1 49 0
 128 0018 0521     		movs	r1, #5	@,
 129 001a 0120     		movs	r0, #1	@,
 130 001c FFF7FEFF 		bl	VOR_Log_Init	@
 131              	.LVL1:
 132              	@ .\src\reb_main.c:50: 	VOR_Log(LOG_INFO, ANSI_COLOR_GREEN"Welcome to Vorago Technologies REB1 VA10
  50:.\src/reb_main.c **** 	VOR_Log(LOG_INFO, ANSI_COLOR_GREEN"Welcome to Vorago Technologies REB1 VA108xx software! \n");
 133              		.loc 1 50 0
 134 0020 5449     		ldr	r1, .L39+4	@,
 135 0022 0420     		movs	r0, #4	@,
 136 0024 FFF7FEFF 		bl	VOR_Log	@
 137              	.LVL2:
 138              	@ .\src\reb_main.c:51: 	if( VOR_SYSCONFIG->PROCID == PROC_ID_TORCH )
  51:.\src/reb_main.c **** 	if( VOR_SYSCONFIG->PROCID == PROC_ID_TORCH )
 139              		.loc 1 51 0
 140 0028 534B     		ldr	r3, .L39+8	@ tmp161,
 141              	@ .\src\reb_main.c:52: 		VOR_Log(LOG_INFO, ANSI_COLOR_GREEN"VA10820 MCU ...\n");
  52:.\src/reb_main.c **** 		VOR_Log(LOG_INFO, ANSI_COLOR_GREEN"VA10820 MCU ...\n");
 142              		.loc 1 52 0
 143 002a 5449     		ldr	r1, .L39+12	@,
 144              	@ .\src\reb_main.c:51: 	if( VOR_SYSCONFIG->PROCID == PROC_ID_TORCH )
  51:.\src/reb_main.c **** 	if( VOR_SYSCONFIG->PROCID == PROC_ID_TORCH )
 145              		.loc 1 51 0
 146 002c E258     		ldr	r2, [r4, r3]	@ _1, MEM[(struct VOR_SYSCONFIG_Type *)1073741824B].PROCID
 147 002e 544B     		ldr	r3, .L39+16	@ tmp162,
 148 0030 9A42     		cmp	r2, r3	@ _1, tmp162
 149 0032 00D0     		beq	.L38	@,
 150              	@ .\src\reb_main.c:54: 		VOR_Log(LOG_INFO, ANSI_COLOR_GREEN"VA10800 MCU ... \n");
  53:.\src/reb_main.c **** 	else
  54:.\src/reb_main.c **** 		VOR_Log(LOG_INFO, ANSI_COLOR_GREEN"VA10800 MCU ... \n");
 151              		.loc 1 54 0
 152 0034 5349     		ldr	r1, .L39+20	@,
 153              	.L38:
 154 0036 0420     		movs	r0, #4	@,
 155 0038 FFF7FEFF 		bl	VOR_Log	@
 156              	.LVL3:
 157              	@ .\src\reb_main.c:55: 	VOR_Log(LOG_INFO, "Restarted... \n");
  55:.\src/reb_main.c **** 	VOR_Log(LOG_INFO, "Restarted... \n");
 158              		.loc 1 55 0
 159 003c 5249     		ldr	r1, .L39+24	@,
 160 003e 0420     		movs	r0, #4	@,
 161 0040 FFF7FEFF 		bl	VOR_Log	@
 162              	.LVL4:
 163              	@ .\src\reb_main.c:56: 	VOR_Log(LOG_INFO, "Reset Status: 0x%08x \n", VOR_SYSCONFIG->RST_STAT); 
  56:.\src/reb_main.c **** 	VOR_Log(LOG_INFO, "Reset Status: 0x%08x \n", VOR_SYSCONFIG->RST_STAT); 
 164              		.loc 1 56 0
 165 0044 8023     		movs	r3, #128	@ tmp166,
 166 0046 DB05     		lsls	r3, r3, #23	@ tmp166, tmp166,
 167 0048 1A68     		ldr	r2, [r3]	@ _2, MEM[(struct VOR_SYSCONFIG_Type *)1073741824B].RST_STAT
ARM GAS  C:\Users\claym\AppData\Local\Temp\cc8Gbdkb.s 			page 5


 168 004a 5049     		ldr	r1, .L39+28	@,
 169 004c 0420     		movs	r0, #4	@,
 170 004e FFF7FEFF 		bl	VOR_Log	@
 171              	.LVL5:
 172              	@ .\src\reb_main.c:65: 	VOR_GPIO->BANK[0].DIR |= (1 << PORTA_10_D2); 
  57:.\src/reb_main.c **** 	
  58:.\src/reb_main.c **** 	/* Configure PA[10]. This GPIO will continously blink led D2. */ 	
  59:.\src/reb_main.c **** #ifdef GPIO_DRIVER
  60:.\src/reb_main.c **** 	PA10->Initialize(NULL);
  61:.\src/reb_main.c **** 	PA10->Control(VOR_GPIO_CONTROL_MASK, VOR_GPIO_CTRL_ENABLE); 
  62:.\src/reb_main.c **** 	PA10->Control(VOR_GPIO_CONTROL_DIR, VOR_GPIO_DIR_OUTPUT); 
  63:.\src/reb_main.c **** 	PA10->Write(1);
  64:.\src/reb_main.c **** #else 
  65:.\src/reb_main.c **** 	VOR_GPIO->BANK[0].DIR |= (1 << PORTA_10_D2); 
 173              		.loc 1 65 0
 174 0052 A023     		movs	r3, #160	@ tmp168,
 175 0054 8022     		movs	r2, #128	@ tmp169,
 176 0056 DB05     		lsls	r3, r3, #23	@ tmp168, tmp168,
 177 0058 196A     		ldr	r1, [r3, #32]	@ _3, MEM[(struct VOR_GPIO_PERIPHERAL_BANK_Type *)1342177280B].BANK[0].D.5525.DI
 178 005a D200     		lsls	r2, r2, #3	@ tmp169, tmp169,
 179 005c 1143     		orrs	r1, r2	@ _4, tmp169
 180 005e 1962     		str	r1, [r3, #32]	@ _4, MEM[(struct VOR_GPIO_PERIPHERAL_BANK_Type *)1342177280B].BANK[0].D.5525.DI
 181              	@ .\src\reb_main.c:66: 	VOR_GPIO->BANK[0].DATAMASK |= (1 << PORTA_10_D2);
  66:.\src/reb_main.c **** 	VOR_GPIO->BANK[0].DATAMASK |= (1 << PORTA_10_D2);
 182              		.loc 1 66 0
 183 0060 D969     		ldr	r1, [r3, #28]	@ _5, MEM[(struct VOR_GPIO_PERIPHERAL_BANK_Type *)1342177280B].BANK[0].D.5521.DA
 184              	@ .\src\reb_main.c:79: 	ret_code = VOR_TIM0_MSecInitialize(100); 	
  67:.\src/reb_main.c **** 	VOR_GPIO->BANK[0].DATAOUT &= ~(1 << PORTA_10_D2); 
  68:.\src/reb_main.c **** #endif 	
  69:.\src/reb_main.c **** 	/* Configure PA[11]. Input to blink led D3. */ 
  70:.\src/reb_main.c **** 	VOR_GPIO->BANK[0].DIR &= ~(1 << PORTA_11_SW_USER); 
  71:.\src/reb_main.c **** 	VOR_GPIO->BANK[0].DATAMASK |= (1 << PORTA_11_SW_USER);
  72:.\src/reb_main.c **** 	
  73:.\src/reb_main.c **** 	/* Configure PA[7]. This GPIO will turn ON led D3. */ 
  74:.\src/reb_main.c **** 	VOR_GPIO->BANK[0].DIR |= (1 << PORTA_7_D3); 
  75:.\src/reb_main.c **** 	VOR_GPIO->BANK[0].DATAMASK |= (1 << PORTA_7_D3);
  76:.\src/reb_main.c **** 	VOR_GPIO->BANK[0].DATAOUT |= (1 << PORTA_7_D3); 
  77:.\src/reb_main.c **** 	
  78:.\src/reb_main.c **** 	/* Intialize MSec and Sec Timers */
  79:.\src/reb_main.c **** 	ret_code = VOR_TIM0_MSecInitialize(100); 	
 185              		.loc 1 79 0
 186 0062 6420     		movs	r0, #100	@,
 187              	@ .\src\reb_main.c:66: 	VOR_GPIO->BANK[0].DATAMASK |= (1 << PORTA_10_D2);
  66:.\src/reb_main.c **** 	VOR_GPIO->BANK[0].DATAMASK |= (1 << PORTA_10_D2);
 188              		.loc 1 66 0
 189 0064 0A43     		orrs	r2, r1	@ _6, _5
 190 0066 DA61     		str	r2, [r3, #28]	@ _6, MEM[(struct VOR_GPIO_PERIPHERAL_BANK_Type *)1342177280B].BANK[0].D.5521.DA
 191              	@ .\src\reb_main.c:67: 	VOR_GPIO->BANK[0].DATAOUT &= ~(1 << PORTA_10_D2); 
  67:.\src/reb_main.c **** 	VOR_GPIO->BANK[0].DATAOUT &= ~(1 << PORTA_10_D2); 
 192              		.loc 1 67 0
 193 0068 9A68     		ldr	r2, [r3, #8]	@ _7, MEM[(struct VOR_GPIO_PERIPHERAL_BANK_Type *)1342177280B].BANK[0].D.5501.DAT
 194 006a 4949     		ldr	r1, .L39+32	@ tmp175,
 195 006c 0A40     		ands	r2, r1	@ _8, tmp175
 196 006e 9A60     		str	r2, [r3, #8]	@ _8, MEM[(struct VOR_GPIO_PERIPHERAL_BANK_Type *)1342177280B].BANK[0].D.5501.DAT
 197              	@ .\src\reb_main.c:70: 	VOR_GPIO->BANK[0].DIR &= ~(1 << PORTA_11_SW_USER); 
  70:.\src/reb_main.c **** 	VOR_GPIO->BANK[0].DATAMASK |= (1 << PORTA_11_SW_USER);
 198              		.loc 1 70 0
ARM GAS  C:\Users\claym\AppData\Local\Temp\cc8Gbdkb.s 			page 6


 199 0070 1A6A     		ldr	r2, [r3, #32]	@ _9, MEM[(struct VOR_GPIO_PERIPHERAL_BANK_Type *)1342177280B].BANK[0].D.5525.DI
 200 0072 4849     		ldr	r1, .L39+36	@ tmp178,
 201 0074 0A40     		ands	r2, r1	@ _10, tmp178
 202 0076 1A62     		str	r2, [r3, #32]	@ _10, MEM[(struct VOR_GPIO_PERIPHERAL_BANK_Type *)1342177280B].BANK[0].D.5525.D
 203              	@ .\src\reb_main.c:71: 	VOR_GPIO->BANK[0].DATAMASK |= (1 << PORTA_11_SW_USER);
  71:.\src/reb_main.c **** 	
 204              		.loc 1 71 0
 205 0078 8022     		movs	r2, #128	@ tmp181,
 206 007a D969     		ldr	r1, [r3, #28]	@ _11, MEM[(struct VOR_GPIO_PERIPHERAL_BANK_Type *)1342177280B].BANK[0].D.5521.D
 207 007c 1201     		lsls	r2, r2, #4	@ tmp181, tmp181,
 208 007e 0A43     		orrs	r2, r1	@ _12, _11
 209 0080 DA61     		str	r2, [r3, #28]	@ _12, MEM[(struct VOR_GPIO_PERIPHERAL_BANK_Type *)1342177280B].BANK[0].D.5521.D
 210              	@ .\src\reb_main.c:74: 	VOR_GPIO->BANK[0].DIR |= (1 << PORTA_7_D3); 
  74:.\src/reb_main.c **** 	VOR_GPIO->BANK[0].DATAMASK |= (1 << PORTA_7_D3);
 211              		.loc 1 74 0
 212 0082 8022     		movs	r2, #128	@ tmp184,
 213 0084 196A     		ldr	r1, [r3, #32]	@ _13, MEM[(struct VOR_GPIO_PERIPHERAL_BANK_Type *)1342177280B].BANK[0].D.5525.D
 214 0086 1143     		orrs	r1, r2	@ _14, tmp184
 215 0088 1962     		str	r1, [r3, #32]	@ _14, MEM[(struct VOR_GPIO_PERIPHERAL_BANK_Type *)1342177280B].BANK[0].D.5525.D
 216              	@ .\src\reb_main.c:75: 	VOR_GPIO->BANK[0].DATAMASK |= (1 << PORTA_7_D3);
  75:.\src/reb_main.c **** 	VOR_GPIO->BANK[0].DATAOUT |= (1 << PORTA_7_D3); 
 217              		.loc 1 75 0
 218 008a D969     		ldr	r1, [r3, #28]	@ _15, MEM[(struct VOR_GPIO_PERIPHERAL_BANK_Type *)1342177280B].BANK[0].D.5521.D
 219 008c 1143     		orrs	r1, r2	@ _16, tmp184
 220 008e D961     		str	r1, [r3, #28]	@ _16, MEM[(struct VOR_GPIO_PERIPHERAL_BANK_Type *)1342177280B].BANK[0].D.5521.D
 221              	@ .\src\reb_main.c:76: 	VOR_GPIO->BANK[0].DATAOUT |= (1 << PORTA_7_D3); 
  76:.\src/reb_main.c **** 	
 222              		.loc 1 76 0
 223 0090 9968     		ldr	r1, [r3, #8]	@ _17, MEM[(struct VOR_GPIO_PERIPHERAL_BANK_Type *)1342177280B].BANK[0].D.5501.DA
 224 0092 0A43     		orrs	r2, r1	@ _18, _17
 225 0094 9A60     		str	r2, [r3, #8]	@ _18, MEM[(struct VOR_GPIO_PERIPHERAL_BANK_Type *)1342177280B].BANK[0].D.5501.DA
 226              	@ .\src\reb_main.c:79: 	ret_code = VOR_TIM0_MSecInitialize(100); 	
 227              		.loc 1 79 0
 228 0096 FFF7FEFF 		bl	VOR_TIM0_MSecInitialize	@
 229              	.LVL6:
 230              	@ .\src\reb_main.c:80: 	if( ret_code )
  80:.\src/reb_main.c **** 	if( ret_code )
 231              		.loc 1 80 0
 232 009a 0028     		cmp	r0, #0	@ ret_code,
 233 009c 03D0     		beq	.L4	@,
 234              	@ .\src\reb_main.c:81: 		VOR_Log(LOG_ERROR, "MSec Timer initialization failed! \n");
  81:.\src/reb_main.c **** 		VOR_Log(LOG_ERROR, "MSec Timer initialization failed! \n");
 235              		.loc 1 81 0
 236 009e 3E49     		ldr	r1, .L39+40	@,
 237 00a0 0220     		movs	r0, #2	@,
 238              	.LVL7:
 239 00a2 FFF7FEFF 		bl	VOR_Log	@
 240              	.LVL8:
 241              	.L4:
 242              	@ .\src\reb_main.c:83: 	ret_code = VOR_TIM1_SecInitialize(1); 	
  82:.\src/reb_main.c **** 
  83:.\src/reb_main.c **** 	ret_code = VOR_TIM1_SecInitialize(1); 	
 243              		.loc 1 83 0
 244 00a6 0120     		movs	r0, #1	@,
 245 00a8 FFF7FEFF 		bl	VOR_TIM1_SecInitialize	@
 246              	.LVL9:
 247              	@ .\src\reb_main.c:84: 	if( ret_code )
ARM GAS  C:\Users\claym\AppData\Local\Temp\cc8Gbdkb.s 			page 7


  84:.\src/reb_main.c **** 	if( ret_code )
 248              		.loc 1 84 0
 249 00ac 0028     		cmp	r0, #0	@ ret_code,
 250 00ae 03D0     		beq	.L5	@,
 251              	@ .\src\reb_main.c:85: 		VOR_Log(LOG_ERROR, "Sec Timer initialization failed! \n");
  85:.\src/reb_main.c **** 		VOR_Log(LOG_ERROR, "Sec Timer initialization failed! \n");
 252              		.loc 1 85 0
 253 00b0 3A49     		ldr	r1, .L39+44	@,
 254 00b2 0220     		movs	r0, #2	@,
 255              	.LVL10:
 256 00b4 FFF7FEFF 		bl	VOR_Log	@
 257              	.LVL11:
 258              	.L5:
 259              	@ .\src\reb_main.c:88: 	ret_code = VOR_ADT75_Initialize(); 
  86:.\src/reb_main.c **** 	
  87:.\src/reb_main.c **** 	/* Initialize temperature sensor - ADT75 */ 
  88:.\src/reb_main.c **** 	ret_code = VOR_ADT75_Initialize(); 
 260              		.loc 1 88 0
 261 00b8 FFF7FEFF 		bl	VOR_ADT75_Initialize	@
 262              	.LVL12:
 263              	@ .\src\reb_main.c:89: 	if( ret_code )
  89:.\src/reb_main.c **** 	if( ret_code )
 264              		.loc 1 89 0
 265 00bc 0028     		cmp	r0, #0	@ ret_code,
 266 00be 03D0     		beq	.L6	@,
 267              	@ .\src\reb_main.c:90: 		VOR_Log(LOG_ERROR, "ADT75 initialization failed! \n");
  90:.\src/reb_main.c **** 		VOR_Log(LOG_ERROR, "ADT75 initialization failed! \n");
 268              		.loc 1 90 0
 269 00c0 3749     		ldr	r1, .L39+48	@,
 270 00c2 0220     		movs	r0, #2	@,
 271              	.LVL13:
 272 00c4 FFF7FEFF 		bl	VOR_Log	@
 273              	.LVL14:
 274              	.L6:
 275              	@ .\src\reb_main.c:93: 	ret_code = VOR_MAX11619_Initialize(); 
  91:.\src/reb_main.c **** 
  92:.\src/reb_main.c **** 	/* Initialize SPI interface to Maxim ADC - MAX11619 */ 
  93:.\src/reb_main.c **** 	ret_code = VOR_MAX11619_Initialize(); 
 276              		.loc 1 93 0
 277 00c8 FFF7FEFF 		bl	VOR_MAX11619_Initialize	@
 278              	.LVL15:
 279              	@ .\src\reb_main.c:94: 	if( ret_code )
  94:.\src/reb_main.c **** 	if( ret_code )
 280              		.loc 1 94 0
 281 00cc 0028     		cmp	r0, #0	@ ret_code,
 282 00ce 03D0     		beq	.L7	@,
 283              	@ .\src\reb_main.c:95: 		VOR_Log(LOG_ERROR, "MAX11619 initialization failed! \n");
  95:.\src/reb_main.c **** 		VOR_Log(LOG_ERROR, "MAX11619 initialization failed! \n");
 284              		.loc 1 95 0
 285 00d0 3449     		ldr	r1, .L39+52	@,
 286 00d2 0220     		movs	r0, #2	@,
 287              	.LVL16:
 288 00d4 FFF7FEFF 		bl	VOR_Log	@
 289              	.LVL17:
 290              	.L7:
 291              	@ .\src\reb_main.c:124: 			VOR_GPIO->BANK[0].DATAOUT ^= (1 << PORTA_10_D2);		
  96:.\src/reb_main.c **** 	
ARM GAS  C:\Users\claym\AppData\Local\Temp\cc8Gbdkb.s 			page 8


  97:.\src/reb_main.c **** 	while(1) {
  98:.\src/reb_main.c **** 		if( VOR_TIM1_SecExpired() ) {
  99:.\src/reb_main.c **** 			/* Retrieve current temperature */ 
 100:.\src/reb_main.c **** 			ret_code = VOR_ADT75_GetTemp(&cur_temp);
 101:.\src/reb_main.c **** 			if( ret_code )
 102:.\src/reb_main.c **** 				VOR_Log(LOG_ERROR, "ADT75 read failed! \n");
 103:.\src/reb_main.c **** 			else
 104:.\src/reb_main.c **** 				VOR_Log(LOG_INFO, "\nTemperature: %d(C)\n", cur_temp); 
 105:.\src/reb_main.c **** 		
 106:.\src/reb_main.c **** 			/* Configure Maxim ADC */ 
 107:.\src/reb_main.c **** 			ret_code = VOR_MAX11619_Configure();
 108:.\src/reb_main.c **** 			if( ret_code )
 109:.\src/reb_main.c **** 				VOR_Log(LOG_ERROR, "MAX11619 configuration failed! \n");
 110:.\src/reb_main.c **** 		
 111:.\src/reb_main.c **** 			/* Retrieve sampled data from ADC */ 
 112:.\src/reb_main.c **** 			ret_code = VOR_MAX11619_GetData(&adc_data);	
 113:.\src/reb_main.c **** 			if( ret_code )
 114:.\src/reb_main.c **** 				VOR_Log(LOG_ERROR, "MAX11619 get data failed! \n"); 
 115:.\src/reb_main.c **** 			else
 116:.\src/reb_main.c **** 				VOR_Log(LOG_INFO, "\nADC O/P (0(0V) to 1023(3.3V)): %d\n", adc_data);  
 117:.\src/reb_main.c **** 			
 118:.\src/reb_main.c **** 			VOR_TIM1_SecClear(); 	
 119:.\src/reb_main.c **** 		}	
 120:.\src/reb_main.c ****  		if( VOR_TIM0_MSecExpired() ) {
 121:.\src/reb_main.c **** #ifdef GPIO_DRIVER			
 122:.\src/reb_main.c **** 			PA10->Write(1); 
 123:.\src/reb_main.c **** #else
 124:.\src/reb_main.c **** 			VOR_GPIO->BANK[0].DATAOUT ^= (1 << PORTA_10_D2);		
 292              		.loc 1 124 0
 293 00d8 A024     		movs	r4, #160	@ tmp211,
 294 00da 8027     		movs	r7, #128	@ tmp212,
 295 00dc E405     		lsls	r4, r4, #23	@ tmp211, tmp211,
 296 00de FF00     		lsls	r7, r7, #3	@ tmp212, tmp212,
 297              	.L14:
 298              	@ .\src\reb_main.c:98: 		if( VOR_TIM1_SecExpired() ) {
  98:.\src/reb_main.c **** 			/* Retrieve current temperature */ 
 299              		.loc 1 98 0
 300 00e0 FFF7FEFF 		bl	VOR_TIM1_SecExpired	@
 301              	.LVL18:
 302 00e4 0028     		cmp	r0, #0	@ tmp196,
 303 00e6 1BD0     		beq	.L8	@,
 304              	@ .\src\reb_main.c:100: 			ret_code = VOR_ADT75_GetTemp(&cur_temp);
 100:.\src/reb_main.c **** 			if( ret_code )
 305              		.loc 1 100 0
 306 00e8 2800     		movs	r0, r5	@, tmp151
 307 00ea FFF7FEFF 		bl	VOR_ADT75_GetTemp	@
 308              	.LVL19:
 309              	@ .\src\reb_main.c:101: 			if( ret_code )
 101:.\src/reb_main.c **** 				VOR_Log(LOG_ERROR, "ADT75 read failed! \n");
 310              		.loc 1 101 0
 311 00ee 0028     		cmp	r0, #0	@ ret_code,
 312 00f0 31D0     		beq	.L9	@,
 313              	@ .\src\reb_main.c:102: 				VOR_Log(LOG_ERROR, "ADT75 read failed! \n");
 102:.\src/reb_main.c **** 			else
 314              		.loc 1 102 0
 315 00f2 2D49     		ldr	r1, .L39+56	@,
 316 00f4 0220     		movs	r0, #2	@,
ARM GAS  C:\Users\claym\AppData\Local\Temp\cc8Gbdkb.s 			page 9


 317              	.LVL20:
 318 00f6 FFF7FEFF 		bl	VOR_Log	@
 319              	.LVL21:
 320              	.L10:
 321              	@ .\src\reb_main.c:107: 			ret_code = VOR_MAX11619_Configure();
 107:.\src/reb_main.c **** 			if( ret_code )
 322              		.loc 1 107 0
 323 00fa FFF7FEFF 		bl	VOR_MAX11619_Configure	@
 324              	.LVL22:
 325              	@ .\src\reb_main.c:108: 			if( ret_code )
 108:.\src/reb_main.c **** 				VOR_Log(LOG_ERROR, "MAX11619 configuration failed! \n");
 326              		.loc 1 108 0
 327 00fe 0028     		cmp	r0, #0	@ ret_code,
 328 0100 03D0     		beq	.L11	@,
 329              	@ .\src\reb_main.c:109: 				VOR_Log(LOG_ERROR, "MAX11619 configuration failed! \n");
 109:.\src/reb_main.c **** 		
 330              		.loc 1 109 0
 331 0102 2A49     		ldr	r1, .L39+60	@,
 332 0104 0220     		movs	r0, #2	@,
 333              	.LVL23:
 334 0106 FFF7FEFF 		bl	VOR_Log	@
 335              	.LVL24:
 336              	.L11:
 337              	@ .\src\reb_main.c:112: 			ret_code = VOR_MAX11619_GetData(&adc_data);	
 112:.\src/reb_main.c **** 			if( ret_code )
 338              		.loc 1 112 0
 339 010a 3000     		movs	r0, r6	@, tmp154
 340 010c FFF7FEFF 		bl	VOR_MAX11619_GetData	@
 341              	.LVL25:
 342              	@ .\src\reb_main.c:113: 			if( ret_code )
 113:.\src/reb_main.c **** 				VOR_Log(LOG_ERROR, "MAX11619 get data failed! \n"); 
 343              		.loc 1 113 0
 344 0110 0028     		cmp	r0, #0	@ ret_code,
 345 0112 26D0     		beq	.L12	@,
 346              	@ .\src\reb_main.c:114: 				VOR_Log(LOG_ERROR, "MAX11619 get data failed! \n"); 
 114:.\src/reb_main.c **** 			else
 347              		.loc 1 114 0
 348 0114 2649     		ldr	r1, .L39+64	@,
 349 0116 0220     		movs	r0, #2	@,
 350              	.LVL26:
 351 0118 FFF7FEFF 		bl	VOR_Log	@
 352              	.LVL27:
 353              	.L13:
 354              	@ .\src\reb_main.c:118: 			VOR_TIM1_SecClear(); 	
 118:.\src/reb_main.c **** 		}	
 355              		.loc 1 118 0
 356 011c FFF7FEFF 		bl	VOR_TIM1_SecClear	@
 357              	.LVL28:
 358              	.L8:
 359              	@ .\src\reb_main.c:120:  		if( VOR_TIM0_MSecExpired() ) {
 120:.\src/reb_main.c **** #ifdef GPIO_DRIVER			
 360              		.loc 1 120 0
 361 0120 FFF7FEFF 		bl	VOR_TIM0_MSecExpired	@
 362              	.LVL29:
 363 0124 0028     		cmp	r0, #0	@ tmp209,
 364 0126 DBD0     		beq	.L14	@,
 365              	@ .\src\reb_main.c:124: 			VOR_GPIO->BANK[0].DATAOUT ^= (1 << PORTA_10_D2);		
ARM GAS  C:\Users\claym\AppData\Local\Temp\cc8Gbdkb.s 			page 10


 366              		.loc 1 124 0
 367 0128 A368     		ldr	r3, [r4, #8]	@ _25, MEM[(struct VOR_GPIO_PERIPHERAL_BANK_Type *)1342177280B].BANK[0].D.5501.DA
 368 012a 224A     		ldr	r2, .L39+68	@ tmp234,
 369 012c 7B40     		eors	r3, r7	@ _26, tmp212
 370 012e A360     		str	r3, [r4, #8]	@ _26, MEM[(struct VOR_GPIO_PERIPHERAL_BANK_Type *)1342177280B].BANK[0].D.5501.DA
 371              	@ .\src\reb_main.c:126: 			if( !(VOR_GPIO->BANK[0].DATAIN & (1 << PORTA_11_SW_USER)) )
 125:.\src/reb_main.c **** #endif 			
 126:.\src/reb_main.c **** 			if( !(VOR_GPIO->BANK[0].DATAIN & (1 << PORTA_11_SW_USER)) )
 372              		.loc 1 126 0
 373 0130 2368     		ldr	r3, [r4]	@ _27, MEM[(struct VOR_GPIO_PERIPHERAL_BANK_Type *)1342177280B].BANK[0].D.5493.DATAIN
 374 0132 1B05     		lsls	r3, r3, #20	@ tmp242, _27,
 375 0134 03D4     		bmi	.L15	@,
 376              	@ .\src\reb_main.c:127: 				bounce_cnt++; 
 127:.\src/reb_main.c **** 				bounce_cnt++; 
 377              		.loc 1 127 0
 378 0136 1378     		ldrb	r3, [r2]	@ bounce_cnt, bounce_cnt
 379 0138 0133     		adds	r3, r3, #1	@ tmp220,
 380 013a DBB2     		uxtb	r3, r3	@ _30, tmp220
 381 013c 1370     		strb	r3, [r2]	@ _30, bounce_cnt
 382              	.L15:
 383              	@ .\src\reb_main.c:129: 			if(bounce_cnt >= 2) {
 128:.\src/reb_main.c **** 			
 129:.\src/reb_main.c **** 			if(bounce_cnt >= 2) {
 384              		.loc 1 129 0
 385 013e 1378     		ldrb	r3, [r2]	@ bounce_cnt, bounce_cnt
 386 0140 012B     		cmp	r3, #1	@ bounce_cnt,
 387 0142 05D9     		bls	.L16	@,
 388              	@ .\src\reb_main.c:130: 				VOR_GPIO->BANK[0].DATAOUT ^= (1 << PORTA_7_D3); 
 130:.\src/reb_main.c **** 				VOR_GPIO->BANK[0].DATAOUT ^= (1 << PORTA_7_D3); 
 389              		.loc 1 130 0
 390 0144 8023     		movs	r3, #128	@ tmp227,
 391 0146 A168     		ldr	r1, [r4, #8]	@ _32, MEM[(struct VOR_GPIO_PERIPHERAL_BANK_Type *)1342177280B].BANK[0].D.5501.DA
 392 0148 4B40     		eors	r3, r1	@ _33, _32
 393 014a A360     		str	r3, [r4, #8]	@ _33, MEM[(struct VOR_GPIO_PERIPHERAL_BANK_Type *)1342177280B].BANK[0].D.5501.DA
 394              	@ .\src\reb_main.c:131: 				bounce_cnt = 0; 
 131:.\src/reb_main.c **** 				bounce_cnt = 0; 
 395              		.loc 1 131 0
 396 014c 0023     		movs	r3, #0	@ tmp230,
 397 014e 1370     		strb	r3, [r2]	@ tmp230, bounce_cnt
 398              	.L16:
 399              	@ .\src\reb_main.c:133: 			VOR_TIM0_MSecClear(); 
 132:.\src/reb_main.c **** 			}
 133:.\src/reb_main.c **** 			VOR_TIM0_MSecClear(); 
 400              		.loc 1 133 0
 401 0150 FFF7FEFF 		bl	VOR_TIM0_MSecClear	@
 402              	.LVL30:
 403 0154 C4E7     		b	.L14	@
 404              	.LVL31:
 405              	.L9:
 406              	@ .\src\reb_main.c:104: 				VOR_Log(LOG_INFO, "\nTemperature: %d(C)\n", cur_temp); 
 104:.\src/reb_main.c **** 		
 407              		.loc 1 104 0
 408 0156 2A78     		ldrb	r2, [r5]	@ cur_temp, cur_temp
 409 0158 1749     		ldr	r1, .L39+72	@,
 410 015a 0420     		movs	r0, #4	@,
 411              	.LVL32:
 412 015c FFF7FEFF 		bl	VOR_Log	@
ARM GAS  C:\Users\claym\AppData\Local\Temp\cc8Gbdkb.s 			page 11


 413              	.LVL33:
 414 0160 CBE7     		b	.L10	@
 415              	.LVL34:
 416              	.L12:
 417              	@ .\src\reb_main.c:116: 				VOR_Log(LOG_INFO, "\nADC O/P (0(0V) to 1023(3.3V)): %d\n", adc_data);  
 116:.\src/reb_main.c **** 			
 418              		.loc 1 116 0
 419 0162 3288     		ldrh	r2, [r6]	@ adc_data, adc_data
 420 0164 1549     		ldr	r1, .L39+76	@,
 421 0166 0420     		movs	r0, #4	@,
 422              	.LVL35:
 423 0168 FFF7FEFF 		bl	VOR_Log	@
 424              	.LVL36:
 425 016c D6E7     		b	.L13	@
 426              	.L40:
 427 016e C046     		.align	2
 428              	.L39:
 429 0170 7303F301 		.word	32703347
 430 0174 00000000 		.word	.LC0
 431 0178 F80F0000 		.word	4088
 432 017c 3D000000 		.word	.LC2
 433 0180 E3370004 		.word	67123171
 434 0184 53000000 		.word	.LC4
 435 0188 6A000000 		.word	.LC6
 436 018c 79000000 		.word	.LC8
 437 0190 FFFBFFFF 		.word	-1025
 438 0194 FFF7FFFF 		.word	-2049
 439 0198 90000000 		.word	.LC10
 440 019c B4000000 		.word	.LC12
 441 01a0 D7000000 		.word	.LC14
 442 01a4 F6000000 		.word	.LC16
 443 01a8 18010000 		.word	.LC18
 444 01ac 42010000 		.word	.LC22
 445 01b0 63010000 		.word	.LC24
 446 01b4 00000000 		.word	.LANCHOR0
 447 01b8 2D010000 		.word	.LC20
 448 01bc 7F010000 		.word	.LC26
 449              		.cfi_endproc
 450              	.LFE37:
 451              		.size	main, .-main
 452              		.global	bounce_cnt
 453              		.bss
 454              		.set	.LANCHOR0,. + 0
 455              		.type	bounce_cnt, %object
 456              		.size	bounce_cnt, 1
 457              	bounce_cnt:
 458 0000 00       		.space	1
 459              		.section	.rodata.str1.1,"aMS",%progbits,1
 460              	.LC0:
 461 0000 1B5B3332 		.ascii	"\033[32mWelcome to Vorago Technologies REB1 VA108xx"
 461      6D57656C 
 461      636F6D65 
 461      20746F20 
 461      566F7261 
 462 0030 20736F66 		.ascii	" software! \012\000"
 462      74776172 
 462      6521200A 
ARM GAS  C:\Users\claym\AppData\Local\Temp\cc8Gbdkb.s 			page 12


 462      00
 463              	.LC2:
 464 003d 1B5B3332 		.ascii	"\033[32mVA10820 MCU ...\012\000"
 464      6D564131 
 464      30383230 
 464      204D4355 
 464      202E2E2E 
 465              	.LC4:
 466 0053 1B5B3332 		.ascii	"\033[32mVA10800 MCU ... \012\000"
 466      6D564131 
 466      30383030 
 466      204D4355 
 466      202E2E2E 
 467              	.LC6:
 468 006a 52657374 		.ascii	"Restarted... \012\000"
 468      61727465 
 468      642E2E2E 
 468      200A00
 469              	.LC8:
 470 0079 52657365 		.ascii	"Reset Status: 0x%08x \012\000"
 470      74205374 
 470      61747573 
 470      3A203078 
 470      25303878 
 471              	.LC10:
 472 0090 4D536563 		.ascii	"MSec Timer initialization failed! \012\000"
 472      2054696D 
 472      65722069 
 472      6E697469 
 472      616C697A 
 473              	.LC12:
 474 00b4 53656320 		.ascii	"Sec Timer initialization failed! \012\000"
 474      54696D65 
 474      7220696E 
 474      69746961 
 474      6C697A61 
 475              	.LC14:
 476 00d7 41445437 		.ascii	"ADT75 initialization failed! \012\000"
 476      3520696E 
 476      69746961 
 476      6C697A61 
 476      74696F6E 
 477              	.LC16:
 478 00f6 4D415831 		.ascii	"MAX11619 initialization failed! \012\000"
 478      31363139 
 478      20696E69 
 478      7469616C 
 478      697A6174 
 479              	.LC18:
 480 0118 41445437 		.ascii	"ADT75 read failed! \012\000"
 480      35207265 
 480      61642066 
 480      61696C65 
 480      6421200A 
 481              	.LC20:
 482 012d 0A54656D 		.ascii	"\012Temperature: %d(C)\012\000"
 482      70657261 
ARM GAS  C:\Users\claym\AppData\Local\Temp\cc8Gbdkb.s 			page 13


 482      74757265 
 482      3A202564 
 482      2843290A 
 483              	.LC22:
 484 0142 4D415831 		.ascii	"MAX11619 configuration failed! \012\000"
 484      31363139 
 484      20636F6E 
 484      66696775 
 484      72617469 
 485              	.LC24:
 486 0163 4D415831 		.ascii	"MAX11619 get data failed! \012\000"
 486      31363139 
 486      20676574 
 486      20646174 
 486      61206661 
 487              	.LC26:
 488 017f 0A414443 		.ascii	"\012ADC O/P (0(0V) to 1023(3.3V)): %d\012\000"
 488      204F2F50 
 488      20283028 
 488      30562920 
 488      746F2031 
 489              		.text
 490              	.Letext0:
 491              		.file 2 "c:\\program files (x86)\\gnu tools arm embedded\\7 2017-q4-major\\arm-none-eabi\\include\
 492              		.file 3 "c:\\program files (x86)\\gnu tools arm embedded\\7 2017-q4-major\\arm-none-eabi\\include\
 493              		.file 4 "c:\\program files (x86)\\gnu tools arm embedded\\7 2017-q4-major\\arm-none-eabi\\include\
 494              		.file 5 "c:\\program files (x86)\\gnu tools arm embedded\\7 2017-q4-major\\lib\\gcc\\arm-none-eabi
 495              		.file 6 "c:\\program files (x86)\\gnu tools arm embedded\\7 2017-q4-major\\arm-none-eabi\\include\
 496              		.file 7 "c:\\program files (x86)\\gnu tools arm embedded\\7 2017-q4-major\\arm-none-eabi\\include\
 497              		.file 8 ".\\common\\hdr/system_va108xx.h"
 498              		.file 9 ".\\common\\hdr/va108xx.h"
 499              		.file 10 ".\\hdr/reb_log.h"
 500              		.file 11 ".\\driver\\hdr/driver_common.h"
 501              		.file 12 ".\\driver\\hdr/driver_gpio.h"
 502              		.file 13 ".\\driver\\hdr/gpio_va108xx.h"
 503              		.file 14 ".\\hdr/reb_timer.h"
 504              		.file 15 ".\\hdr/reb_adt75.h"
 505              		.file 16 ".\\hdr/reb_max11619.h"