ARM GAS  C:\Users\claym\AppData\Local\Temp\cccJS0kc.s 			page 1


   1              		.cpu cortex-m0
   2              		.eabi_attribute 20, 1	@ Tag_ABI_FP_denormal
   3              		.eabi_attribute 21, 1	@ Tag_ABI_FP_exceptions
   4              		.eabi_attribute 23, 3	@ Tag_ABI_FP_number_model
   5              		.eabi_attribute 24, 1	@ Tag_ABI_align8_needed
   6              		.eabi_attribute 25, 1	@ Tag_ABI_align8_preserved
   7              		.eabi_attribute 26, 1	@ Tag_ABI_enum_size
   8              		.eabi_attribute 30, 4	@ Tag_ABI_optimization_goals
   9              		.eabi_attribute 34, 0	@ Tag_CPU_unaligned_access
  10              		.eabi_attribute 18, 4	@ Tag_ABI_PCS_wchar_t
  11              		.file	"reb_max11619.c"
  12              	@ GNU C11 (GNU Tools for Arm Embedded Processors 7-2017-q4-major) version 7.2.1 20170904 (release) 
  13              	@	compiled by GNU C version 5.3.1 20160211, GMP version 6.1.0, MPFR version 3.1.4, MPC version 1.0.
  14              	
  15              	@ GGC heuristics: --param ggc-min-expand=100 --param ggc-min-heapsize=131072
  16              	@ options passed:  -I . -I .\common\hdr -I .\driver\hdr -I .\utilities\hdr
  17              	@ -I .\inc -I .\driver\hdr -I .\hdr -imultilib thumb/v6-m
  18              	@ -iprefix c:\program files (x86)\gnu tools arm embedded\7 2017-q4-major\bin\../lib/gcc/arm-none-ea
  19              	@ -isysroot c:\program files (x86)\gnu tools arm embedded\7 2017-q4-major\bin\../arm-none-eabi
  20              	@ -D__USES_INITFINI__ -D RUN_FROM_FLASH=1 .\src\reb_max11619.c
  21              	@ -mcpu=cortex-m0 -mthumb -auxbase-strip .\src\reb_max11619.o -gdwarf-2 -Os
  22              	@ -Wall -Wstrict-prototypes -fomit-frame-pointer -fverbose-asm
  23              	@ options enabled:  -faggressive-loop-optimizations -falign-jumps
  24              	@ -falign-labels -falign-loops -fauto-inc-dec -fbranch-count-reg
  25              	@ -fcaller-saves -fchkp-check-incomplete-type -fchkp-check-read
  26              	@ -fchkp-check-write -fchkp-instrument-calls -fchkp-narrow-bounds
  27              	@ -fchkp-optimize -fchkp-store-bounds -fchkp-use-static-bounds
  28              	@ -fchkp-use-static-const-bounds -fchkp-use-wrappers -fcode-hoisting
  29              	@ -fcombine-stack-adjustments -fcommon -fcompare-elim -fcprop-registers
  30              	@ -fcrossjumping -fcse-follow-jumps -fdefer-pop
  31              	@ -fdelete-null-pointer-checks -fdevirtualize -fdevirtualize-speculatively
  32              	@ -fdwarf2-cfi-asm -fearly-inlining -feliminate-unused-debug-types
  33              	@ -fexpensive-optimizations -fforward-propagate -ffp-int-builtin-inexact
  34              	@ -ffunction-cse -fgcse -fgcse-lm -fgnu-runtime -fgnu-unique
  35              	@ -fguess-branch-probability -fhoist-adjacent-loads -fident -fif-conversion
  36              	@ -fif-conversion2 -findirect-inlining -finline -finline-atomics
  37              	@ -finline-functions -finline-functions-called-once
  38              	@ -finline-small-functions -fipa-bit-cp -fipa-cp -fipa-icf
  39              	@ -fipa-icf-functions -fipa-icf-variables -fipa-profile -fipa-pure-const
  40              	@ -fipa-reference -fipa-sra -fipa-vrp -fira-hoist-pressure
  41              	@ -fira-share-save-slots -fira-share-spill-slots
  42              	@ -fisolate-erroneous-paths-dereference -fivopts -fkeep-static-consts
  43              	@ -fleading-underscore -flifetime-dse -flra-remat -flto-odr-type-merging
  44              	@ -fmath-errno -fmerge-constants -fmerge-debug-strings
  45              	@ -fmove-loop-invariants -fomit-frame-pointer -foptimize-sibling-calls
  46              	@ -fpartial-inlining -fpeephole -fpeephole2 -fplt -fprefetch-loop-arrays
  47              	@ -freg-struct-return -freorder-blocks -freorder-functions
  48              	@ -frerun-cse-after-loop -fsched-critical-path-heuristic
  49              	@ -fsched-dep-count-heuristic -fsched-group-heuristic -fsched-interblock
  50              	@ -fsched-last-insn-heuristic -fsched-pressure -fsched-rank-heuristic
  51              	@ -fsched-spec -fsched-spec-insn-heuristic -fsched-stalled-insns-dep
  52              	@ -fschedule-insns2 -fsection-anchors -fsemantic-interposition
  53              	@ -fshow-column -fshrink-wrap -fshrink-wrap-separate -fsigned-zeros
  54              	@ -fsplit-ivs-in-unroller -fsplit-wide-types -fssa-backprop -fssa-phiopt
  55              	@ -fstdarg-opt -fstore-merging -fstrict-aliasing -fstrict-overflow
  56              	@ -fstrict-volatile-bitfields -fsync-libcalls -fthread-jumps
  57              	@ -ftoplevel-reorder -ftrapping-math -ftree-bit-ccp -ftree-builtin-call-dce
ARM GAS  C:\Users\claym\AppData\Local\Temp\cccJS0kc.s 			page 2


  58              	@ -ftree-ccp -ftree-ch -ftree-coalesce-vars -ftree-copy-prop -ftree-cselim
  59              	@ -ftree-dce -ftree-dominator-opts -ftree-dse -ftree-forwprop -ftree-fre
  60              	@ -ftree-loop-if-convert -ftree-loop-im -ftree-loop-ivcanon
  61              	@ -ftree-loop-optimize -ftree-parallelize-loops= -ftree-phiprop -ftree-pre
  62              	@ -ftree-pta -ftree-reassoc -ftree-scev-cprop -ftree-sink -ftree-slsr
  63              	@ -ftree-sra -ftree-switch-conversion -ftree-tail-merge -ftree-ter
  64              	@ -ftree-vrp -funit-at-a-time -fvar-tracking -fvar-tracking-assignments
  65              	@ -fverbose-asm -fzero-initialized-in-bss -mlittle-endian
  66              	@ -mpic-data-is-text-relative -msched-prolog -mthumb
  67              	@ -mvectorize-with-neon-quad
  68              	
  69              		.text
  70              	.Ltext0:
  71              		.cfi_sections	.debug_frame
  72              		.align	1
  73              		.global	VOR_MAX11619_Initialize
  74              		.syntax unified
  75              		.code	16
  76              		.thumb_func
  77              		.fpu softvfp
  78              		.type	VOR_MAX11619_Initialize, %function
  79              	VOR_MAX11619_Initialize:
  80              	.LFB34:
  81              		.file 1 ".\\src\\reb_max11619.c"
   1:.\src/reb_max11619.c **** /***************************************************************************************
   2:.\src/reb_max11619.c ****  * @file     reb_max11619.c
   3:.\src/reb_max11619.c ****  * @version  V1.0
   4:.\src/reb_max11619.c ****  * @date     31. March 2016
   5:.\src/reb_max11619.c ****  *
   6:.\src/reb_max11619.c ****  * @note
   7:.\src/reb_max11619.c ****  * VORAGO Technologies 
   8:.\src/reb_max11619.c ****  *
   9:.\src/reb_max11619.c ****  * @note
  10:.\src/reb_max11619.c ****  * Copyright (c) 2013-2016 VORAGO Technologies. 
  11:.\src/reb_max11619.c ****  *
  12:.\src/reb_max11619.c ****  * @par
  13:.\src/reb_max11619.c ****  * BY DOWNLOADING, INSTALLING OR USING THIS SOFTWARE, YOU AGREE TO BE BOUND BY 
  14:.\src/reb_max11619.c ****  * ALL THE TERMS AND CONDITIONS OF THE VORAGO TECHNOLOGIES END USER LICENSE AGREEMENT. 
  15:.\src/reb_max11619.c ****  * THIS SOFTWARE IS PROVIDED "AS IS". NO WARRANTIES, WHETHER EXPRESS, IMPLIED
  16:.\src/reb_max11619.c ****  * OR STATUTORY, INCLUDING, BUT NOT LIMITED TO, IMPLIED WARRANTIES OF MERCHANTABILITY 
  17:.\src/reb_max11619.c ****  * AND FITNESS FOR A PARTICULAR PURPOSE APPLY TO THIS SOFTWARE. VORAGO TECHNOLOGIES 
  18:.\src/reb_max11619.c ****  * SHALL NOT, IN ANY CIRCUMSTANCES, BE LIABLE FOR SPECIAL, INCIDENTAL, OR CONSEQUENTIAL 
  19:.\src/reb_max11619.c ****  * DAMAGES, FOR ANY REASON WHATSOEVER.
  20:.\src/reb_max11619.c ****  *
  21:.\src/reb_max11619.c ****  ****************************************************************************************/
  22:.\src/reb_max11619.c **** #include "va108xx.h"
  23:.\src/reb_max11619.c **** #include "driver_spi.h"
  24:.\src/reb_max11619.c **** #include "reb_max11619.h"
  25:.\src/reb_max11619.c **** 
  26:.\src/reb_max11619.c **** static VOR_DRIVER_SPI *pSPI; 
  27:.\src/reb_max11619.c **** 
  28:.\src/reb_max11619.c **** int32_t VOR_MAX11619_Initialize(void) 
  29:.\src/reb_max11619.c **** {
  82              		.loc 1 29 0
  83              		.cfi_startproc
  84              		@ args = 0, pretend = 0, frame = 0
  85              		@ frame_needed = 0, uses_anonymous_args = 0
ARM GAS  C:\Users\claym\AppData\Local\Temp\cccJS0kc.s 			page 3


  86              	@ .\src\reb_max11619.c:30: 	VOR_GPIO->BANK[0].DIR &= ~(0x01UL << 14); ///< Set-UP PORTA[14] GPIO as
  30:.\src/reb_max11619.c **** 	VOR_GPIO->BANK[0].DIR &= ~(0x01UL << 14); ///< Set-UP PORTA[14] GPIO as input to monitor EOC
  87              		.loc 1 30 0
  88 0000 A022     		movs	r2, #160	@ tmp132,
  89 0002 D205     		lsls	r2, r2, #23	@ tmp132, tmp132,
  90 0004 136A     		ldr	r3, [r2, #32]	@ _1, MEM[(struct VOR_GPIO_PERIPHERAL_BANK_Type *)1342177280B].BANK[0].D.4504.DI
  91 0006 2649     		ldr	r1, .L2	@ tmp133,
  92              	@ .\src\reb_max11619.c:29: {
  29:.\src/reb_max11619.c **** 	VOR_GPIO->BANK[0].DIR &= ~(0x01UL << 14); ///< Set-UP PORTA[14] GPIO as input to monitor EOC
  93              		.loc 1 29 0
  94 0008 10B5     		push	{r4, lr}	@
  95              	.LCFI0:
  96              		.cfi_def_cfa_offset 8
  97              		.cfi_offset 4, -8
  98              		.cfi_offset 14, -4
  99              	@ .\src\reb_max11619.c:30: 	VOR_GPIO->BANK[0].DIR &= ~(0x01UL << 14); ///< Set-UP PORTA[14] GPIO as
 100              		.loc 1 30 0
 101 000a 0B40     		ands	r3, r1	@ _2, tmp133
 102 000c 1362     		str	r3, [r2, #32]	@ _2, MEM[(struct VOR_GPIO_PERIPHERAL_BANK_Type *)1342177280B].BANK[0].D.4504.DI
 103              	@ .\src\reb_max11619.c:32: 	VOR_GPIO_PinMux(GPORTA, PORTA_SPIB_SSEL0, FUNSEL2); ///< Configure Port
  31:.\src/reb_max11619.c **** 	
  32:.\src/reb_max11619.c **** 	VOR_GPIO_PinMux(GPORTA, PORTA_SPIB_SSEL0, FUNSEL2); ///< Configure Port A[17] as SPIB SSEL0 
 104              		.loc 1 32 0
 105 000e 1121     		movs	r1, #17	@,
 106 0010 0222     		movs	r2, #2	@,
 107 0012 0020     		movs	r0, #0	@,
 108 0014 FFF7FEFF 		bl	VOR_GPIO_PinMux	@
 109              	.LVL0:
 110              	@ .\src\reb_max11619.c:33: 	VOR_GPIO_PinMux(GPORTA, PORTA_SPIB_MISO, FUNSEL2);	///< Configure Port 
  33:.\src/reb_max11619.c **** 	VOR_GPIO_PinMux(GPORTA, PORTA_SPIB_MISO, FUNSEL2);	///< Configure Port A[18] as SPIB MISO 
 111              		.loc 1 33 0
 112 0018 0222     		movs	r2, #2	@,
 113 001a 1221     		movs	r1, #18	@,
 114 001c 0020     		movs	r0, #0	@,
 115 001e FFF7FEFF 		bl	VOR_GPIO_PinMux	@
 116              	.LVL1:
 117              	@ .\src\reb_max11619.c:34: 	VOR_GPIO_PinMux(GPORTA, PORTA_SPIB_MOSI, FUNSEL2);	///< Configure Port 
  34:.\src/reb_max11619.c **** 	VOR_GPIO_PinMux(GPORTA, PORTA_SPIB_MOSI, FUNSEL2);	///< Configure Port A[19] as SPIB MOSI 
 118              		.loc 1 34 0
 119 0022 0222     		movs	r2, #2	@,
 120 0024 1321     		movs	r1, #19	@,
 121 0026 0020     		movs	r0, #0	@,
 122 0028 FFF7FEFF 		bl	VOR_GPIO_PinMux	@
 123              	.LVL2:
 124              	@ .\src\reb_max11619.c:35: 	VOR_GPIO_PinMux(GPORTA, PORTA_SPIB_SCLK, FUNSEL2); 	///< Configure Port
  35:.\src/reb_max11619.c **** 	VOR_GPIO_PinMux(GPORTA, PORTA_SPIB_SCLK, FUNSEL2); 	///< Configure Port A[20] as SPIB sclk 
 125              		.loc 1 35 0
 126 002c 0222     		movs	r2, #2	@,
 127 002e 1421     		movs	r1, #20	@,
 128 0030 0020     		movs	r0, #0	@,
 129 0032 FFF7FEFF 		bl	VOR_GPIO_PinMux	@
 130              	.LVL3:
 131              	@ .\src\reb_max11619.c:37: 	pSPI = &Driver_SPI1;
  36:.\src/reb_max11619.c **** 
  37:.\src/reb_max11619.c **** 	pSPI = &Driver_SPI1;
 132              		.loc 1 37 0
 133 0036 1B4C     		ldr	r4, .L2+4	@ tmp135,
ARM GAS  C:\Users\claym\AppData\Local\Temp\cccJS0kc.s 			page 4


 134 0038 1B4B     		ldr	r3, .L2+8	@ tmp136,
 135              	@ .\src\reb_max11619.c:38: 	pSPI->Initialize(NULL); 
  38:.\src/reb_max11619.c **** 	pSPI->Initialize(NULL); 
 136              		.loc 1 38 0
 137 003a 0020     		movs	r0, #0	@,
 138              	@ .\src\reb_max11619.c:37: 	pSPI = &Driver_SPI1;
  37:.\src/reb_max11619.c **** 	pSPI->Initialize(NULL); 
 139              		.loc 1 37 0
 140 003c 2360     		str	r3, [r4]	@ tmp136, pSPI
 141              	@ .\src\reb_max11619.c:38: 	pSPI->Initialize(NULL); 
 142              		.loc 1 38 0
 143 003e 5B68     		ldr	r3, [r3, #4]	@ Driver_SPI1.Initialize, Driver_SPI1.Initialize
 144 0040 9847     		blx	r3	@ Driver_SPI1.Initialize
 145              	.LVL4:
 146              	@ .\src\reb_max11619.c:39: 	pSPI->Control(VOR_SPI_DRV_POLL, VOR_SPI_CTRL_ENABLE); 					///< Select 
  39:.\src/reb_max11619.c **** 	pSPI->Control(VOR_SPI_DRV_POLL, VOR_SPI_CTRL_ENABLE); 					///< Select Poll Mode Driver
 147              		.loc 1 39 0
 148 0042 2368     		ldr	r3, [r4]	@ pSPI, pSPI
 149 0044 0121     		movs	r1, #1	@,
 150 0046 9B69     		ldr	r3, [r3, #24]	@ pSPI.1_4->Control, pSPI.1_4->Control
 151 0048 0020     		movs	r0, #0	@,
 152 004a 9847     		blx	r3	@ pSPI.1_4->Control
 153              	.LVL5:
 154              	@ .\src\reb_max11619.c:40: 	pSPI->Control(VOR_SPI_POLL_TOUT, 1000000); 											///< Set polling 
  40:.\src/reb_max11619.c **** 	pSPI->Control(VOR_SPI_POLL_TOUT, 1000000); 											///< Set polling time-out to 1 sec
 155              		.loc 1 40 0
 156 004c 2368     		ldr	r3, [r4]	@ pSPI, pSPI
 157 004e 1749     		ldr	r1, .L2+12	@,
 158 0050 9B69     		ldr	r3, [r3, #24]	@ pSPI.2_6->Control, pSPI.2_6->Control
 159 0052 0120     		movs	r0, #1	@,
 160 0054 9847     		blx	r3	@ pSPI.2_6->Control
 161              	.LVL6:
 162              	@ .\src\reb_max11619.c:41: 	pSPI->Control(VOR_SPI_CTRL_DATA_WIDTH, 8); 											///< Set data-wid
  41:.\src/reb_max11619.c **** 	pSPI->Control(VOR_SPI_CTRL_DATA_WIDTH, 8); 											///< Set data-width to 8 bit
 163              		.loc 1 41 0
 164 0056 2368     		ldr	r3, [r4]	@ pSPI, pSPI
 165 0058 0821     		movs	r1, #8	@,
 166 005a 9B69     		ldr	r3, [r3, #24]	@ pSPI.3_8->Control, pSPI.3_8->Control
 167 005c 0720     		movs	r0, #7	@,
 168 005e 9847     		blx	r3	@ pSPI.3_8->Control
 169              	.LVL7:
 170              	@ .\src\reb_max11619.c:42: 	pSPI->Control(VOR_SPI_CTRL_CLKMODE, VOR_SPI_CLKMODE_SPH0_SPO0); ///< Se
  42:.\src/reb_max11619.c **** 	pSPI->Control(VOR_SPI_CTRL_CLKMODE, VOR_SPI_CLKMODE_SPH0_SPO0); ///< Select SPI mode 00
 171              		.loc 1 42 0
 172 0060 2368     		ldr	r3, [r4]	@ pSPI, pSPI
 173 0062 0021     		movs	r1, #0	@,
 174 0064 9B69     		ldr	r3, [r3, #24]	@ pSPI.4_10->Control, pSPI.4_10->Control
 175 0066 0220     		movs	r0, #2	@,
 176 0068 9847     		blx	r3	@ pSPI.4_10->Control
 177              	.LVL8:
 178              	@ .\src\reb_max11619.c:43: 	pSPI->Control(VOR_SPI_CTRL_CS, 0); 															///< Slave select 0 
  43:.\src/reb_max11619.c **** 	pSPI->Control(VOR_SPI_CTRL_CS, 0); 															///< Slave select 0 
 179              		.loc 1 43 0
 180 006a 2368     		ldr	r3, [r4]	@ pSPI, pSPI
 181 006c 0021     		movs	r1, #0	@,
 182 006e 9B69     		ldr	r3, [r3, #24]	@ pSPI.5_12->Control, pSPI.5_12->Control
 183 0070 0820     		movs	r0, #8	@,
ARM GAS  C:\Users\claym\AppData\Local\Temp\cccJS0kc.s 			page 5


 184 0072 9847     		blx	r3	@ pSPI.5_12->Control
 185              	.LVL9:
 186              	@ .\src\reb_max11619.c:44: 	pSPI->Control(VOR_SPI_CTRL_CLKRATE, 3000000); 								  ///< Set SPI cl
  44:.\src/reb_max11619.c **** 	pSPI->Control(VOR_SPI_CTRL_CLKRATE, 3000000); 								  ///< Set SPI clock rate to 3 MHz
 187              		.loc 1 44 0
 188 0074 2368     		ldr	r3, [r4]	@ pSPI, pSPI
 189 0076 0E49     		ldr	r1, .L2+16	@,
 190 0078 9B69     		ldr	r3, [r3, #24]	@ pSPI.6_14->Control, pSPI.6_14->Control
 191 007a 0920     		movs	r0, #9	@,
 192 007c 9847     		blx	r3	@ pSPI.6_14->Control
 193              	.LVL10:
 194              	@ .\src\reb_max11619.c:45: 	pSPI->Control(VOR_SPI_CTRL_MS, VOR_SPI_MASTER);									///< Set CPU SP
  45:.\src/reb_max11619.c **** 	pSPI->Control(VOR_SPI_CTRL_MS, VOR_SPI_MASTER);									///< Set CPU SPI master
 195              		.loc 1 45 0
 196 007e 2368     		ldr	r3, [r4]	@ pSPI, pSPI
 197 0080 0021     		movs	r1, #0	@,
 198 0082 9B69     		ldr	r3, [r3, #24]	@ pSPI.7_16->Control, pSPI.7_16->Control
 199 0084 0320     		movs	r0, #3	@,
 200 0086 9847     		blx	r3	@ pSPI.7_16->Control
 201              	.LVL11:
 202              	@ .\src\reb_max11619.c:46: 	pSPI->Control(VOR_SPI_CTRL_BLOCKMODE, VOR_SPI_CTRL_ENABLE); 		///< Enab
  46:.\src/reb_max11619.c **** 	pSPI->Control(VOR_SPI_CTRL_BLOCKMODE, VOR_SPI_CTRL_ENABLE); 		///< Enable block mode 
 203              		.loc 1 46 0
 204 0088 2368     		ldr	r3, [r4]	@ pSPI, pSPI
 205 008a 0121     		movs	r1, #1	@,
 206 008c 9B69     		ldr	r3, [r3, #24]	@ pSPI.8_18->Control, pSPI.8_18->Control
 207 008e 0620     		movs	r0, #6	@,
 208 0090 9847     		blx	r3	@ pSPI.8_18->Control
 209              	.LVL12:
 210              	@ .\src\reb_max11619.c:47: 	pSPI->Control(VOR_SPI_CTRL_INTERFACE, VOR_SPI_CTRL_ENABLE); 		///< Enab
  47:.\src/reb_max11619.c **** 	pSPI->Control(VOR_SPI_CTRL_INTERFACE, VOR_SPI_CTRL_ENABLE); 		///< Enable SPI interface
 211              		.loc 1 47 0
 212 0092 2368     		ldr	r3, [r4]	@ pSPI, pSPI
 213 0094 0121     		movs	r1, #1	@,
 214 0096 9B69     		ldr	r3, [r3, #24]	@ pSPI.9_20->Control, pSPI.9_20->Control
 215 0098 0D20     		movs	r0, #13	@,
 216 009a 9847     		blx	r3	@ pSPI.9_20->Control
 217              	.LVL13:
 218              	@ .\src\reb_max11619.c:50: }
  48:.\src/reb_max11619.c **** 	
  49:.\src/reb_max11619.c **** 	return 0; 
  50:.\src/reb_max11619.c **** }
 219              		.loc 1 50 0
 220              		@ sp needed	@
 221 009c 0020     		movs	r0, #0	@,
 222 009e 10BD     		pop	{r4, pc}
 223              	.L3:
 224              		.align	2
 225              	.L2:
 226 00a0 FFBFFFFF 		.word	-16385
 227 00a4 00000000 		.word	.LANCHOR0
 228 00a8 00000000 		.word	Driver_SPI1
 229 00ac 40420F00 		.word	1000000
 230 00b0 C0C62D00 		.word	3000000
 231              		.cfi_endproc
 232              	.LFE34:
 233              		.size	VOR_MAX11619_Initialize, .-VOR_MAX11619_Initialize
ARM GAS  C:\Users\claym\AppData\Local\Temp\cccJS0kc.s 			page 6


 234              		.align	1
 235              		.global	VOR_MAX11619_UnInitialize
 236              		.syntax unified
 237              		.code	16
 238              		.thumb_func
 239              		.fpu softvfp
 240              		.type	VOR_MAX11619_UnInitialize, %function
 241              	VOR_MAX11619_UnInitialize:
 242              	.LFB35:
  51:.\src/reb_max11619.c **** 
  52:.\src/reb_max11619.c **** int32_t VOR_MAX11619_UnInitialize(void) 
  53:.\src/reb_max11619.c **** {
 243              		.loc 1 53 0
 244              		.cfi_startproc
 245              		@ args = 0, pretend = 0, frame = 0
 246              		@ frame_needed = 0, uses_anonymous_args = 0
 247 00b4 10B5     		push	{r4, lr}	@
 248              	.LCFI1:
 249              		.cfi_def_cfa_offset 8
 250              		.cfi_offset 4, -8
 251              		.cfi_offset 14, -4
 252              	@ .\src\reb_max11619.c:54: 	pSPI->Uninitialize(); 
  54:.\src/reb_max11619.c **** 	pSPI->Uninitialize(); 
 253              		.loc 1 54 0
 254 00b6 034B     		ldr	r3, .L5	@ tmp113,
 255              	@ .\src\reb_max11619.c:57: }
  55:.\src/reb_max11619.c **** 	
  56:.\src/reb_max11619.c **** 	return 0; 
  57:.\src/reb_max11619.c **** }
 256              		.loc 1 57 0
 257              		@ sp needed	@
 258              	@ .\src\reb_max11619.c:54: 	pSPI->Uninitialize(); 
  54:.\src/reb_max11619.c **** 	pSPI->Uninitialize(); 
 259              		.loc 1 54 0
 260 00b8 1B68     		ldr	r3, [r3]	@ pSPI, pSPI
 261 00ba 9B68     		ldr	r3, [r3, #8]	@ pSPI.10_1->Uninitialize, pSPI.10_1->Uninitialize
 262 00bc 9847     		blx	r3	@ pSPI.10_1->Uninitialize
 263              	.LVL14:
 264              	@ .\src\reb_max11619.c:57: }
 265              		.loc 1 57 0
 266 00be 0020     		movs	r0, #0	@,
 267 00c0 10BD     		pop	{r4, pc}
 268              	.L6:
 269 00c2 C046     		.align	2
 270              	.L5:
 271 00c4 00000000 		.word	.LANCHOR0
 272              		.cfi_endproc
 273              	.LFE35:
 274              		.size	VOR_MAX11619_UnInitialize, .-VOR_MAX11619_UnInitialize
 275              		.align	1
 276              		.global	VOR_MAX11619_Configure
 277              		.syntax unified
 278              		.code	16
 279              		.thumb_func
 280              		.fpu softvfp
 281              		.type	VOR_MAX11619_Configure, %function
 282              	VOR_MAX11619_Configure:
ARM GAS  C:\Users\claym\AppData\Local\Temp\cccJS0kc.s 			page 7


 283              	.LFB36:
  58:.\src/reb_max11619.c **** 
  59:.\src/reb_max11619.c **** int32_t VOR_MAX11619_Configure(void) 
  60:.\src/reb_max11619.c **** {
 284              		.loc 1 60 0
 285              		.cfi_startproc
 286              		@ args = 0, pretend = 0, frame = 8
 287              		@ frame_needed = 0, uses_anonymous_args = 0
 288              	.LVL15:
 289 00c8 37B5     		push	{r0, r1, r2, r4, r5, lr}	@
 290              	.LCFI2:
 291              		.cfi_def_cfa_offset 24
 292              		.cfi_offset 0, -24
 293              		.cfi_offset 1, -20
 294              		.cfi_offset 2, -16
 295              		.cfi_offset 4, -12
 296              		.cfi_offset 5, -8
 297              		.cfi_offset 14, -4
 298              	@ .\src\reb_max11619.c:65: 	cmd = MAX11619_RESET; 
  61:.\src/reb_max11619.c **** 	int32_t ret_code = 0; 
  62:.\src/reb_max11619.c **** 	uint8_t cmd; 
  63:.\src/reb_max11619.c **** 	
  64:.\src/reb_max11619.c **** 	/* Reset ADC */ 
  65:.\src/reb_max11619.c **** 	cmd = MAX11619_RESET; 
 299              		.loc 1 65 0
 300 00ca 6B46     		mov	r3, sp	@ tmp148,
 301 00cc DC1D     		adds	r4, r3, #7	@ tmp119, tmp148,
 302 00ce 1023     		movs	r3, #16	@ tmp120,
 303              	@ .\src\reb_max11619.c:66: 	if( (ret_code = pSPI->Send(&cmd, sizeof(uint8_t))) != 0 )
  66:.\src/reb_max11619.c **** 	if( (ret_code = pSPI->Send(&cmd, sizeof(uint8_t))) != 0 )
 304              		.loc 1 66 0
 305 00d0 114D     		ldr	r5, .L9	@ tmp123,
 306              	@ .\src\reb_max11619.c:65: 	cmd = MAX11619_RESET; 
  65:.\src/reb_max11619.c **** 	if( (ret_code = pSPI->Send(&cmd, sizeof(uint8_t))) != 0 )
 307              		.loc 1 65 0
 308 00d2 2370     		strb	r3, [r4]	@ tmp120, cmd
 309              	@ .\src\reb_max11619.c:66: 	if( (ret_code = pSPI->Send(&cmd, sizeof(uint8_t))) != 0 )
 310              		.loc 1 66 0
 311 00d4 2B68     		ldr	r3, [r5]	@ pSPI, pSPI
 312 00d6 0121     		movs	r1, #1	@,
 313 00d8 DB68     		ldr	r3, [r3, #12]	@ pSPI.11_1->Send, pSPI.11_1->Send
 314 00da 2000     		movs	r0, r4	@, tmp119
 315 00dc 9847     		blx	r3	@ pSPI.11_1->Send
 316              	.LVL16:
 317 00de 0028     		cmp	r0, #0	@ <retval>,
 318 00e0 18D1     		bne	.L7	@,
 319              	@ .\src\reb_max11619.c:70: 	cmd = MAX11619_CLKSEL10_EXTREF; 
  67:.\src/reb_max11619.c **** 		return ret_code; 
  68:.\src/reb_max11619.c **** 	
  69:.\src/reb_max11619.c **** 	/* Use internal clock and external reference */ 
  70:.\src/reb_max11619.c **** 	cmd = MAX11619_CLKSEL10_EXTREF; 
 320              		.loc 1 70 0
 321 00e2 6423     		movs	r3, #100	@ tmp127,
 322 00e4 2370     		strb	r3, [r4]	@ tmp127, cmd
 323              	@ .\src\reb_max11619.c:71: 	if( (ret_code = pSPI->Send(&cmd, sizeof(uint8_t))) != 0 )
  71:.\src/reb_max11619.c **** 	if( (ret_code = pSPI->Send(&cmd, sizeof(uint8_t))) != 0 )
 324              		.loc 1 71 0
ARM GAS  C:\Users\claym\AppData\Local\Temp\cccJS0kc.s 			page 8


 325 00e6 2B68     		ldr	r3, [r5]	@ pSPI, pSPI
 326 00e8 0121     		movs	r1, #1	@,
 327 00ea DB68     		ldr	r3, [r3, #12]	@ pSPI.12_3->Send, pSPI.12_3->Send
 328 00ec 2000     		movs	r0, r4	@, tmp119
 329              	.LVL17:
 330 00ee 9847     		blx	r3	@ pSPI.12_3->Send
 331              	.LVL18:
 332 00f0 0028     		cmp	r0, #0	@ <retval>,
 333 00f2 0FD1     		bne	.L7	@,
 334              	@ .\src\reb_max11619.c:75: 	cmd = MAX11619_AVG_OFF; 
  72:.\src/reb_max11619.c **** 		return ret_code; 
  73:.\src/reb_max11619.c **** 	
  74:.\src/reb_max11619.c **** 	/* Switch off averaging */ 
  75:.\src/reb_max11619.c **** 	cmd = MAX11619_AVG_OFF; 
 335              		.loc 1 75 0
 336 00f4 2023     		movs	r3, #32	@ tmp134,
 337 00f6 2370     		strb	r3, [r4]	@ tmp134, cmd
 338              	@ .\src\reb_max11619.c:76: 	if( (ret_code = pSPI->Send(&cmd, sizeof(uint8_t))) != 0 )
  76:.\src/reb_max11619.c **** 	if( (ret_code = pSPI->Send(&cmd, sizeof(uint8_t))) != 0 )
 339              		.loc 1 76 0
 340 00f8 2B68     		ldr	r3, [r5]	@ pSPI, pSPI
 341 00fa 0121     		movs	r1, #1	@,
 342 00fc DB68     		ldr	r3, [r3, #12]	@ pSPI.13_5->Send, pSPI.13_5->Send
 343 00fe 2000     		movs	r0, r4	@, tmp119
 344              	.LVL19:
 345 0100 9847     		blx	r3	@ pSPI.13_5->Send
 346              	.LVL20:
 347 0102 0028     		cmp	r0, #0	@ <retval>,
 348 0104 06D1     		bne	.L7	@,
 349              	@ .\src\reb_max11619.c:80: 	cmd = MAX11619_CHANNEL_AN3; 
  77:.\src/reb_max11619.c **** 		return ret_code; 
  78:.\src/reb_max11619.c **** 	
  79:.\src/reb_max11619.c **** 	/* Select input channel AN3 */ 
  80:.\src/reb_max11619.c **** 	cmd = MAX11619_CHANNEL_AN3; 
 350              		.loc 1 80 0
 351 0106 9E23     		movs	r3, #158	@ tmp141,
 352 0108 2370     		strb	r3, [r4]	@ tmp141, cmd
 353              	@ .\src\reb_max11619.c:81: 	ret_code = pSPI->Send(&cmd, sizeof(uint8_t)); 
  81:.\src/reb_max11619.c **** 	ret_code = pSPI->Send(&cmd, sizeof(uint8_t)); 
 354              		.loc 1 81 0
 355 010a 2B68     		ldr	r3, [r5]	@ pSPI, pSPI
 356 010c 0121     		movs	r1, #1	@,
 357 010e DB68     		ldr	r3, [r3, #12]	@ pSPI.14_7->Send, pSPI.14_7->Send
 358 0110 2000     		movs	r0, r4	@, tmp119
 359              	.LVL21:
 360 0112 9847     		blx	r3	@ pSPI.14_7->Send
 361              	.LVL22:
 362              	.L7:
 363              	@ .\src\reb_max11619.c:84: }
  82:.\src/reb_max11619.c **** 
  83:.\src/reb_max11619.c **** 	return ret_code; 
  84:.\src/reb_max11619.c **** }
 364              		.loc 1 84 0
 365              		@ sp needed	@
 366 0114 3EBD     		pop	{r1, r2, r3, r4, r5, pc}
 367              	.L10:
 368 0116 C046     		.align	2
ARM GAS  C:\Users\claym\AppData\Local\Temp\cccJS0kc.s 			page 9


 369              	.L9:
 370 0118 00000000 		.word	.LANCHOR0
 371              		.cfi_endproc
 372              	.LFE36:
 373              		.size	VOR_MAX11619_Configure, .-VOR_MAX11619_Configure
 374              		.align	1
 375              		.global	VOR_MAX11619_GetData
 376              		.syntax unified
 377              		.code	16
 378              		.thumb_func
 379              		.fpu softvfp
 380              		.type	VOR_MAX11619_GetData, %function
 381              	VOR_MAX11619_GetData:
 382              	.LFB37:
  85:.\src/reb_max11619.c **** 
  86:.\src/reb_max11619.c **** int32_t VOR_MAX11619_GetData(uint16_t *adc_data) 
  87:.\src/reb_max11619.c **** {
 383              		.loc 1 87 0
 384              		.cfi_startproc
 385              		@ args = 0, pretend = 0, frame = 8
 386              		@ frame_needed = 0, uses_anonymous_args = 0
 387              	.LVL23:
 388              	@ .\src\reb_max11619.c:89: 	uint8_t tmp_val[2] = {0, 0}; 
  88:.\src/reb_max11619.c **** 	int32_t ret_code = 0; 
  89:.\src/reb_max11619.c **** 	uint8_t tmp_val[2] = {0, 0}; 
 389              		.loc 1 89 0
 390 011c 0023     		movs	r3, #0	@ tmp126,
 391              	@ .\src\reb_max11619.c:87: {
  87:.\src/reb_max11619.c **** 	int32_t ret_code = 0; 
 392              		.loc 1 87 0
 393 011e 37B5     		push	{r0, r1, r2, r4, r5, lr}	@
 394              	.LCFI3:
 395              		.cfi_def_cfa_offset 24
 396              		.cfi_offset 0, -24
 397              		.cfi_offset 1, -20
 398              		.cfi_offset 2, -16
 399              		.cfi_offset 4, -12
 400              		.cfi_offset 5, -8
 401              		.cfi_offset 14, -4
 402              	@ .\src\reb_max11619.c:89: 	uint8_t tmp_val[2] = {0, 0}; 
 403              		.loc 1 89 0
 404 0120 01AD     		add	r5, sp, #4	@ tmp125,,
 405 0122 2B80     		strh	r3, [r5]	@ tmp126, MEM[(uint8_t[2] *)&tmp_val]
 406              	@ .\src\reb_max11619.c:92: 	while( VOR_GPIO->BANK[0].DATAIN & (0x01UL << 14) ); 
  90:.\src/reb_max11619.c **** 	
  91:.\src/reb_max11619.c **** 	/* Wait till ADC conversion is complete i.e till EOC goes low. */ 
  92:.\src/reb_max11619.c **** 	while( VOR_GPIO->BANK[0].DATAIN & (0x01UL << 14) ); 
 407              		.loc 1 92 0
 408 0124 A021     		movs	r1, #160	@ tmp128,
 409 0126 8023     		movs	r3, #128	@ tmp130,
 410              	@ .\src\reb_max11619.c:87: {
  87:.\src/reb_max11619.c **** 	int32_t ret_code = 0; 
 411              		.loc 1 87 0
 412 0128 0400     		movs	r4, r0	@ adc_data, adc_data
 413              	@ .\src\reb_max11619.c:92: 	while( VOR_GPIO->BANK[0].DATAIN & (0x01UL << 14) ); 
 414              		.loc 1 92 0
 415 012a C905     		lsls	r1, r1, #23	@ tmp128, tmp128,
ARM GAS  C:\Users\claym\AppData\Local\Temp\cccJS0kc.s 			page 10


 416 012c DB01     		lsls	r3, r3, #7	@ tmp130, tmp130,
 417              	.L12:
 418              	@ .\src\reb_max11619.c:92: 	while( VOR_GPIO->BANK[0].DATAIN & (0x01UL << 14) ); 
 419              		.loc 1 92 0 is_stmt 0 discriminator 1
 420 012e 0A68     		ldr	r2, [r1]	@ _1, MEM[(struct VOR_GPIO_PERIPHERAL_BANK_Type *)1342177280B].BANK[0].D.4472.DATAIN
 421 0130 1A42     		tst	r2, r3	@ _1, tmp130
 422 0132 FCD1     		bne	.L12	@,
 423              	@ .\src\reb_max11619.c:95: 	if( (ret_code = pSPI->Receive(tmp_val, sizeof(uint16_t))) != 0 )
  93:.\src/reb_max11619.c **** 
  94:.\src/reb_max11619.c **** 	/* Read new sample data from ADC FIFO */   
  95:.\src/reb_max11619.c **** 	if( (ret_code = pSPI->Receive(tmp_val, sizeof(uint16_t))) != 0 )
 424              		.loc 1 95 0 is_stmt 1
 425 0134 074B     		ldr	r3, .L15	@ tmp132,
 426 0136 0221     		movs	r1, #2	@,
 427 0138 1B68     		ldr	r3, [r3]	@ pSPI, pSPI
 428 013a 2800     		movs	r0, r5	@, tmp125
 429              	.LVL24:
 430 013c 1B69     		ldr	r3, [r3, #16]	@ pSPI.15_3->Receive, pSPI.15_3->Receive
 431 013e 9847     		blx	r3	@ pSPI.15_3->Receive
 432              	.LVL25:
 433 0140 0028     		cmp	r0, #0	@ <retval>,
 434 0142 05D1     		bne	.L11	@,
 435              	@ .\src\reb_max11619.c:99: 	*adc_data |= tmp_val[1]>>2; 
  96:.\src/reb_max11619.c **** 		return ret_code; 
  97:.\src/reb_max11619.c **** 	
  98:.\src/reb_max11619.c **** 	*adc_data = 0;
  99:.\src/reb_max11619.c **** 	*adc_data |= tmp_val[1]>>2; 
 436              		.loc 1 99 0
 437 0144 6B78     		ldrb	r3, [r5, #1]	@ tmp136,
 438              	@ .\src\reb_max11619.c:100: 	*adc_data |= ((uint16_t)tmp_val[0])<<6; 
 100:.\src/reb_max11619.c **** 	*adc_data |= ((uint16_t)tmp_val[0])<<6; 
 439              		.loc 1 100 0
 440 0146 2A78     		ldrb	r2, [r5]	@ tmp_val, tmp_val
 441 0148 9B08     		lsrs	r3, r3, #2	@ tmp139, tmp136,
 442 014a 9201     		lsls	r2, r2, #6	@ tmp142, tmp_val,
 443 014c 1343     		orrs	r3, r2	@ tmp144, tmp142
 444 014e 2380     		strh	r3, [r4]	@ tmp144, *adc_data_22(D)
 445              	.L11:
 446              	@ .\src\reb_max11619.c:103: }
 101:.\src/reb_max11619.c **** 
 102:.\src/reb_max11619.c **** 	return 0; 
 103:.\src/reb_max11619.c **** }
 447              		.loc 1 103 0
 448              		@ sp needed	@
 449              	.LVL26:
 450 0150 3EBD     		pop	{r1, r2, r3, r4, r5, pc}
 451              	.L16:
 452 0152 C046     		.align	2
 453              	.L15:
 454 0154 00000000 		.word	.LANCHOR0
 455              		.cfi_endproc
 456              	.LFE37:
 457              		.size	VOR_MAX11619_GetData, .-VOR_MAX11619_GetData
 458              		.bss
 459              		.align	2
 460              		.set	.LANCHOR0,. + 0
 461              		.type	pSPI, %object
ARM GAS  C:\Users\claym\AppData\Local\Temp\cccJS0kc.s 			page 11


 462              		.size	pSPI, 4
 463              	pSPI:
 464 0000 00000000 		.space	4
 465              		.text
 466              	.Letext0:
 467              		.file 2 "c:\\program files (x86)\\gnu tools arm embedded\\7 2017-q4-major\\arm-none-eabi\\include\
 468              		.file 3 "c:\\program files (x86)\\gnu tools arm embedded\\7 2017-q4-major\\arm-none-eabi\\include\
 469              		.file 4 ".\\common\\hdr/va108xx.h"
 470              		.file 5 ".\\driver\\hdr/driver_common.h"
 471              		.file 6 ".\\driver\\hdr/driver_spi.h"
 472              		.file 7 ".\\common\\hdr/system_va108xx.h"